
bin/hello_world.elf:     file format elf32-littleriscv


Disassembly of section .vector_table:

00000000 <.vector_table>:
   0:	0800006f          	j	80 <_reset_handler>
   4:	1240006f          	j	128 <_default_handler>
   8:	1200006f          	j	128 <_default_handler>
   c:	11c0006f          	j	128 <_default_handler>
  10:	1180006f          	j	128 <_default_handler>
  14:	1140006f          	j	128 <_default_handler>
  18:	1100006f          	j	128 <_default_handler>
  1c:	10c0006f          	j	128 <_default_handler>
  20:	1080006f          	j	128 <_default_handler>
  24:	1040006f          	j	128 <_default_handler>
  28:	1000006f          	j	128 <_default_handler>
  2c:	0fc0006f          	j	128 <_default_handler>
  30:	0f80006f          	j	128 <_default_handler>
  34:	0f40006f          	j	128 <_default_handler>
  38:	0f00006f          	j	128 <_default_handler>
  3c:	0ec0006f          	j	128 <_default_handler>
  40:	0e80006f          	j	128 <_default_handler>
  44:	0e40006f          	j	128 <_default_handler>
  48:	0e00006f          	j	128 <_default_handler>
  4c:	0dc0006f          	j	128 <_default_handler>
  50:	0d80006f          	j	128 <_default_handler>
  54:	0d40006f          	j	128 <_default_handler>
  58:	0d00006f          	j	128 <_default_handler>
  5c:	0cc0006f          	j	128 <_default_handler>
  60:	0c80006f          	j	128 <_default_handler>
  64:	0c40006f          	j	128 <_default_handler>
  68:	0c00006f          	j	128 <_default_handler>
  6c:	0bc0006f          	j	128 <_default_handler>
  70:	0b80006f          	j	128 <_default_handler>
  74:	0b40006f          	j	128 <_default_handler>
  78:	0b00006f          	j	128 <_default_handler>
  7c:	0ac0006f          	j	128 <_default_handler>

Disassembly of section .text:

00000080 <_reset_handler>:
      80:	00000093          	li	ra,0
      84:	00000113          	li	sp,0
      88:	00000193          	li	gp,0
      8c:	00000213          	li	tp,0
      90:	00000293          	li	t0,0
      94:	00000313          	li	t1,0
      98:	00000393          	li	t2,0
      9c:	00000413          	li	s0,0
      a0:	00000493          	li	s1,0
      a4:	00000513          	li	a0,0
      a8:	00000593          	li	a1,0
      ac:	00000613          	li	a2,0
      b0:	00000693          	li	a3,0
      b4:	00000713          	li	a4,0
      b8:	00000793          	li	a5,0
      bc:	00000813          	li	a6,0
      c0:	00000893          	li	a7,0
      c4:	00000913          	li	s2,0
      c8:	00000993          	li	s3,0
      cc:	00000a13          	li	s4,0
      d0:	00000a93          	li	s5,0
      d4:	00000b13          	li	s6,0
      d8:	00000b93          	li	s7,0
      dc:	00000c13          	li	s8,0
      e0:	00000c93          	li	s9,0
      e4:	00000d13          	li	s10,0
      e8:	00000d93          	li	s11,0
      ec:	00000e13          	li	t3,0
      f0:	00000e93          	li	t4,0
      f4:	00000f13          	li	t5,0
      f8:	00000f93          	li	t6,0
      fc:	00000513          	li	a0,0
     100:	00100593          	li	a1,1
     104:	00a5e5b3          	or	a1,a1,a0
     108:	30559073          	csrw	mtvec,a1
     10c:	30046073          	csrsi	mstatus,8
     110:	000015b7          	lui	a1,0x1
     114:	88858593          	addi	a1,a1,-1912 # 888 <_vsnprintf+0x1a4>
     118:	3045a073          	csrs	mie,a1
     11c:	00008117          	auipc	sp,0x8
     120:	ee010113          	addi	sp,sp,-288 # 7ffc <_stack_start>
     124:	0080006f          	j	12c <_start>

00000128 <_default_handler>:
     128:	0000006f          	j	128 <_default_handler>

0000012c <_start>:
     12c:	00000293          	li	t0,0
     130:	00020337          	lui	t1,0x20
     134:	20030313          	addi	t1,t1,512 # 20200 <_peripheral_GPIO_out_start>
     138:	00532023          	sw	t0,0(t1)
     13c:	00000513          	li	a0,0
     140:	00000593          	li	a1,0
     144:	01c000ef          	jal	160 <main>
     148:	00100293          	li	t0,1
     14c:	00020337          	lui	t1,0x20
     150:	20030313          	addi	t1,t1,512 # 20200 <_peripheral_GPIO_out_start>
     154:	00532023          	sw	t0,0(t1)

00000158 <_exit_wfi>:
     158:	10500073          	wfi

0000015c <_exit_spin>:
     15c:	0000006f          	j	15c <_exit_spin>

00000160 <main>:
     160:	1101                	addi	sp,sp,-32
     162:	ce06                	sw	ra,28(sp)
     164:	cc22                	sw	s0,24(sp)
     166:	1000                	addi	s0,sp,32
     168:	000207b7          	lui	a5,0x20
     16c:	00078793          	mv	a5,a5
     170:	fef42623          	sw	a5,-20(s0)
     174:	fec42503          	lw	a0,-20(s0)
     178:	705000ef          	jal	107c <tinyIO_init>
     17c:	6785                	lui	a5,0x1
     17e:	10078513          	addi	a0,a5,256 # 1100 <_text_end>
     182:	57b000ef          	jal	efc <printf_>
     186:	a001                	j	186 <main+0x26>

00000188 <_out_buffer>:
     188:	00d67663          	bgeu	a2,a3,194 <_out_buffer+0xc>
     18c:	00c585b3          	add	a1,a1,a2
     190:	00a58023          	sb	a0,0(a1)
     194:	00008067          	ret

00000198 <_out_null>:
     198:	00008067          	ret

0000019c <_ntoa_long>:
     19c:	fb010113          	addi	sp,sp,-80
     1a0:	05412e03          	lw	t3,84(sp)
     1a4:	04912223          	sw	s1,68(sp)
     1a8:	05212023          	sw	s2,64(sp)
     1ac:	03312e23          	sw	s3,60(sp)
     1b0:	03412c23          	sw	s4,56(sp)
     1b4:	03512a23          	sw	s5,52(sp)
     1b8:	04112623          	sw	ra,76(sp)
     1bc:	04812423          	sw	s0,72(sp)
     1c0:	03612823          	sw	s6,48(sp)
     1c4:	03712623          	sw	s7,44(sp)
     1c8:	03812423          	sw	s8,40(sp)
     1cc:	03912223          	sw	s9,36(sp)
     1d0:	05012a83          	lw	s5,80(sp)
     1d4:	00050493          	mv	s1,a0
     1d8:	00058913          	mv	s2,a1
     1dc:	00060a13          	mv	s4,a2
     1e0:	00068993          	mv	s3,a3
     1e4:	400e7f13          	andi	t5,t3,1024
     1e8:	010e7f93          	andi	t6,t3,16
     1ec:	00071a63          	bnez	a4,200 <_ntoa_long+0x64>
     1f0:	fefe7693          	andi	a3,t3,-17
     1f4:	0c0f1863          	bnez	t5,2c4 <_ntoa_long+0x128>
     1f8:	00000f93          	li	t6,0
     1fc:	00068e13          	mv	t3,a3
     200:	020e7693          	andi	a3,t3,32
     204:	06100593          	li	a1,97
     208:	14069463          	bnez	a3,350 <_ntoa_long+0x1b4>
     20c:	00000413          	li	s0,0
     210:	00010b13          	mv	s6,sp
     214:	00900513          	li	a0,9
     218:	ff658593          	addi	a1,a1,-10
     21c:	02000e93          	li	t4,32
     220:	00c0006f          	j	22c <_ntoa_long+0x90>
     224:	03d40c63          	beq	s0,t4,25c <_ntoa_long+0xc0>
     228:	00068713          	mv	a4,a3
     22c:	030776b3          	remu	a3,a4,a6
     230:	0ff6f313          	zext.b	t1,a3
     234:	03030613          	addi	a2,t1,48
     238:	00b30333          	add	t1,t1,a1
     23c:	0ff37313          	zext.b	t1,t1
     240:	00d56463          	bltu	a0,a3,248 <_ntoa_long+0xac>
     244:	0ff67313          	zext.b	t1,a2
     248:	00140413          	addi	s0,s0,1
     24c:	008b06b3          	add	a3,s6,s0
     250:	fe668fa3          	sb	t1,-1(a3)
     254:	030756b3          	divu	a3,a4,a6
     258:	fd0776e3          	bgeu	a4,a6,224 <_ntoa_long+0x88>
     25c:	002e7c13          	andi	s8,t3,2
     260:	060c0c63          	beqz	s8,2d8 <_ntoa_long+0x13c>
     264:	120f8c63          	beqz	t6,39c <_ntoa_long+0x200>
     268:	220f1263          	bnez	t5,48c <_ntoa_long+0x2f0>
     26c:	2a041263          	bnez	s0,510 <_ntoa_long+0x374>
     270:	01000713          	li	a4,16
     274:	3ee80663          	beq	a6,a4,660 <_ntoa_long+0x4c4>
     278:	00200713          	li	a4,2
     27c:	3ee80c63          	beq	a6,a4,674 <_ntoa_long+0x4d8>
     280:	03000713          	li	a4,48
     284:	00e10023          	sb	a4,0(sp)
     288:	000e0693          	mv	a3,t3
     28c:	00100713          	li	a4,1
     290:	0036f613          	andi	a2,a3,3
     294:	24079663          	bnez	a5,4e0 <_ntoa_long+0x344>
     298:	0046f793          	andi	a5,a3,4
     29c:	30078c63          	beqz	a5,5b4 <_ntoa_long+0x418>
     2a0:	02070793          	addi	a5,a4,32
     2a4:	002787b3          	add	a5,a5,sp
     2a8:	00170413          	addi	s0,a4,1
     2ac:	02b00713          	li	a4,43
     2b0:	fee78023          	sb	a4,-32(a5)
     2b4:	000a0b93          	mv	s7,s4
     2b8:	1e061c63          	bnez	a2,4b0 <_ntoa_long+0x314>
     2bc:	0f546a63          	bltu	s0,s5,3b0 <_ntoa_long+0x214>
     2c0:	1f00006f          	j	4b0 <_ntoa_long+0x314>
     2c4:	002e7c13          	andi	s8,t3,2
     2c8:	fc0c14e3          	bnez	s8,290 <_ntoa_long+0xf4>
     2cc:	00000f93          	li	t6,0
     2d0:	00068e13          	mv	t3,a3
     2d4:	00000413          	li	s0,0
     2d8:	180a9263          	bnez	s5,45c <_ntoa_long+0x2c0>
     2dc:	07147463          	bgeu	s0,a7,344 <_ntoa_long+0x1a8>
     2e0:	02000713          	li	a4,32
     2e4:	001e7c13          	andi	s8,t3,1
     2e8:	38e40e63          	beq	s0,a4,684 <_ntoa_long+0x4e8>
     2ec:	00010b13          	mv	s6,sp
     2f0:	03000693          	li	a3,48
     2f4:	02000613          	li	a2,32
     2f8:	0080006f          	j	300 <_ntoa_long+0x164>
     2fc:	04c40e63          	beq	s0,a2,358 <_ntoa_long+0x1bc>
     300:	00140413          	addi	s0,s0,1
     304:	008b0733          	add	a4,s6,s0
     308:	fed70fa3          	sb	a3,-1(a4)
     30c:	ff1468e3          	bltu	s0,a7,2fc <_ntoa_long+0x160>
     310:	f40c0ae3          	beqz	s8,264 <_ntoa_long+0xc8>
     314:	03547863          	bgeu	s0,s5,344 <_ntoa_long+0x1a8>
     318:	02000713          	li	a4,32
     31c:	00010b13          	mv	s6,sp
     320:	03000693          	li	a3,48
     324:	02000613          	li	a2,32
     328:	00e41663          	bne	s0,a4,334 <_ntoa_long+0x198>
     32c:	0340006f          	j	360 <_ntoa_long+0x1c4>
     330:	24c40463          	beq	s0,a2,578 <_ntoa_long+0x3dc>
     334:	00140413          	addi	s0,s0,1
     338:	008b0733          	add	a4,s6,s0
     33c:	fed70fa3          	sb	a3,-1(a4)
     340:	ff5418e3          	bne	s0,s5,330 <_ntoa_long+0x194>
     344:	00000c13          	li	s8,0
     348:	f20f90e3          	bnez	t6,268 <_ntoa_long+0xcc>
     34c:	0500006f          	j	39c <_ntoa_long+0x200>
     350:	04100593          	li	a1,65
     354:	eb9ff06f          	j	20c <_ntoa_long+0x70>
     358:	340c0a63          	beqz	s8,6ac <_ntoa_long+0x510>
     35c:	21547e63          	bgeu	s0,s5,578 <_ntoa_long+0x3dc>
     360:	260f8a63          	beqz	t6,5d4 <_ntoa_long+0x438>
     364:	200f1e63          	bnez	t5,580 <_ntoa_long+0x3e4>
     368:	02000713          	li	a4,32
     36c:	00000c13          	li	s8,0
     370:	02000413          	li	s0,32
     374:	1ae89063          	bne	a7,a4,514 <_ntoa_long+0x378>
     378:	01f00693          	li	a3,31
     37c:	01000713          	li	a4,16
     380:	2ae80a63          	beq	a6,a4,634 <_ntoa_long+0x498>
     384:	00200713          	li	a4,2
     388:	30e80263          	beq	a6,a4,68c <_ntoa_long+0x4f0>
     38c:	02068713          	addi	a4,a3,32
     390:	002706b3          	add	a3,a4,sp
     394:	03000713          	li	a4,48
     398:	fee68023          	sb	a4,-32(a3)
     39c:	02000713          	li	a4,32
     3a0:	24e41063          	bne	s0,a4,5e0 <_ntoa_long+0x444>
     3a4:	003e7e13          	andi	t3,t3,3
     3a8:	100e1263          	bnez	t3,4ac <_ntoa_long+0x310>
     3ac:	11547063          	bgeu	s0,s5,4ac <_ntoa_long+0x310>
     3b0:	000a0b13          	mv	s6,s4
     3b4:	41440bb3          	sub	s7,s0,s4
     3b8:	000b0613          	mv	a2,s6
     3bc:	00098693          	mv	a3,s3
     3c0:	00090593          	mv	a1,s2
     3c4:	02000513          	li	a0,32
     3c8:	001b0b13          	addi	s6,s6,1
     3cc:	000480e7          	jalr	s1
     3d0:	016b87b3          	add	a5,s7,s6
     3d4:	ff57e2e3          	bltu	a5,s5,3b8 <_ntoa_long+0x21c>
     3d8:	00140793          	addi	a5,s0,1
     3dc:	00000b93          	li	s7,0
     3e0:	00fae663          	bltu	s5,a5,3ec <_ntoa_long+0x250>
     3e4:	fffa8b93          	addi	s7,s5,-1
     3e8:	408b8bb3          	sub	s7,s7,s0
     3ec:	001a0793          	addi	a5,s4,1
     3f0:	00fb8bb3          	add	s7,s7,a5
     3f4:	0a041e63          	bnez	s0,4b0 <_ntoa_long+0x314>
     3f8:	020c0663          	beqz	s8,424 <_ntoa_long+0x288>
     3fc:	414b8a33          	sub	s4,s7,s4
     400:	035a7263          	bgeu	s4,s5,424 <_ntoa_long+0x288>
     404:	000b8613          	mv	a2,s7
     408:	001a0a13          	addi	s4,s4,1
     40c:	00098693          	mv	a3,s3
     410:	00090593          	mv	a1,s2
     414:	02000513          	li	a0,32
     418:	001b8b93          	addi	s7,s7,1
     41c:	000480e7          	jalr	s1
     420:	ff5a62e3          	bltu	s4,s5,404 <_ntoa_long+0x268>
     424:	04c12083          	lw	ra,76(sp)
     428:	04812403          	lw	s0,72(sp)
     42c:	04412483          	lw	s1,68(sp)
     430:	04012903          	lw	s2,64(sp)
     434:	03c12983          	lw	s3,60(sp)
     438:	03812a03          	lw	s4,56(sp)
     43c:	03412a83          	lw	s5,52(sp)
     440:	03012b03          	lw	s6,48(sp)
     444:	02812c03          	lw	s8,40(sp)
     448:	02412c83          	lw	s9,36(sp)
     44c:	000b8513          	mv	a0,s7
     450:	02c12b83          	lw	s7,44(sp)
     454:	05010113          	addi	sp,sp,80
     458:	00008067          	ret
     45c:	001e7c13          	andi	s8,t3,1
     460:	080c0c63          	beqz	s8,4f8 <_ntoa_long+0x35c>
     464:	10079663          	bnez	a5,570 <_ntoa_long+0x3d4>
     468:	00ce7713          	andi	a4,t3,12
     46c:	10071263          	bnez	a4,570 <_ntoa_long+0x3d4>
     470:	eb1472e3          	bgeu	s0,a7,314 <_ntoa_long+0x178>
     474:	02000713          	li	a4,32
     478:	e6e41ae3          	bne	s0,a4,2ec <_ntoa_long+0x150>
     47c:	ef5462e3          	bltu	s0,s5,360 <_ntoa_long+0x1c4>
     480:	220f8e63          	beqz	t6,6bc <_ntoa_long+0x520>
     484:	00000c13          	li	s8,0
     488:	de0f02e3          	beqz	t5,26c <_ntoa_long+0xd0>
     48c:	01000693          	li	a3,16
     490:	003e7713          	andi	a4,t3,3
     494:	0ed80c63          	beq	a6,a3,58c <_ntoa_long+0x3f0>
     498:	00200693          	li	a3,2
     49c:	0ad80863          	beq	a6,a3,54c <_ntoa_long+0x3b0>
     4a0:	02000693          	li	a3,32
     4a4:	1ad41863          	bne	s0,a3,654 <_ntoa_long+0x4b8>
     4a8:	f00702e3          	beqz	a4,3ac <_ntoa_long+0x210>
     4ac:	000a0b93          	mv	s7,s4
     4b0:	00010b13          	mv	s6,sp
     4b4:	008b8cb3          	add	s9,s7,s0
     4b8:	008b07b3          	add	a5,s6,s0
     4bc:	fff7c503          	lbu	a0,-1(a5)
     4c0:	408c8633          	sub	a2,s9,s0
     4c4:	00098693          	mv	a3,s3
     4c8:	fff40413          	addi	s0,s0,-1
     4cc:	00090593          	mv	a1,s2
     4d0:	000c8b93          	mv	s7,s9
     4d4:	000480e7          	jalr	s1
     4d8:	fe0410e3          	bnez	s0,4b8 <_ntoa_long+0x31c>
     4dc:	f1dff06f          	j	3f8 <_ntoa_long+0x25c>
     4e0:	02070793          	addi	a5,a4,32
     4e4:	002787b3          	add	a5,a5,sp
     4e8:	00170413          	addi	s0,a4,1
     4ec:	02d00713          	li	a4,45
     4f0:	fee78023          	sb	a4,-32(a5)
     4f4:	dc1ff06f          	j	2b4 <_ntoa_long+0x118>
     4f8:	d71476e3          	bgeu	s0,a7,264 <_ntoa_long+0xc8>
     4fc:	02000713          	li	a4,32
     500:	dee416e3          	bne	s0,a4,2ec <_ntoa_long+0x150>
     504:	1a0f8c63          	beqz	t6,6bc <_ntoa_long+0x520>
     508:	00000c13          	li	s8,0
     50c:	f80f10e3          	bnez	t5,48c <_ntoa_long+0x2f0>
     510:	00888463          	beq	a7,s0,518 <_ntoa_long+0x37c>
     514:	f68a9ce3          	bne	s5,s0,48c <_ntoa_long+0x2f0>
     518:	fff40693          	addi	a3,s0,-1
     51c:	e60690e3          	bnez	a3,37c <_ntoa_long+0x1e0>
     520:	01000713          	li	a4,16
     524:	d4e81ae3          	bne	a6,a4,278 <_ntoa_long+0xdc>
     528:	fffe4713          	not	a4,t3
     52c:	02077713          	andi	a4,a4,32
     530:	05870713          	addi	a4,a4,88
     534:	00e10023          	sb	a4,0(sp)
     538:	03000713          	li	a4,48
     53c:	00e100a3          	sb	a4,1(sp)
     540:	000e0693          	mv	a3,t3
     544:	00200713          	li	a4,2
     548:	d49ff06f          	j	290 <_ntoa_long+0xf4>
     54c:	02000693          	li	a3,32
     550:	f4d40ce3          	beq	s0,a3,4a8 <_ntoa_long+0x30c>
     554:	00040693          	mv	a3,s0
     558:	00140413          	addi	s0,s0,1
     55c:	02068693          	addi	a3,a3,32
     560:	002686b3          	add	a3,a3,sp
     564:	06200613          	li	a2,98
     568:	fec68023          	sb	a2,-32(a3)
     56c:	f35ff06f          	j	4a0 <_ntoa_long+0x304>
     570:	fffa8a93          	addi	s5,s5,-1
     574:	efdff06f          	j	470 <_ntoa_long+0x2d4>
     578:	040f8e63          	beqz	t6,5d4 <_ntoa_long+0x438>
     57c:	0a0f0463          	beqz	t5,624 <_ntoa_long+0x488>
     580:	00000c13          	li	s8,0
     584:	02000413          	li	s0,32
     588:	f05ff06f          	j	48c <_ntoa_long+0x2f0>
     58c:	020e7693          	andi	a3,t3,32
     590:	04068e63          	beqz	a3,5ec <_ntoa_long+0x450>
     594:	02000693          	li	a3,32
     598:	f0d408e3          	beq	s0,a3,4a8 <_ntoa_long+0x30c>
     59c:	02040693          	addi	a3,s0,32
     5a0:	002686b3          	add	a3,a3,sp
     5a4:	05800613          	li	a2,88
     5a8:	fec68023          	sb	a2,-32(a3)
     5ac:	00140413          	addi	s0,s0,1
     5b0:	ef1ff06f          	j	4a0 <_ntoa_long+0x304>
     5b4:	0086f693          	andi	a3,a3,8
     5b8:	04069a63          	bnez	a3,60c <_ntoa_long+0x470>
     5bc:	00070413          	mv	s0,a4
     5c0:	00061463          	bnez	a2,5c8 <_ntoa_long+0x42c>
     5c4:	df5766e3          	bltu	a4,s5,3b0 <_ntoa_long+0x214>
     5c8:	000a0b93          	mv	s7,s4
     5cc:	ee0412e3          	bnez	s0,4b0 <_ntoa_long+0x314>
     5d0:	e29ff06f          	j	3f8 <_ntoa_long+0x25c>
     5d4:	00000c13          	li	s8,0
     5d8:	02000413          	li	s0,32
     5dc:	dc9ff06f          	j	3a4 <_ntoa_long+0x208>
     5e0:	000e0693          	mv	a3,t3
     5e4:	00040713          	mv	a4,s0
     5e8:	ca9ff06f          	j	290 <_ntoa_long+0xf4>
     5ec:	02000693          	li	a3,32
     5f0:	ead40ce3          	beq	s0,a3,4a8 <_ntoa_long+0x30c>
     5f4:	02040693          	addi	a3,s0,32
     5f8:	002686b3          	add	a3,a3,sp
     5fc:	07800613          	li	a2,120
     600:	fec68023          	sb	a2,-32(a3)
     604:	00140413          	addi	s0,s0,1
     608:	e99ff06f          	j	4a0 <_ntoa_long+0x304>
     60c:	02070793          	addi	a5,a4,32
     610:	002787b3          	add	a5,a5,sp
     614:	00170413          	addi	s0,a4,1
     618:	02000713          	li	a4,32
     61c:	fee78023          	sb	a4,-32(a5)
     620:	c95ff06f          	j	2b4 <_ntoa_long+0x118>
     624:	02000413          	li	s0,32
     628:	00000c13          	li	s8,0
     62c:	ee8894e3          	bne	a7,s0,514 <_ntoa_long+0x378>
     630:	ee9ff06f          	j	518 <_ntoa_long+0x37c>
     634:	020e7713          	andi	a4,t3,32
     638:	ffe40413          	addi	s0,s0,-2
     63c:	04071c63          	bnez	a4,694 <_ntoa_long+0x4f8>
     640:	02040713          	addi	a4,s0,32
     644:	00270433          	add	s0,a4,sp
     648:	07800713          	li	a4,120
     64c:	fee40023          	sb	a4,-32(s0)
     650:	00068413          	mv	s0,a3
     654:	00040693          	mv	a3,s0
     658:	00140413          	addi	s0,s0,1
     65c:	d31ff06f          	j	38c <_ntoa_long+0x1f0>
     660:	020e7713          	andi	a4,t3,32
     664:	00070c63          	beqz	a4,67c <_ntoa_long+0x4e0>
     668:	05800713          	li	a4,88
     66c:	00e10023          	sb	a4,0(sp)
     670:	ec9ff06f          	j	538 <_ntoa_long+0x39c>
     674:	06200713          	li	a4,98
     678:	ebdff06f          	j	534 <_ntoa_long+0x398>
     67c:	07800713          	li	a4,120
     680:	eb5ff06f          	j	534 <_ntoa_long+0x398>
     684:	de0c1ee3          	bnez	s8,480 <_ntoa_long+0x2e4>
     688:	e7dff06f          	j	504 <_ntoa_long+0x368>
     68c:	003e7713          	andi	a4,t3,3
     690:	ecdff06f          	j	55c <_ntoa_long+0x3c0>
     694:	02040713          	addi	a4,s0,32
     698:	00270433          	add	s0,a4,sp
     69c:	05800713          	li	a4,88
     6a0:	fee40023          	sb	a4,-32(s0)
     6a4:	00068413          	mv	s0,a3
     6a8:	fadff06f          	j	654 <_ntoa_long+0x4b8>
     6ac:	ce0f8ce3          	beqz	t6,3a4 <_ntoa_long+0x208>
     6b0:	dc0f1ee3          	bnez	t5,48c <_ntoa_long+0x2f0>
     6b4:	dc8a9ce3          	bne	s5,s0,48c <_ntoa_long+0x2f0>
     6b8:	e61ff06f          	j	518 <_ntoa_long+0x37c>
     6bc:	00000c13          	li	s8,0
     6c0:	ce5ff06f          	j	3a4 <_ntoa_long+0x208>

000006c4 <_out_char>:
     6c4:	00051463          	bnez	a0,6cc <_out_char+0x8>
     6c8:	00008067          	ret
     6cc:	1f90006f          	j	10c4 <uart_send_char>

000006d0 <_out_fct>:
     6d0:	00050863          	beqz	a0,6e0 <_out_fct+0x10>
     6d4:	0005a783          	lw	a5,0(a1)
     6d8:	0045a583          	lw	a1,4(a1)
     6dc:	00078067          	jr	a5
     6e0:	00008067          	ret

000006e4 <_vsnprintf>:
     6e4:	fa010113          	addi	sp,sp,-96
     6e8:	05312623          	sw	s3,76(sp)
     6ec:	05412423          	sw	s4,72(sp)
     6f0:	05512223          	sw	s5,68(sp)
     6f4:	03812c23          	sw	s8,56(sp)
     6f8:	03a12823          	sw	s10,48(sp)
     6fc:	04112e23          	sw	ra,92(sp)
     700:	04812c23          	sw	s0,88(sp)
     704:	04912a23          	sw	s1,84(sp)
     708:	05212823          	sw	s2,80(sp)
     70c:	05612023          	sw	s6,64(sp)
     710:	03712e23          	sw	s7,60(sp)
     714:	03912a23          	sw	s9,52(sp)
     718:	03b12623          	sw	s11,44(sp)
     71c:	00058a13          	mv	s4,a1
     720:	00060993          	mv	s3,a2
     724:	00068c13          	mv	s8,a3
     728:	00070d13          	mv	s10,a4
     72c:	00050a93          	mv	s5,a0
     730:	46058863          	beqz	a1,ba0 <_vsnprintf+0x4bc>
     734:	000c4503          	lbu	a0,0(s8)
     738:	00000d93          	li	s11,0
     73c:	46050a63          	beqz	a0,bb0 <_vsnprintf+0x4cc>
     740:	001217b7          	lui	a5,0x121
     744:	00001b37          	lui	s6,0x1
     748:	82178793          	addi	a5,a5,-2015 # 120821 <_peripheral_HLS_CONTROL_end+0xe0821>
     74c:	01000913          	li	s2,16
     750:	110b0b13          	addi	s6,s6,272 # 1110 <_text_end+0x10>
     754:	00f12a23          	sw	a5,20(sp)
     758:	0200006f          	j	778 <_vsnprintf+0x94>
     75c:	000d8613          	mv	a2,s11
     760:	00098693          	mv	a3,s3
     764:	000a0593          	mv	a1,s4
     768:	001d8d93          	addi	s11,s11,1
     76c:	000a80e7          	jalr	s5
     770:	000c4503          	lbu	a0,0(s8)
     774:	10050063          	beqz	a0,874 <_vsnprintf+0x190>
     778:	02500793          	li	a5,37
     77c:	001c0c13          	addi	s8,s8,1
     780:	fcf51ee3          	bne	a0,a5,75c <_vsnprintf+0x78>
     784:	00000413          	li	s0,0
     788:	000c4503          	lbu	a0,0(s8)
     78c:	001c0713          	addi	a4,s8,1
     790:	fe050793          	addi	a5,a0,-32
     794:	0ff7f793          	zext.b	a5,a5
     798:	00f96a63          	bltu	s2,a5,7ac <_vsnprintf+0xc8>
     79c:	00279793          	slli	a5,a5,0x2
     7a0:	016787b3          	add	a5,a5,s6
     7a4:	0007a783          	lw	a5,0(a5)
     7a8:	00078067          	jr	a5
     7ac:	fd050793          	addi	a5,a0,-48
     7b0:	0ff7f793          	zext.b	a5,a5
     7b4:	00900693          	li	a3,9
     7b8:	24f6fe63          	bgeu	a3,a5,a14 <_vsnprintf+0x330>
     7bc:	02a00793          	li	a5,42
     7c0:	00000b93          	li	s7,0
     7c4:	2ef50663          	beq	a0,a5,ab0 <_vsnprintf+0x3cc>
     7c8:	02e00793          	li	a5,46
     7cc:	00000c93          	li	s9,0
     7d0:	28f50263          	beq	a0,a5,a54 <_vsnprintf+0x370>
     7d4:	06c00793          	li	a5,108
     7d8:	00070693          	mv	a3,a4
     7dc:	2af50863          	beq	a0,a5,a8c <_vsnprintf+0x3a8>
     7e0:	2aa7ee63          	bltu	a5,a0,a9c <_vsnprintf+0x3b8>
     7e4:	06800793          	li	a5,104
     7e8:	2ef50e63          	beq	a0,a5,ae4 <_vsnprintf+0x400>
     7ec:	06a00793          	li	a5,106
     7f0:	6ef51463          	bne	a0,a5,ed8 <_vsnprintf+0x7f4>
     7f4:	001c4503          	lbu	a0,1(s8)
     7f8:	20046413          	ori	s0,s0,512
     7fc:	07800793          	li	a5,120
     800:	00168c13          	addi	s8,a3,1
     804:	f4a7ece3          	bltu	a5,a0,75c <_vsnprintf+0x78>
     808:	06300793          	li	a5,99
     80c:	10a7e863          	bltu	a5,a0,91c <_vsnprintf+0x238>
     810:	06200713          	li	a4,98
     814:	50e50a63          	beq	a0,a4,d28 <_vsnprintf+0x644>
     818:	16f51663          	bne	a0,a5,984 <_vsnprintf+0x2a0>
     81c:	00247413          	andi	s0,s0,2
     820:	004d0493          	addi	s1,s10,4
     824:	001d8c93          	addi	s9,s11,1
     828:	40040663          	beqz	s0,c34 <_vsnprintf+0x550>
     82c:	000d4503          	lbu	a0,0(s10)
     830:	000d8613          	mv	a2,s11
     834:	00098693          	mv	a3,s3
     838:	000a0593          	mv	a1,s4
     83c:	000a80e7          	jalr	s5
     840:	00100793          	li	a5,1
     844:	017d8db3          	add	s11,s11,s7
     848:	5577f263          	bgeu	a5,s7,d8c <_vsnprintf+0x6a8>
     84c:	000c8613          	mv	a2,s9
     850:	00098693          	mv	a3,s3
     854:	001c8c93          	addi	s9,s9,1
     858:	000a0593          	mv	a1,s4
     85c:	02000513          	li	a0,32
     860:	000a80e7          	jalr	s5
     864:	ffbc94e3          	bne	s9,s11,84c <_vsnprintf+0x168>
     868:	00048d13          	mv	s10,s1
     86c:	000c4503          	lbu	a0,0(s8)
     870:	f00514e3          	bnez	a0,778 <_vsnprintf+0x94>
     874:	000d8413          	mv	s0,s11
     878:	013de463          	bltu	s11,s3,880 <_vsnprintf+0x19c>
     87c:	fff98d93          	addi	s11,s3,-1
     880:	00098693          	mv	a3,s3
     884:	000d8613          	mv	a2,s11
     888:	000a0593          	mv	a1,s4
     88c:	00000513          	li	a0,0
     890:	000a80e7          	jalr	s5
     894:	05c12083          	lw	ra,92(sp)
     898:	00040513          	mv	a0,s0
     89c:	05812403          	lw	s0,88(sp)
     8a0:	05412483          	lw	s1,84(sp)
     8a4:	05012903          	lw	s2,80(sp)
     8a8:	04c12983          	lw	s3,76(sp)
     8ac:	04812a03          	lw	s4,72(sp)
     8b0:	04412a83          	lw	s5,68(sp)
     8b4:	04012b03          	lw	s6,64(sp)
     8b8:	03c12b83          	lw	s7,60(sp)
     8bc:	03812c03          	lw	s8,56(sp)
     8c0:	03412c83          	lw	s9,52(sp)
     8c4:	03012d03          	lw	s10,48(sp)
     8c8:	02c12d83          	lw	s11,44(sp)
     8cc:	06010113          	addi	sp,sp,96
     8d0:	00008067          	ret
     8d4:	00146413          	ori	s0,s0,1
     8d8:	00070c13          	mv	s8,a4
     8dc:	eadff06f          	j	788 <_vsnprintf+0xa4>
     8e0:	00246413          	ori	s0,s0,2
     8e4:	00070c13          	mv	s8,a4
     8e8:	ea1ff06f          	j	788 <_vsnprintf+0xa4>
     8ec:	00446413          	ori	s0,s0,4
     8f0:	00070c13          	mv	s8,a4
     8f4:	e95ff06f          	j	788 <_vsnprintf+0xa4>
     8f8:	01046413          	ori	s0,s0,16
     8fc:	00070c13          	mv	s8,a4
     900:	e89ff06f          	j	788 <_vsnprintf+0xa4>
     904:	00846413          	ori	s0,s0,8
     908:	00070c13          	mv	s8,a4
     90c:	e7dff06f          	j	788 <_vsnprintf+0xa4>
     910:	07800793          	li	a5,120
     914:	00070c13          	mv	s8,a4
     918:	e4a7e2e3          	bltu	a5,a0,75c <_vsnprintf+0x78>
     91c:	f9c50793          	addi	a5,a0,-100
     920:	00100493          	li	s1,1
     924:	00f494b3          	sll	s1,s1,a5
     928:	01412783          	lw	a5,20(sp)
     92c:	00f4f4b3          	and	s1,s1,a5
     930:	46049463          	bnez	s1,d98 <_vsnprintf+0x6b4>
     934:	07300793          	li	a5,115
     938:	1af50e63          	beq	a0,a5,af4 <_vsnprintf+0x410>
     93c:	07000793          	li	a5,112
     940:	e0f51ee3          	bne	a0,a5,75c <_vsnprintf+0x78>
     944:	000d2703          	lw	a4,0(s10)
     948:	00800793          	li	a5,8
     94c:	02146413          	ori	s0,s0,33
     950:	000d8613          	mv	a2,s11
     954:	00f12023          	sw	a5,0(sp)
     958:	00812223          	sw	s0,4(sp)
     95c:	000c8893          	mv	a7,s9
     960:	01000813          	li	a6,16
     964:	00000793          	li	a5,0
     968:	00098693          	mv	a3,s3
     96c:	000a0593          	mv	a1,s4
     970:	000a8513          	mv	a0,s5
     974:	829ff0ef          	jal	19c <_ntoa_long>
     978:	004d0d13          	addi	s10,s10,4
     97c:	00050d93          	mv	s11,a0
     980:	df1ff06f          	j	770 <_vsnprintf+0x8c>
     984:	02500793          	li	a5,37
     988:	02f51063          	bne	a0,a5,9a8 <_vsnprintf+0x2c4>
     98c:	000d8613          	mv	a2,s11
     990:	00098693          	mv	a3,s3
     994:	000a0593          	mv	a1,s4
     998:	02500513          	li	a0,37
     99c:	001d8d93          	addi	s11,s11,1
     9a0:	000a80e7          	jalr	s5
     9a4:	dcdff06f          	j	770 <_vsnprintf+0x8c>
     9a8:	05800793          	li	a5,88
     9ac:	daf518e3          	bne	a0,a5,75c <_vsnprintf+0x78>
     9b0:	40047793          	andi	a5,s0,1024
     9b4:	38078a63          	beqz	a5,d48 <_vsnprintf+0x664>
     9b8:	ff247413          	andi	s0,s0,-14
     9bc:	02046413          	ori	s0,s0,32
     9c0:	01000813          	li	a6,16
     9c4:	20047793          	andi	a5,s0,512
     9c8:	da0794e3          	bnez	a5,770 <_vsnprintf+0x8c>
     9cc:	10047793          	andi	a5,s0,256
     9d0:	004d0493          	addi	s1,s10,4
     9d4:	38079263          	bnez	a5,d58 <_vsnprintf+0x674>
     9d8:	04047793          	andi	a5,s0,64
     9dc:	38078263          	beqz	a5,d60 <_vsnprintf+0x67c>
     9e0:	000d4703          	lbu	a4,0(s10)
     9e4:	000d8613          	mv	a2,s11
     9e8:	00812223          	sw	s0,4(sp)
     9ec:	01712023          	sw	s7,0(sp)
     9f0:	000c8893          	mv	a7,s9
     9f4:	00000793          	li	a5,0
     9f8:	00098693          	mv	a3,s3
     9fc:	000a0593          	mv	a1,s4
     a00:	000a8513          	mv	a0,s5
     a04:	f98ff0ef          	jal	19c <_ntoa_long>
     a08:	00050d93          	mv	s11,a0
     a0c:	00048d13          	mv	s10,s1
     a10:	d61ff06f          	j	770 <_vsnprintf+0x8c>
     a14:	00000b93          	li	s7,0
     a18:	002b9793          	slli	a5,s7,0x2
     a1c:	017787b3          	add	a5,a5,s7
     a20:	00179793          	slli	a5,a5,0x1
     a24:	00a787b3          	add	a5,a5,a0
     a28:	00074503          	lbu	a0,0(a4)
     a2c:	fd078b93          	addi	s7,a5,-48
     a30:	00900693          	li	a3,9
     a34:	fd050793          	addi	a5,a0,-48
     a38:	0ff7f793          	zext.b	a5,a5
     a3c:	00070c13          	mv	s8,a4
     a40:	00170713          	addi	a4,a4,1
     a44:	fcf6fae3          	bgeu	a3,a5,a18 <_vsnprintf+0x334>
     a48:	02e00793          	li	a5,46
     a4c:	00000c93          	li	s9,0
     a50:	d8f512e3          	bne	a0,a5,7d4 <_vsnprintf+0xf0>
     a54:	001c4503          	lbu	a0,1(s8)
     a58:	00900613          	li	a2,9
     a5c:	00070693          	mv	a3,a4
     a60:	fd050793          	addi	a5,a0,-48
     a64:	0ff7f793          	zext.b	a5,a5
     a68:	40046413          	ori	s0,s0,1024
     a6c:	14f67863          	bgeu	a2,a5,bbc <_vsnprintf+0x4d8>
     a70:	02a00793          	li	a5,42
     a74:	18f50663          	beq	a0,a5,c00 <_vsnprintf+0x51c>
     a78:	00070c13          	mv	s8,a4
     a7c:	06c00793          	li	a5,108
     a80:	00170713          	addi	a4,a4,1
     a84:	00070693          	mv	a3,a4
     a88:	d4f51ce3          	bne	a0,a5,7e0 <_vsnprintf+0xfc>
     a8c:	001c4503          	lbu	a0,1(s8)
     a90:	18f50a63          	beq	a0,a5,c24 <_vsnprintf+0x540>
     a94:	10046413          	ori	s0,s0,256
     a98:	d65ff06f          	j	7fc <_vsnprintf+0x118>
     a9c:	07a00793          	li	a5,122
     aa0:	e6f518e3          	bne	a0,a5,910 <_vsnprintf+0x22c>
     aa4:	001c4503          	lbu	a0,1(s8)
     aa8:	10046413          	ori	s0,s0,256
     aac:	d51ff06f          	j	7fc <_vsnprintf+0x118>
     ab0:	000d2b83          	lw	s7,0(s10)
     ab4:	004d0d13          	addi	s10,s10,4
     ab8:	000bca63          	bltz	s7,acc <_vsnprintf+0x3e8>
     abc:	001c4503          	lbu	a0,1(s8)
     ac0:	00070c13          	mv	s8,a4
     ac4:	00170713          	addi	a4,a4,1
     ac8:	d01ff06f          	j	7c8 <_vsnprintf+0xe4>
     acc:	001c4503          	lbu	a0,1(s8)
     ad0:	00246413          	ori	s0,s0,2
     ad4:	00070c13          	mv	s8,a4
     ad8:	41700bb3          	neg	s7,s7
     adc:	00170713          	addi	a4,a4,1
     ae0:	ce9ff06f          	j	7c8 <_vsnprintf+0xe4>
     ae4:	001c4503          	lbu	a0,1(s8)
     ae8:	1ef50663          	beq	a0,a5,cd4 <_vsnprintf+0x5f0>
     aec:	08046413          	ori	s0,s0,128
     af0:	d0dff06f          	j	7fc <_vsnprintf+0x118>
     af4:	000d2783          	lw	a5,0(s10)
     af8:	004d0713          	addi	a4,s10,4
     afc:	00e12c23          	sw	a4,24(sp)
     b00:	0007c683          	lbu	a3,0(a5)
     b04:	00f12823          	sw	a5,16(sp)
     b08:	00068513          	mv	a0,a3
     b0c:	0e0c9463          	bnez	s9,bf4 <_vsnprintf+0x510>
     b10:	ffe00713          	li	a4,-2
     b14:	02068663          	beqz	a3,b40 <_vsnprintf+0x45c>
     b18:	01012483          	lw	s1,16(sp)
     b1c:	00170713          	addi	a4,a4,1
     b20:	00e48733          	add	a4,s1,a4
     b24:	0080006f          	j	b2c <_vsnprintf+0x448>
     b28:	1a970063          	beq	a4,s1,cc8 <_vsnprintf+0x5e4>
     b2c:	0014c783          	lbu	a5,1(s1)
     b30:	00148493          	addi	s1,s1,1
     b34:	fe079ae3          	bnez	a5,b28 <_vsnprintf+0x444>
     b38:	01012783          	lw	a5,16(sp)
     b3c:	40f484b3          	sub	s1,s1,a5
     b40:	40047d13          	andi	s10,s0,1024
     b44:	000d0663          	beqz	s10,b50 <_vsnprintf+0x46c>
     b48:	009cf463          	bgeu	s9,s1,b50 <_vsnprintf+0x46c>
     b4c:	000c8493          	mv	s1,s9
     b50:	00247793          	andi	a5,s0,2
     b54:	00f12e23          	sw	a5,28(sp)
     b58:	18078663          	beqz	a5,ce4 <_vsnprintf+0x600>
     b5c:	12068c63          	beqz	a3,c94 <_vsnprintf+0x5b0>
     b60:	000d8613          	mv	a2,s11
     b64:	000d0863          	beqz	s10,b74 <_vsnprintf+0x490>
     b68:	fffc8793          	addi	a5,s9,-1
     b6c:	100c8c63          	beqz	s9,c84 <_vsnprintf+0x5a0>
     b70:	00078c93          	mv	s9,a5
     b74:	00098693          	mv	a3,s3
     b78:	000a0593          	mv	a1,s4
     b7c:	00160413          	addi	s0,a2,1
     b80:	000a80e7          	jalr	s5
     b84:	01012703          	lw	a4,16(sp)
     b88:	41b407b3          	sub	a5,s0,s11
     b8c:	00f707b3          	add	a5,a4,a5
     b90:	0007c503          	lbu	a0,0(a5)
     b94:	0e050a63          	beqz	a0,c88 <_vsnprintf+0x5a4>
     b98:	00040613          	mv	a2,s0
     b9c:	fc9ff06f          	j	b64 <_vsnprintf+0x480>
     ba0:	000c4503          	lbu	a0,0(s8)
     ba4:	19800a93          	li	s5,408
     ba8:	00000d93          	li	s11,0
     bac:	b8051ae3          	bnez	a0,740 <_vsnprintf+0x5c>
     bb0:	00000413          	li	s0,0
     bb4:	cd3de6e3          	bltu	s11,s3,880 <_vsnprintf+0x19c>
     bb8:	cc5ff06f          	j	87c <_vsnprintf+0x198>
     bbc:	00900713          	li	a4,9
     bc0:	002c9793          	slli	a5,s9,0x2
     bc4:	019787b3          	add	a5,a5,s9
     bc8:	00168693          	addi	a3,a3,1
     bcc:	00179793          	slli	a5,a5,0x1
     bd0:	00a787b3          	add	a5,a5,a0
     bd4:	0006c503          	lbu	a0,0(a3)
     bd8:	fd078c93          	addi	s9,a5,-48
     bdc:	fd050793          	addi	a5,a0,-48
     be0:	0ff7f793          	zext.b	a5,a5
     be4:	fcf77ee3          	bgeu	a4,a5,bc0 <_vsnprintf+0x4dc>
     be8:	00068c13          	mv	s8,a3
     bec:	00168713          	addi	a4,a3,1
     bf0:	be5ff06f          	j	7d4 <_vsnprintf+0xf0>
     bf4:	f40686e3          	beqz	a3,b40 <_vsnprintf+0x45c>
     bf8:	fffc8713          	addi	a4,s9,-1
     bfc:	f1dff06f          	j	b18 <_vsnprintf+0x434>
     c00:	000d2c83          	lw	s9,0(s10)
     c04:	002c4503          	lbu	a0,2(s8)
     c08:	002c0c13          	addi	s8,s8,2
     c0c:	fffcc793          	not	a5,s9
     c10:	41f7d793          	srai	a5,a5,0x1f
     c14:	00fcfcb3          	and	s9,s9,a5
     c18:	004d0d13          	addi	s10,s10,4
     c1c:	001c0713          	addi	a4,s8,1
     c20:	bb5ff06f          	j	7d4 <_vsnprintf+0xf0>
     c24:	002c4503          	lbu	a0,2(s8)
     c28:	30046413          	ori	s0,s0,768
     c2c:	002c0693          	addi	a3,s8,2
     c30:	bcdff06f          	j	7fc <_vsnprintf+0x118>
     c34:	00100793          	li	a5,1
     c38:	1577f063          	bgeu	a5,s7,d78 <_vsnprintf+0x694>
     c3c:	fffd8413          	addi	s0,s11,-1
     c40:	01740433          	add	s0,s0,s7
     c44:	000d8c93          	mv	s9,s11
     c48:	000c8613          	mv	a2,s9
     c4c:	00098693          	mv	a3,s3
     c50:	001c8c93          	addi	s9,s9,1
     c54:	000a0593          	mv	a1,s4
     c58:	02000513          	li	a0,32
     c5c:	000a80e7          	jalr	s5
     c60:	ff9414e3          	bne	s0,s9,c48 <_vsnprintf+0x564>
     c64:	000d4503          	lbu	a0,0(s10)
     c68:	00098693          	mv	a3,s3
     c6c:	00040613          	mv	a2,s0
     c70:	000a0593          	mv	a1,s4
     c74:	017d8db3          	add	s11,s11,s7
     c78:	000a80e7          	jalr	s5
     c7c:	00048d13          	mv	s10,s1
     c80:	bedff06f          	j	86c <_vsnprintf+0x188>
     c84:	00060413          	mv	s0,a2
     c88:	01c12783          	lw	a5,28(sp)
     c8c:	02078863          	beqz	a5,cbc <_vsnprintf+0x5d8>
     c90:	00040d93          	mv	s11,s0
     c94:	0974f663          	bgeu	s1,s7,d20 <_vsnprintf+0x63c>
     c98:	01bb8733          	add	a4,s7,s11
     c9c:	40970433          	sub	s0,a4,s1
     ca0:	000d8613          	mv	a2,s11
     ca4:	00098693          	mv	a3,s3
     ca8:	001d8d93          	addi	s11,s11,1
     cac:	000a0593          	mv	a1,s4
     cb0:	02000513          	li	a0,32
     cb4:	000a80e7          	jalr	s5
     cb8:	ffb414e3          	bne	s0,s11,ca0 <_vsnprintf+0x5bc>
     cbc:	01812d03          	lw	s10,24(sp)
     cc0:	00040d93          	mv	s11,s0
     cc4:	aadff06f          	j	770 <_vsnprintf+0x8c>
     cc8:	01012783          	lw	a5,16(sp)
     ccc:	40f704b3          	sub	s1,a4,a5
     cd0:	e71ff06f          	j	b40 <_vsnprintf+0x45c>
     cd4:	002c4503          	lbu	a0,2(s8)
     cd8:	0c046413          	ori	s0,s0,192
     cdc:	002c0693          	addi	a3,s8,2
     ce0:	b1dff06f          	j	7fc <_vsnprintf+0x118>
     ce4:	0974f663          	bgeu	s1,s7,d70 <_vsnprintf+0x68c>
     ce8:	01bb87b3          	add	a5,s7,s11
     cec:	409784b3          	sub	s1,a5,s1
     cf0:	000d8613          	mv	a2,s11
     cf4:	00098693          	mv	a3,s3
     cf8:	001d8d93          	addi	s11,s11,1
     cfc:	000a0593          	mv	a1,s4
     d00:	02000513          	li	a0,32
     d04:	000a80e7          	jalr	s5
     d08:	ffb494e3          	bne	s1,s11,cf0 <_vsnprintf+0x60c>
     d0c:	01012783          	lw	a5,16(sp)
     d10:	001b8493          	addi	s1,s7,1
     d14:	0007c683          	lbu	a3,0(a5)
     d18:	00068513          	mv	a0,a3
     d1c:	e40692e3          	bnez	a3,b60 <_vsnprintf+0x47c>
     d20:	000d8413          	mv	s0,s11
     d24:	f99ff06f          	j	cbc <_vsnprintf+0x5d8>
     d28:	40047793          	andi	a5,s0,1024
     d2c:	00078863          	beqz	a5,d3c <_vsnprintf+0x658>
     d30:	ff247413          	andi	s0,s0,-14
     d34:	00200813          	li	a6,2
     d38:	c8dff06f          	j	9c4 <_vsnprintf+0x2e0>
     d3c:	ff347413          	andi	s0,s0,-13
     d40:	00200813          	li	a6,2
     d44:	c81ff06f          	j	9c4 <_vsnprintf+0x2e0>
     d48:	02046413          	ori	s0,s0,32
     d4c:	ff347413          	andi	s0,s0,-13
     d50:	01000813          	li	a6,16
     d54:	c71ff06f          	j	9c4 <_vsnprintf+0x2e0>
     d58:	000d2703          	lw	a4,0(s10)
     d5c:	c89ff06f          	j	9e4 <_vsnprintf+0x300>
     d60:	08047793          	andi	a5,s0,128
     d64:	fe078ae3          	beqz	a5,d58 <_vsnprintf+0x674>
     d68:	000d5703          	lhu	a4,0(s10)
     d6c:	c79ff06f          	j	9e4 <_vsnprintf+0x300>
     d70:	00148493          	addi	s1,s1,1
     d74:	fa5ff06f          	j	d18 <_vsnprintf+0x634>
     d78:	000d4503          	lbu	a0,0(s10)
     d7c:	00098693          	mv	a3,s3
     d80:	000d8613          	mv	a2,s11
     d84:	000a0593          	mv	a1,s4
     d88:	000a80e7          	jalr	s5
     d8c:	000c8d93          	mv	s11,s9
     d90:	00048d13          	mv	s10,s1
     d94:	ad9ff06f          	j	86c <_vsnprintf+0x188>
     d98:	07800793          	li	a5,120
     d9c:	12f50463          	beq	a0,a5,ec4 <_vsnprintf+0x7e0>
     da0:	06f00793          	li	a5,111
     da4:	06f50a63          	beq	a0,a5,e18 <_vsnprintf+0x734>
     da8:	06900793          	li	a5,105
     dac:	fef47693          	andi	a3,s0,-17
     db0:	0ef51463          	bne	a0,a5,e98 <_vsnprintf+0x7b4>
     db4:	40047793          	andi	a5,s0,1024
     db8:	00078463          	beqz	a5,dc0 <_vsnprintf+0x6dc>
     dbc:	fee47693          	andi	a3,s0,-18
     dc0:	2006f793          	andi	a5,a3,512
     dc4:	9a0796e3          	bnez	a5,770 <_vsnprintf+0x8c>
     dc8:	1006f793          	andi	a5,a3,256
     dcc:	004d0413          	addi	s0,s10,4
     dd0:	08079463          	bnez	a5,e58 <_vsnprintf+0x774>
     dd4:	0406f793          	andi	a5,a3,64
     dd8:	04078e63          	beqz	a5,e34 <_vsnprintf+0x750>
     ddc:	000d4783          	lbu	a5,0(s10)
     de0:	00078713          	mv	a4,a5
     de4:	000d8613          	mv	a2,s11
     de8:	00d12223          	sw	a3,4(sp)
     dec:	01712023          	sw	s7,0(sp)
     df0:	000c8893          	mv	a7,s9
     df4:	00a00813          	li	a6,10
     df8:	01f7d793          	srli	a5,a5,0x1f
     dfc:	00098693          	mv	a3,s3
     e00:	000a0593          	mv	a1,s4
     e04:	000a8513          	mv	a0,s5
     e08:	b94ff0ef          	jal	19c <_ntoa_long>
     e0c:	00050d93          	mv	s11,a0
     e10:	00040d13          	mv	s10,s0
     e14:	95dff06f          	j	770 <_vsnprintf+0x8c>
     e18:	40047793          	andi	a5,s0,1024
     e1c:	00800813          	li	a6,8
     e20:	00078663          	beqz	a5,e2c <_vsnprintf+0x748>
     e24:	ff247413          	andi	s0,s0,-14
     e28:	b9dff06f          	j	9c4 <_vsnprintf+0x2e0>
     e2c:	ff347413          	andi	s0,s0,-13
     e30:	b95ff06f          	j	9c4 <_vsnprintf+0x2e0>
     e34:	0806f793          	andi	a5,a3,128
     e38:	04078663          	beqz	a5,e84 <_vsnprintf+0x7a0>
     e3c:	000d1783          	lh	a5,0(s10)
     e40:	40f7d613          	srai	a2,a5,0xf
     e44:	00c7c733          	xor	a4,a5,a2
     e48:	40c70733          	sub	a4,a4,a2
     e4c:	01071713          	slli	a4,a4,0x10
     e50:	01075713          	srli	a4,a4,0x10
     e54:	f91ff06f          	j	de4 <_vsnprintf+0x700>
     e58:	000d2783          	lw	a5,0(s10)
     e5c:	00d12223          	sw	a3,4(sp)
     e60:	000d8613          	mv	a2,s11
     e64:	41f7d713          	srai	a4,a5,0x1f
     e68:	00f746b3          	xor	a3,a4,a5
     e6c:	01712023          	sw	s7,0(sp)
     e70:	000c8893          	mv	a7,s9
     e74:	00a00813          	li	a6,10
     e78:	01f7d793          	srli	a5,a5,0x1f
     e7c:	40e68733          	sub	a4,a3,a4
     e80:	f7dff06f          	j	dfc <_vsnprintf+0x718>
     e84:	000d2783          	lw	a5,0(s10)
     e88:	41f7d613          	srai	a2,a5,0x1f
     e8c:	00f64733          	xor	a4,a2,a5
     e90:	40c70733          	sub	a4,a4,a2
     e94:	f51ff06f          	j	de4 <_vsnprintf+0x700>
     e98:	06400793          	li	a5,100
     e9c:	f0f50ce3          	beq	a0,a5,db4 <_vsnprintf+0x6d0>
     ea0:	40047793          	andi	a5,s0,1024
     ea4:	00078a63          	beqz	a5,eb8 <_vsnprintf+0x7d4>
     ea8:	00068413          	mv	s0,a3
     eac:	00a00813          	li	a6,10
     eb0:	ff247413          	andi	s0,s0,-14
     eb4:	b11ff06f          	j	9c4 <_vsnprintf+0x2e0>
     eb8:	fe347413          	andi	s0,s0,-29
     ebc:	00a00813          	li	a6,10
     ec0:	b05ff06f          	j	9c4 <_vsnprintf+0x2e0>
     ec4:	40047793          	andi	a5,s0,1024
     ec8:	e80782e3          	beqz	a5,d4c <_vsnprintf+0x668>
     ecc:	ff247413          	andi	s0,s0,-14
     ed0:	01000813          	li	a6,16
     ed4:	af1ff06f          	j	9c4 <_vsnprintf+0x2e0>
     ed8:	00070c13          	mv	s8,a4
     edc:	92dff06f          	j	808 <_vsnprintf+0x124>

00000ee0 <_putchar>:
     ee0:	ff010113          	addi	sp,sp,-16
     ee4:	00112623          	sw	ra,12(sp)
     ee8:	1dc000ef          	jal	10c4 <uart_send_char>
     eec:	00c12083          	lw	ra,12(sp)
     ef0:	00000513          	li	a0,0
     ef4:	01010113          	addi	sp,sp,16
     ef8:	00008067          	ret

00000efc <printf_>:
     efc:	fc010113          	addi	sp,sp,-64
     f00:	02410313          	addi	t1,sp,36
     f04:	02d12623          	sw	a3,44(sp)
     f08:	00050693          	mv	a3,a0
     f0c:	02b12223          	sw	a1,36(sp)
     f10:	02c12423          	sw	a2,40(sp)
     f14:	02e12823          	sw	a4,48(sp)
     f18:	00810593          	addi	a1,sp,8
     f1c:	00030713          	mv	a4,t1
     f20:	fff00613          	li	a2,-1
     f24:	6c400513          	li	a0,1732
     f28:	00112e23          	sw	ra,28(sp)
     f2c:	02f12a23          	sw	a5,52(sp)
     f30:	03012c23          	sw	a6,56(sp)
     f34:	03112e23          	sw	a7,60(sp)
     f38:	00612623          	sw	t1,12(sp)
     f3c:	fa8ff0ef          	jal	6e4 <_vsnprintf>
     f40:	01c12083          	lw	ra,28(sp)
     f44:	04010113          	addi	sp,sp,64
     f48:	00008067          	ret

00000f4c <sprintf_>:
     f4c:	fc010113          	addi	sp,sp,-64
     f50:	02810313          	addi	t1,sp,40
     f54:	02d12623          	sw	a3,44(sp)
     f58:	00058693          	mv	a3,a1
     f5c:	00050593          	mv	a1,a0
     f60:	02c12423          	sw	a2,40(sp)
     f64:	02e12823          	sw	a4,48(sp)
     f68:	fff00613          	li	a2,-1
     f6c:	00030713          	mv	a4,t1
     f70:	18800513          	li	a0,392
     f74:	00112e23          	sw	ra,28(sp)
     f78:	02f12a23          	sw	a5,52(sp)
     f7c:	03012c23          	sw	a6,56(sp)
     f80:	03112e23          	sw	a7,60(sp)
     f84:	00612623          	sw	t1,12(sp)
     f88:	f5cff0ef          	jal	6e4 <_vsnprintf>
     f8c:	01c12083          	lw	ra,28(sp)
     f90:	04010113          	addi	sp,sp,64
     f94:	00008067          	ret

00000f98 <snprintf_>:
     f98:	fc010113          	addi	sp,sp,-64
     f9c:	02c10313          	addi	t1,sp,44
     fa0:	02d12623          	sw	a3,44(sp)
     fa4:	00060693          	mv	a3,a2
     fa8:	00058613          	mv	a2,a1
     fac:	00050593          	mv	a1,a0
     fb0:	02e12823          	sw	a4,48(sp)
     fb4:	18800513          	li	a0,392
     fb8:	00030713          	mv	a4,t1
     fbc:	00112e23          	sw	ra,28(sp)
     fc0:	02f12a23          	sw	a5,52(sp)
     fc4:	03012c23          	sw	a6,56(sp)
     fc8:	03112e23          	sw	a7,60(sp)
     fcc:	00612623          	sw	t1,12(sp)
     fd0:	f14ff0ef          	jal	6e4 <_vsnprintf>
     fd4:	01c12083          	lw	ra,28(sp)
     fd8:	04010113          	addi	sp,sp,64
     fdc:	00008067          	ret

00000fe0 <vprintf_>:
     fe0:	fe010113          	addi	sp,sp,-32
     fe4:	00050693          	mv	a3,a0
     fe8:	00058713          	mv	a4,a1
     fec:	fff00613          	li	a2,-1
     ff0:	00c10593          	addi	a1,sp,12
     ff4:	6c400513          	li	a0,1732
     ff8:	00112e23          	sw	ra,28(sp)
     ffc:	ee8ff0ef          	jal	6e4 <_vsnprintf>
    1000:	01c12083          	lw	ra,28(sp)
    1004:	02010113          	addi	sp,sp,32
    1008:	00008067          	ret

0000100c <vsnprintf_>:
    100c:	00068713          	mv	a4,a3
    1010:	00060693          	mv	a3,a2
    1014:	00058613          	mv	a2,a1
    1018:	00050593          	mv	a1,a0
    101c:	18800513          	li	a0,392
    1020:	ec4ff06f          	j	6e4 <_vsnprintf>

00001024 <fctprintf>:
    1024:	fc010113          	addi	sp,sp,-64
    1028:	02c10313          	addi	t1,sp,44
    102c:	00050e93          	mv	t4,a0
    1030:	00058e13          	mv	t3,a1
    1034:	02d12623          	sw	a3,44(sp)
    1038:	02e12823          	sw	a4,48(sp)
    103c:	00060693          	mv	a3,a2
    1040:	00810593          	addi	a1,sp,8
    1044:	00030713          	mv	a4,t1
    1048:	fff00613          	li	a2,-1
    104c:	6d000513          	li	a0,1744
    1050:	00112e23          	sw	ra,28(sp)
    1054:	02f12a23          	sw	a5,52(sp)
    1058:	03012c23          	sw	a6,56(sp)
    105c:	03112e23          	sw	a7,60(sp)
    1060:	00612223          	sw	t1,4(sp)
    1064:	01d12423          	sw	t4,8(sp)
    1068:	01c12623          	sw	t3,12(sp)
    106c:	e78ff0ef          	jal	6e4 <_vsnprintf>
    1070:	01c12083          	lw	ra,28(sp)
    1074:	04010113          	addi	sp,sp,64
    1078:	00008067          	ret

0000107c <tinyIO_init>:
    107c:	0040006f          	j	1080 <uart_init>

00001080 <uart_init>:
    1080:	000017b7          	lui	a5,0x1
    1084:	14a7aa23          	sw	a0,340(a5) # 1154 <global_uart>
    1088:	00300793          	li	a5,3
    108c:	00f52623          	sw	a5,12(a0)
    1090:	00008067          	ret

00001094 <uart_is_rx_empty>:
    1094:	000017b7          	lui	a5,0x1
    1098:	1547a783          	lw	a5,340(a5) # 1154 <global_uart>
    109c:	0087a503          	lw	a0,8(a5)
    10a0:	fff54513          	not	a0,a0
    10a4:	00157513          	andi	a0,a0,1
    10a8:	00008067          	ret

000010ac <uart_is_tx_empty>:
    10ac:	000017b7          	lui	a5,0x1
    10b0:	1547a783          	lw	a5,340(a5) # 1154 <global_uart>
    10b4:	0087a503          	lw	a0,8(a5)
    10b8:	00255513          	srli	a0,a0,0x2
    10bc:	00157513          	andi	a0,a0,1
    10c0:	00008067          	ret

000010c4 <uart_send_char>:
    10c4:	000017b7          	lui	a5,0x1
    10c8:	1547a703          	lw	a4,340(a5) # 1154 <global_uart>
    10cc:	00872783          	lw	a5,8(a4)
    10d0:	0047f793          	andi	a5,a5,4
    10d4:	fe078ce3          	beqz	a5,10cc <uart_send_char+0x8>
    10d8:	00a72223          	sw	a0,4(a4)
    10dc:	00008067          	ret

000010e0 <uart_get_char>:
    10e0:	000017b7          	lui	a5,0x1
    10e4:	1547a703          	lw	a4,340(a5) # 1154 <global_uart>
    10e8:	00872783          	lw	a5,8(a4)
    10ec:	0017f793          	andi	a5,a5,1
    10f0:	fe078ce3          	beqz	a5,10e8 <uart_get_char+0x8>
    10f4:	00072503          	lw	a0,0(a4)
    10f8:	00008067          	ret
    10fc:	0000                	.insn	2, 0x
	...
