
bin/custom_hls_conv_naive.elf:     file format elf32-littleriscv


Disassembly of section .vector_table:

00000000 <.vector_table>:
   0:	0800006f          	j	80 <_reset_handler>
   4:	1240006f          	j	128 <_default_handler>
   8:	1200006f          	j	128 <_default_handler>
   c:	11c0006f          	j	128 <_default_handler>
  10:	1180006f          	j	128 <_default_handler>
  14:	1140006f          	j	128 <_default_handler>
  18:	1100006f          	j	128 <_default_handler>
  1c:	10c0006f          	j	128 <_default_handler>
  20:	1080006f          	j	128 <_default_handler>
  24:	1040006f          	j	128 <_default_handler>
  28:	1000006f          	j	128 <_default_handler>
  2c:	0fc0006f          	j	128 <_default_handler>
  30:	0f80006f          	j	128 <_default_handler>
  34:	0f40006f          	j	128 <_default_handler>
  38:	0f00006f          	j	128 <_default_handler>
  3c:	0ec0006f          	j	128 <_default_handler>
  40:	0e80006f          	j	128 <_default_handler>
  44:	0e40006f          	j	128 <_default_handler>
  48:	0e00006f          	j	128 <_default_handler>
  4c:	0dc0006f          	j	128 <_default_handler>
  50:	0d80006f          	j	128 <_default_handler>
  54:	0d40006f          	j	128 <_default_handler>
  58:	0d00006f          	j	128 <_default_handler>
  5c:	0cc0006f          	j	128 <_default_handler>
  60:	0c80006f          	j	128 <_default_handler>
  64:	0c40006f          	j	128 <_default_handler>
  68:	0c00006f          	j	128 <_default_handler>
  6c:	0bc0006f          	j	128 <_default_handler>
  70:	0b80006f          	j	128 <_default_handler>
  74:	0b40006f          	j	128 <_default_handler>
  78:	0b00006f          	j	128 <_default_handler>
  7c:	0ac0006f          	j	128 <_default_handler>

Disassembly of section .text:

00000080 <_reset_handler>:
      80:	00000093          	li	ra,0
      84:	00000113          	li	sp,0
      88:	00000193          	li	gp,0
      8c:	00000213          	li	tp,0
      90:	00000293          	li	t0,0
      94:	00000313          	li	t1,0
      98:	00000393          	li	t2,0
      9c:	00000413          	li	s0,0
      a0:	00000493          	li	s1,0
      a4:	00000513          	li	a0,0
      a8:	00000593          	li	a1,0
      ac:	00000613          	li	a2,0
      b0:	00000693          	li	a3,0
      b4:	00000713          	li	a4,0
      b8:	00000793          	li	a5,0
      bc:	00000813          	li	a6,0
      c0:	00000893          	li	a7,0
      c4:	00000913          	li	s2,0
      c8:	00000993          	li	s3,0
      cc:	00000a13          	li	s4,0
      d0:	00000a93          	li	s5,0
      d4:	00000b13          	li	s6,0
      d8:	00000b93          	li	s7,0
      dc:	00000c13          	li	s8,0
      e0:	00000c93          	li	s9,0
      e4:	00000d13          	li	s10,0
      e8:	00000d93          	li	s11,0
      ec:	00000e13          	li	t3,0
      f0:	00000e93          	li	t4,0
      f4:	00000f13          	li	t5,0
      f8:	00000f93          	li	t6,0
      fc:	00000513          	li	a0,0
     100:	00100593          	li	a1,1
     104:	00a5e5b3          	or	a1,a1,a0
     108:	30559073          	csrw	mtvec,a1
     10c:	30046073          	csrsi	mstatus,8
     110:	000015b7          	lui	a1,0x1
     114:	88858593          	addi	a1,a1,-1912 # 888 <dump_csrs+0x26>
     118:	3045a073          	csrs	mie,a1
     11c:	00008117          	auipc	sp,0x8
     120:	ee010113          	addi	sp,sp,-288 # 7ffc <_stack_start>
     124:	0080006f          	j	12c <_start>

00000128 <_default_handler>:
     128:	0000006f          	j	128 <_default_handler>

0000012c <_start>:
     12c:	00000293          	li	t0,0
     130:	00020337          	lui	t1,0x20
     134:	20030313          	addi	t1,t1,512 # 20200 <_peripheral_GPIO_out_start>
     138:	00532023          	sw	t0,0(t1)
     13c:	00000513          	li	a0,0
     140:	00000593          	li	a1,0
     144:	0b3000ef          	jal	9f6 <main>
     148:	00100293          	li	t0,1
     14c:	00020337          	lui	t1,0x20
     150:	20030313          	addi	t1,t1,512 # 20200 <_peripheral_GPIO_out_start>
     154:	00532023          	sw	t0,0(t1)

00000158 <_exit_wfi>:
     158:	10500073          	wfi

0000015c <_exit_spin>:
     15c:	0000006f          	j	15c <_exit_spin>

00000160 <memcpy>:
     160:	7179                	addi	sp,sp,-48
     162:	d622                	sw	s0,44(sp)
     164:	1800                	addi	s0,sp,48
     166:	fca42e23          	sw	a0,-36(s0)
     16a:	fcb42c23          	sw	a1,-40(s0)
     16e:	fcc42a23          	sw	a2,-44(s0)
     172:	fe042623          	sw	zero,-20(s0)
     176:	a025                	j	19e <memcpy+0x3e>
     178:	fd842703          	lw	a4,-40(s0)
     17c:	fec42783          	lw	a5,-20(s0)
     180:	973e                	add	a4,a4,a5
     182:	fdc42683          	lw	a3,-36(s0)
     186:	fec42783          	lw	a5,-20(s0)
     18a:	97b6                	add	a5,a5,a3
     18c:	00074703          	lbu	a4,0(a4)
     190:	00e78023          	sb	a4,0(a5)
     194:	fec42783          	lw	a5,-20(s0)
     198:	0785                	addi	a5,a5,1
     19a:	fef42623          	sw	a5,-20(s0)
     19e:	fec42703          	lw	a4,-20(s0)
     1a2:	fd442783          	lw	a5,-44(s0)
     1a6:	fcf769e3          	bltu	a4,a5,178 <memcpy+0x18>
     1aa:	0001                	nop
     1ac:	853e                	mv	a0,a5
     1ae:	5432                	lw	s0,44(sp)
     1b0:	6145                	addi	sp,sp,48
     1b2:	8082                	ret

000001b4 <memset>:
     1b4:	1101                	addi	sp,sp,-32
     1b6:	ce22                	sw	s0,28(sp)
     1b8:	cc26                	sw	s1,24(sp)
     1ba:	1000                	addi	s0,sp,32
     1bc:	fea42623          	sw	a0,-20(s0)
     1c0:	86b2                	mv	a3,a2
     1c2:	fec42483          	lw	s1,-20(s0)
     1c6:	a801                	j	1d6 <memset+0x22>
     1c8:	87a6                	mv	a5,s1
     1ca:	00178493          	addi	s1,a5,1
     1ce:	0ff5f713          	zext.b	a4,a1
     1d2:	00e78023          	sb	a4,0(a5)
     1d6:	87b6                	mv	a5,a3
     1d8:	fff78693          	addi	a3,a5,-1
     1dc:	f7f5                	bnez	a5,1c8 <memset+0x14>
     1de:	fec42783          	lw	a5,-20(s0)
     1e2:	853e                	mv	a0,a5
     1e4:	4472                	lw	s0,28(sp)
     1e6:	44e2                	lw	s1,24(sp)
     1e8:	6105                	addi	sp,sp,32
     1ea:	8082                	ret

000001ec <Xil_In32>:
     1ec:	1101                	addi	sp,sp,-32
     1ee:	ce22                	sw	s0,28(sp)
     1f0:	1000                	addi	s0,sp,32
     1f2:	fea42623          	sw	a0,-20(s0)
     1f6:	fec42783          	lw	a5,-20(s0)
     1fa:	439c                	lw	a5,0(a5)
     1fc:	853e                	mv	a0,a5
     1fe:	4472                	lw	s0,28(sp)
     200:	6105                	addi	sp,sp,32
     202:	8082                	ret

00000204 <Xil_Out32>:
     204:	7179                	addi	sp,sp,-48
     206:	d622                	sw	s0,44(sp)
     208:	1800                	addi	s0,sp,48
     20a:	fca42e23          	sw	a0,-36(s0)
     20e:	fcb42c23          	sw	a1,-40(s0)
     212:	fdc42783          	lw	a5,-36(s0)
     216:	fef42623          	sw	a5,-20(s0)
     21a:	fec42783          	lw	a5,-20(s0)
     21e:	fd842703          	lw	a4,-40(s0)
     222:	c398                	sw	a4,0(a5)
     224:	0001                	nop
     226:	5432                	lw	s0,44(sp)
     228:	6145                	addi	sp,sp,48
     22a:	8082                	ret

0000022c <init_data>:
     22c:	715d                	addi	sp,sp,-80
     22e:	c6a2                	sw	s0,76(sp)
     230:	0880                	addi	s0,sp,80
     232:	faa42e23          	sw	a0,-68(s0)
     236:	fab42c23          	sw	a1,-72(s0)
     23a:	fac42a23          	sw	a2,-76(s0)
     23e:	fe042623          	sw	zero,-20(s0)
     242:	a879                	j	2e0 <init_data+0xb4>
     244:	fe042423          	sw	zero,-24(s0)
     248:	a051                	j	2cc <init_data+0xa0>
     24a:	fe042223          	sw	zero,-28(s0)
     24e:	a0ad                	j	2b8 <init_data+0x8c>
     250:	fe042023          	sw	zero,-32(s0)
     254:	a881                	j	2a4 <init_data+0x78>
     256:	fe442703          	lw	a4,-28(s0)
     25a:	fe042783          	lw	a5,-32(s0)
     25e:	02f70633          	mul	a2,a4,a5
     262:	fec42703          	lw	a4,-20(s0)
     266:	87ba                	mv	a5,a4
     268:	0786                	slli	a5,a5,0x1
     26a:	97ba                	add	a5,a5,a4
     26c:	07a6                	slli	a5,a5,0x9
     26e:	873e                	mv	a4,a5
     270:	fbc42783          	lw	a5,-68(s0)
     274:	00e786b3          	add	a3,a5,a4
     278:	00160713          	addi	a4,a2,1
     27c:	fe842783          	lw	a5,-24(s0)
     280:	00379613          	slli	a2,a5,0x3
     284:	fe442783          	lw	a5,-28(s0)
     288:	97b2                	add	a5,a5,a2
     28a:	00379613          	slli	a2,a5,0x3
     28e:	fe042783          	lw	a5,-32(s0)
     292:	97b2                	add	a5,a5,a2
     294:	078a                	slli	a5,a5,0x2
     296:	97b6                	add	a5,a5,a3
     298:	c398                	sw	a4,0(a5)
     29a:	fe042783          	lw	a5,-32(s0)
     29e:	0785                	addi	a5,a5,1
     2a0:	fef42023          	sw	a5,-32(s0)
     2a4:	fe042703          	lw	a4,-32(s0)
     2a8:	479d                	li	a5,7
     2aa:	fae7f6e3          	bgeu	a5,a4,256 <init_data+0x2a>
     2ae:	fe442783          	lw	a5,-28(s0)
     2b2:	0785                	addi	a5,a5,1
     2b4:	fef42223          	sw	a5,-28(s0)
     2b8:	fe442703          	lw	a4,-28(s0)
     2bc:	479d                	li	a5,7
     2be:	f8e7f9e3          	bgeu	a5,a4,250 <init_data+0x24>
     2c2:	fe842783          	lw	a5,-24(s0)
     2c6:	0785                	addi	a5,a5,1
     2c8:	fef42423          	sw	a5,-24(s0)
     2cc:	fe842703          	lw	a4,-24(s0)
     2d0:	4795                	li	a5,5
     2d2:	f6e7fce3          	bgeu	a5,a4,24a <init_data+0x1e>
     2d6:	fec42783          	lw	a5,-20(s0)
     2da:	0785                	addi	a5,a5,1
     2dc:	fef42623          	sw	a5,-20(s0)
     2e0:	fec42703          	lw	a4,-20(s0)
     2e4:	4785                	li	a5,1
     2e6:	f4e7ffe3          	bgeu	a5,a4,244 <init_data+0x18>
     2ea:	fc042e23          	sw	zero,-36(s0)
     2ee:	a045                	j	38e <init_data+0x162>
     2f0:	fc042c23          	sw	zero,-40(s0)
     2f4:	a059                	j	37a <init_data+0x14e>
     2f6:	fc042a23          	sw	zero,-44(s0)
     2fa:	a0b5                	j	366 <init_data+0x13a>
     2fc:	fc042823          	sw	zero,-48(s0)
     300:	a889                	j	352 <init_data+0x126>
     302:	fd442703          	lw	a4,-44(s0)
     306:	fd042783          	lw	a5,-48(s0)
     30a:	02f707b3          	mul	a5,a4,a5
     30e:	fdc42683          	lw	a3,-36(s0)
     312:	0d800713          	li	a4,216
     316:	02e68733          	mul	a4,a3,a4
     31a:	fb842683          	lw	a3,-72(s0)
     31e:	00e685b3          	add	a1,a3,a4
     322:	00178613          	addi	a2,a5,1
     326:	fd042783          	lw	a5,-48(s0)
     32a:	fd842683          	lw	a3,-40(s0)
     32e:	873e                	mv	a4,a5
     330:	0706                	slli	a4,a4,0x1
     332:	973e                	add	a4,a4,a5
     334:	87b6                	mv	a5,a3
     336:	078e                	slli	a5,a5,0x3
     338:	97b6                	add	a5,a5,a3
     33a:	973e                	add	a4,a4,a5
     33c:	fd442783          	lw	a5,-44(s0)
     340:	97ba                	add	a5,a5,a4
     342:	078a                	slli	a5,a5,0x2
     344:	97ae                	add	a5,a5,a1
     346:	c390                	sw	a2,0(a5)
     348:	fd042783          	lw	a5,-48(s0)
     34c:	0785                	addi	a5,a5,1
     34e:	fcf42823          	sw	a5,-48(s0)
     352:	fd042703          	lw	a4,-48(s0)
     356:	4789                	li	a5,2
     358:	fae7f5e3          	bgeu	a5,a4,302 <init_data+0xd6>
     35c:	fd442783          	lw	a5,-44(s0)
     360:	0785                	addi	a5,a5,1
     362:	fcf42a23          	sw	a5,-44(s0)
     366:	fd442703          	lw	a4,-44(s0)
     36a:	4789                	li	a5,2
     36c:	f8e7f8e3          	bgeu	a5,a4,2fc <init_data+0xd0>
     370:	fd842783          	lw	a5,-40(s0)
     374:	0785                	addi	a5,a5,1
     376:	fcf42c23          	sw	a5,-40(s0)
     37a:	fd842703          	lw	a4,-40(s0)
     37e:	4795                	li	a5,5
     380:	f6e7fbe3          	bgeu	a5,a4,2f6 <init_data+0xca>
     384:	fdc42783          	lw	a5,-36(s0)
     388:	0785                	addi	a5,a5,1
     38a:	fcf42e23          	sw	a5,-36(s0)
     38e:	fdc42703          	lw	a4,-36(s0)
     392:	478d                	li	a5,3
     394:	f4e7fee3          	bgeu	a5,a4,2f0 <init_data+0xc4>
     398:	fc042623          	sw	zero,-52(s0)
     39c:	a04d                	j	43e <init_data+0x212>
     39e:	fc042423          	sw	zero,-56(s0)
     3a2:	a061                	j	42a <init_data+0x1fe>
     3a4:	fc042223          	sw	zero,-60(s0)
     3a8:	a0bd                	j	416 <init_data+0x1ea>
     3aa:	fc042023          	sw	zero,-64(s0)
     3ae:	a891                	j	402 <init_data+0x1d6>
     3b0:	fcc42703          	lw	a4,-52(s0)
     3b4:	87ba                	mv	a5,a4
     3b6:	078e                	slli	a5,a5,0x3
     3b8:	97ba                	add	a5,a5,a4
     3ba:	079a                	slli	a5,a5,0x6
     3bc:	873e                	mv	a4,a5
     3be:	fb442783          	lw	a5,-76(s0)
     3c2:	00e78633          	add	a2,a5,a4
     3c6:	fc442783          	lw	a5,-60(s0)
     3ca:	fc842683          	lw	a3,-56(s0)
     3ce:	873e                	mv	a4,a5
     3d0:	0706                	slli	a4,a4,0x1
     3d2:	973e                	add	a4,a4,a5
     3d4:	00171793          	slli	a5,a4,0x1
     3d8:	873e                	mv	a4,a5
     3da:	87b6                	mv	a5,a3
     3dc:	078e                	slli	a5,a5,0x3
     3de:	97b6                	add	a5,a5,a3
     3e0:	078a                	slli	a5,a5,0x2
     3e2:	973e                	add	a4,a4,a5
     3e4:	fc042783          	lw	a5,-64(s0)
     3e8:	97ba                	add	a5,a5,a4
     3ea:	078a                	slli	a5,a5,0x2
     3ec:	97b2                	add	a5,a5,a2
     3ee:	55555737          	lui	a4,0x55555
     3f2:	55570713          	addi	a4,a4,1365 # 55555555 <_peripheral_PLIC_end+0x4d555555>
     3f6:	c398                	sw	a4,0(a5)
     3f8:	fc042783          	lw	a5,-64(s0)
     3fc:	0785                	addi	a5,a5,1
     3fe:	fcf42023          	sw	a5,-64(s0)
     402:	fc042703          	lw	a4,-64(s0)
     406:	4795                	li	a5,5
     408:	fae7f4e3          	bgeu	a5,a4,3b0 <init_data+0x184>
     40c:	fc442783          	lw	a5,-60(s0)
     410:	0785                	addi	a5,a5,1
     412:	fcf42223          	sw	a5,-60(s0)
     416:	fc442703          	lw	a4,-60(s0)
     41a:	4795                	li	a5,5
     41c:	f8e7f7e3          	bgeu	a5,a4,3aa <init_data+0x17e>
     420:	fc842783          	lw	a5,-56(s0)
     424:	0785                	addi	a5,a5,1
     426:	fcf42423          	sw	a5,-56(s0)
     42a:	fc842703          	lw	a4,-56(s0)
     42e:	478d                	li	a5,3
     430:	f6e7fae3          	bgeu	a5,a4,3a4 <init_data+0x178>
     434:	fcc42783          	lw	a5,-52(s0)
     438:	0785                	addi	a5,a5,1
     43a:	fcf42623          	sw	a5,-52(s0)
     43e:	fcc42703          	lw	a4,-52(s0)
     442:	4785                	li	a5,1
     444:	f4e7fde3          	bgeu	a5,a4,39e <init_data+0x172>
     448:	0001                	nop
     44a:	0001                	nop
     44c:	4436                	lw	s0,76(sp)
     44e:	6161                	addi	sp,sp,80
     450:	8082                	ret

00000452 <compute_expected>:
     452:	7139                	addi	sp,sp,-64
     454:	de22                	sw	s0,60(sp)
     456:	0080                	addi	s0,sp,64
     458:	fca42623          	sw	a0,-52(s0)
     45c:	fcb42423          	sw	a1,-56(s0)
     460:	fcc42223          	sw	a2,-60(s0)
     464:	fe042623          	sw	zero,-20(s0)
     468:	aa79                	j	606 <compute_expected+0x1b4>
     46a:	fe042423          	sw	zero,-24(s0)
     46e:	a251                	j	5f2 <compute_expected+0x1a0>
     470:	fe042223          	sw	zero,-28(s0)
     474:	a2ad                	j	5de <compute_expected+0x18c>
     476:	fe042023          	sw	zero,-32(s0)
     47a:	aa81                	j	5ca <compute_expected+0x178>
     47c:	fc042e23          	sw	zero,-36(s0)
     480:	aa1d                	j	5b6 <compute_expected+0x164>
     482:	fc042c23          	sw	zero,-40(s0)
     486:	aa31                	j	5a2 <compute_expected+0x150>
     488:	fc042a23          	sw	zero,-44(s0)
     48c:	a209                	j	58e <compute_expected+0x13c>
     48e:	fec42703          	lw	a4,-20(s0)
     492:	87ba                	mv	a5,a4
     494:	078e                	slli	a5,a5,0x3
     496:	97ba                	add	a5,a5,a4
     498:	079a                	slli	a5,a5,0x6
     49a:	873e                	mv	a4,a5
     49c:	fc442783          	lw	a5,-60(s0)
     4a0:	00e78633          	add	a2,a5,a4
     4a4:	fe042783          	lw	a5,-32(s0)
     4a8:	fe842683          	lw	a3,-24(s0)
     4ac:	873e                	mv	a4,a5
     4ae:	0706                	slli	a4,a4,0x1
     4b0:	973e                	add	a4,a4,a5
     4b2:	00171793          	slli	a5,a4,0x1
     4b6:	873e                	mv	a4,a5
     4b8:	87b6                	mv	a5,a3
     4ba:	078e                	slli	a5,a5,0x3
     4bc:	97b6                	add	a5,a5,a3
     4be:	078a                	slli	a5,a5,0x2
     4c0:	973e                	add	a4,a4,a5
     4c2:	fdc42783          	lw	a5,-36(s0)
     4c6:	97ba                	add	a5,a5,a4
     4c8:	078a                	slli	a5,a5,0x2
     4ca:	97b2                	add	a5,a5,a2
     4cc:	4390                	lw	a2,0(a5)
     4ce:	fe842703          	lw	a4,-24(s0)
     4d2:	0d800793          	li	a5,216
     4d6:	02f707b3          	mul	a5,a4,a5
     4da:	fc842703          	lw	a4,-56(s0)
     4de:	00f705b3          	add	a1,a4,a5
     4e2:	fd842783          	lw	a5,-40(s0)
     4e6:	fe442683          	lw	a3,-28(s0)
     4ea:	873e                	mv	a4,a5
     4ec:	0706                	slli	a4,a4,0x1
     4ee:	973e                	add	a4,a4,a5
     4f0:	87b6                	mv	a5,a3
     4f2:	078e                	slli	a5,a5,0x3
     4f4:	97b6                	add	a5,a5,a3
     4f6:	973e                	add	a4,a4,a5
     4f8:	fd442783          	lw	a5,-44(s0)
     4fc:	97ba                	add	a5,a5,a4
     4fe:	078a                	slli	a5,a5,0x2
     500:	97ae                	add	a5,a5,a1
     502:	4394                	lw	a3,0(a5)
     504:	fec42703          	lw	a4,-20(s0)
     508:	87ba                	mv	a5,a4
     50a:	0786                	slli	a5,a5,0x1
     50c:	97ba                	add	a5,a5,a4
     50e:	07a6                	slli	a5,a5,0x9
     510:	873e                	mv	a4,a5
     512:	fcc42783          	lw	a5,-52(s0)
     516:	973e                	add	a4,a4,a5
     518:	fe042583          	lw	a1,-32(s0)
     51c:	fd842783          	lw	a5,-40(s0)
     520:	95be                	add	a1,a1,a5
     522:	fdc42503          	lw	a0,-36(s0)
     526:	fd442783          	lw	a5,-44(s0)
     52a:	97aa                	add	a5,a5,a0
     52c:	fe442503          	lw	a0,-28(s0)
     530:	050e                	slli	a0,a0,0x3
     532:	95aa                	add	a1,a1,a0
     534:	058e                	slli	a1,a1,0x3
     536:	97ae                	add	a5,a5,a1
     538:	078a                	slli	a5,a5,0x2
     53a:	97ba                	add	a5,a5,a4
     53c:	439c                	lw	a5,0(a5)
     53e:	02f686b3          	mul	a3,a3,a5
     542:	fec42703          	lw	a4,-20(s0)
     546:	87ba                	mv	a5,a4
     548:	078e                	slli	a5,a5,0x3
     54a:	97ba                	add	a5,a5,a4
     54c:	079a                	slli	a5,a5,0x6
     54e:	873e                	mv	a4,a5
     550:	fc442783          	lw	a5,-60(s0)
     554:	00e785b3          	add	a1,a5,a4
     558:	9636                	add	a2,a2,a3
     55a:	fe042783          	lw	a5,-32(s0)
     55e:	fe842683          	lw	a3,-24(s0)
     562:	873e                	mv	a4,a5
     564:	0706                	slli	a4,a4,0x1
     566:	973e                	add	a4,a4,a5
     568:	00171793          	slli	a5,a4,0x1
     56c:	873e                	mv	a4,a5
     56e:	87b6                	mv	a5,a3
     570:	078e                	slli	a5,a5,0x3
     572:	97b6                	add	a5,a5,a3
     574:	078a                	slli	a5,a5,0x2
     576:	973e                	add	a4,a4,a5
     578:	fdc42783          	lw	a5,-36(s0)
     57c:	97ba                	add	a5,a5,a4
     57e:	078a                	slli	a5,a5,0x2
     580:	97ae                	add	a5,a5,a1
     582:	c390                	sw	a2,0(a5)
     584:	fd442783          	lw	a5,-44(s0)
     588:	0785                	addi	a5,a5,1
     58a:	fcf42a23          	sw	a5,-44(s0)
     58e:	fd442703          	lw	a4,-44(s0)
     592:	4789                	li	a5,2
     594:	eee7fde3          	bgeu	a5,a4,48e <compute_expected+0x3c>
     598:	fd842783          	lw	a5,-40(s0)
     59c:	0785                	addi	a5,a5,1
     59e:	fcf42c23          	sw	a5,-40(s0)
     5a2:	fd842703          	lw	a4,-40(s0)
     5a6:	4789                	li	a5,2
     5a8:	eee7f0e3          	bgeu	a5,a4,488 <compute_expected+0x36>
     5ac:	fdc42783          	lw	a5,-36(s0)
     5b0:	0785                	addi	a5,a5,1
     5b2:	fcf42e23          	sw	a5,-36(s0)
     5b6:	fdc42703          	lw	a4,-36(s0)
     5ba:	4795                	li	a5,5
     5bc:	ece7f3e3          	bgeu	a5,a4,482 <compute_expected+0x30>
     5c0:	fe042783          	lw	a5,-32(s0)
     5c4:	0785                	addi	a5,a5,1
     5c6:	fef42023          	sw	a5,-32(s0)
     5ca:	fe042703          	lw	a4,-32(s0)
     5ce:	4795                	li	a5,5
     5d0:	eae7f6e3          	bgeu	a5,a4,47c <compute_expected+0x2a>
     5d4:	fe442783          	lw	a5,-28(s0)
     5d8:	0785                	addi	a5,a5,1
     5da:	fef42223          	sw	a5,-28(s0)
     5de:	fe442703          	lw	a4,-28(s0)
     5e2:	4795                	li	a5,5
     5e4:	e8e7f9e3          	bgeu	a5,a4,476 <compute_expected+0x24>
     5e8:	fe842783          	lw	a5,-24(s0)
     5ec:	0785                	addi	a5,a5,1
     5ee:	fef42423          	sw	a5,-24(s0)
     5f2:	fe842703          	lw	a4,-24(s0)
     5f6:	478d                	li	a5,3
     5f8:	e6e7fce3          	bgeu	a5,a4,470 <compute_expected+0x1e>
     5fc:	fec42783          	lw	a5,-20(s0)
     600:	0785                	addi	a5,a5,1
     602:	fef42623          	sw	a5,-20(s0)
     606:	fec42703          	lw	a4,-20(s0)
     60a:	4785                	li	a5,1
     60c:	e4e7ffe3          	bgeu	a5,a4,46a <compute_expected+0x18>
     610:	0001                	nop
     612:	0001                	nop
     614:	5472                	lw	s0,60(sp)
     616:	6121                	addi	sp,sp,64
     618:	8082                	ret

0000061a <check_values>:
     61a:	7179                	addi	sp,sp,-48
     61c:	d606                	sw	ra,44(sp)
     61e:	d422                	sw	s0,40(sp)
     620:	1800                	addi	s0,sp,48
     622:	fca42e23          	sw	a0,-36(s0)
     626:	fcb42c23          	sw	a1,-40(s0)
     62a:	fe042623          	sw	zero,-20(s0)
     62e:	ac39                	j	84c <check_values+0x232>
     630:	fe042423          	sw	zero,-24(s0)
     634:	a411                	j	838 <check_values+0x21e>
     636:	fe042223          	sw	zero,-28(s0)
     63a:	a2ed                	j	824 <check_values+0x20a>
     63c:	fe042023          	sw	zero,-32(s0)
     640:	aac1                	j	810 <check_values+0x1f6>
     642:	fec42703          	lw	a4,-20(s0)
     646:	87ba                	mv	a5,a4
     648:	078e                	slli	a5,a5,0x3
     64a:	97ba                	add	a5,a5,a4
     64c:	079a                	slli	a5,a5,0x6
     64e:	873e                	mv	a4,a5
     650:	fdc42783          	lw	a5,-36(s0)
     654:	00e78633          	add	a2,a5,a4
     658:	fe442783          	lw	a5,-28(s0)
     65c:	fe842683          	lw	a3,-24(s0)
     660:	873e                	mv	a4,a5
     662:	0706                	slli	a4,a4,0x1
     664:	973e                	add	a4,a4,a5
     666:	00171793          	slli	a5,a4,0x1
     66a:	873e                	mv	a4,a5
     66c:	87b6                	mv	a5,a3
     66e:	078e                	slli	a5,a5,0x3
     670:	97b6                	add	a5,a5,a3
     672:	078a                	slli	a5,a5,0x2
     674:	973e                	add	a4,a4,a5
     676:	fe042783          	lw	a5,-32(s0)
     67a:	97ba                	add	a5,a5,a4
     67c:	078a                	slli	a5,a5,0x2
     67e:	97b2                	add	a5,a5,a2
     680:	4390                	lw	a2,0(a5)
     682:	fec42703          	lw	a4,-20(s0)
     686:	87ba                	mv	a5,a4
     688:	078e                	slli	a5,a5,0x3
     68a:	97ba                	add	a5,a5,a4
     68c:	079a                	slli	a5,a5,0x6
     68e:	873e                	mv	a4,a5
     690:	fd842783          	lw	a5,-40(s0)
     694:	00e785b3          	add	a1,a5,a4
     698:	fe442783          	lw	a5,-28(s0)
     69c:	fe842683          	lw	a3,-24(s0)
     6a0:	873e                	mv	a4,a5
     6a2:	0706                	slli	a4,a4,0x1
     6a4:	973e                	add	a4,a4,a5
     6a6:	00171793          	slli	a5,a4,0x1
     6aa:	873e                	mv	a4,a5
     6ac:	87b6                	mv	a5,a3
     6ae:	078e                	slli	a5,a5,0x3
     6b0:	97b6                	add	a5,a5,a3
     6b2:	078a                	slli	a5,a5,0x2
     6b4:	973e                	add	a4,a4,a5
     6b6:	fe042783          	lw	a5,-32(s0)
     6ba:	97ba                	add	a5,a5,a4
     6bc:	078a                	slli	a5,a5,0x2
     6be:	97ae                	add	a5,a5,a1
     6c0:	439c                	lw	a5,0(a5)
     6c2:	0af60363          	beq	a2,a5,768 <check_values+0x14e>
     6c6:	fec42703          	lw	a4,-20(s0)
     6ca:	87ba                	mv	a5,a4
     6cc:	078e                	slli	a5,a5,0x3
     6ce:	97ba                	add	a5,a5,a4
     6d0:	079a                	slli	a5,a5,0x6
     6d2:	873e                	mv	a4,a5
     6d4:	fd842783          	lw	a5,-40(s0)
     6d8:	00e78633          	add	a2,a5,a4
     6dc:	fe442783          	lw	a5,-28(s0)
     6e0:	fe842683          	lw	a3,-24(s0)
     6e4:	873e                	mv	a4,a5
     6e6:	0706                	slli	a4,a4,0x1
     6e8:	973e                	add	a4,a4,a5
     6ea:	00171793          	slli	a5,a4,0x1
     6ee:	873e                	mv	a4,a5
     6f0:	87b6                	mv	a5,a3
     6f2:	078e                	slli	a5,a5,0x3
     6f4:	97b6                	add	a5,a5,a3
     6f6:	078a                	slli	a5,a5,0x2
     6f8:	973e                	add	a4,a4,a5
     6fa:	fe042783          	lw	a5,-32(s0)
     6fe:	97ba                	add	a5,a5,a4
     700:	078a                	slli	a5,a5,0x2
     702:	97b2                	add	a5,a5,a2
     704:	438c                	lw	a1,0(a5)
     706:	fec42703          	lw	a4,-20(s0)
     70a:	87ba                	mv	a5,a4
     70c:	078e                	slli	a5,a5,0x3
     70e:	97ba                	add	a5,a5,a4
     710:	079a                	slli	a5,a5,0x6
     712:	873e                	mv	a4,a5
     714:	fdc42783          	lw	a5,-36(s0)
     718:	00e78633          	add	a2,a5,a4
     71c:	fe442783          	lw	a5,-28(s0)
     720:	fe842683          	lw	a3,-24(s0)
     724:	873e                	mv	a4,a5
     726:	0706                	slli	a4,a4,0x1
     728:	973e                	add	a4,a4,a5
     72a:	00171793          	slli	a5,a4,0x1
     72e:	873e                	mv	a4,a5
     730:	87b6                	mv	a5,a3
     732:	078e                	slli	a5,a5,0x3
     734:	97b6                	add	a5,a5,a3
     736:	078a                	slli	a5,a5,0x2
     738:	973e                	add	a4,a4,a5
     73a:	fe042783          	lw	a5,-32(s0)
     73e:	97ba                	add	a5,a5,a4
     740:	078a                	slli	a5,a5,0x2
     742:	97b2                	add	a5,a5,a2
     744:	439c                	lw	a5,0(a5)
     746:	883e                	mv	a6,a5
     748:	87ae                	mv	a5,a1
     74a:	fe042703          	lw	a4,-32(s0)
     74e:	fe442683          	lw	a3,-28(s0)
     752:	fe842603          	lw	a2,-24(s0)
     756:	fec42583          	lw	a1,-20(s0)
     75a:	6509                	lui	a0,0x2
     75c:	c2050513          	addi	a0,a0,-992 # 1c20 <_text_end>
     760:	290010ef          	jal	19f0 <printf_>
     764:	4781                	li	a5,0
     766:	a8cd                	j	858 <check_values+0x23e>
     768:	fec42703          	lw	a4,-20(s0)
     76c:	87ba                	mv	a5,a4
     76e:	078e                	slli	a5,a5,0x3
     770:	97ba                	add	a5,a5,a4
     772:	079a                	slli	a5,a5,0x6
     774:	873e                	mv	a4,a5
     776:	fd842783          	lw	a5,-40(s0)
     77a:	00e78633          	add	a2,a5,a4
     77e:	fe442783          	lw	a5,-28(s0)
     782:	fe842683          	lw	a3,-24(s0)
     786:	873e                	mv	a4,a5
     788:	0706                	slli	a4,a4,0x1
     78a:	973e                	add	a4,a4,a5
     78c:	00171793          	slli	a5,a4,0x1
     790:	873e                	mv	a4,a5
     792:	87b6                	mv	a5,a3
     794:	078e                	slli	a5,a5,0x3
     796:	97b6                	add	a5,a5,a3
     798:	078a                	slli	a5,a5,0x2
     79a:	973e                	add	a4,a4,a5
     79c:	fe042783          	lw	a5,-32(s0)
     7a0:	97ba                	add	a5,a5,a4
     7a2:	078a                	slli	a5,a5,0x2
     7a4:	97b2                	add	a5,a5,a2
     7a6:	438c                	lw	a1,0(a5)
     7a8:	fec42703          	lw	a4,-20(s0)
     7ac:	87ba                	mv	a5,a4
     7ae:	078e                	slli	a5,a5,0x3
     7b0:	97ba                	add	a5,a5,a4
     7b2:	079a                	slli	a5,a5,0x6
     7b4:	873e                	mv	a4,a5
     7b6:	fdc42783          	lw	a5,-36(s0)
     7ba:	00e78633          	add	a2,a5,a4
     7be:	fe442783          	lw	a5,-28(s0)
     7c2:	fe842683          	lw	a3,-24(s0)
     7c6:	873e                	mv	a4,a5
     7c8:	0706                	slli	a4,a4,0x1
     7ca:	973e                	add	a4,a4,a5
     7cc:	00171793          	slli	a5,a4,0x1
     7d0:	873e                	mv	a4,a5
     7d2:	87b6                	mv	a5,a3
     7d4:	078e                	slli	a5,a5,0x3
     7d6:	97b6                	add	a5,a5,a3
     7d8:	078a                	slli	a5,a5,0x2
     7da:	973e                	add	a4,a4,a5
     7dc:	fe042783          	lw	a5,-32(s0)
     7e0:	97ba                	add	a5,a5,a4
     7e2:	078a                	slli	a5,a5,0x2
     7e4:	97b2                	add	a5,a5,a2
     7e6:	439c                	lw	a5,0(a5)
     7e8:	883e                	mv	a6,a5
     7ea:	87ae                	mv	a5,a1
     7ec:	fe042703          	lw	a4,-32(s0)
     7f0:	fe442683          	lw	a3,-28(s0)
     7f4:	fe842603          	lw	a2,-24(s0)
     7f8:	fec42583          	lw	a1,-20(s0)
     7fc:	6509                	lui	a0,0x2
     7fe:	c5c50513          	addi	a0,a0,-932 # 1c5c <_text_end+0x3c>
     802:	1ee010ef          	jal	19f0 <printf_>
     806:	fe042783          	lw	a5,-32(s0)
     80a:	0785                	addi	a5,a5,1
     80c:	fef42023          	sw	a5,-32(s0)
     810:	fe042703          	lw	a4,-32(s0)
     814:	4795                	li	a5,5
     816:	e2e7f6e3          	bgeu	a5,a4,642 <check_values+0x28>
     81a:	fe442783          	lw	a5,-28(s0)
     81e:	0785                	addi	a5,a5,1
     820:	fef42223          	sw	a5,-28(s0)
     824:	fe442703          	lw	a4,-28(s0)
     828:	4795                	li	a5,5
     82a:	e0e7f9e3          	bgeu	a5,a4,63c <check_values+0x22>
     82e:	fe842783          	lw	a5,-24(s0)
     832:	0785                	addi	a5,a5,1
     834:	fef42423          	sw	a5,-24(s0)
     838:	fe842703          	lw	a4,-24(s0)
     83c:	478d                	li	a5,3
     83e:	dee7fce3          	bgeu	a5,a4,636 <check_values+0x1c>
     842:	fec42783          	lw	a5,-20(s0)
     846:	0785                	addi	a5,a5,1
     848:	fef42623          	sw	a5,-20(s0)
     84c:	fec42703          	lw	a4,-20(s0)
     850:	4785                	li	a5,1
     852:	dce7ffe3          	bgeu	a5,a4,630 <check_values+0x16>
     856:	4785                	li	a5,1
     858:	853e                	mv	a0,a5
     85a:	50b2                	lw	ra,44(sp)
     85c:	5422                	lw	s0,40(sp)
     85e:	6145                	addi	sp,sp,48
     860:	8082                	ret

00000862 <dump_csrs>:
     862:	1101                	addi	sp,sp,-32
     864:	ce06                	sw	ra,28(sp)
     866:	cc22                	sw	s0,24(sp)
     868:	1000                	addi	s0,sp,32
     86a:	57fd                	li	a5,-1
     86c:	fef42623          	sw	a5,-20(s0)
     870:	6789                	lui	a5,0x2
     872:	c9478513          	addi	a0,a5,-876 # 1c94 <_text_end+0x74>
     876:	17a010ef          	jal	19f0 <printf_>
     87a:	000307b7          	lui	a5,0x30
     87e:	00078793          	mv	a5,a5
     882:	853e                	mv	a0,a5
     884:	32a5                	jal	1ec <Xil_In32>
     886:	87aa                	mv	a5,a0
     888:	85be                	mv	a1,a5
     88a:	6789                	lui	a5,0x2
     88c:	ca078513          	addi	a0,a5,-864 # 1ca0 <_text_end+0x80>
     890:	160010ef          	jal	19f0 <printf_>
     894:	000307b7          	lui	a5,0x30
     898:	00078793          	mv	a5,a5
     89c:	07c1                	addi	a5,a5,16 # 30010 <_peripheral_HLS_CONTROL_start+0x10>
     89e:	853e                	mv	a0,a5
     8a0:	32b1                	jal	1ec <Xil_In32>
     8a2:	87aa                	mv	a5,a0
     8a4:	85be                	mv	a1,a5
     8a6:	6789                	lui	a5,0x2
     8a8:	cbc78513          	addi	a0,a5,-836 # 1cbc <_text_end+0x9c>
     8ac:	144010ef          	jal	19f0 <printf_>
     8b0:	000307b7          	lui	a5,0x30
     8b4:	00078793          	mv	a5,a5
     8b8:	0791                	addi	a5,a5,4 # 30004 <_peripheral_HLS_CONTROL_start+0x4>
     8ba:	853e                	mv	a0,a5
     8bc:	3a05                	jal	1ec <Xil_In32>
     8be:	87aa                	mv	a5,a0
     8c0:	85be                	mv	a1,a5
     8c2:	6789                	lui	a5,0x2
     8c4:	cd878513          	addi	a0,a5,-808 # 1cd8 <_text_end+0xb8>
     8c8:	128010ef          	jal	19f0 <printf_>
     8cc:	000307b7          	lui	a5,0x30
     8d0:	00078793          	mv	a5,a5
     8d4:	07f1                	addi	a5,a5,28 # 3001c <_peripheral_HLS_CONTROL_start+0x1c>
     8d6:	853e                	mv	a0,a5
     8d8:	3a11                	jal	1ec <Xil_In32>
     8da:	87aa                	mv	a5,a0
     8dc:	85be                	mv	a1,a5
     8de:	6789                	lui	a5,0x2
     8e0:	cf478513          	addi	a0,a5,-780 # 1cf4 <_text_end+0xd4>
     8e4:	10c010ef          	jal	19f0 <printf_>
     8e8:	000307b7          	lui	a5,0x30
     8ec:	00078793          	mv	a5,a5
     8f0:	07a1                	addi	a5,a5,8 # 30008 <_peripheral_HLS_CONTROL_start+0x8>
     8f2:	853e                	mv	a0,a5
     8f4:	38e5                	jal	1ec <Xil_In32>
     8f6:	87aa                	mv	a5,a0
     8f8:	85be                	mv	a1,a5
     8fa:	6789                	lui	a5,0x2
     8fc:	d1078513          	addi	a0,a5,-752 # 1d10 <_text_end+0xf0>
     900:	0f0010ef          	jal	19f0 <printf_>
     904:	000307b7          	lui	a5,0x30
     908:	00078793          	mv	a5,a5
     90c:	02878793          	addi	a5,a5,40 # 30028 <_peripheral_HLS_CONTROL_start+0x28>
     910:	853e                	mv	a0,a5
     912:	38e9                	jal	1ec <Xil_In32>
     914:	87aa                	mv	a5,a0
     916:	85be                	mv	a1,a5
     918:	6789                	lui	a5,0x2
     91a:	d2c78513          	addi	a0,a5,-724 # 1d2c <_text_end+0x10c>
     91e:	0d2010ef          	jal	19f0 <printf_>
     922:	000307b7          	lui	a5,0x30
     926:	00078793          	mv	a5,a5
     92a:	07b1                	addi	a5,a5,12 # 3000c <_peripheral_HLS_CONTROL_start+0xc>
     92c:	853e                	mv	a0,a5
     92e:	387d                	jal	1ec <Xil_In32>
     930:	87aa                	mv	a5,a0
     932:	85be                	mv	a1,a5
     934:	6789                	lui	a5,0x2
     936:	d4878513          	addi	a0,a5,-696 # 1d48 <_text_end+0x128>
     93a:	0b6010ef          	jal	19f0 <printf_>
     93e:	0001                	nop
     940:	40f2                	lw	ra,28(sp)
     942:	4462                	lw	s0,24(sp)
     944:	6105                	addi	sp,sp,32
     946:	8082                	ret

00000948 <print_control_csr>:
     948:	1101                	addi	sp,sp,-32
     94a:	ce06                	sw	ra,28(sp)
     94c:	cc22                	sw	s0,24(sp)
     94e:	1000                	addi	s0,sp,32
     950:	fea42623          	sw	a0,-20(s0)
     954:	fec42583          	lw	a1,-20(s0)
     958:	6789                	lui	a5,0x2
     95a:	d6478513          	addi	a0,a5,-668 # 1d64 <_text_end+0x144>
     95e:	092010ef          	jal	19f0 <printf_>
     962:	fec42783          	lw	a5,-20(s0)
     966:	8b85                	andi	a5,a5,1
     968:	85be                	mv	a1,a5
     96a:	6789                	lui	a5,0x2
     96c:	d7878513          	addi	a0,a5,-648 # 1d78 <_text_end+0x158>
     970:	080010ef          	jal	19f0 <printf_>
     974:	fec42783          	lw	a5,-20(s0)
     978:	8385                	srli	a5,a5,0x1
     97a:	8b85                	andi	a5,a5,1
     97c:	85be                	mv	a1,a5
     97e:	6789                	lui	a5,0x2
     980:	d9478513          	addi	a0,a5,-620 # 1d94 <_text_end+0x174>
     984:	06c010ef          	jal	19f0 <printf_>
     988:	fec42783          	lw	a5,-20(s0)
     98c:	8389                	srli	a5,a5,0x2
     98e:	8b85                	andi	a5,a5,1
     990:	85be                	mv	a1,a5
     992:	6789                	lui	a5,0x2
     994:	db078513          	addi	a0,a5,-592 # 1db0 <_text_end+0x190>
     998:	058010ef          	jal	19f0 <printf_>
     99c:	fec42783          	lw	a5,-20(s0)
     9a0:	838d                	srli	a5,a5,0x3
     9a2:	8b85                	andi	a5,a5,1
     9a4:	85be                	mv	a1,a5
     9a6:	6789                	lui	a5,0x2
     9a8:	dcc78513          	addi	a0,a5,-564 # 1dcc <_text_end+0x1ac>
     9ac:	044010ef          	jal	19f0 <printf_>
     9b0:	fec42783          	lw	a5,-20(s0)
     9b4:	8391                	srli	a5,a5,0x4
     9b6:	8b85                	andi	a5,a5,1
     9b8:	85be                	mv	a1,a5
     9ba:	6789                	lui	a5,0x2
     9bc:	de878513          	addi	a0,a5,-536 # 1de8 <_text_end+0x1c8>
     9c0:	030010ef          	jal	19f0 <printf_>
     9c4:	fec42783          	lw	a5,-20(s0)
     9c8:	839d                	srli	a5,a5,0x7
     9ca:	8b85                	andi	a5,a5,1
     9cc:	85be                	mv	a1,a5
     9ce:	6789                	lui	a5,0x2
     9d0:	e0478513          	addi	a0,a5,-508 # 1e04 <_text_end+0x1e4>
     9d4:	01c010ef          	jal	19f0 <printf_>
     9d8:	fec42783          	lw	a5,-20(s0)
     9dc:	83a5                	srli	a5,a5,0x9
     9de:	8b85                	andi	a5,a5,1
     9e0:	85be                	mv	a1,a5
     9e2:	6789                	lui	a5,0x2
     9e4:	e2078513          	addi	a0,a5,-480 # 1e20 <_text_end+0x200>
     9e8:	008010ef          	jal	19f0 <printf_>
     9ec:	0001                	nop
     9ee:	40f2                	lw	ra,28(sp)
     9f0:	4462                	lw	s0,24(sp)
     9f2:	6105                	addi	sp,sp,32
     9f4:	8082                	ret

000009f6 <main>:
     9f6:	bf010113          	addi	sp,sp,-1040
     9fa:	40112623          	sw	ra,1036(sp)
     9fe:	40812423          	sw	s0,1032(sp)
     a02:	40912223          	sw	s1,1028(sp)
     a06:	41212023          	sw	s2,1024(sp)
     a0a:	41010413          	addi	s0,sp,1040
     a0e:	72f9                	lui	t0,0xffffe
     a10:	9116                	add	sp,sp,t0
     a12:	ff040793          	addi	a5,s0,-16
     a16:	76f9                	lui	a3,0xffffe
     a18:	bfc68713          	addi	a4,a3,-1028 # ffffdbfc <_peripheral_PLIC_end+0xf7ffdbfc>
     a1c:	9722                	add	a4,a4,s0
     a1e:	c31c                	sw	a5,0(a4)
     a20:	77f9                	lui	a5,0xffffe
     a22:	c1078793          	addi	a5,a5,-1008 # ffffdc10 <_peripheral_PLIC_end+0xf7ffdc10>
     a26:	bfc68713          	addi	a4,a3,-1028
     a2a:	9722                	add	a4,a4,s0
     a2c:	4318                	lw	a4,0(a4)
     a2e:	97ba                	add	a5,a5,a4
     a30:	7ff78793          	addi	a5,a5,2047
     a34:	83ad                	srli	a5,a5,0xb
     a36:	00b79493          	slli	s1,a5,0xb
     a3a:	000207b7          	lui	a5,0x20
     a3e:	00078793          	mv	a5,a5
     a42:	853e                	mv	a0,a5
     a44:	144010ef          	jal	1b88 <tinyIO_init>
     a48:	b6440793          	addi	a5,s0,-1180
     a4c:	48000713          	li	a4,1152
     a50:	863a                	mv	a2,a4
     a52:	4581                	li	a1,0
     a54:	853e                	mv	a0,a5
     a56:	f5eff0ef          	jal	1b4 <memset>
     a5a:	6789                	lui	a5,0x2
     a5c:	e3c78513          	addi	a0,a5,-452 # 1e3c <_text_end+0x21c>
     a60:	791000ef          	jal	19f0 <printf_>
     a64:	6789                	lui	a5,0x2
     a66:	e4078513          	addi	a0,a5,-448 # 1e40 <_text_end+0x220>
     a6a:	787000ef          	jal	19f0 <printf_>
     a6e:	6789                	lui	a5,0x2
     a70:	e5478513          	addi	a0,a5,-428 # 1e54 <_text_end+0x234>
     a74:	77d000ef          	jal	19f0 <printf_>
     a78:	6789                	lui	a5,0x2
     a7a:	e4078513          	addi	a0,a5,-448 # 1e40 <_text_end+0x220>
     a7e:	773000ef          	jal	19f0 <printf_>
     a82:	6789                	lui	a5,0x2
     a84:	e3c78513          	addi	a0,a5,-452 # 1e3c <_text_end+0x21c>
     a88:	769000ef          	jal	19f0 <printf_>
     a8c:	6785                	lui	a5,0x1
     a8e:	c0078793          	addi	a5,a5,-1024 # c00 <main+0x20a>
     a92:	00f48733          	add	a4,s1,a5
     a96:	6785                	lui	a5,0x1
     a98:	40078793          	addi	a5,a5,1024 # 1400 <_vsnprintf+0x22c>
     a9c:	97a6                	add	a5,a5,s1
     a9e:	863a                	mv	a2,a4
     aa0:	85be                	mv	a1,a5
     aa2:	8526                	mv	a0,s1
     aa4:	f88ff0ef          	jal	22c <init_data>
     aa8:	6789                	lui	a5,0x2
     aaa:	e6c78513          	addi	a0,a5,-404 # 1e6c <_text_end+0x24c>
     aae:	743000ef          	jal	19f0 <printf_>
     ab2:	b6440713          	addi	a4,s0,-1180
     ab6:	6785                	lui	a5,0x1
     ab8:	40078793          	addi	a5,a5,1024 # 1400 <_vsnprintf+0x22c>
     abc:	97a6                	add	a5,a5,s1
     abe:	863a                	mv	a2,a4
     ac0:	85be                	mv	a1,a5
     ac2:	8526                	mv	a0,s1
     ac4:	3279                	jal	452 <compute_expected>
     ac6:	6789                	lui	a5,0x2
     ac8:	e8878513          	addi	a0,a5,-376 # 1e88 <_text_end+0x268>
     acc:	725000ef          	jal	19f0 <printf_>
     ad0:	fe842503          	lw	a0,-24(s0)
     ad4:	3d95                	jal	948 <print_control_csr>
     ad6:	fe042623          	sw	zero,-20(s0)
     ada:	fec42783          	lw	a5,-20(s0)
     ade:	0785                	addi	a5,a5,1
     ae0:	fef42623          	sw	a5,-20(s0)
     ae4:	fec42703          	lw	a4,-20(s0)
     ae8:	6789                	lui	a5,0x2
     aea:	71078793          	addi	a5,a5,1808 # 2710 <global_uart+0x7c0>
     aee:	02f71363          	bne	a4,a5,b14 <main+0x11e>
     af2:	fe042623          	sw	zero,-20(s0)
     af6:	57fd                	li	a5,-1
     af8:	fef42423          	sw	a5,-24(s0)
     afc:	000307b7          	lui	a5,0x30
     b00:	00078793          	mv	a5,a5
     b04:	853e                	mv	a0,a5
     b06:	ee6ff0ef          	jal	1ec <Xil_In32>
     b0a:	fea42423          	sw	a0,-24(s0)
     b0e:	fe842503          	lw	a0,-24(s0)
     b12:	3d1d                	jal	948 <print_control_csr>
     b14:	000307b7          	lui	a5,0x30
     b18:	00078793          	mv	a5,a5
     b1c:	07b1                	addi	a5,a5,12 # 3000c <_peripheral_HLS_CONTROL_start+0xc>
     b1e:	853e                	mv	a0,a5
     b20:	eccff0ef          	jal	1ec <Xil_In32>
     b24:	87aa                	mv	a5,a0
     b26:	8b89                	andi	a5,a5,2
     b28:	fbcd                	bnez	a5,ada <main+0xe4>
     b2a:	000307b7          	lui	a5,0x30
     b2e:	00078793          	mv	a5,a5
     b32:	07c1                	addi	a5,a5,16 # 30010 <_peripheral_HLS_CONTROL_start+0x10>
     b34:	8726                	mv	a4,s1
     b36:	85ba                	mv	a1,a4
     b38:	853e                	mv	a0,a5
     b3a:	ecaff0ef          	jal	204 <Xil_Out32>
     b3e:	000307b7          	lui	a5,0x30
     b42:	00078793          	mv	a5,a5
     b46:	01c78713          	addi	a4,a5,28 # 3001c <_peripheral_HLS_CONTROL_start+0x1c>
     b4a:	6785                	lui	a5,0x1
     b4c:	40078793          	addi	a5,a5,1024 # 1400 <_vsnprintf+0x22c>
     b50:	97a6                	add	a5,a5,s1
     b52:	85be                	mv	a1,a5
     b54:	853a                	mv	a0,a4
     b56:	eaeff0ef          	jal	204 <Xil_Out32>
     b5a:	000307b7          	lui	a5,0x30
     b5e:	00078793          	mv	a5,a5
     b62:	02878713          	addi	a4,a5,40 # 30028 <_peripheral_HLS_CONTROL_start+0x28>
     b66:	6785                	lui	a5,0x1
     b68:	c0078793          	addi	a5,a5,-1024 # c00 <main+0x20a>
     b6c:	97a6                	add	a5,a5,s1
     b6e:	85be                	mv	a1,a5
     b70:	853a                	mv	a0,a4
     b72:	e92ff0ef          	jal	204 <Xil_Out32>
     b76:	000307b7          	lui	a5,0x30
     b7a:	00078793          	mv	a5,a5
     b7e:	459d                	li	a1,7
     b80:	853e                	mv	a0,a5
     b82:	e82ff0ef          	jal	204 <Xil_Out32>
     b86:	000307b7          	lui	a5,0x30
     b8a:	00078913          	mv	s2,a5
     b8e:	000307b7          	lui	a5,0x30
     b92:	00078793          	mv	a5,a5
     b96:	853e                	mv	a0,a5
     b98:	e54ff0ef          	jal	1ec <Xil_In32>
     b9c:	87aa                	mv	a5,a0
     b9e:	0807f793          	andi	a5,a5,128
     ba2:	0017e793          	ori	a5,a5,1
     ba6:	85be                	mv	a1,a5
     ba8:	854a                	mv	a0,s2
     baa:	e5aff0ef          	jal	204 <Xil_Out32>
     bae:	6789                	lui	a5,0x2
     bb0:	ea078513          	addi	a0,a5,-352 # 1ea0 <_text_end+0x280>
     bb4:	63d000ef          	jal	19f0 <printf_>
     bb8:	fe042623          	sw	zero,-20(s0)
     bbc:	fec42783          	lw	a5,-20(s0)
     bc0:	0785                	addi	a5,a5,1
     bc2:	fef42623          	sw	a5,-20(s0)
     bc6:	fec42703          	lw	a4,-20(s0)
     bca:	6789                	lui	a5,0x2
     bcc:	71078793          	addi	a5,a5,1808 # 2710 <global_uart+0x7c0>
     bd0:	02f71363          	bne	a4,a5,bf6 <main+0x200>
     bd4:	fe042623          	sw	zero,-20(s0)
     bd8:	57fd                	li	a5,-1
     bda:	fef42423          	sw	a5,-24(s0)
     bde:	000307b7          	lui	a5,0x30
     be2:	00078793          	mv	a5,a5
     be6:	853e                	mv	a0,a5
     be8:	e04ff0ef          	jal	1ec <Xil_In32>
     bec:	fea42423          	sw	a0,-24(s0)
     bf0:	fe842503          	lw	a0,-24(s0)
     bf4:	3b91                	jal	948 <print_control_csr>
     bf6:	000307b7          	lui	a5,0x30
     bfa:	00078793          	mv	a5,a5
     bfe:	07b1                	addi	a5,a5,12 # 3000c <_peripheral_HLS_CONTROL_start+0xc>
     c00:	853e                	mv	a0,a5
     c02:	deaff0ef          	jal	1ec <Xil_In32>
     c06:	87aa                	mv	a5,a0
     c08:	8b85                	andi	a5,a5,1
     c0a:	fbcd                	bnez	a5,bbc <main+0x1c6>
     c0c:	3999                	jal	862 <dump_csrs>
     c0e:	6789                	lui	a5,0x2
     c10:	eb878513          	addi	a0,a5,-328 # 1eb8 <_text_end+0x298>
     c14:	5dd000ef          	jal	19f0 <printf_>
     c18:	b6440713          	addi	a4,s0,-1180
     c1c:	6785                	lui	a5,0x1
     c1e:	c0078793          	addi	a5,a5,-1024 # c00 <main+0x20a>
     c22:	97a6                	add	a5,a5,s1
     c24:	85ba                	mv	a1,a4
     c26:	853e                	mv	a0,a5
     c28:	3acd                	jal	61a <check_values>
     c2a:	87aa                	mv	a5,a0
     c2c:	00f037b3          	snez	a5,a5
     c30:	fef403a3          	sb	a5,-25(s0)
     c34:	fe744783          	lbu	a5,-25(s0)
     c38:	0017c793          	xori	a5,a5,1
     c3c:	0ff7f793          	zext.b	a5,a5
     c40:	cb81                	beqz	a5,c50 <main+0x25a>
     c42:	6789                	lui	a5,0x2
     c44:	ed878513          	addi	a0,a5,-296 # 1ed8 <_text_end+0x2b8>
     c48:	5a9000ef          	jal	19f0 <printf_>
     c4c:	4785                	li	a5,1
     c4e:	a039                	j	c5c <main+0x266>
     c50:	6789                	lui	a5,0x2
     c52:	ef078513          	addi	a0,a5,-272 # 1ef0 <_text_end+0x2d0>
     c56:	59b000ef          	jal	19f0 <printf_>
     c5a:	4781                	li	a5,0
     c5c:	853e                	mv	a0,a5
     c5e:	6289                	lui	t0,0x2
     c60:	9116                	add	sp,sp,t0
     c62:	40c12083          	lw	ra,1036(sp)
     c66:	40812403          	lw	s0,1032(sp)
     c6a:	40412483          	lw	s1,1028(sp)
     c6e:	40012903          	lw	s2,1024(sp)
     c72:	41010113          	addi	sp,sp,1040
     c76:	8082                	ret

00000c78 <_out_buffer>:
     c78:	00d67663          	bgeu	a2,a3,c84 <_out_buffer+0xc>
     c7c:	00c585b3          	add	a1,a1,a2
     c80:	00a58023          	sb	a0,0(a1)
     c84:	00008067          	ret

00000c88 <_out_null>:
     c88:	00008067          	ret

00000c8c <_ntoa_long>:
     c8c:	fb010113          	addi	sp,sp,-80
     c90:	05412e03          	lw	t3,84(sp)
     c94:	04912223          	sw	s1,68(sp)
     c98:	05212023          	sw	s2,64(sp)
     c9c:	03312e23          	sw	s3,60(sp)
     ca0:	03412c23          	sw	s4,56(sp)
     ca4:	03512a23          	sw	s5,52(sp)
     ca8:	04112623          	sw	ra,76(sp)
     cac:	04812423          	sw	s0,72(sp)
     cb0:	03612823          	sw	s6,48(sp)
     cb4:	03712623          	sw	s7,44(sp)
     cb8:	03812423          	sw	s8,40(sp)
     cbc:	03912223          	sw	s9,36(sp)
     cc0:	05012a83          	lw	s5,80(sp)
     cc4:	00050493          	mv	s1,a0
     cc8:	00058913          	mv	s2,a1
     ccc:	00060a13          	mv	s4,a2
     cd0:	00068993          	mv	s3,a3
     cd4:	400e7f13          	andi	t5,t3,1024
     cd8:	010e7f93          	andi	t6,t3,16
     cdc:	00071a63          	bnez	a4,cf0 <_ntoa_long+0x64>
     ce0:	fefe7693          	andi	a3,t3,-17
     ce4:	0c0f1863          	bnez	t5,db4 <_ntoa_long+0x128>
     ce8:	00000f93          	li	t6,0
     cec:	00068e13          	mv	t3,a3
     cf0:	020e7693          	andi	a3,t3,32
     cf4:	06100593          	li	a1,97
     cf8:	14069463          	bnez	a3,e40 <_ntoa_long+0x1b4>
     cfc:	00000413          	li	s0,0
     d00:	00010b13          	mv	s6,sp
     d04:	00900513          	li	a0,9
     d08:	ff658593          	addi	a1,a1,-10
     d0c:	02000e93          	li	t4,32
     d10:	00c0006f          	j	d1c <_ntoa_long+0x90>
     d14:	03d40c63          	beq	s0,t4,d4c <_ntoa_long+0xc0>
     d18:	00068713          	mv	a4,a3
     d1c:	030776b3          	remu	a3,a4,a6
     d20:	0ff6f313          	zext.b	t1,a3
     d24:	03030613          	addi	a2,t1,48
     d28:	00b30333          	add	t1,t1,a1
     d2c:	0ff37313          	zext.b	t1,t1
     d30:	00d56463          	bltu	a0,a3,d38 <_ntoa_long+0xac>
     d34:	0ff67313          	zext.b	t1,a2
     d38:	00140413          	addi	s0,s0,1
     d3c:	008b06b3          	add	a3,s6,s0
     d40:	fe668fa3          	sb	t1,-1(a3)
     d44:	030756b3          	divu	a3,a4,a6
     d48:	fd0776e3          	bgeu	a4,a6,d14 <_ntoa_long+0x88>
     d4c:	002e7c13          	andi	s8,t3,2
     d50:	060c0c63          	beqz	s8,dc8 <_ntoa_long+0x13c>
     d54:	120f8c63          	beqz	t6,e8c <_ntoa_long+0x200>
     d58:	220f1263          	bnez	t5,f7c <_ntoa_long+0x2f0>
     d5c:	2a041263          	bnez	s0,1000 <_ntoa_long+0x374>
     d60:	01000713          	li	a4,16
     d64:	3ee80663          	beq	a6,a4,1150 <_ntoa_long+0x4c4>
     d68:	00200713          	li	a4,2
     d6c:	3ee80c63          	beq	a6,a4,1164 <_ntoa_long+0x4d8>
     d70:	03000713          	li	a4,48
     d74:	00e10023          	sb	a4,0(sp)
     d78:	000e0693          	mv	a3,t3
     d7c:	00100713          	li	a4,1
     d80:	0036f613          	andi	a2,a3,3
     d84:	24079663          	bnez	a5,fd0 <_ntoa_long+0x344>
     d88:	0046f793          	andi	a5,a3,4
     d8c:	30078c63          	beqz	a5,10a4 <_ntoa_long+0x418>
     d90:	02070793          	addi	a5,a4,32
     d94:	002787b3          	add	a5,a5,sp
     d98:	00170413          	addi	s0,a4,1
     d9c:	02b00713          	li	a4,43
     da0:	fee78023          	sb	a4,-32(a5)
     da4:	000a0b93          	mv	s7,s4
     da8:	1e061c63          	bnez	a2,fa0 <_ntoa_long+0x314>
     dac:	0f546a63          	bltu	s0,s5,ea0 <_ntoa_long+0x214>
     db0:	1f00006f          	j	fa0 <_ntoa_long+0x314>
     db4:	002e7c13          	andi	s8,t3,2
     db8:	fc0c14e3          	bnez	s8,d80 <_ntoa_long+0xf4>
     dbc:	00000f93          	li	t6,0
     dc0:	00068e13          	mv	t3,a3
     dc4:	00000413          	li	s0,0
     dc8:	180a9263          	bnez	s5,f4c <_ntoa_long+0x2c0>
     dcc:	07147463          	bgeu	s0,a7,e34 <_ntoa_long+0x1a8>
     dd0:	02000713          	li	a4,32
     dd4:	001e7c13          	andi	s8,t3,1
     dd8:	38e40e63          	beq	s0,a4,1174 <_ntoa_long+0x4e8>
     ddc:	00010b13          	mv	s6,sp
     de0:	03000693          	li	a3,48
     de4:	02000613          	li	a2,32
     de8:	0080006f          	j	df0 <_ntoa_long+0x164>
     dec:	04c40e63          	beq	s0,a2,e48 <_ntoa_long+0x1bc>
     df0:	00140413          	addi	s0,s0,1
     df4:	008b0733          	add	a4,s6,s0
     df8:	fed70fa3          	sb	a3,-1(a4)
     dfc:	ff1468e3          	bltu	s0,a7,dec <_ntoa_long+0x160>
     e00:	f40c0ae3          	beqz	s8,d54 <_ntoa_long+0xc8>
     e04:	03547863          	bgeu	s0,s5,e34 <_ntoa_long+0x1a8>
     e08:	02000713          	li	a4,32
     e0c:	00010b13          	mv	s6,sp
     e10:	03000693          	li	a3,48
     e14:	02000613          	li	a2,32
     e18:	00e41663          	bne	s0,a4,e24 <_ntoa_long+0x198>
     e1c:	0340006f          	j	e50 <_ntoa_long+0x1c4>
     e20:	24c40463          	beq	s0,a2,1068 <_ntoa_long+0x3dc>
     e24:	00140413          	addi	s0,s0,1
     e28:	008b0733          	add	a4,s6,s0
     e2c:	fed70fa3          	sb	a3,-1(a4)
     e30:	ff5418e3          	bne	s0,s5,e20 <_ntoa_long+0x194>
     e34:	00000c13          	li	s8,0
     e38:	f20f90e3          	bnez	t6,d58 <_ntoa_long+0xcc>
     e3c:	0500006f          	j	e8c <_ntoa_long+0x200>
     e40:	04100593          	li	a1,65
     e44:	eb9ff06f          	j	cfc <_ntoa_long+0x70>
     e48:	340c0a63          	beqz	s8,119c <_ntoa_long+0x510>
     e4c:	21547e63          	bgeu	s0,s5,1068 <_ntoa_long+0x3dc>
     e50:	260f8a63          	beqz	t6,10c4 <_ntoa_long+0x438>
     e54:	200f1e63          	bnez	t5,1070 <_ntoa_long+0x3e4>
     e58:	02000713          	li	a4,32
     e5c:	00000c13          	li	s8,0
     e60:	02000413          	li	s0,32
     e64:	1ae89063          	bne	a7,a4,1004 <_ntoa_long+0x378>
     e68:	01f00693          	li	a3,31
     e6c:	01000713          	li	a4,16
     e70:	2ae80a63          	beq	a6,a4,1124 <_ntoa_long+0x498>
     e74:	00200713          	li	a4,2
     e78:	30e80263          	beq	a6,a4,117c <_ntoa_long+0x4f0>
     e7c:	02068713          	addi	a4,a3,32
     e80:	002706b3          	add	a3,a4,sp
     e84:	03000713          	li	a4,48
     e88:	fee68023          	sb	a4,-32(a3)
     e8c:	02000713          	li	a4,32
     e90:	24e41063          	bne	s0,a4,10d0 <_ntoa_long+0x444>
     e94:	003e7e13          	andi	t3,t3,3
     e98:	100e1263          	bnez	t3,f9c <_ntoa_long+0x310>
     e9c:	11547063          	bgeu	s0,s5,f9c <_ntoa_long+0x310>
     ea0:	000a0b13          	mv	s6,s4
     ea4:	41440bb3          	sub	s7,s0,s4
     ea8:	000b0613          	mv	a2,s6
     eac:	00098693          	mv	a3,s3
     eb0:	00090593          	mv	a1,s2
     eb4:	02000513          	li	a0,32
     eb8:	001b0b13          	addi	s6,s6,1
     ebc:	000480e7          	jalr	s1
     ec0:	016b87b3          	add	a5,s7,s6
     ec4:	ff57e2e3          	bltu	a5,s5,ea8 <_ntoa_long+0x21c>
     ec8:	00140793          	addi	a5,s0,1
     ecc:	00000b93          	li	s7,0
     ed0:	00fae663          	bltu	s5,a5,edc <_ntoa_long+0x250>
     ed4:	fffa8b93          	addi	s7,s5,-1
     ed8:	408b8bb3          	sub	s7,s7,s0
     edc:	001a0793          	addi	a5,s4,1
     ee0:	00fb8bb3          	add	s7,s7,a5
     ee4:	0a041e63          	bnez	s0,fa0 <_ntoa_long+0x314>
     ee8:	020c0663          	beqz	s8,f14 <_ntoa_long+0x288>
     eec:	414b8a33          	sub	s4,s7,s4
     ef0:	035a7263          	bgeu	s4,s5,f14 <_ntoa_long+0x288>
     ef4:	000b8613          	mv	a2,s7
     ef8:	001a0a13          	addi	s4,s4,1
     efc:	00098693          	mv	a3,s3
     f00:	00090593          	mv	a1,s2
     f04:	02000513          	li	a0,32
     f08:	001b8b93          	addi	s7,s7,1
     f0c:	000480e7          	jalr	s1
     f10:	ff5a62e3          	bltu	s4,s5,ef4 <_ntoa_long+0x268>
     f14:	04c12083          	lw	ra,76(sp)
     f18:	04812403          	lw	s0,72(sp)
     f1c:	04412483          	lw	s1,68(sp)
     f20:	04012903          	lw	s2,64(sp)
     f24:	03c12983          	lw	s3,60(sp)
     f28:	03812a03          	lw	s4,56(sp)
     f2c:	03412a83          	lw	s5,52(sp)
     f30:	03012b03          	lw	s6,48(sp)
     f34:	02812c03          	lw	s8,40(sp)
     f38:	02412c83          	lw	s9,36(sp)
     f3c:	000b8513          	mv	a0,s7
     f40:	02c12b83          	lw	s7,44(sp)
     f44:	05010113          	addi	sp,sp,80
     f48:	00008067          	ret
     f4c:	001e7c13          	andi	s8,t3,1
     f50:	080c0c63          	beqz	s8,fe8 <_ntoa_long+0x35c>
     f54:	10079663          	bnez	a5,1060 <_ntoa_long+0x3d4>
     f58:	00ce7713          	andi	a4,t3,12
     f5c:	10071263          	bnez	a4,1060 <_ntoa_long+0x3d4>
     f60:	eb1472e3          	bgeu	s0,a7,e04 <_ntoa_long+0x178>
     f64:	02000713          	li	a4,32
     f68:	e6e41ae3          	bne	s0,a4,ddc <_ntoa_long+0x150>
     f6c:	ef5462e3          	bltu	s0,s5,e50 <_ntoa_long+0x1c4>
     f70:	220f8e63          	beqz	t6,11ac <_ntoa_long+0x520>
     f74:	00000c13          	li	s8,0
     f78:	de0f02e3          	beqz	t5,d5c <_ntoa_long+0xd0>
     f7c:	01000693          	li	a3,16
     f80:	003e7713          	andi	a4,t3,3
     f84:	0ed80c63          	beq	a6,a3,107c <_ntoa_long+0x3f0>
     f88:	00200693          	li	a3,2
     f8c:	0ad80863          	beq	a6,a3,103c <_ntoa_long+0x3b0>
     f90:	02000693          	li	a3,32
     f94:	1ad41863          	bne	s0,a3,1144 <_ntoa_long+0x4b8>
     f98:	f00702e3          	beqz	a4,e9c <_ntoa_long+0x210>
     f9c:	000a0b93          	mv	s7,s4
     fa0:	00010b13          	mv	s6,sp
     fa4:	008b8cb3          	add	s9,s7,s0
     fa8:	008b07b3          	add	a5,s6,s0
     fac:	fff7c503          	lbu	a0,-1(a5)
     fb0:	408c8633          	sub	a2,s9,s0
     fb4:	00098693          	mv	a3,s3
     fb8:	fff40413          	addi	s0,s0,-1
     fbc:	00090593          	mv	a1,s2
     fc0:	000c8b93          	mv	s7,s9
     fc4:	000480e7          	jalr	s1
     fc8:	fe0410e3          	bnez	s0,fa8 <_ntoa_long+0x31c>
     fcc:	f1dff06f          	j	ee8 <_ntoa_long+0x25c>
     fd0:	02070793          	addi	a5,a4,32
     fd4:	002787b3          	add	a5,a5,sp
     fd8:	00170413          	addi	s0,a4,1
     fdc:	02d00713          	li	a4,45
     fe0:	fee78023          	sb	a4,-32(a5)
     fe4:	dc1ff06f          	j	da4 <_ntoa_long+0x118>
     fe8:	d71476e3          	bgeu	s0,a7,d54 <_ntoa_long+0xc8>
     fec:	02000713          	li	a4,32
     ff0:	dee416e3          	bne	s0,a4,ddc <_ntoa_long+0x150>
     ff4:	1a0f8c63          	beqz	t6,11ac <_ntoa_long+0x520>
     ff8:	00000c13          	li	s8,0
     ffc:	f80f10e3          	bnez	t5,f7c <_ntoa_long+0x2f0>
    1000:	00888463          	beq	a7,s0,1008 <_ntoa_long+0x37c>
    1004:	f68a9ce3          	bne	s5,s0,f7c <_ntoa_long+0x2f0>
    1008:	fff40693          	addi	a3,s0,-1
    100c:	e60690e3          	bnez	a3,e6c <_ntoa_long+0x1e0>
    1010:	01000713          	li	a4,16
    1014:	d4e81ae3          	bne	a6,a4,d68 <_ntoa_long+0xdc>
    1018:	fffe4713          	not	a4,t3
    101c:	02077713          	andi	a4,a4,32
    1020:	05870713          	addi	a4,a4,88
    1024:	00e10023          	sb	a4,0(sp)
    1028:	03000713          	li	a4,48
    102c:	00e100a3          	sb	a4,1(sp)
    1030:	000e0693          	mv	a3,t3
    1034:	00200713          	li	a4,2
    1038:	d49ff06f          	j	d80 <_ntoa_long+0xf4>
    103c:	02000693          	li	a3,32
    1040:	f4d40ce3          	beq	s0,a3,f98 <_ntoa_long+0x30c>
    1044:	00040693          	mv	a3,s0
    1048:	00140413          	addi	s0,s0,1
    104c:	02068693          	addi	a3,a3,32
    1050:	002686b3          	add	a3,a3,sp
    1054:	06200613          	li	a2,98
    1058:	fec68023          	sb	a2,-32(a3)
    105c:	f35ff06f          	j	f90 <_ntoa_long+0x304>
    1060:	fffa8a93          	addi	s5,s5,-1
    1064:	efdff06f          	j	f60 <_ntoa_long+0x2d4>
    1068:	040f8e63          	beqz	t6,10c4 <_ntoa_long+0x438>
    106c:	0a0f0463          	beqz	t5,1114 <_ntoa_long+0x488>
    1070:	00000c13          	li	s8,0
    1074:	02000413          	li	s0,32
    1078:	f05ff06f          	j	f7c <_ntoa_long+0x2f0>
    107c:	020e7693          	andi	a3,t3,32
    1080:	04068e63          	beqz	a3,10dc <_ntoa_long+0x450>
    1084:	02000693          	li	a3,32
    1088:	f0d408e3          	beq	s0,a3,f98 <_ntoa_long+0x30c>
    108c:	02040693          	addi	a3,s0,32
    1090:	002686b3          	add	a3,a3,sp
    1094:	05800613          	li	a2,88
    1098:	fec68023          	sb	a2,-32(a3)
    109c:	00140413          	addi	s0,s0,1
    10a0:	ef1ff06f          	j	f90 <_ntoa_long+0x304>
    10a4:	0086f693          	andi	a3,a3,8
    10a8:	04069a63          	bnez	a3,10fc <_ntoa_long+0x470>
    10ac:	00070413          	mv	s0,a4
    10b0:	00061463          	bnez	a2,10b8 <_ntoa_long+0x42c>
    10b4:	df5766e3          	bltu	a4,s5,ea0 <_ntoa_long+0x214>
    10b8:	000a0b93          	mv	s7,s4
    10bc:	ee0412e3          	bnez	s0,fa0 <_ntoa_long+0x314>
    10c0:	e29ff06f          	j	ee8 <_ntoa_long+0x25c>
    10c4:	00000c13          	li	s8,0
    10c8:	02000413          	li	s0,32
    10cc:	dc9ff06f          	j	e94 <_ntoa_long+0x208>
    10d0:	000e0693          	mv	a3,t3
    10d4:	00040713          	mv	a4,s0
    10d8:	ca9ff06f          	j	d80 <_ntoa_long+0xf4>
    10dc:	02000693          	li	a3,32
    10e0:	ead40ce3          	beq	s0,a3,f98 <_ntoa_long+0x30c>
    10e4:	02040693          	addi	a3,s0,32
    10e8:	002686b3          	add	a3,a3,sp
    10ec:	07800613          	li	a2,120
    10f0:	fec68023          	sb	a2,-32(a3)
    10f4:	00140413          	addi	s0,s0,1
    10f8:	e99ff06f          	j	f90 <_ntoa_long+0x304>
    10fc:	02070793          	addi	a5,a4,32
    1100:	002787b3          	add	a5,a5,sp
    1104:	00170413          	addi	s0,a4,1
    1108:	02000713          	li	a4,32
    110c:	fee78023          	sb	a4,-32(a5)
    1110:	c95ff06f          	j	da4 <_ntoa_long+0x118>
    1114:	02000413          	li	s0,32
    1118:	00000c13          	li	s8,0
    111c:	ee8894e3          	bne	a7,s0,1004 <_ntoa_long+0x378>
    1120:	ee9ff06f          	j	1008 <_ntoa_long+0x37c>
    1124:	020e7713          	andi	a4,t3,32
    1128:	ffe40413          	addi	s0,s0,-2
    112c:	04071c63          	bnez	a4,1184 <_ntoa_long+0x4f8>
    1130:	02040713          	addi	a4,s0,32
    1134:	00270433          	add	s0,a4,sp
    1138:	07800713          	li	a4,120
    113c:	fee40023          	sb	a4,-32(s0)
    1140:	00068413          	mv	s0,a3
    1144:	00040693          	mv	a3,s0
    1148:	00140413          	addi	s0,s0,1
    114c:	d31ff06f          	j	e7c <_ntoa_long+0x1f0>
    1150:	020e7713          	andi	a4,t3,32
    1154:	00070c63          	beqz	a4,116c <_ntoa_long+0x4e0>
    1158:	05800713          	li	a4,88
    115c:	00e10023          	sb	a4,0(sp)
    1160:	ec9ff06f          	j	1028 <_ntoa_long+0x39c>
    1164:	06200713          	li	a4,98
    1168:	ebdff06f          	j	1024 <_ntoa_long+0x398>
    116c:	07800713          	li	a4,120
    1170:	eb5ff06f          	j	1024 <_ntoa_long+0x398>
    1174:	de0c1ee3          	bnez	s8,f70 <_ntoa_long+0x2e4>
    1178:	e7dff06f          	j	ff4 <_ntoa_long+0x368>
    117c:	003e7713          	andi	a4,t3,3
    1180:	ecdff06f          	j	104c <_ntoa_long+0x3c0>
    1184:	02040713          	addi	a4,s0,32
    1188:	00270433          	add	s0,a4,sp
    118c:	05800713          	li	a4,88
    1190:	fee40023          	sb	a4,-32(s0)
    1194:	00068413          	mv	s0,a3
    1198:	fadff06f          	j	1144 <_ntoa_long+0x4b8>
    119c:	ce0f8ce3          	beqz	t6,e94 <_ntoa_long+0x208>
    11a0:	dc0f1ee3          	bnez	t5,f7c <_ntoa_long+0x2f0>
    11a4:	dc8a9ce3          	bne	s5,s0,f7c <_ntoa_long+0x2f0>
    11a8:	e61ff06f          	j	1008 <_ntoa_long+0x37c>
    11ac:	00000c13          	li	s8,0
    11b0:	ce5ff06f          	j	e94 <_ntoa_long+0x208>

000011b4 <_out_char>:
    11b4:	00051463          	bnez	a0,11bc <_out_char+0x8>
    11b8:	00008067          	ret
    11bc:	2150006f          	j	1bd0 <uart_send_char>

000011c0 <_out_fct>:
    11c0:	00050863          	beqz	a0,11d0 <_out_fct+0x10>
    11c4:	0005a783          	lw	a5,0(a1)
    11c8:	0045a583          	lw	a1,4(a1)
    11cc:	00078067          	jr	a5
    11d0:	00008067          	ret

000011d4 <_vsnprintf>:
    11d4:	fa010113          	addi	sp,sp,-96
    11d8:	05312623          	sw	s3,76(sp)
    11dc:	05412423          	sw	s4,72(sp)
    11e0:	05512223          	sw	s5,68(sp)
    11e4:	03812c23          	sw	s8,56(sp)
    11e8:	03a12823          	sw	s10,48(sp)
    11ec:	04112e23          	sw	ra,92(sp)
    11f0:	04812c23          	sw	s0,88(sp)
    11f4:	04912a23          	sw	s1,84(sp)
    11f8:	05212823          	sw	s2,80(sp)
    11fc:	05612023          	sw	s6,64(sp)
    1200:	03712e23          	sw	s7,60(sp)
    1204:	03912a23          	sw	s9,52(sp)
    1208:	03b12623          	sw	s11,44(sp)
    120c:	00058a13          	mv	s4,a1
    1210:	00060993          	mv	s3,a2
    1214:	00068c13          	mv	s8,a3
    1218:	00070d13          	mv	s10,a4
    121c:	00050a93          	mv	s5,a0
    1220:	46058863          	beqz	a1,1690 <_vsnprintf+0x4bc>
    1224:	000c4503          	lbu	a0,0(s8)
    1228:	00000d93          	li	s11,0
    122c:	46050c63          	beqz	a0,16a4 <_vsnprintf+0x4d0>
    1230:	001217b7          	lui	a5,0x121
    1234:	00002b37          	lui	s6,0x2
    1238:	82178793          	addi	a5,a5,-2015 # 120821 <_peripheral_HLS_CONTROL_end+0xe0821>
    123c:	01000913          	li	s2,16
    1240:	f0cb0b13          	addi	s6,s6,-244 # 1f0c <_text_end+0x2ec>
    1244:	00f12a23          	sw	a5,20(sp)
    1248:	0200006f          	j	1268 <_vsnprintf+0x94>
    124c:	000d8613          	mv	a2,s11
    1250:	00098693          	mv	a3,s3
    1254:	000a0593          	mv	a1,s4
    1258:	001d8d93          	addi	s11,s11,1
    125c:	000a80e7          	jalr	s5
    1260:	000c4503          	lbu	a0,0(s8)
    1264:	10050063          	beqz	a0,1364 <_vsnprintf+0x190>
    1268:	02500793          	li	a5,37
    126c:	001c0c13          	addi	s8,s8,1
    1270:	fcf51ee3          	bne	a0,a5,124c <_vsnprintf+0x78>
    1274:	00000413          	li	s0,0
    1278:	000c4503          	lbu	a0,0(s8)
    127c:	001c0713          	addi	a4,s8,1
    1280:	fe050793          	addi	a5,a0,-32
    1284:	0ff7f793          	zext.b	a5,a5
    1288:	00f96a63          	bltu	s2,a5,129c <_vsnprintf+0xc8>
    128c:	00279793          	slli	a5,a5,0x2
    1290:	016787b3          	add	a5,a5,s6
    1294:	0007a783          	lw	a5,0(a5)
    1298:	00078067          	jr	a5
    129c:	fd050793          	addi	a5,a0,-48
    12a0:	0ff7f793          	zext.b	a5,a5
    12a4:	00900693          	li	a3,9
    12a8:	24f6fe63          	bgeu	a3,a5,1504 <_vsnprintf+0x330>
    12ac:	02a00793          	li	a5,42
    12b0:	00000b93          	li	s7,0
    12b4:	2ef50663          	beq	a0,a5,15a0 <_vsnprintf+0x3cc>
    12b8:	02e00793          	li	a5,46
    12bc:	00000c93          	li	s9,0
    12c0:	28f50263          	beq	a0,a5,1544 <_vsnprintf+0x370>
    12c4:	06c00793          	li	a5,108
    12c8:	00070693          	mv	a3,a4
    12cc:	2af50863          	beq	a0,a5,157c <_vsnprintf+0x3a8>
    12d0:	2aa7ee63          	bltu	a5,a0,158c <_vsnprintf+0x3b8>
    12d4:	06800793          	li	a5,104
    12d8:	2ef50e63          	beq	a0,a5,15d4 <_vsnprintf+0x400>
    12dc:	06a00793          	li	a5,106
    12e0:	6ef51663          	bne	a0,a5,19cc <_vsnprintf+0x7f8>
    12e4:	001c4503          	lbu	a0,1(s8)
    12e8:	20046413          	ori	s0,s0,512
    12ec:	07800793          	li	a5,120
    12f0:	00168c13          	addi	s8,a3,1
    12f4:	f4a7ece3          	bltu	a5,a0,124c <_vsnprintf+0x78>
    12f8:	06300793          	li	a5,99
    12fc:	10a7e863          	bltu	a5,a0,140c <_vsnprintf+0x238>
    1300:	06200713          	li	a4,98
    1304:	50e50c63          	beq	a0,a4,181c <_vsnprintf+0x648>
    1308:	16f51663          	bne	a0,a5,1474 <_vsnprintf+0x2a0>
    130c:	00247413          	andi	s0,s0,2
    1310:	004d0493          	addi	s1,s10,4
    1314:	001d8c93          	addi	s9,s11,1
    1318:	40040863          	beqz	s0,1728 <_vsnprintf+0x554>
    131c:	000d4503          	lbu	a0,0(s10)
    1320:	000d8613          	mv	a2,s11
    1324:	00098693          	mv	a3,s3
    1328:	000a0593          	mv	a1,s4
    132c:	000a80e7          	jalr	s5
    1330:	00100793          	li	a5,1
    1334:	017d8db3          	add	s11,s11,s7
    1338:	5577f463          	bgeu	a5,s7,1880 <_vsnprintf+0x6ac>
    133c:	000c8613          	mv	a2,s9
    1340:	00098693          	mv	a3,s3
    1344:	001c8c93          	addi	s9,s9,1
    1348:	000a0593          	mv	a1,s4
    134c:	02000513          	li	a0,32
    1350:	000a80e7          	jalr	s5
    1354:	ffbc94e3          	bne	s9,s11,133c <_vsnprintf+0x168>
    1358:	00048d13          	mv	s10,s1
    135c:	000c4503          	lbu	a0,0(s8)
    1360:	f00514e3          	bnez	a0,1268 <_vsnprintf+0x94>
    1364:	000d8413          	mv	s0,s11
    1368:	013de463          	bltu	s11,s3,1370 <_vsnprintf+0x19c>
    136c:	fff98d93          	addi	s11,s3,-1
    1370:	00098693          	mv	a3,s3
    1374:	000d8613          	mv	a2,s11
    1378:	000a0593          	mv	a1,s4
    137c:	00000513          	li	a0,0
    1380:	000a80e7          	jalr	s5
    1384:	05c12083          	lw	ra,92(sp)
    1388:	00040513          	mv	a0,s0
    138c:	05812403          	lw	s0,88(sp)
    1390:	05412483          	lw	s1,84(sp)
    1394:	05012903          	lw	s2,80(sp)
    1398:	04c12983          	lw	s3,76(sp)
    139c:	04812a03          	lw	s4,72(sp)
    13a0:	04412a83          	lw	s5,68(sp)
    13a4:	04012b03          	lw	s6,64(sp)
    13a8:	03c12b83          	lw	s7,60(sp)
    13ac:	03812c03          	lw	s8,56(sp)
    13b0:	03412c83          	lw	s9,52(sp)
    13b4:	03012d03          	lw	s10,48(sp)
    13b8:	02c12d83          	lw	s11,44(sp)
    13bc:	06010113          	addi	sp,sp,96
    13c0:	00008067          	ret
    13c4:	00146413          	ori	s0,s0,1
    13c8:	00070c13          	mv	s8,a4
    13cc:	eadff06f          	j	1278 <_vsnprintf+0xa4>
    13d0:	00246413          	ori	s0,s0,2
    13d4:	00070c13          	mv	s8,a4
    13d8:	ea1ff06f          	j	1278 <_vsnprintf+0xa4>
    13dc:	00446413          	ori	s0,s0,4
    13e0:	00070c13          	mv	s8,a4
    13e4:	e95ff06f          	j	1278 <_vsnprintf+0xa4>
    13e8:	01046413          	ori	s0,s0,16
    13ec:	00070c13          	mv	s8,a4
    13f0:	e89ff06f          	j	1278 <_vsnprintf+0xa4>
    13f4:	00846413          	ori	s0,s0,8
    13f8:	00070c13          	mv	s8,a4
    13fc:	e7dff06f          	j	1278 <_vsnprintf+0xa4>
    1400:	07800793          	li	a5,120
    1404:	00070c13          	mv	s8,a4
    1408:	e4a7e2e3          	bltu	a5,a0,124c <_vsnprintf+0x78>
    140c:	f9c50793          	addi	a5,a0,-100
    1410:	00100493          	li	s1,1
    1414:	00f494b3          	sll	s1,s1,a5
    1418:	01412783          	lw	a5,20(sp)
    141c:	00f4f4b3          	and	s1,s1,a5
    1420:	46049663          	bnez	s1,188c <_vsnprintf+0x6b8>
    1424:	07300793          	li	a5,115
    1428:	1af50e63          	beq	a0,a5,15e4 <_vsnprintf+0x410>
    142c:	07000793          	li	a5,112
    1430:	e0f51ee3          	bne	a0,a5,124c <_vsnprintf+0x78>
    1434:	000d2703          	lw	a4,0(s10)
    1438:	00800793          	li	a5,8
    143c:	02146413          	ori	s0,s0,33
    1440:	000d8613          	mv	a2,s11
    1444:	00f12023          	sw	a5,0(sp)
    1448:	00812223          	sw	s0,4(sp)
    144c:	000c8893          	mv	a7,s9
    1450:	01000813          	li	a6,16
    1454:	00000793          	li	a5,0
    1458:	00098693          	mv	a3,s3
    145c:	000a0593          	mv	a1,s4
    1460:	000a8513          	mv	a0,s5
    1464:	829ff0ef          	jal	c8c <_ntoa_long>
    1468:	004d0d13          	addi	s10,s10,4
    146c:	00050d93          	mv	s11,a0
    1470:	df1ff06f          	j	1260 <_vsnprintf+0x8c>
    1474:	02500793          	li	a5,37
    1478:	02f51063          	bne	a0,a5,1498 <_vsnprintf+0x2c4>
    147c:	000d8613          	mv	a2,s11
    1480:	00098693          	mv	a3,s3
    1484:	000a0593          	mv	a1,s4
    1488:	02500513          	li	a0,37
    148c:	001d8d93          	addi	s11,s11,1
    1490:	000a80e7          	jalr	s5
    1494:	dcdff06f          	j	1260 <_vsnprintf+0x8c>
    1498:	05800793          	li	a5,88
    149c:	daf518e3          	bne	a0,a5,124c <_vsnprintf+0x78>
    14a0:	40047793          	andi	a5,s0,1024
    14a4:	38078c63          	beqz	a5,183c <_vsnprintf+0x668>
    14a8:	ff247413          	andi	s0,s0,-14
    14ac:	02046413          	ori	s0,s0,32
    14b0:	01000813          	li	a6,16
    14b4:	20047793          	andi	a5,s0,512
    14b8:	da0794e3          	bnez	a5,1260 <_vsnprintf+0x8c>
    14bc:	10047793          	andi	a5,s0,256
    14c0:	004d0493          	addi	s1,s10,4
    14c4:	38079463          	bnez	a5,184c <_vsnprintf+0x678>
    14c8:	04047793          	andi	a5,s0,64
    14cc:	38078463          	beqz	a5,1854 <_vsnprintf+0x680>
    14d0:	000d4703          	lbu	a4,0(s10)
    14d4:	000d8613          	mv	a2,s11
    14d8:	00812223          	sw	s0,4(sp)
    14dc:	01712023          	sw	s7,0(sp)
    14e0:	000c8893          	mv	a7,s9
    14e4:	00000793          	li	a5,0
    14e8:	00098693          	mv	a3,s3
    14ec:	000a0593          	mv	a1,s4
    14f0:	000a8513          	mv	a0,s5
    14f4:	f98ff0ef          	jal	c8c <_ntoa_long>
    14f8:	00050d93          	mv	s11,a0
    14fc:	00048d13          	mv	s10,s1
    1500:	d61ff06f          	j	1260 <_vsnprintf+0x8c>
    1504:	00000b93          	li	s7,0
    1508:	002b9793          	slli	a5,s7,0x2
    150c:	017787b3          	add	a5,a5,s7
    1510:	00179793          	slli	a5,a5,0x1
    1514:	00a787b3          	add	a5,a5,a0
    1518:	00074503          	lbu	a0,0(a4)
    151c:	fd078b93          	addi	s7,a5,-48
    1520:	00900693          	li	a3,9
    1524:	fd050793          	addi	a5,a0,-48
    1528:	0ff7f793          	zext.b	a5,a5
    152c:	00070c13          	mv	s8,a4
    1530:	00170713          	addi	a4,a4,1
    1534:	fcf6fae3          	bgeu	a3,a5,1508 <_vsnprintf+0x334>
    1538:	02e00793          	li	a5,46
    153c:	00000c93          	li	s9,0
    1540:	d8f512e3          	bne	a0,a5,12c4 <_vsnprintf+0xf0>
    1544:	001c4503          	lbu	a0,1(s8)
    1548:	00900613          	li	a2,9
    154c:	00070693          	mv	a3,a4
    1550:	fd050793          	addi	a5,a0,-48
    1554:	0ff7f793          	zext.b	a5,a5
    1558:	40046413          	ori	s0,s0,1024
    155c:	14f67a63          	bgeu	a2,a5,16b0 <_vsnprintf+0x4dc>
    1560:	02a00793          	li	a5,42
    1564:	18f50863          	beq	a0,a5,16f4 <_vsnprintf+0x520>
    1568:	00070c13          	mv	s8,a4
    156c:	06c00793          	li	a5,108
    1570:	00170713          	addi	a4,a4,1
    1574:	00070693          	mv	a3,a4
    1578:	d4f51ce3          	bne	a0,a5,12d0 <_vsnprintf+0xfc>
    157c:	001c4503          	lbu	a0,1(s8)
    1580:	18f50c63          	beq	a0,a5,1718 <_vsnprintf+0x544>
    1584:	10046413          	ori	s0,s0,256
    1588:	d65ff06f          	j	12ec <_vsnprintf+0x118>
    158c:	07a00793          	li	a5,122
    1590:	e6f518e3          	bne	a0,a5,1400 <_vsnprintf+0x22c>
    1594:	001c4503          	lbu	a0,1(s8)
    1598:	10046413          	ori	s0,s0,256
    159c:	d51ff06f          	j	12ec <_vsnprintf+0x118>
    15a0:	000d2b83          	lw	s7,0(s10)
    15a4:	004d0d13          	addi	s10,s10,4
    15a8:	000bca63          	bltz	s7,15bc <_vsnprintf+0x3e8>
    15ac:	001c4503          	lbu	a0,1(s8)
    15b0:	00070c13          	mv	s8,a4
    15b4:	00170713          	addi	a4,a4,1
    15b8:	d01ff06f          	j	12b8 <_vsnprintf+0xe4>
    15bc:	001c4503          	lbu	a0,1(s8)
    15c0:	00246413          	ori	s0,s0,2
    15c4:	00070c13          	mv	s8,a4
    15c8:	41700bb3          	neg	s7,s7
    15cc:	00170713          	addi	a4,a4,1
    15d0:	ce9ff06f          	j	12b8 <_vsnprintf+0xe4>
    15d4:	001c4503          	lbu	a0,1(s8)
    15d8:	1ef50863          	beq	a0,a5,17c8 <_vsnprintf+0x5f4>
    15dc:	08046413          	ori	s0,s0,128
    15e0:	d0dff06f          	j	12ec <_vsnprintf+0x118>
    15e4:	000d2783          	lw	a5,0(s10)
    15e8:	004d0713          	addi	a4,s10,4
    15ec:	00e12c23          	sw	a4,24(sp)
    15f0:	0007c683          	lbu	a3,0(a5)
    15f4:	00f12823          	sw	a5,16(sp)
    15f8:	00068513          	mv	a0,a3
    15fc:	0e0c9663          	bnez	s9,16e8 <_vsnprintf+0x514>
    1600:	ffe00713          	li	a4,-2
    1604:	02068663          	beqz	a3,1630 <_vsnprintf+0x45c>
    1608:	01012483          	lw	s1,16(sp)
    160c:	00170713          	addi	a4,a4,1
    1610:	00e48733          	add	a4,s1,a4
    1614:	0080006f          	j	161c <_vsnprintf+0x448>
    1618:	1a970263          	beq	a4,s1,17bc <_vsnprintf+0x5e8>
    161c:	0014c783          	lbu	a5,1(s1)
    1620:	00148493          	addi	s1,s1,1
    1624:	fe079ae3          	bnez	a5,1618 <_vsnprintf+0x444>
    1628:	01012783          	lw	a5,16(sp)
    162c:	40f484b3          	sub	s1,s1,a5
    1630:	40047d13          	andi	s10,s0,1024
    1634:	000d0663          	beqz	s10,1640 <_vsnprintf+0x46c>
    1638:	009cf463          	bgeu	s9,s1,1640 <_vsnprintf+0x46c>
    163c:	000c8493          	mv	s1,s9
    1640:	00247793          	andi	a5,s0,2
    1644:	00f12e23          	sw	a5,28(sp)
    1648:	18078863          	beqz	a5,17d8 <_vsnprintf+0x604>
    164c:	12068e63          	beqz	a3,1788 <_vsnprintf+0x5b4>
    1650:	000d8613          	mv	a2,s11
    1654:	000d0863          	beqz	s10,1664 <_vsnprintf+0x490>
    1658:	fffc8793          	addi	a5,s9,-1
    165c:	100c8e63          	beqz	s9,1778 <_vsnprintf+0x5a4>
    1660:	00078c93          	mv	s9,a5
    1664:	00098693          	mv	a3,s3
    1668:	000a0593          	mv	a1,s4
    166c:	00160413          	addi	s0,a2,1
    1670:	000a80e7          	jalr	s5
    1674:	01012703          	lw	a4,16(sp)
    1678:	41b407b3          	sub	a5,s0,s11
    167c:	00f707b3          	add	a5,a4,a5
    1680:	0007c503          	lbu	a0,0(a5)
    1684:	0e050c63          	beqz	a0,177c <_vsnprintf+0x5a8>
    1688:	00040613          	mv	a2,s0
    168c:	fc9ff06f          	j	1654 <_vsnprintf+0x480>
    1690:	000c4503          	lbu	a0,0(s8)
    1694:	00001ab7          	lui	s5,0x1
    1698:	c88a8a93          	addi	s5,s5,-888 # c88 <_out_null>
    169c:	00000d93          	li	s11,0
    16a0:	b80518e3          	bnez	a0,1230 <_vsnprintf+0x5c>
    16a4:	00000413          	li	s0,0
    16a8:	cd3de4e3          	bltu	s11,s3,1370 <_vsnprintf+0x19c>
    16ac:	cc1ff06f          	j	136c <_vsnprintf+0x198>
    16b0:	00900713          	li	a4,9
    16b4:	002c9793          	slli	a5,s9,0x2
    16b8:	019787b3          	add	a5,a5,s9
    16bc:	00168693          	addi	a3,a3,1
    16c0:	00179793          	slli	a5,a5,0x1
    16c4:	00a787b3          	add	a5,a5,a0
    16c8:	0006c503          	lbu	a0,0(a3)
    16cc:	fd078c93          	addi	s9,a5,-48
    16d0:	fd050793          	addi	a5,a0,-48
    16d4:	0ff7f793          	zext.b	a5,a5
    16d8:	fcf77ee3          	bgeu	a4,a5,16b4 <_vsnprintf+0x4e0>
    16dc:	00068c13          	mv	s8,a3
    16e0:	00168713          	addi	a4,a3,1
    16e4:	be1ff06f          	j	12c4 <_vsnprintf+0xf0>
    16e8:	f40684e3          	beqz	a3,1630 <_vsnprintf+0x45c>
    16ec:	fffc8713          	addi	a4,s9,-1
    16f0:	f19ff06f          	j	1608 <_vsnprintf+0x434>
    16f4:	000d2c83          	lw	s9,0(s10)
    16f8:	002c4503          	lbu	a0,2(s8)
    16fc:	002c0c13          	addi	s8,s8,2
    1700:	fffcc793          	not	a5,s9
    1704:	41f7d793          	srai	a5,a5,0x1f
    1708:	00fcfcb3          	and	s9,s9,a5
    170c:	004d0d13          	addi	s10,s10,4
    1710:	001c0713          	addi	a4,s8,1
    1714:	bb1ff06f          	j	12c4 <_vsnprintf+0xf0>
    1718:	002c4503          	lbu	a0,2(s8)
    171c:	30046413          	ori	s0,s0,768
    1720:	002c0693          	addi	a3,s8,2
    1724:	bc9ff06f          	j	12ec <_vsnprintf+0x118>
    1728:	00100793          	li	a5,1
    172c:	1577f063          	bgeu	a5,s7,186c <_vsnprintf+0x698>
    1730:	fffd8413          	addi	s0,s11,-1
    1734:	01740433          	add	s0,s0,s7
    1738:	000d8c93          	mv	s9,s11
    173c:	000c8613          	mv	a2,s9
    1740:	00098693          	mv	a3,s3
    1744:	001c8c93          	addi	s9,s9,1
    1748:	000a0593          	mv	a1,s4
    174c:	02000513          	li	a0,32
    1750:	000a80e7          	jalr	s5
    1754:	ff9414e3          	bne	s0,s9,173c <_vsnprintf+0x568>
    1758:	000d4503          	lbu	a0,0(s10)
    175c:	00098693          	mv	a3,s3
    1760:	00040613          	mv	a2,s0
    1764:	000a0593          	mv	a1,s4
    1768:	017d8db3          	add	s11,s11,s7
    176c:	000a80e7          	jalr	s5
    1770:	00048d13          	mv	s10,s1
    1774:	be9ff06f          	j	135c <_vsnprintf+0x188>
    1778:	00060413          	mv	s0,a2
    177c:	01c12783          	lw	a5,28(sp)
    1780:	02078863          	beqz	a5,17b0 <_vsnprintf+0x5dc>
    1784:	00040d93          	mv	s11,s0
    1788:	0974f663          	bgeu	s1,s7,1814 <_vsnprintf+0x640>
    178c:	01bb8733          	add	a4,s7,s11
    1790:	40970433          	sub	s0,a4,s1
    1794:	000d8613          	mv	a2,s11
    1798:	00098693          	mv	a3,s3
    179c:	001d8d93          	addi	s11,s11,1
    17a0:	000a0593          	mv	a1,s4
    17a4:	02000513          	li	a0,32
    17a8:	000a80e7          	jalr	s5
    17ac:	ffb414e3          	bne	s0,s11,1794 <_vsnprintf+0x5c0>
    17b0:	01812d03          	lw	s10,24(sp)
    17b4:	00040d93          	mv	s11,s0
    17b8:	aa9ff06f          	j	1260 <_vsnprintf+0x8c>
    17bc:	01012783          	lw	a5,16(sp)
    17c0:	40f704b3          	sub	s1,a4,a5
    17c4:	e6dff06f          	j	1630 <_vsnprintf+0x45c>
    17c8:	002c4503          	lbu	a0,2(s8)
    17cc:	0c046413          	ori	s0,s0,192
    17d0:	002c0693          	addi	a3,s8,2
    17d4:	b19ff06f          	j	12ec <_vsnprintf+0x118>
    17d8:	0974f663          	bgeu	s1,s7,1864 <_vsnprintf+0x690>
    17dc:	01bb87b3          	add	a5,s7,s11
    17e0:	409784b3          	sub	s1,a5,s1
    17e4:	000d8613          	mv	a2,s11
    17e8:	00098693          	mv	a3,s3
    17ec:	001d8d93          	addi	s11,s11,1
    17f0:	000a0593          	mv	a1,s4
    17f4:	02000513          	li	a0,32
    17f8:	000a80e7          	jalr	s5
    17fc:	ffb494e3          	bne	s1,s11,17e4 <_vsnprintf+0x610>
    1800:	01012783          	lw	a5,16(sp)
    1804:	001b8493          	addi	s1,s7,1
    1808:	0007c683          	lbu	a3,0(a5)
    180c:	00068513          	mv	a0,a3
    1810:	e40690e3          	bnez	a3,1650 <_vsnprintf+0x47c>
    1814:	000d8413          	mv	s0,s11
    1818:	f99ff06f          	j	17b0 <_vsnprintf+0x5dc>
    181c:	40047793          	andi	a5,s0,1024
    1820:	00078863          	beqz	a5,1830 <_vsnprintf+0x65c>
    1824:	ff247413          	andi	s0,s0,-14
    1828:	00200813          	li	a6,2
    182c:	c89ff06f          	j	14b4 <_vsnprintf+0x2e0>
    1830:	ff347413          	andi	s0,s0,-13
    1834:	00200813          	li	a6,2
    1838:	c7dff06f          	j	14b4 <_vsnprintf+0x2e0>
    183c:	02046413          	ori	s0,s0,32
    1840:	ff347413          	andi	s0,s0,-13
    1844:	01000813          	li	a6,16
    1848:	c6dff06f          	j	14b4 <_vsnprintf+0x2e0>
    184c:	000d2703          	lw	a4,0(s10)
    1850:	c85ff06f          	j	14d4 <_vsnprintf+0x300>
    1854:	08047793          	andi	a5,s0,128
    1858:	fe078ae3          	beqz	a5,184c <_vsnprintf+0x678>
    185c:	000d5703          	lhu	a4,0(s10)
    1860:	c75ff06f          	j	14d4 <_vsnprintf+0x300>
    1864:	00148493          	addi	s1,s1,1
    1868:	fa5ff06f          	j	180c <_vsnprintf+0x638>
    186c:	000d4503          	lbu	a0,0(s10)
    1870:	00098693          	mv	a3,s3
    1874:	000d8613          	mv	a2,s11
    1878:	000a0593          	mv	a1,s4
    187c:	000a80e7          	jalr	s5
    1880:	000c8d93          	mv	s11,s9
    1884:	00048d13          	mv	s10,s1
    1888:	ad5ff06f          	j	135c <_vsnprintf+0x188>
    188c:	07800793          	li	a5,120
    1890:	12f50463          	beq	a0,a5,19b8 <_vsnprintf+0x7e4>
    1894:	06f00793          	li	a5,111
    1898:	06f50a63          	beq	a0,a5,190c <_vsnprintf+0x738>
    189c:	06900793          	li	a5,105
    18a0:	fef47693          	andi	a3,s0,-17
    18a4:	0ef51463          	bne	a0,a5,198c <_vsnprintf+0x7b8>
    18a8:	40047793          	andi	a5,s0,1024
    18ac:	00078463          	beqz	a5,18b4 <_vsnprintf+0x6e0>
    18b0:	fee47693          	andi	a3,s0,-18
    18b4:	2006f793          	andi	a5,a3,512
    18b8:	9a0794e3          	bnez	a5,1260 <_vsnprintf+0x8c>
    18bc:	1006f793          	andi	a5,a3,256
    18c0:	004d0413          	addi	s0,s10,4
    18c4:	08079463          	bnez	a5,194c <_vsnprintf+0x778>
    18c8:	0406f793          	andi	a5,a3,64
    18cc:	04078e63          	beqz	a5,1928 <_vsnprintf+0x754>
    18d0:	000d4783          	lbu	a5,0(s10)
    18d4:	00078713          	mv	a4,a5
    18d8:	000d8613          	mv	a2,s11
    18dc:	00d12223          	sw	a3,4(sp)
    18e0:	01712023          	sw	s7,0(sp)
    18e4:	000c8893          	mv	a7,s9
    18e8:	00a00813          	li	a6,10
    18ec:	01f7d793          	srli	a5,a5,0x1f
    18f0:	00098693          	mv	a3,s3
    18f4:	000a0593          	mv	a1,s4
    18f8:	000a8513          	mv	a0,s5
    18fc:	b90ff0ef          	jal	c8c <_ntoa_long>
    1900:	00050d93          	mv	s11,a0
    1904:	00040d13          	mv	s10,s0
    1908:	959ff06f          	j	1260 <_vsnprintf+0x8c>
    190c:	40047793          	andi	a5,s0,1024
    1910:	00800813          	li	a6,8
    1914:	00078663          	beqz	a5,1920 <_vsnprintf+0x74c>
    1918:	ff247413          	andi	s0,s0,-14
    191c:	b99ff06f          	j	14b4 <_vsnprintf+0x2e0>
    1920:	ff347413          	andi	s0,s0,-13
    1924:	b91ff06f          	j	14b4 <_vsnprintf+0x2e0>
    1928:	0806f793          	andi	a5,a3,128
    192c:	04078663          	beqz	a5,1978 <_vsnprintf+0x7a4>
    1930:	000d1783          	lh	a5,0(s10)
    1934:	40f7d613          	srai	a2,a5,0xf
    1938:	00c7c733          	xor	a4,a5,a2
    193c:	40c70733          	sub	a4,a4,a2
    1940:	01071713          	slli	a4,a4,0x10
    1944:	01075713          	srli	a4,a4,0x10
    1948:	f91ff06f          	j	18d8 <_vsnprintf+0x704>
    194c:	000d2783          	lw	a5,0(s10)
    1950:	00d12223          	sw	a3,4(sp)
    1954:	000d8613          	mv	a2,s11
    1958:	41f7d713          	srai	a4,a5,0x1f
    195c:	00f746b3          	xor	a3,a4,a5
    1960:	01712023          	sw	s7,0(sp)
    1964:	000c8893          	mv	a7,s9
    1968:	00a00813          	li	a6,10
    196c:	01f7d793          	srli	a5,a5,0x1f
    1970:	40e68733          	sub	a4,a3,a4
    1974:	f7dff06f          	j	18f0 <_vsnprintf+0x71c>
    1978:	000d2783          	lw	a5,0(s10)
    197c:	41f7d613          	srai	a2,a5,0x1f
    1980:	00f64733          	xor	a4,a2,a5
    1984:	40c70733          	sub	a4,a4,a2
    1988:	f51ff06f          	j	18d8 <_vsnprintf+0x704>
    198c:	06400793          	li	a5,100
    1990:	f0f50ce3          	beq	a0,a5,18a8 <_vsnprintf+0x6d4>
    1994:	40047793          	andi	a5,s0,1024
    1998:	00078a63          	beqz	a5,19ac <_vsnprintf+0x7d8>
    199c:	00068413          	mv	s0,a3
    19a0:	00a00813          	li	a6,10
    19a4:	ff247413          	andi	s0,s0,-14
    19a8:	b0dff06f          	j	14b4 <_vsnprintf+0x2e0>
    19ac:	fe347413          	andi	s0,s0,-29
    19b0:	00a00813          	li	a6,10
    19b4:	b01ff06f          	j	14b4 <_vsnprintf+0x2e0>
    19b8:	40047793          	andi	a5,s0,1024
    19bc:	e80782e3          	beqz	a5,1840 <_vsnprintf+0x66c>
    19c0:	ff247413          	andi	s0,s0,-14
    19c4:	01000813          	li	a6,16
    19c8:	aedff06f          	j	14b4 <_vsnprintf+0x2e0>
    19cc:	00070c13          	mv	s8,a4
    19d0:	929ff06f          	j	12f8 <_vsnprintf+0x124>

000019d4 <_putchar>:
    19d4:	ff010113          	addi	sp,sp,-16
    19d8:	00112623          	sw	ra,12(sp)
    19dc:	1f4000ef          	jal	1bd0 <uart_send_char>
    19e0:	00c12083          	lw	ra,12(sp)
    19e4:	00000513          	li	a0,0
    19e8:	01010113          	addi	sp,sp,16
    19ec:	00008067          	ret

000019f0 <printf_>:
    19f0:	fc010113          	addi	sp,sp,-64
    19f4:	02410313          	addi	t1,sp,36
    19f8:	02d12623          	sw	a3,44(sp)
    19fc:	00050693          	mv	a3,a0
    1a00:	00001537          	lui	a0,0x1
    1a04:	02b12223          	sw	a1,36(sp)
    1a08:	02c12423          	sw	a2,40(sp)
    1a0c:	02e12823          	sw	a4,48(sp)
    1a10:	00810593          	addi	a1,sp,8
    1a14:	00030713          	mv	a4,t1
    1a18:	fff00613          	li	a2,-1
    1a1c:	1b450513          	addi	a0,a0,436 # 11b4 <_out_char>
    1a20:	00112e23          	sw	ra,28(sp)
    1a24:	02f12a23          	sw	a5,52(sp)
    1a28:	03012c23          	sw	a6,56(sp)
    1a2c:	03112e23          	sw	a7,60(sp)
    1a30:	00612623          	sw	t1,12(sp)
    1a34:	fa0ff0ef          	jal	11d4 <_vsnprintf>
    1a38:	01c12083          	lw	ra,28(sp)
    1a3c:	04010113          	addi	sp,sp,64
    1a40:	00008067          	ret

00001a44 <sprintf_>:
    1a44:	fc010113          	addi	sp,sp,-64
    1a48:	02810313          	addi	t1,sp,40
    1a4c:	02d12623          	sw	a3,44(sp)
    1a50:	00058693          	mv	a3,a1
    1a54:	00050593          	mv	a1,a0
    1a58:	00001537          	lui	a0,0x1
    1a5c:	02c12423          	sw	a2,40(sp)
    1a60:	02e12823          	sw	a4,48(sp)
    1a64:	fff00613          	li	a2,-1
    1a68:	00030713          	mv	a4,t1
    1a6c:	c7850513          	addi	a0,a0,-904 # c78 <_out_buffer>
    1a70:	00112e23          	sw	ra,28(sp)
    1a74:	02f12a23          	sw	a5,52(sp)
    1a78:	03012c23          	sw	a6,56(sp)
    1a7c:	03112e23          	sw	a7,60(sp)
    1a80:	00612623          	sw	t1,12(sp)
    1a84:	f50ff0ef          	jal	11d4 <_vsnprintf>
    1a88:	01c12083          	lw	ra,28(sp)
    1a8c:	04010113          	addi	sp,sp,64
    1a90:	00008067          	ret

00001a94 <snprintf_>:
    1a94:	fc010113          	addi	sp,sp,-64
    1a98:	02c10313          	addi	t1,sp,44
    1a9c:	02d12623          	sw	a3,44(sp)
    1aa0:	00060693          	mv	a3,a2
    1aa4:	00058613          	mv	a2,a1
    1aa8:	00050593          	mv	a1,a0
    1aac:	00001537          	lui	a0,0x1
    1ab0:	02e12823          	sw	a4,48(sp)
    1ab4:	c7850513          	addi	a0,a0,-904 # c78 <_out_buffer>
    1ab8:	00030713          	mv	a4,t1
    1abc:	00112e23          	sw	ra,28(sp)
    1ac0:	02f12a23          	sw	a5,52(sp)
    1ac4:	03012c23          	sw	a6,56(sp)
    1ac8:	03112e23          	sw	a7,60(sp)
    1acc:	00612623          	sw	t1,12(sp)
    1ad0:	f04ff0ef          	jal	11d4 <_vsnprintf>
    1ad4:	01c12083          	lw	ra,28(sp)
    1ad8:	04010113          	addi	sp,sp,64
    1adc:	00008067          	ret

00001ae0 <vprintf_>:
    1ae0:	fe010113          	addi	sp,sp,-32
    1ae4:	00050693          	mv	a3,a0
    1ae8:	00001537          	lui	a0,0x1
    1aec:	00058713          	mv	a4,a1
    1af0:	fff00613          	li	a2,-1
    1af4:	00c10593          	addi	a1,sp,12
    1af8:	1b450513          	addi	a0,a0,436 # 11b4 <_out_char>
    1afc:	00112e23          	sw	ra,28(sp)
    1b00:	ed4ff0ef          	jal	11d4 <_vsnprintf>
    1b04:	01c12083          	lw	ra,28(sp)
    1b08:	02010113          	addi	sp,sp,32
    1b0c:	00008067          	ret

00001b10 <vsnprintf_>:
    1b10:	00068713          	mv	a4,a3
    1b14:	00060693          	mv	a3,a2
    1b18:	00058613          	mv	a2,a1
    1b1c:	00050593          	mv	a1,a0
    1b20:	00001537          	lui	a0,0x1
    1b24:	c7850513          	addi	a0,a0,-904 # c78 <_out_buffer>
    1b28:	eacff06f          	j	11d4 <_vsnprintf>

00001b2c <fctprintf>:
    1b2c:	fc010113          	addi	sp,sp,-64
    1b30:	02c10313          	addi	t1,sp,44
    1b34:	00050e93          	mv	t4,a0
    1b38:	00001537          	lui	a0,0x1
    1b3c:	00058e13          	mv	t3,a1
    1b40:	02d12623          	sw	a3,44(sp)
    1b44:	02e12823          	sw	a4,48(sp)
    1b48:	00060693          	mv	a3,a2
    1b4c:	00810593          	addi	a1,sp,8
    1b50:	00030713          	mv	a4,t1
    1b54:	fff00613          	li	a2,-1
    1b58:	1c050513          	addi	a0,a0,448 # 11c0 <_out_fct>
    1b5c:	00112e23          	sw	ra,28(sp)
    1b60:	02f12a23          	sw	a5,52(sp)
    1b64:	03012c23          	sw	a6,56(sp)
    1b68:	03112e23          	sw	a7,60(sp)
    1b6c:	00612223          	sw	t1,4(sp)
    1b70:	01d12423          	sw	t4,8(sp)
    1b74:	01c12623          	sw	t3,12(sp)
    1b78:	e5cff0ef          	jal	11d4 <_vsnprintf>
    1b7c:	01c12083          	lw	ra,28(sp)
    1b80:	04010113          	addi	sp,sp,64
    1b84:	00008067          	ret

00001b88 <tinyIO_init>:
    1b88:	0040006f          	j	1b8c <uart_init>

00001b8c <uart_init>:
    1b8c:	000027b7          	lui	a5,0x2
    1b90:	f4a7a823          	sw	a0,-176(a5) # 1f50 <global_uart>
    1b94:	00300793          	li	a5,3
    1b98:	00f52623          	sw	a5,12(a0)
    1b9c:	00008067          	ret

00001ba0 <uart_is_rx_empty>:
    1ba0:	000027b7          	lui	a5,0x2
    1ba4:	f507a783          	lw	a5,-176(a5) # 1f50 <global_uart>
    1ba8:	0087a503          	lw	a0,8(a5)
    1bac:	fff54513          	not	a0,a0
    1bb0:	00157513          	andi	a0,a0,1
    1bb4:	00008067          	ret

00001bb8 <uart_is_tx_empty>:
    1bb8:	000027b7          	lui	a5,0x2
    1bbc:	f507a783          	lw	a5,-176(a5) # 1f50 <global_uart>
    1bc0:	0087a503          	lw	a0,8(a5)
    1bc4:	00255513          	srli	a0,a0,0x2
    1bc8:	00157513          	andi	a0,a0,1
    1bcc:	00008067          	ret

00001bd0 <uart_send_char>:
    1bd0:	000027b7          	lui	a5,0x2
    1bd4:	f507a703          	lw	a4,-176(a5) # 1f50 <global_uart>
    1bd8:	00872783          	lw	a5,8(a4)
    1bdc:	0047f793          	andi	a5,a5,4
    1be0:	fe078ce3          	beqz	a5,1bd8 <uart_send_char+0x8>
    1be4:	00a72223          	sw	a0,4(a4)
    1be8:	00008067          	ret

00001bec <uart_get_char>:
    1bec:	000027b7          	lui	a5,0x2
    1bf0:	f507a703          	lw	a4,-176(a5) # 1f50 <global_uart>
    1bf4:	00872783          	lw	a5,8(a4)
    1bf8:	0017f793          	andi	a5,a5,1
    1bfc:	fe078ce3          	beqz	a5,1bf4 <uart_get_char+0x8>
    1c00:	00072503          	lw	a0,0(a4)
    1c04:	00008067          	ret
	...

Disassembly of section .rodata:

00001c20 <.rodata>:
    1c20:	5252455b          	.insn	4, 0x5252455b
    1c24:	205d524f          	.insn	4, 0x205d524f
    1c28:	6146                	.insn	2, 0x6146
    1c2a:	6c69                	.insn	2, 0x6c69
    1c2c:	6e69                	.insn	2, 0x6e69
    1c2e:	255b2067          	.insn	4, 0x255b2067
    1c32:	2c75                	.insn	2, 0x2c75
    1c34:	7525                	.insn	2, 0x7525
    1c36:	252c                	.insn	2, 0x252c
    1c38:	2c75                	.insn	2, 0x2c75
    1c3a:	7525                	.insn	2, 0x7525
    1c3c:	3a5d                	.insn	2, 0x3a5d
    1c3e:	6520                	.insn	2, 0x6520
    1c40:	7078                	.insn	2, 0x7078
    1c42:	6365                	.insn	2, 0x6365
    1c44:	6574                	.insn	2, 0x6574
    1c46:	2064                	.insn	2, 0x2064
    1c48:	7830                	.insn	2, 0x7830
    1c4a:	3025                	.insn	2, 0x3025
    1c4c:	7834                	.insn	2, 0x7834
    1c4e:	2120                	.insn	2, 0x2120
    1c50:	203d                	.insn	2, 0x203d
    1c52:	7830                	.insn	2, 0x7830
    1c54:	3025                	.insn	2, 0x3025
    1c56:	7834                	.insn	2, 0x7834
    1c58:	0d0a                	.insn	2, 0x0d0a
    1c5a:	0000                	.insn	2, 0x
    1c5c:	464e495b          	.insn	4, 0x464e495b
    1c60:	43205d4f          	.insn	4, 0x43205d4f
    1c64:	6568                	.insn	2, 0x6568
    1c66:	5b206b63          	bltu	zero,s2,221c <global_uart+0x2cc>
    1c6a:	7525                	.insn	2, 0x7525
    1c6c:	252c                	.insn	2, 0x252c
    1c6e:	2c75                	.insn	2, 0x2c75
    1c70:	7525                	.insn	2, 0x7525
    1c72:	252c                	.insn	2, 0x252c
    1c74:	5d75                	.insn	2, 0x5d75
    1c76:	203a                	.insn	2, 0x203a
    1c78:	7865                	.insn	2, 0x7865
    1c7a:	6570                	.insn	2, 0x6570
    1c7c:	64657463          	bgeu	a0,t1,22c4 <global_uart+0x374>
    1c80:	3020                	.insn	2, 0x3020
    1c82:	2578                	.insn	2, 0x2578
    1c84:	3430                	.insn	2, 0x3430
    1c86:	2078                	.insn	2, 0x2078
    1c88:	3d3d                	.insn	2, 0x3d3d
    1c8a:	3020                	.insn	2, 0x3020
    1c8c:	2578                	.insn	2, 0x2578
    1c8e:	3430                	.insn	2, 0x3430
    1c90:	0a78                	.insn	2, 0x0a78
    1c92:	000d                	.insn	2, 0x000d
    1c94:	20525343          	.insn	4, 0x20525343
    1c98:	5544                	.insn	2, 0x5544
    1c9a:	504d                	.insn	2, 0x504d
    1c9c:	0a3a                	.insn	2, 0x0a3a
    1c9e:	000d                	.insn	2, 0x000d
    1ca0:	2020                	.insn	2, 0x2020
    1ca2:	4120                	.insn	2, 0x4120
    1ca4:	5f50                	.insn	2, 0x5f50
    1ca6:	4c525443          	.insn	4, 0x4c525443
    1caa:	2020                	.insn	2, 0x2020
    1cac:	2020                	.insn	2, 0x2020
    1cae:	3d20                	.insn	2, 0x3d20
    1cb0:	3020                	.insn	2, 0x3020
    1cb2:	2578                	.insn	2, 0x2578
    1cb4:	3430                	.insn	2, 0x3430
    1cb6:	2078                	.insn	2, 0x2078
    1cb8:	2020                	.insn	2, 0x2020
    1cba:	0020                	.insn	2, 0x0020
    1cbc:	2020                	.insn	2, 0x2020
    1cbe:	4120                	.insn	2, 0x4120
    1cc0:	4958                	.insn	2, 0x4958
    1cc2:	415f 415f 4444      	.insn	6, 0x4444415f415f
    1cc8:	2052                	.insn	2, 0x2052
    1cca:	3d20                	.insn	2, 0x3d20
    1ccc:	3020                	.insn	2, 0x3020
    1cce:	2578                	.insn	2, 0x2578
    1cd0:	3430                	.insn	2, 0x3430
    1cd2:	0a78                	.insn	2, 0x0a78
    1cd4:	000d                	.insn	2, 0x000d
    1cd6:	0000                	.insn	2, 0x
    1cd8:	2020                	.insn	2, 0x2020
    1cda:	4720                	.insn	2, 0x4720
    1cdc:	4549                	.insn	2, 0x4549
    1cde:	2020                	.insn	2, 0x2020
    1ce0:	2020                	.insn	2, 0x2020
    1ce2:	2020                	.insn	2, 0x2020
    1ce4:	2020                	.insn	2, 0x2020
    1ce6:	3d20                	.insn	2, 0x3d20
    1ce8:	3020                	.insn	2, 0x3020
    1cea:	2578                	.insn	2, 0x2578
    1cec:	3430                	.insn	2, 0x3430
    1cee:	2078                	.insn	2, 0x2078
    1cf0:	2020                	.insn	2, 0x2020
    1cf2:	0020                	.insn	2, 0x0020
    1cf4:	2020                	.insn	2, 0x2020
    1cf6:	4120                	.insn	2, 0x4120
    1cf8:	4958                	.insn	2, 0x4958
    1cfa:	425f 415f 4444      	.insn	6, 0x4444415f425f
    1d00:	2052                	.insn	2, 0x2052
    1d02:	3d20                	.insn	2, 0x3d20
    1d04:	3020                	.insn	2, 0x3020
    1d06:	2578                	.insn	2, 0x2578
    1d08:	3430                	.insn	2, 0x3430
    1d0a:	0a78                	.insn	2, 0x0a78
    1d0c:	000d                	.insn	2, 0x000d
    1d0e:	0000                	.insn	2, 0x
    1d10:	2020                	.insn	2, 0x2020
    1d12:	4920                	.insn	2, 0x4920
    1d14:	5245                	.insn	2, 0x5245
    1d16:	2020                	.insn	2, 0x2020
    1d18:	2020                	.insn	2, 0x2020
    1d1a:	2020                	.insn	2, 0x2020
    1d1c:	2020                	.insn	2, 0x2020
    1d1e:	3d20                	.insn	2, 0x3d20
    1d20:	3020                	.insn	2, 0x3020
    1d22:	2578                	.insn	2, 0x2578
    1d24:	3430                	.insn	2, 0x3430
    1d26:	2078                	.insn	2, 0x2078
    1d28:	2020                	.insn	2, 0x2020
    1d2a:	0020                	.insn	2, 0x0020
    1d2c:	2020                	.insn	2, 0x2020
    1d2e:	4120                	.insn	2, 0x4120
    1d30:	4958                	.insn	2, 0x4958
    1d32:	435f 415f 4444      	.insn	6, 0x4444415f435f
    1d38:	2052                	.insn	2, 0x2052
    1d3a:	3d20                	.insn	2, 0x3d20
    1d3c:	3020                	.insn	2, 0x3020
    1d3e:	2578                	.insn	2, 0x2578
    1d40:	3430                	.insn	2, 0x3430
    1d42:	0a78                	.insn	2, 0x0a78
    1d44:	000d                	.insn	2, 0x000d
    1d46:	0000                	.insn	2, 0x
    1d48:	2020                	.insn	2, 0x2020
    1d4a:	4920                	.insn	2, 0x4920
    1d4c:	20205253          	.insn	4, 0x20205253
    1d50:	2020                	.insn	2, 0x2020
    1d52:	2020                	.insn	2, 0x2020
    1d54:	2020                	.insn	2, 0x2020
    1d56:	3d20                	.insn	2, 0x3d20
    1d58:	3020                	.insn	2, 0x3020
    1d5a:	2578                	.insn	2, 0x2578
    1d5c:	3430                	.insn	2, 0x3430
    1d5e:	0a78                	.insn	2, 0x0a78
    1d60:	000d                	.insn	2, 0x000d
    1d62:	0000                	.insn	2, 0x
    1d64:	5041                	.insn	2, 0x5041
    1d66:	435f 5254 204c      	.insn	6, 0x204c5254435f
    1d6c:	203d                	.insn	2, 0x203d
    1d6e:	7830                	.insn	2, 0x7830
    1d70:	3025                	.insn	2, 0x3025
    1d72:	7834                	.insn	2, 0x7834
    1d74:	0d0a                	.insn	2, 0x0d0a
    1d76:	0000                	.insn	2, 0x
    1d78:	2020                	.insn	2, 0x2020
    1d7a:	2020                	.insn	2, 0x2020
    1d7c:	52415453          	.insn	4, 0x52415453
    1d80:	2054                	.insn	2, 0x2054
    1d82:	2020                	.insn	2, 0x2020
    1d84:	2020                	.insn	2, 0x2020
    1d86:	2020                	.insn	2, 0x2020
    1d88:	203d                	.insn	2, 0x203d
    1d8a:	3020                	.insn	2, 0x3020
    1d8c:	2578                	.insn	2, 0x2578
    1d8e:	2078                	.insn	2, 0x2078
    1d90:	2020                	.insn	2, 0x2020
    1d92:	0020                	.insn	2, 0x0020
    1d94:	2020                	.insn	2, 0x2020
    1d96:	2020                	.insn	2, 0x2020
    1d98:	4f44                	.insn	2, 0x4f44
    1d9a:	454e                	.insn	2, 0x454e
    1d9c:	2020                	.insn	2, 0x2020
    1d9e:	2020                	.insn	2, 0x2020
    1da0:	2020                	.insn	2, 0x2020
    1da2:	2020                	.insn	2, 0x2020
    1da4:	203d                	.insn	2, 0x203d
    1da6:	3020                	.insn	2, 0x3020
    1da8:	2578                	.insn	2, 0x2578
    1daa:	0a78                	.insn	2, 0x0a78
    1dac:	000d                	.insn	2, 0x000d
    1dae:	0000                	.insn	2, 0x
    1db0:	2020                	.insn	2, 0x2020
    1db2:	2020                	.insn	2, 0x2020
    1db4:	4449                	.insn	2, 0x4449
    1db6:	454c                	.insn	2, 0x454c
    1db8:	2020                	.insn	2, 0x2020
    1dba:	2020                	.insn	2, 0x2020
    1dbc:	2020                	.insn	2, 0x2020
    1dbe:	2020                	.insn	2, 0x2020
    1dc0:	203d                	.insn	2, 0x203d
    1dc2:	3020                	.insn	2, 0x3020
    1dc4:	2578                	.insn	2, 0x2578
    1dc6:	2078                	.insn	2, 0x2078
    1dc8:	2020                	.insn	2, 0x2020
    1dca:	0020                	.insn	2, 0x0020
    1dcc:	2020                	.insn	2, 0x2020
    1dce:	2020                	.insn	2, 0x2020
    1dd0:	4552                	.insn	2, 0x4552
    1dd2:	4441                	.insn	2, 0x4441
    1dd4:	2059                	.insn	2, 0x2059
    1dd6:	2020                	.insn	2, 0x2020
    1dd8:	2020                	.insn	2, 0x2020
    1dda:	2020                	.insn	2, 0x2020
    1ddc:	203d                	.insn	2, 0x203d
    1dde:	3020                	.insn	2, 0x3020
    1de0:	2578                	.insn	2, 0x2578
    1de2:	0a78                	.insn	2, 0x0a78
    1de4:	000d                	.insn	2, 0x000d
    1de6:	0000                	.insn	2, 0x
    1de8:	2020                	.insn	2, 0x2020
    1dea:	2020                	.insn	2, 0x2020
    1dec:	544e4f43          	.insn	4, 0x544e4f43
    1df0:	4e49                	.insn	2, 0x4e49
    1df2:	4555                	.insn	2, 0x4555
    1df4:	2020                	.insn	2, 0x2020
    1df6:	2020                	.insn	2, 0x2020
    1df8:	203d                	.insn	2, 0x203d
    1dfa:	3020                	.insn	2, 0x3020
    1dfc:	2578                	.insn	2, 0x2578
    1dfe:	2078                	.insn	2, 0x2078
    1e00:	2020                	.insn	2, 0x2020
    1e02:	0020                	.insn	2, 0x0020
    1e04:	2020                	.insn	2, 0x2020
    1e06:	2020                	.insn	2, 0x2020
    1e08:	5541                	.insn	2, 0x5541
    1e0a:	4f54                	.insn	2, 0x4f54
    1e0c:	4552                	.insn	2, 0x4552
    1e0e:	52415453          	.insn	4, 0x52415453
    1e12:	2054                	.insn	2, 0x2054
    1e14:	203d                	.insn	2, 0x203d
    1e16:	3020                	.insn	2, 0x3020
    1e18:	2578                	.insn	2, 0x2578
    1e1a:	0a78                	.insn	2, 0x0a78
    1e1c:	000d                	.insn	2, 0x000d
    1e1e:	0000                	.insn	2, 0x
    1e20:	2020                	.insn	2, 0x2020
    1e22:	2020                	.insn	2, 0x2020
    1e24:	4e49                	.insn	2, 0x4e49
    1e26:	4554                	.insn	2, 0x4554
    1e28:	5252                	.insn	2, 0x5252
    1e2a:	5055                	.insn	2, 0x5055
    1e2c:	2054                	.insn	2, 0x2054
    1e2e:	2020                	.insn	2, 0x2020
    1e30:	203d                	.insn	2, 0x203d
    1e32:	3020                	.insn	2, 0x3020
    1e34:	2578                	.insn	2, 0x2578
    1e36:	0a78                	.insn	2, 0x0a78
    1e38:	000d                	.insn	2, 0x000d
    1e3a:	0000                	.insn	2, 0x
    1e3c:	0d0a                	.insn	2, 0x0d0a
    1e3e:	0000                	.insn	2, 0x
    1e40:	2d2d                	.insn	2, 0x2d2d
    1e42:	2d2d                	.insn	2, 0x2d2d
    1e44:	2d2d                	.insn	2, 0x2d2d
    1e46:	2d2d                	.insn	2, 0x2d2d
    1e48:	2d2d                	.insn	2, 0x2d2d
    1e4a:	2d2d                	.insn	2, 0x2d2d
    1e4c:	2d2d                	.insn	2, 0x2d2d
    1e4e:	2d2d                	.insn	2, 0x2d2d
    1e50:	0a2d                	.insn	2, 0x0a2d
    1e52:	000d                	.insn	2, 0x000d
    1e54:	202d                	.insn	2, 0x202d
    1e56:	4c48                	.insn	2, 0x4c48
    1e58:	4f432053          	.insn	4, 0x4f432053
    1e5c:	564e                	.insn	2, 0x564e
    1e5e:	4e20                	.insn	2, 0x4e20
    1e60:	4941                	.insn	2, 0x4941
    1e62:	4556                	.insn	2, 0x4556
    1e64:	2d20                	.insn	2, 0x2d20
    1e66:	0d0a                	.insn	2, 0x0d0a
    1e68:	0000                	.insn	2, 0x
    1e6a:	0000                	.insn	2, 0x
    1e6c:	464e495b          	.insn	4, 0x464e495b
    1e70:	43205d4f          	.insn	4, 0x43205d4f
    1e74:	75706d6f          	jal	s10,8dca <_stack_start+0xdce>
    1e78:	6574                	.insn	2, 0x6574
    1e7a:	6520                	.insn	2, 0x6520
    1e7c:	7078                	.insn	2, 0x7078
    1e7e:	6365                	.insn	2, 0x6365
    1e80:	6574                	.insn	2, 0x6574
    1e82:	0a64                	.insn	2, 0x0a64
    1e84:	000d                	.insn	2, 0x000d
    1e86:	0000                	.insn	2, 0x
    1e88:	74696157          	.insn	4, 0x74696157
    1e8c:	6e69                	.insn	2, 0x6e69
    1e8e:	6f662067          	.insn	4, 0x6f662067
    1e92:	2072                	.insn	2, 0x2072
    1e94:	6469                	.insn	2, 0x6469
    1e96:	656c                	.insn	2, 0x656c
    1e98:	2e2e                	.insn	2, 0x2e2e
    1e9a:	0a2e                	.insn	2, 0x0a2e
    1e9c:	000d                	.insn	2, 0x000d
    1e9e:	0000                	.insn	2, 0x
    1ea0:	74696157          	.insn	4, 0x74696157
    1ea4:	6e69                	.insn	2, 0x6e69
    1ea6:	6f662067          	.insn	4, 0x6f662067
    1eaa:	2072                	.insn	2, 0x2072
    1eac:	6f64                	.insn	2, 0x6f64
    1eae:	656e                	.insn	2, 0x656e
    1eb0:	2e2e                	.insn	2, 0x2e2e
    1eb2:	0a2e                	.insn	2, 0x0a2e
    1eb4:	000d                	.insn	2, 0x000d
    1eb6:	0000                	.insn	2, 0x
    1eb8:	464e495b          	.insn	4, 0x464e495b
    1ebc:	43205d4f          	.insn	4, 0x43205d4f
    1ec0:	6568                	.insn	2, 0x6568
    1ec2:	6e696b63          	bltu	s2,t1,25b8 <global_uart+0x668>
    1ec6:	65722067          	.insn	4, 0x65722067
    1eca:	746c7573          	csrrci	a0,0x746,24
    1ece:	2e2e2e73          	csrrs	t3,0x2e2,t3
    1ed2:	0d0a                	.insn	2, 0x0d0a
    1ed4:	0000                	.insn	2, 0x
    1ed6:	0000                	.insn	2, 0x
    1ed8:	5252455b          	.insn	4, 0x5252455b
    1edc:	205d524f          	.insn	4, 0x205d524f
    1ee0:	63656843          	.insn	4, 0x63656843
    1ee4:	6166206b          	.insn	4, 0x6166206b
    1ee8:	6c69                	.insn	2, 0x6c69
    1eea:	6465                	.insn	2, 0x6465
    1eec:	0a21                	.insn	2, 0x0a21
    1eee:	000d                	.insn	2, 0x000d
    1ef0:	464e495b          	.insn	4, 0x464e495b
    1ef4:	43205d4f          	.insn	4, 0x43205d4f
    1ef8:	6568                	.insn	2, 0x6568
    1efa:	73206b63          	bltu	zero,s2,2630 <global_uart+0x6e0>
    1efe:	6375                	.insn	2, 0x6375
    1f00:	73736563          	bltu	t1,s7,262a <global_uart+0x6da>
    1f04:	7566                	.insn	2, 0x7566
    1f06:	216c                	.insn	2, 0x216c
    1f08:	0d0a                	.insn	2, 0x0d0a
    1f0a:	0000                	.insn	2, 0x
    1f0c:	13f4                	.insn	2, 0x13f4
    1f0e:	0000                	.insn	2, 0x
    1f10:	129c                	.insn	2, 0x129c
    1f12:	0000                	.insn	2, 0x
    1f14:	129c                	.insn	2, 0x129c
    1f16:	0000                	.insn	2, 0x
    1f18:	13e8                	.insn	2, 0x13e8
    1f1a:	0000                	.insn	2, 0x
    1f1c:	129c                	.insn	2, 0x129c
    1f1e:	0000                	.insn	2, 0x
    1f20:	129c                	.insn	2, 0x129c
    1f22:	0000                	.insn	2, 0x
    1f24:	129c                	.insn	2, 0x129c
    1f26:	0000                	.insn	2, 0x
    1f28:	129c                	.insn	2, 0x129c
    1f2a:	0000                	.insn	2, 0x
    1f2c:	129c                	.insn	2, 0x129c
    1f2e:	0000                	.insn	2, 0x
    1f30:	129c                	.insn	2, 0x129c
    1f32:	0000                	.insn	2, 0x
    1f34:	129c                	.insn	2, 0x129c
    1f36:	0000                	.insn	2, 0x
    1f38:	13dc                	.insn	2, 0x13dc
    1f3a:	0000                	.insn	2, 0x
    1f3c:	129c                	.insn	2, 0x129c
    1f3e:	0000                	.insn	2, 0x
    1f40:	13d0                	.insn	2, 0x13d0
    1f42:	0000                	.insn	2, 0x
    1f44:	129c                	.insn	2, 0x129c
    1f46:	0000                	.insn	2, 0x
    1f48:	129c                	.insn	2, 0x129c
    1f4a:	0000                	.insn	2, 0x
    1f4c:	13c4                	.insn	2, 0x13c4
	...

Disassembly of section .debug_info:

00000000 <.debug_info>:
       0:	06d0                	.insn	2, 0x06d0
       2:	0000                	.insn	2, 0x
       4:	0005                	.insn	2, 0x0005
       6:	0401                	.insn	2, 0x0401
       8:	0000                	.insn	2, 0x
       a:	0000                	.insn	2, 0x
       c:	00014813          	xori	a6,sp,0
      10:	1d00                	.insn	2, 0x1d00
      12:	0000                	.insn	2, 0x
      14:	0000                	.insn	2, 0x
      16:	0000000b          	.insn	4, 0x000b
      1a:	0160                	.insn	2, 0x0160
      1c:	0000                	.insn	2, 0x
      1e:	0b18                	.insn	2, 0x0b18
      20:	0000                	.insn	2, 0x
      22:	0000                	.insn	2, 0x
      24:	0000                	.insn	2, 0x
      26:	0104                	.insn	2, 0x0104
      28:	a006                	.insn	2, 0xa006
      2a:	0000                	.insn	2, 0x
      2c:	0400                	.insn	2, 0x0400
      2e:	0801                	.insn	2, 0x0801
      30:	009e                	.insn	2, 0x009e
      32:	0000                	.insn	2, 0x
      34:	0204                	.insn	2, 0x0204
      36:	3e05                	.insn	2, 0x3e05
      38:	0000                	.insn	2, 0x
      3a:	0400                	.insn	2, 0x0400
      3c:	0702                	.insn	2, 0x0702
      3e:	00f1                	.insn	2, 0x00f1
      40:	0000                	.insn	2, 0x
      42:	0404                	.insn	2, 0x0404
      44:	8205                	.insn	2, 0x8205
      46:	0000                	.insn	2, 0x
      48:	0700                	.insn	2, 0x0700
      4a:	0054                	.insn	2, 0x0054
      4c:	0000                	.insn	2, 0x
      4e:	4f05                	.insn	2, 0x4f05
      50:	5519                	.insn	2, 0x5519
      52:	0000                	.insn	2, 0x
      54:	0400                	.insn	2, 0x0400
      56:	0704                	.insn	2, 0x0704
      58:	000000cf          	.insn	4, 0x00cf
      5c:	0804                	.insn	2, 0x0804
      5e:	7d05                	.insn	2, 0x7d05
      60:	0000                	.insn	2, 0x
      62:	0400                	.insn	2, 0x0400
      64:	0708                	.insn	2, 0x0708
      66:	00ca                	.insn	2, 0x00ca
      68:	0000                	.insn	2, 0x
      6a:	0414                	.insn	2, 0x0414
      6c:	6905                	.insn	2, 0x6905
      6e:	746e                	.insn	2, 0x746e
      70:	0700                	.insn	2, 0x0700
      72:	0126                	.insn	2, 0x0126
      74:	0000                	.insn	2, 0x
      76:	e805                	.insn	2, 0xe805
      78:	7d1a                	.insn	2, 0x7d1a
      7a:	0000                	.insn	2, 0x
      7c:	0400                	.insn	2, 0x0400
      7e:	0704                	.insn	2, 0x0704
      80:	00d4                	.insn	2, 0x00d4
      82:	0000                	.insn	2, 0x
      84:	00005607          	.insn	4, 0x5607
      88:	0600                	.insn	2, 0x0600
      8a:	1430                	.insn	2, 0x1430
      8c:	0049                	.insn	2, 0x0049
      8e:	0000                	.insn	2, 0x
      90:	840c                	.insn	2, 0x840c
      92:	0000                	.insn	2, 0x
      94:	0d00                	.insn	2, 0x0d00
      96:	0090                	.insn	2, 0x0090
      98:	0000                	.insn	2, 0x
      9a:	00012807          	.insn	4, 0x00012807
      9e:	0600                	.insn	2, 0x0600
      a0:	1552                	.insn	2, 0x1552
      a2:	0071                	.insn	2, 0x0071
      a4:	0000                	.insn	2, 0x
      a6:	00004807          	.insn	4, 0x4807
      aa:	0700                	.insn	2, 0x0700
      ac:	17d6                	.insn	2, 0x17d6
      ae:	007d                	.insn	2, 0x007d
      b0:	0000                	.insn	2, 0x
      b2:	1004                	.insn	2, 0x1004
      b4:	9204                	.insn	2, 0x9204
      b6:	0000                	.insn	2, 0x
      b8:	1500                	.insn	2, 0x1500
      ba:	3375                	.insn	2, 0x3375
      bc:	0032                	.insn	2, 0x0032
      be:	5808                	.insn	2, 0x5808
      c0:	8412                	.insn	2, 0x8412
      c2:	0000                	.insn	2, 0x
      c4:	0c00                	.insn	2, 0x0c00
      c6:	00b9                	.insn	2, 0x00b9
      c8:	0000                	.insn	2, 0x
      ca:	0104                	.insn	2, 0x0104
      cc:	a708                	.insn	2, 0xa708
      ce:	0000                	.insn	2, 0x
      d0:	0d00                	.insn	2, 0x0d00
      d2:	00ca                	.insn	2, 0x00ca
      d4:	0000                	.insn	2, 0x
      d6:	00011e07          	.insn	4, 0x00011e07
      da:	0800                	.insn	2, 0x0800
      dc:	009a138b          	.insn	4, 0x009a138b
      e0:	0000                	.insn	2, 0x
      e2:	0416                	.insn	2, 0x0416
      e4:	ac0e                	.insn	2, 0xac0e
      e6:	0000                	.insn	2, 0x
      e8:	0a00                	.insn	2, 0x0a00
      ea:	9509                	.insn	2, 0x9509
      ec:	0000                	.insn	2, 0x
      ee:	0700                	.insn	2, 0x0700
      f0:	01b5                	.insn	2, 0x01b5
      f2:	0000                	.insn	2, 0x
      f4:	2909                	.insn	2, 0x2909
      f6:	8412                	.insn	2, 0x8412
      f8:	0000                	.insn	2, 0x
      fa:	0e00                	.insn	2, 0x0e00
      fc:	005f 0000 3104      	.insn	6, 0x31040000005f
     102:	0095                	.insn	2, 0x0095
     104:	0000                	.insn	2, 0x
     106:	00001117          	auipc	sp,0x1
     10a:	0b00                	.insn	2, 0x0b00
     10c:	061e                	.insn	2, 0x061e
     10e:	0118                	.insn	2, 0x0118
     110:	0000                	.insn	2, 0x
     112:	0000840f          	.insn	4, 0x840f
     116:	0000                	.insn	2, 0x
     118:	4b18                	.insn	2, 0x4b18
     11a:	0c000003          	lb	zero,192(zero) # c0 <_reset_handler+0x40>
     11e:	0540                	.insn	2, 0x0540
     120:	006a                	.insn	2, 0x006a
     122:	0000                	.insn	2, 0x
     124:	0000012f          	.insn	4, 0x012f
     128:	00012f0f          	.insn	4, 0x00012f0f
     12c:	1900                	.insn	2, 0x1900
     12e:	0800                	.insn	2, 0x0800
     130:	00d1                	.insn	2, 0x00d1
     132:	0000                	.insn	2, 0x
     134:	4f1a                	.insn	2, 0x4f1a
     136:	0000                	.insn	2, 0x
     138:	0400                	.insn	2, 0x0400
     13a:	0534                	.insn	2, 0x0534
     13c:	006a                	.insn	2, 0x006a
     13e:	0000                	.insn	2, 0x
     140:	09f6                	.insn	2, 0x09f6
     142:	0000                	.insn	2, 0x
     144:	0282                	.insn	2, 0x0282
     146:	0000                	.insn	2, 0x
     148:	9c01                	.insn	2, 0x9c01
     14a:	01b5                	.insn	2, 0x01b5
     14c:	0000                	.insn	2, 0x
     14e:	320a                	.insn	2, 0x320a
     150:	0001                	.insn	2, 0x0001
     152:	0400                	.insn	2, 0x0400
     154:	00840e37          	lui	t3,0x840
     158:	0000                	.insn	2, 0x
     15a:	9102                	.insn	2, 0x9102
     15c:	0168                	.insn	2, 0x0168
     15e:	00746e63          	bltu	s0,t2,17a <memcpy+0x1a>
     162:	3804                	.insn	2, 0x3804
     164:	840e                	.insn	2, 0x840e
     166:	0000                	.insn	2, 0x
     168:	0200                	.insn	2, 0x0200
     16a:	6c91                	.insn	2, 0x6c91
     16c:	4100490b          	.insn	4, 0x4100490b
     170:	01b5                	.insn	2, 0x01b5
     172:	0000                	.insn	2, 0x
     174:	0800                	.insn	2, 0x0800
     176:	7902                	.insn	2, 0x7902
     178:	0b00                	.insn	2, 0x0b00
     17a:	d7420057          	.insn	4, 0xd7420057
     17e:	0001                	.insn	2, 0x0001
     180:	0000                	.insn	2, 0x
     182:	0304                	.insn	2, 0x0304
     184:	8079                	.insn	2, 0x8079
     186:	0b28                	.insn	2, 0x0b28
     188:	f943004f          	.insn	4, 0xf943004f
     18c:	0001                	.insn	2, 0x0001
     18e:	0000                	.insn	2, 0x
     190:	0304                	.insn	2, 0x0304
     192:	8079                	.insn	2, 0x8079
     194:	0a18                	.insn	2, 0x0a18
     196:	0008                	.insn	2, 0x0008
     198:	0000                	.insn	2, 0x
     19a:	4404                	.insn	2, 0x4404
     19c:	0001f913          	andi	s2,gp,0
     1a0:	0300                	.insn	2, 0x0300
     1a2:	e491                	.insn	2, 0xe491
     1a4:	0a76                	.insn	2, 0x0a76
     1a6:	001d                	.insn	2, 0x001d
     1a8:	0000                	.insn	2, 0x
     1aa:	a804                	.insn	2, 0xa804
     1ac:	1b0a                	.insn	2, 0x1b0a
     1ae:	0002                	.insn	2, 0x0002
     1b0:	0200                	.insn	2, 0x0200
     1b2:	6791                	.insn	2, 0x6791
     1b4:	0900                	.insn	2, 0x0900
     1b6:	000000ef          	jal	1b6 <memset+0x2>
     1ba:	000001d7          	.insn	4, 0x01d7
     1be:	00007d03          	.insn	4, 0x7d03
     1c2:	0100                	.insn	2, 0x0100
     1c4:	00007d03          	.insn	4, 0x7d03
     1c8:	0500                	.insn	2, 0x0500
     1ca:	00007d03          	.insn	4, 0x7d03
     1ce:	0700                	.insn	2, 0x0700
     1d0:	00007d03          	.insn	4, 0x7d03
     1d4:	0700                	.insn	2, 0x0700
     1d6:	0900                	.insn	2, 0x0900
     1d8:	000000ef          	jal	1d8 <memset+0x24>
     1dc:	01f9                	.insn	2, 0x01f9
     1de:	0000                	.insn	2, 0x
     1e0:	00007d03          	.insn	4, 0x7d03
     1e4:	0300                	.insn	2, 0x0300
     1e6:	00007d03          	.insn	4, 0x7d03
     1ea:	0500                	.insn	2, 0x0500
     1ec:	00007d03          	.insn	4, 0x7d03
     1f0:	0200                	.insn	2, 0x0200
     1f2:	00007d03          	.insn	4, 0x7d03
     1f6:	0200                	.insn	2, 0x0200
     1f8:	0900                	.insn	2, 0x0900
     1fa:	000000ef          	jal	1fa <Xil_In32+0xe>
     1fe:	0000021b          	.insn	4, 0x021b
     202:	00007d03          	.insn	4, 0x7d03
     206:	0100                	.insn	2, 0x0100
     208:	00007d03          	.insn	4, 0x7d03
     20c:	0300                	.insn	2, 0x0300
     20e:	00007d03          	.insn	4, 0x7d03
     212:	0500                	.insn	2, 0x0500
     214:	00007d03          	.insn	4, 0x7d03
     218:	0500                	.insn	2, 0x0500
     21a:	0400                	.insn	2, 0x0400
     21c:	0201                	.insn	2, 0x0201
     21e:	0104                	.insn	2, 0x0104
     220:	0000                	.insn	2, 0x
     222:	0001c31b          	.insn	4, 0x0001c31b
     226:	0400                	.insn	2, 0x0400
     228:	061a                	.insn	2, 0x061a
     22a:	0948                	.insn	2, 0x0948
     22c:	0000                	.insn	2, 0x
     22e:	00ae                	.insn	2, 0x00ae
     230:	0000                	.insn	2, 0x
     232:	9c01                	.insn	2, 0x9c01
     234:	0248                	.insn	2, 0x0248
     236:	0000                	.insn	2, 0x
     238:	3206                	.insn	2, 0x3206
     23a:	0000                	.insn	2, 0x
     23c:	0400                	.insn	2, 0x0400
     23e:	231a                	.insn	2, 0x231a
     240:	0084                	.insn	2, 0x0084
     242:	0000                	.insn	2, 0x
     244:	9102                	.insn	2, 0x9102
     246:	006c                	.insn	2, 0x006c
     248:	ab1c                	.insn	2, 0xab1c
     24a:	0001                	.insn	2, 0x0001
     24c:	0400                	.insn	2, 0x0400
     24e:	0862060b          	.insn	4, 0x0862060b
     252:	0000                	.insn	2, 0x
     254:	00e6                	.insn	2, 0x00e6
     256:	0000                	.insn	2, 0x
     258:	9c01                	.insn	2, 0x9c01
     25a:	026e                	.insn	2, 0x026e
     25c:	0000                	.insn	2, 0x
     25e:	6301                	.insn	2, 0x6301
     260:	04007273          	csrrci	tp,uscratch,0
     264:	0e0d                	.insn	2, 0x0e0d
     266:	0084                	.insn	2, 0x0084
     268:	0000                	.insn	2, 0x
     26a:	9102                	.insn	2, 0x9102
     26c:	006c                	.insn	2, 0x006c
     26e:	3b1d                	.insn	2, 0x3b1d
     270:	0001                	.insn	2, 0x0001
     272:	0300                	.insn	2, 0x0300
     274:	0542                	.insn	2, 0x0542
     276:	006a                	.insn	2, 0x006a
     278:	0000                	.insn	2, 0x
     27a:	061a                	.insn	2, 0x061a
     27c:	0000                	.insn	2, 0x
     27e:	0248                	.insn	2, 0x0248
     280:	0000                	.insn	2, 0x
     282:	9c01                	.insn	2, 0x9c01
     284:	0305                	.insn	2, 0x0305
     286:	0000                	.insn	2, 0x
     288:	6f05                	.insn	2, 0x6f05
     28a:	7475                	.insn	2, 0x7475
     28c:	0300                	.insn	2, 0x0300
     28e:	03212343          	.insn	4, 0x03212343
     292:	0000                	.insn	2, 0x
     294:	9102                	.insn	2, 0x9102
     296:	065c                	.insn	2, 0x065c
     298:	0008                	.insn	2, 0x0008
     29a:	0000                	.insn	2, 0x
     29c:	21234403          	lbu	s0,530(t1)
     2a0:	02000003          	lb	zero,32(zero) # 20 <_vector_table_start+0x20>
     2a4:	5891                	.insn	2, 0x5891
     2a6:	2a02                	.insn	2, 0x2a02
     2a8:	0006                	.insn	2, 0x0006
     2aa:	2c00                	.insn	2, 0x2c00
     2ac:	0002                	.insn	2, 0x0002
     2ae:	0100                	.insn	2, 0x0100
     2b0:	006e                	.insn	2, 0x006e
     2b2:	7d184803          	lbu	a6,2001(a6)
     2b6:	0000                	.insn	2, 0x
     2b8:	0200                	.insn	2, 0x0200
     2ba:	6c91                	.insn	2, 0x6c91
     2bc:	3002                	.insn	2, 0x3002
     2be:	0006                	.insn	2, 0x0006
     2c0:	1200                	.insn	2, 0x1200
     2c2:	0002                	.insn	2, 0x0002
     2c4:	0100                	.insn	2, 0x0100
     2c6:	4903006b          	.insn	4, 0x4903006b
     2ca:	7d1c                	.insn	2, 0x7d1c
     2cc:	0000                	.insn	2, 0x
     2ce:	0200                	.insn	2, 0x0200
     2d0:	6891                	.insn	2, 0x6891
     2d2:	3602                	.insn	2, 0x3602
     2d4:	0006                	.insn	2, 0x0006
     2d6:	f800                	.insn	2, 0xf800
     2d8:	0001                	.insn	2, 0x0001
     2da:	0100                	.insn	2, 0x0100
     2dc:	3179                	.insn	2, 0x3179
     2de:	0300                	.insn	2, 0x0300
     2e0:	204a                	.insn	2, 0x204a
     2e2:	007d                	.insn	2, 0x007d
     2e4:	0000                	.insn	2, 0x
     2e6:	9102                	.insn	2, 0x9102
     2e8:	0264                	.insn	2, 0x0264
     2ea:	063c                	.insn	2, 0x063c
     2ec:	0000                	.insn	2, 0x
     2ee:	01de                	.insn	2, 0x01de
     2f0:	0000                	.insn	2, 0x
     2f2:	7801                	.insn	2, 0x7801
     2f4:	0031                	.insn	2, 0x0031
     2f6:	7d244b03          	lbu	s6,2002(s0)
     2fa:	0000                	.insn	2, 0x
     2fc:	0200                	.insn	2, 0x0200
     2fe:	6091                	.insn	2, 0x6091
     300:	0000                	.insn	2, 0x
     302:	0000                	.insn	2, 0x
     304:	0900                	.insn	2, 0x0900
     306:	000000ef          	jal	306 <init_data+0xda>
     30a:	0321                	.insn	2, 0x0321
     30c:	0000                	.insn	2, 0x
     30e:	00007d03          	.insn	4, 0x7d03
     312:	0300                	.insn	2, 0x0300
     314:	00007d03          	.insn	4, 0x7d03
     318:	0500                	.insn	2, 0x0500
     31a:	00007d03          	.insn	4, 0x7d03
     31e:	0500                	.insn	2, 0x0500
     320:	0800                	.insn	2, 0x0800
     322:	0305                	.insn	2, 0x0305
     324:	0000                	.insn	2, 0x
     326:	0010                	.insn	2, 0x0010
     328:	0000                	.insn	2, 0x
     32a:	2900                	.insn	2, 0x2900
     32c:	0452                	.insn	2, 0x0452
     32e:	0000                	.insn	2, 0x
     330:	01c8                	.insn	2, 0x01c8
     332:	0000                	.insn	2, 0x
     334:	9c01                	.insn	2, 0x9c01
     336:	00000407          	.insn	4, 0x0407
     33a:	4905                	.insn	2, 0x4905
     33c:	0300                	.insn	2, 0x0300
     33e:	232a                	.insn	2, 0x232a
     340:	00000423          	sb	zero,8(zero) # 8 <_vector_table_start+0x8>
     344:	9102                	.insn	2, 0x9102
     346:	054c                	.insn	2, 0x054c
     348:	2b030057          	.insn	4, 0x2b030057
     34c:	00044423          	.insn	4, 0x00044423
     350:	0200                	.insn	2, 0x0200
     352:	4891                	.insn	2, 0x4891
     354:	0806                	.insn	2, 0x0806
     356:	0000                	.insn	2, 0x
     358:	0300                	.insn	2, 0x0300
     35a:	232c                	.insn	2, 0x232c
     35c:	0321                	.insn	2, 0x0321
     35e:	0000                	.insn	2, 0x
     360:	9102                	.insn	2, 0x9102
     362:	0244                	.insn	2, 0x0244
     364:	0464                	.insn	2, 0x0464
     366:	0000                	.insn	2, 0x
     368:	01ac                	.insn	2, 0x01ac
     36a:	0000                	.insn	2, 0x
     36c:	6e01                	.insn	2, 0x6e01
     36e:	0300                	.insn	2, 0x0300
     370:	007d182f          	.insn	4, 0x007d182f
     374:	0000                	.insn	2, 0x
     376:	9102                	.insn	2, 0x9102
     378:	026c                	.insn	2, 0x026c
     37a:	046a                	.insn	2, 0x046a
     37c:	0000                	.insn	2, 0x
     37e:	0192                	.insn	2, 0x0192
     380:	0000                	.insn	2, 0x
     382:	6b01                	.insn	2, 0x6b01
     384:	0300                	.insn	2, 0x0300
     386:	1c30                	.insn	2, 0x1c30
     388:	007d                	.insn	2, 0x007d
     38a:	0000                	.insn	2, 0x
     38c:	9102                	.insn	2, 0x9102
     38e:	0268                	.insn	2, 0x0268
     390:	0470                	.insn	2, 0x0470
     392:	0000                	.insn	2, 0x
     394:	0178                	.insn	2, 0x0178
     396:	0000                	.insn	2, 0x
     398:	6301                	.insn	2, 0x6301
     39a:	0300                	.insn	2, 0x0300
     39c:	2031                	.insn	2, 0x2031
     39e:	007d                	.insn	2, 0x007d
     3a0:	0000                	.insn	2, 0x
     3a2:	9102                	.insn	2, 0x9102
     3a4:	0264                	.insn	2, 0x0264
     3a6:	0476                	.insn	2, 0x0476
     3a8:	0000                	.insn	2, 0x
     3aa:	015e                	.insn	2, 0x015e
     3ac:	0000                	.insn	2, 0x
     3ae:	7901                	.insn	2, 0x7901
     3b0:	0031                	.insn	2, 0x0031
     3b2:	7d243203          	.insn	4, 0x7d243203
     3b6:	0000                	.insn	2, 0x
     3b8:	0200                	.insn	2, 0x0200
     3ba:	6091                	.insn	2, 0x6091
     3bc:	7c02                	.insn	2, 0x7c02
     3be:	0004                	.insn	2, 0x0004
     3c0:	4400                	.insn	2, 0x4400
     3c2:	0001                	.insn	2, 0x0001
     3c4:	0100                	.insn	2, 0x0100
     3c6:	3178                	.insn	2, 0x3178
     3c8:	0300                	.insn	2, 0x0300
     3ca:	007d2833          	slt	a6,s10,t2
     3ce:	0000                	.insn	2, 0x
     3d0:	9102                	.insn	2, 0x9102
     3d2:	025c                	.insn	2, 0x025c
     3d4:	0482                	.insn	2, 0x0482
     3d6:	0000                	.insn	2, 0x
     3d8:	012a                	.insn	2, 0x012a
     3da:	0000                	.insn	2, 0x
     3dc:	7201                	.insn	2, 0x7201
     3de:	0300                	.insn	2, 0x0300
     3e0:	2c34                	.insn	2, 0x2c34
     3e2:	007d                	.insn	2, 0x007d
     3e4:	0000                	.insn	2, 0x
     3e6:	9102                	.insn	2, 0x9102
     3e8:	0258                	.insn	2, 0x0258
     3ea:	0488                	.insn	2, 0x0488
     3ec:	0000                	.insn	2, 0x
     3ee:	0110                	.insn	2, 0x0110
     3f0:	0000                	.insn	2, 0x
     3f2:	7301                	.insn	2, 0x7301
     3f4:	0300                	.insn	2, 0x0300
     3f6:	3035                	.insn	2, 0x3035
     3f8:	007d                	.insn	2, 0x007d
     3fa:	0000                	.insn	2, 0x
     3fc:	9102                	.insn	2, 0x9102
     3fe:	0054                	.insn	2, 0x0054
     400:	0000                	.insn	2, 0x
     402:	0000                	.insn	2, 0x
     404:	0000                	.insn	2, 0x
     406:	0900                	.insn	2, 0x0900
     408:	000000ef          	jal	408 <init_data+0x1dc>
     40c:	00000423          	sb	zero,8(zero) # 8 <_vector_table_start+0x8>
     410:	00007d03          	.insn	4, 0x7d03
     414:	0500                	.insn	2, 0x0500
     416:	00007d03          	.insn	4, 0x7d03
     41a:	0700                	.insn	2, 0x0700
     41c:	00007d03          	.insn	4, 0x7d03
     420:	0700                	.insn	2, 0x0700
     422:	0800                	.insn	2, 0x0800
     424:	00000407          	.insn	4, 0x0407
     428:	ef09                	.insn	2, 0xef09
     42a:	0000                	.insn	2, 0x
     42c:	4400                	.insn	2, 0x4400
     42e:	0004                	.insn	2, 0x0004
     430:	0300                	.insn	2, 0x0300
     432:	007d                	.insn	2, 0x007d
     434:	0000                	.insn	2, 0x
     436:	0305                	.insn	2, 0x0305
     438:	007d                	.insn	2, 0x007d
     43a:	0000                	.insn	2, 0x
     43c:	0302                	.insn	2, 0x0302
     43e:	007d                	.insn	2, 0x007d
     440:	0000                	.insn	2, 0x
     442:	0002                	.insn	2, 0x0002
     444:	2808                	.insn	2, 0x2808
     446:	0004                	.insn	2, 0x0004
     448:	1000                	.insn	2, 0x1000
     44a:	0114                	.insn	2, 0x0114
     44c:	0000                	.insn	2, 0x
     44e:	00022c0b          	.insn	4, 0x00022c0b
     452:	2600                	.insn	2, 0x2600
     454:	0002                	.insn	2, 0x0002
     456:	0100                	.insn	2, 0x0100
     458:	a69c                	.insn	2, 0xa69c
     45a:	0005                	.insn	2, 0x0005
     45c:	0500                	.insn	2, 0x0500
     45e:	0049                	.insn	2, 0x0049
     460:	23230c03          	lb	s8,562(t1)
     464:	0004                	.insn	2, 0x0004
     466:	0300                	.insn	2, 0x0300
     468:	bc91                	.insn	2, 0xbc91
     46a:	057f 0057 0d03 4423 	.insn	10, 0x000444230d030057057f
     472:	0004 
     474:	0300                	.insn	2, 0x0300
     476:	b891                	.insn	2, 0xb891
     478:	057f 004f 0e03 2123 	.insn	10, 0x000321230e03004f057f
     480:	0003 
     482:	0300                	.insn	2, 0x0300
     484:	b491                	.insn	2, 0xb491
     486:	023e117f 00ac0000 	.insn	12, 0x04e7000000ac0000023e117f
     48e:	04e70000 
     492:	0000                	.insn	2, 0x
     494:	6e01                	.insn	2, 0x6e01
     496:	0300                	.insn	2, 0x0300
     498:	1812                	.insn	2, 0x1812
     49a:	007d                	.insn	2, 0x007d
     49c:	0000                	.insn	2, 0x
     49e:	9102                	.insn	2, 0x9102
     4a0:	026c                	.insn	2, 0x026c
     4a2:	0244                	.insn	2, 0x0244
     4a4:	0000                	.insn	2, 0x
     4a6:	0092                	.insn	2, 0x0092
     4a8:	0000                	.insn	2, 0x
     4aa:	6301                	.insn	2, 0x6301
     4ac:	0300                	.insn	2, 0x0300
     4ae:	007d2013          	slti	zero,s10,7
     4b2:	0000                	.insn	2, 0x
     4b4:	9102                	.insn	2, 0x9102
     4b6:	0268                	.insn	2, 0x0268
     4b8:	024a                	.insn	2, 0x024a
     4ba:	0000                	.insn	2, 0x
     4bc:	0078                	.insn	2, 0x0078
     4be:	0000                	.insn	2, 0x
     4c0:	7901                	.insn	2, 0x7901
     4c2:	0300                	.insn	2, 0x0300
     4c4:	2414                	.insn	2, 0x2414
     4c6:	007d                	.insn	2, 0x007d
     4c8:	0000                	.insn	2, 0x
     4ca:	9102                	.insn	2, 0x9102
     4cc:	0264                	.insn	2, 0x0264
     4ce:	0250                	.insn	2, 0x0250
     4d0:	0000                	.insn	2, 0x
     4d2:	005e                	.insn	2, 0x005e
     4d4:	0000                	.insn	2, 0x
     4d6:	7801                	.insn	2, 0x7801
     4d8:	0300                	.insn	2, 0x0300
     4da:	2815                	.insn	2, 0x2815
     4dc:	007d                	.insn	2, 0x007d
     4de:	0000                	.insn	2, 0x
     4e0:	9102                	.insn	2, 0x9102
     4e2:	0060                	.insn	2, 0x0060
     4e4:	0000                	.insn	2, 0x
     4e6:	1100                	.insn	2, 0x1100
     4e8:	02ea                	.insn	2, 0x02ea
     4ea:	0000                	.insn	2, 0x
     4ec:	00ae                	.insn	2, 0x00ae
     4ee:	0000                	.insn	2, 0x
     4f0:	00000547          	.insn	4, 0x0547
     4f4:	6b01                	.insn	2, 0x6b01
     4f6:	0300                	.insn	2, 0x0300
     4f8:	1819                	.insn	2, 0x1819
     4fa:	007d                	.insn	2, 0x007d
     4fc:	0000                	.insn	2, 0x
     4fe:	9102                	.insn	2, 0x9102
     500:	025c                	.insn	2, 0x025c
     502:	02f0                	.insn	2, 0x02f0
     504:	0000                	.insn	2, 0x
     506:	0094                	.insn	2, 0x0094
     508:	0000                	.insn	2, 0x
     50a:	6301                	.insn	2, 0x6301
     50c:	0300                	.insn	2, 0x0300
     50e:	201a                	.insn	2, 0x201a
     510:	007d                	.insn	2, 0x007d
     512:	0000                	.insn	2, 0x
     514:	9102                	.insn	2, 0x9102
     516:	0258                	.insn	2, 0x0258
     518:	02f6                	.insn	2, 0x02f6
     51a:	0000                	.insn	2, 0x
     51c:	007a                	.insn	2, 0x007a
     51e:	0000                	.insn	2, 0x
     520:	7201                	.insn	2, 0x7201
     522:	0300                	.insn	2, 0x0300
     524:	007d241b          	.insn	4, 0x007d241b
     528:	0000                	.insn	2, 0x
     52a:	9102                	.insn	2, 0x9102
     52c:	0254                	.insn	2, 0x0254
     52e:	02fc                	.insn	2, 0x02fc
     530:	0000                	.insn	2, 0x
     532:	0060                	.insn	2, 0x0060
     534:	0000                	.insn	2, 0x
     536:	7301                	.insn	2, 0x7301
     538:	0300                	.insn	2, 0x0300
     53a:	281c                	.insn	2, 0x281c
     53c:	007d                	.insn	2, 0x007d
     53e:	0000                	.insn	2, 0x
     540:	9102                	.insn	2, 0x9102
     542:	0050                	.insn	2, 0x0050
     544:	0000                	.insn	2, 0x
     546:	0200                	.insn	2, 0x0200
     548:	0398                	.insn	2, 0x0398
     54a:	0000                	.insn	2, 0x
     54c:	00b0                	.insn	2, 0x00b0
     54e:	0000                	.insn	2, 0x
     550:	6e01                	.insn	2, 0x6e01
     552:	0300                	.insn	2, 0x0300
     554:	1820                	.insn	2, 0x1820
     556:	007d                	.insn	2, 0x007d
     558:	0000                	.insn	2, 0x
     55a:	9102                	.insn	2, 0x9102
     55c:	024c                	.insn	2, 0x024c
     55e:	039e                	.insn	2, 0x039e
     560:	0000                	.insn	2, 0x
     562:	0096                	.insn	2, 0x0096
     564:	0000                	.insn	2, 0x
     566:	6b01                	.insn	2, 0x6b01
     568:	0300                	.insn	2, 0x0300
     56a:	2021                	.insn	2, 0x2021
     56c:	007d                	.insn	2, 0x007d
     56e:	0000                	.insn	2, 0x
     570:	9102                	.insn	2, 0x9102
     572:	0248                	.insn	2, 0x0248
     574:	03a4                	.insn	2, 0x03a4
     576:	0000                	.insn	2, 0x
     578:	007c                	.insn	2, 0x007c
     57a:	0000                	.insn	2, 0x
     57c:	7901                	.insn	2, 0x7901
     57e:	0031                	.insn	2, 0x0031
     580:	7d242203          	lw	tp,2002(s0)
     584:	0000                	.insn	2, 0x
     586:	0200                	.insn	2, 0x0200
     588:	4491                	.insn	2, 0x4491
     58a:	aa02                	.insn	2, 0xaa02
     58c:	62000003          	lb	zero,1568(zero) # 620 <check_values+0x6>
     590:	0000                	.insn	2, 0x
     592:	0100                	.insn	2, 0x0100
     594:	3178                	.insn	2, 0x3178
     596:	0300                	.insn	2, 0x0300
     598:	007d2823          	sw	t2,16(s10)
     59c:	0000                	.insn	2, 0x
     59e:	9102                	.insn	2, 0x9102
     5a0:	0040                	.insn	2, 0x0040
     5a2:	0000                	.insn	2, 0x
     5a4:	0000                	.insn	2, 0x
     5a6:	0a1e                	.insn	2, 0x0a1e
     5a8:	0001                	.insn	2, 0x0001
     5aa:	0200                	.insn	2, 0x0200
     5ac:	020414ab          	.insn	4, 0x020414ab
     5b0:	0000                	.insn	2, 0x
     5b2:	0028                	.insn	2, 0x0028
     5b4:	0000                	.insn	2, 0x
     5b6:	9c01                	.insn	2, 0x9c01
     5b8:	05ea                	.insn	2, 0x05ea
     5ba:	0000                	.insn	2, 0x
     5bc:	ec06                	.insn	2, 0xec06
     5be:	0000                	.insn	2, 0x
     5c0:	0200                	.insn	2, 0x0200
     5c2:	00d626ab          	.insn	4, 0x00d626ab
     5c6:	0000                	.insn	2, 0x
     5c8:	9102                	.insn	2, 0x9102
     5ca:	065c                	.insn	2, 0x065c
     5cc:	00e1                	.insn	2, 0x00e1
     5ce:	0000                	.insn	2, 0x
     5d0:	ab02                	.insn	2, 0xab02
     5d2:	b930                	.insn	2, 0xb930
     5d4:	0000                	.insn	2, 0x
     5d6:	0200                	.insn	2, 0x0200
     5d8:	5891                	.insn	2, 0x5891
     5da:	e70a                	.insn	2, 0xe70a
     5dc:	0000                	.insn	2, 0x
     5de:	0200                	.insn	2, 0x0200
     5e0:	10ae                	.insn	2, 0x10ae
     5e2:	05ea                	.insn	2, 0x05ea
     5e4:	0000                	.insn	2, 0x
     5e6:	9102                	.insn	2, 0x9102
     5e8:	006c                	.insn	2, 0x006c
     5ea:	c508                	.insn	2, 0xc508
     5ec:	0000                	.insn	2, 0x
     5ee:	1f00                	.insn	2, 0x1f00
     5f0:	0029                	.insn	2, 0x0029
     5f2:	0000                	.insn	2, 0x
     5f4:	6102                	.insn	2, 0x6102
     5f6:	0000b913          	sltiu	s2,ra,0
     5fa:	ec00                	.insn	2, 0xec00
     5fc:	0001                	.insn	2, 0x0001
     5fe:	1800                	.insn	2, 0x1800
     600:	0000                	.insn	2, 0x
     602:	0100                	.insn	2, 0x0100
     604:	199c                	.insn	2, 0x199c
     606:	0006                	.insn	2, 0x0006
     608:	0600                	.insn	2, 0x0600
     60a:	00ec                	.insn	2, 0x00ec
     60c:	0000                	.insn	2, 0x
     60e:	6102                	.insn	2, 0x6102
     610:	d624                	.insn	2, 0xd624
     612:	0000                	.insn	2, 0x
     614:	0200                	.insn	2, 0x0200
     616:	6c91                	.insn	2, 0x6c91
     618:	1200                	.insn	2, 0x1200
     61a:	0000008b          	.insn	4, 0x008b
     61e:	0810                	.insn	2, 0x0810
     620:	00e2                	.insn	2, 0x00e2
     622:	0000                	.insn	2, 0x
     624:	01b4                	.insn	2, 0x01b4
     626:	0000                	.insn	2, 0x
     628:	0038                	.insn	2, 0x0038
     62a:	0000                	.insn	2, 0x
     62c:	9c01                	.insn	2, 0x9c01
     62e:	066c                	.insn	2, 0x066c
     630:	0000                	.insn	2, 0x
     632:	2406                	.insn	2, 0x2406
     634:	0000                	.insn	2, 0x
     636:	0100                	.insn	2, 0x0100
     638:	1610                	.insn	2, 0x1610
     63a:	00e2                	.insn	2, 0x00e2
     63c:	0000                	.insn	2, 0x
     63e:	9102                	.insn	2, 0x9102
     640:	056c                	.insn	2, 0x056c
     642:	6176                	.insn	2, 0x6176
     644:	006c                	.insn	2, 0x006c
     646:	1001                	.insn	2, 0x1001
     648:	6a29                	.insn	2, 0x6a29
     64a:	0000                	.insn	2, 0x
     64c:	0100                	.insn	2, 0x0100
     64e:	656c055b          	.insn	4, 0x656c055b
     652:	006e                	.insn	2, 0x006e
     654:	1001                	.insn	2, 0x1001
     656:	a63e                	.insn	2, 0xa63e
     658:	0000                	.insn	2, 0x
     65a:	0100                	.insn	2, 0x0100
     65c:	015d                	.insn	2, 0x015d
     65e:	7470                	.insn	2, 0x7470
     660:	0072                	.insn	2, 0x0072
     662:	1201                	.insn	2, 0x1201
     664:	00066c1b          	.insn	4, 0x00066c1b
     668:	0100                	.insn	2, 0x0100
     66a:	0059                	.insn	2, 0x0059
     66c:	2d08                	.insn	2, 0x2d08
     66e:	0000                	.insn	2, 0x
     670:	1200                	.insn	2, 0x1200
     672:	0076                	.insn	2, 0x0076
     674:	0000                	.insn	2, 0x
     676:	0709                	.insn	2, 0x0709
     678:	00e2                	.insn	2, 0x00e2
     67a:	0000                	.insn	2, 0x
     67c:	0160                	.insn	2, 0x0160
     67e:	0000                	.insn	2, 0x
     680:	0054                	.insn	2, 0x0054
     682:	0000                	.insn	2, 0x
     684:	9c01                	.insn	2, 0x9c01
     686:	06cd                	.insn	2, 0x06cd
     688:	0000                	.insn	2, 0x
     68a:	2406                	.insn	2, 0x2406
     68c:	0000                	.insn	2, 0x
     68e:	0100                	.insn	2, 0x0100
     690:	1409                	.insn	2, 0x1409
     692:	00e2                	.insn	2, 0x00e2
     694:	0000                	.insn	2, 0x
     696:	9102                	.insn	2, 0x9102
     698:	055c                	.insn	2, 0x055c
     69a:	00637273          	csrrci	tp,0x6,6
     69e:	0901                	.insn	2, 0x0901
     6a0:	cd26                	.insn	2, 0xcd26
     6a2:	0006                	.insn	2, 0x0006
     6a4:	0200                	.insn	2, 0x0200
     6a6:	5891                	.insn	2, 0x5891
     6a8:	6e05                	.insn	2, 0x6e05
     6aa:	0100                	.insn	2, 0x0100
     6ac:	3209                	.insn	2, 0x3209
     6ae:	00a6                	.insn	2, 0x00a6
     6b0:	0000                	.insn	2, 0x
     6b2:	9102                	.insn	2, 0x9102
     6b4:	0254                	.insn	2, 0x0254
     6b6:	0172                	.insn	2, 0x0172
     6b8:	0000                	.insn	2, 0x
     6ba:	0038                	.insn	2, 0x0038
     6bc:	0000                	.insn	2, 0x
     6be:	6901                	.insn	2, 0x6901
     6c0:	0100                	.insn	2, 0x0100
     6c2:	0f0a                	.insn	2, 0x0f0a
     6c4:	00a6                	.insn	2, 0x00a6
     6c6:	0000                	.insn	2, 0x
     6c8:	9102                	.insn	2, 0x9102
     6ca:	006c                	.insn	2, 0x006c
     6cc:	0800                	.insn	2, 0x0800
     6ce:	06d2                	.insn	2, 0x06d2
     6d0:	0000                	.insn	2, 0x
     6d2:	0020                	.insn	2, 0x0020
     6d4:	001f 0000 0005      	.insn	6, 0x00050000001f
     6da:	0401                	.insn	2, 0x0401
     6dc:	00000213          	li	tp,0
     6e0:	2901                	.insn	2, 0x2901
     6e2:	0009                	.insn	2, 0x0009
     6e4:	0c00                	.insn	2, 0x0c00
     6e6:	0000                	.insn	2, 0x
     6e8:	d500                	.insn	2, 0xd500
     6ea:	0001                	.insn	2, 0x0001
     6ec:	2e00                	.insn	2, 0x2e00
     6ee:	0002                	.insn	2, 0x0002
     6f0:	9500                	.insn	2, 0x9500
     6f2:	0002                	.insn	2, 0x0002
     6f4:	0100                	.insn	2, 0x0100
     6f6:	db80                	.insn	2, 0xdb80
     6f8:	000e                	.insn	2, 0x000e
     6fa:	0500                	.insn	2, 0x0500
     6fc:	0100                	.insn	2, 0x0100
     6fe:	2504                	.insn	2, 0x2504
     700:	0002                	.insn	2, 0x0002
     702:	2800                	.insn	2, 0x2800
     704:	037e                	.insn	2, 0x037e
     706:	0000                	.insn	2, 0x
     708:	051d                	.insn	2, 0x051d
     70a:	d1000003          	lb	zero,-752(zero) # fffffd10 <_peripheral_PLIC_end+0xf7fffd10>
     70e:	0002                	.insn	2, 0x0002
     710:	7800                	.insn	2, 0x7800
     712:	000c                	.insn	2, 0x000c
     714:	1000                	.insn	2, 0x1000
     716:	c600000f          	.insn	4, 0xc600000f
     71a:	000a                	.insn	2, 0x000a
     71c:	0700                	.insn	2, 0x0700
     71e:	042a                	.insn	2, 0x042a
     720:	0000                	.insn	2, 0x
     722:	2802                	.insn	2, 0x2802
     724:	0000321b          	.insn	4, 0x321b
     728:	2900                	.insn	2, 0x2900
     72a:	df04                	.insn	2, 0xdf04
     72c:	07000003          	lb	zero,112(zero) # 70 <_vector_table_start+0x70>
     730:	0431                	.insn	2, 0x0431
     732:	0000                	.insn	2, 0x
     734:	6302                	.insn	2, 0x6302
     736:	2618                	.insn	2, 0x2618
     738:	0000                	.insn	2, 0x
     73a:	2a00                	.insn	2, 0x2a00
     73c:	0504                	.insn	2, 0x0504
     73e:	6e69                	.insn	2, 0x6e69
     740:	0074                	.insn	2, 0x0074
     742:	4410                	.insn	2, 0x4410
     744:	0000                	.insn	2, 0x
     746:	0700                	.insn	2, 0x0700
     748:	0048                	.insn	2, 0x0048
     74a:	0000                	.insn	2, 0x
     74c:	6117d603          	lhu	a2,1553(a5)
     750:	0000                	.insn	2, 0x
     752:	1000                	.insn	2, 0x1000
     754:	0050                	.insn	2, 0x0050
     756:	0000                	.insn	2, 0x
     758:	0405                	.insn	2, 0x0405
     75a:	0000d407          	.insn	4, 0xd407
     75e:	1000                	.insn	2, 0x1000
     760:	0061                	.insn	2, 0x0061
     762:	0000                	.insn	2, 0x
     764:	0805                	.insn	2, 0x0805
     766:	7d05                	.insn	2, 0x7d05
     768:	0000                	.insn	2, 0x
     76a:	0500                	.insn	2, 0x0500
     76c:	0410                	.insn	2, 0x0410
     76e:	0092                	.insn	2, 0x0092
     770:	0000                	.insn	2, 0x
     772:	0105                	.insn	2, 0x0105
     774:	a006                	.insn	2, 0xa006
     776:	0000                	.insn	2, 0x
     778:	0700                	.insn	2, 0x0700
     77a:	0320                	.insn	2, 0x0320
     77c:	0000                	.insn	2, 0x
     77e:	2b04                	.insn	2, 0x2b04
     780:	8e18                	.insn	2, 0x8e18
     782:	0000                	.insn	2, 0x
     784:	0500                	.insn	2, 0x0500
     786:	0801                	.insn	2, 0x0801
     788:	009e                	.insn	2, 0x009e
     78a:	0000                	.insn	2, 0x
     78c:	0205                	.insn	2, 0x0205
     78e:	3e05                	.insn	2, 0x3e05
     790:	0000                	.insn	2, 0x
     792:	0500                	.insn	2, 0x0500
     794:	0702                	.insn	2, 0x0702
     796:	00f1                	.insn	2, 0x00f1
     798:	0000                	.insn	2, 0x
     79a:	0405                	.insn	2, 0x0405
     79c:	8205                	.insn	2, 0x8205
     79e:	0000                	.insn	2, 0x
     7a0:	1000                	.insn	2, 0x1000
     7a2:	000000a3          	sb	zero,1(zero) # 1 <_vector_table_start+0x1>
     7a6:	00005407          	.insn	4, 0x5407
     7aa:	0400                	.insn	2, 0x0400
     7ac:	00bb194f          	.insn	4, 0x00bb194f
     7b0:	0000                	.insn	2, 0x
     7b2:	0405                	.insn	2, 0x0405
     7b4:	0000cf07          	.insn	4, 0xcf07
     7b8:	0500                	.insn	2, 0x0500
     7ba:	0708                	.insn	2, 0x0708
     7bc:	00ca                	.insn	2, 0x00ca
     7be:	0000                	.insn	2, 0x
     7c0:	00012607          	.insn	4, 0x00012607
     7c4:	0400                	.insn	2, 0x0400
     7c6:	1ae8                	.insn	2, 0x1ae8
     7c8:	0061                	.insn	2, 0x0061
     7ca:	0000                	.insn	2, 0x
     7cc:	00032207          	.insn	4, 0x00032207
     7d0:	0500                	.insn	2, 0x0500
     7d2:	1318                	.insn	2, 0x1318
     7d4:	0082                	.insn	2, 0x0082
     7d6:	0000                	.insn	2, 0x
     7d8:	00005607          	.insn	4, 0x5607
     7dc:	0500                	.insn	2, 0x0500
     7de:	1430                	.insn	2, 0x1430
     7e0:	000000af          	.insn	4, 0x00af
     7e4:	00012807          	.insn	4, 0x00012807
     7e8:	0500                	.insn	2, 0x0500
     7ea:	1552                	.insn	2, 0x1552
     7ec:	00c9                	.insn	2, 0x00c9
     7ee:	0000                	.insn	2, 0x
     7f0:	00032a07          	.insn	4, 0x00032a07
     7f4:	0100                	.insn	2, 0x0100
     7f6:	1076                	.insn	2, 0x1076
     7f8:	0105                	.insn	2, 0x0105
     7fa:	0000                	.insn	2, 0x
     7fc:	00010a13          	mv	s4,sp
     800:	2000                	.insn	2, 0x2000
     802:	0124                	.insn	2, 0x0124
     804:	0000                	.insn	2, 0x
     806:	240d                	.insn	2, 0x240d
     808:	0001                	.insn	2, 0x0001
     80a:	0d00                	.insn	2, 0x0d00
     80c:	0130                	.insn	2, 0x0130
     80e:	0000                	.insn	2, 0x
     810:	500d                	.insn	2, 0x500d
     812:	0000                	.insn	2, 0x
     814:	0d00                	.insn	2, 0x0d00
     816:	0050                	.insn	2, 0x0050
     818:	0000                	.insn	2, 0x
     81a:	0500                	.insn	2, 0x0500
     81c:	0801                	.insn	2, 0x0801
     81e:	000000a7          	.insn	4, 0x00a7
     822:	2410                	.insn	2, 0x2410
     824:	0001                	.insn	2, 0x0001
     826:	2b00                	.insn	2, 0x2b00
     828:	2c04                	.insn	2, 0x2c04
     82a:	0108                	.insn	2, 0x0108
     82c:	097a                	.insn	2, 0x097a
     82e:	0154                	.insn	2, 0x0154
     830:	0000                	.insn	2, 0x
     832:	6621                	.insn	2, 0x6621
     834:	7b007463          	bgeu	zero,a6,fdc <_ntoa_long+0x350>
     838:	0001640b          	.insn	4, 0x0001640b
     83c:	0000                	.insn	2, 0x
     83e:	6121                	.insn	2, 0x6121
     840:	6772                	.insn	2, 0x6772
     842:	7c00                	.insn	2, 0x7c00
     844:	3009                	.insn	2, 0x3009
     846:	0001                	.insn	2, 0x0001
     848:	0400                	.insn	2, 0x0400
     84a:	2000                	.insn	2, 0x2000
     84c:	0164                	.insn	2, 0x0164
     84e:	0000                	.insn	2, 0x
     850:	240d                	.insn	2, 0x240d
     852:	0001                	.insn	2, 0x0001
     854:	0d00                	.insn	2, 0x0d00
     856:	0130                	.insn	2, 0x0130
     858:	0000                	.insn	2, 0x
     85a:	1300                	.insn	2, 0x1300
     85c:	0154                	.insn	2, 0x0154
     85e:	0000                	.insn	2, 0x
     860:	00041307          	.insn	4, 0x00041307
     864:	0100                	.insn	2, 0x0100
     866:	037d                	.insn	2, 0x037d
     868:	0132                	.insn	2, 0x0132
     86a:	0000                	.insn	2, 0x
     86c:	6910                	.insn	2, 0x6910
     86e:	0001                	.insn	2, 0x0001
     870:	2d00                	.insn	2, 0x2d00
     872:	0439                	.insn	2, 0x0439
     874:	0000                	.insn	2, 0x
     876:	2406                	.insn	2, 0x2406
     878:	8c06                	.insn	2, 0x8c06
     87a:	0001                	.insn	2, 0x0001
     87c:	0d00                	.insn	2, 0x0d00
     87e:	00d5                	.insn	2, 0x00d5
     880:	0000                	.insn	2, 0x
     882:	1100                	.insn	2, 0x1100
     884:	02f5                	.insn	2, 0x02f5
     886:	0000                	.insn	2, 0x
     888:	0392                	.insn	2, 0x0392
     88a:	0044                	.insn	2, 0x0044
     88c:	0000                	.insn	2, 0x
     88e:	1b2c                	.insn	2, 0x1b2c
     890:	0000                	.insn	2, 0x
     892:	005c                	.insn	2, 0x005c
     894:	0000                	.insn	2, 0x
     896:	9c01                	.insn	2, 0x9c01
     898:	022e                	.insn	2, 0x022e
     89a:	0000                	.insn	2, 0x
     89c:	74756f0b          	.insn	4, 0x74756f0b
     8a0:	9200                	.insn	2, 0x9200
     8a2:	01641603          	lh	a2,22(s0)
     8a6:	0000                	.insn	2, 0x
     8a8:	000c                	.insn	2, 0x000c
     8aa:	0000                	.insn	2, 0x
     8ac:	6772610b          	.insn	4, 0x6772610b
     8b0:	9200                	.insn	2, 0x9200
     8b2:	01303d03          	.insn	4, 0x01303d03
     8b6:	0000                	.insn	2, 0x
     8b8:	0031                	.insn	2, 0x0031
     8ba:	0000                	.insn	2, 0x
     8bc:	00030e03          	lb	t3,0(t1)
     8c0:	9200                	.insn	2, 0x9200
     8c2:	022e4e03          	lbu	t3,34(t3) # 840022 <_peripheral_HLS_CONTROL_end+0x800022>
     8c6:	0000                	.insn	2, 0x
     8c8:	0056                	.insn	2, 0x0056
     8ca:	0000                	.insn	2, 0x
     8cc:	0818                	.insn	2, 0x0818
     8ce:	6176                	.insn	2, 0x6176
     8d0:	9400                	.insn	2, 0x9400
     8d2:	00380b03          	lb	s6,3(a6)
     8d6:	0000                	.insn	2, 0x
     8d8:	9102                	.insn	2, 0x9102
     8da:	1944                	.insn	2, 0x1944
     8dc:	02a1                	.insn	2, 0x02a1
     8de:	0000                	.insn	2, 0x
     8e0:	0396                	.insn	2, 0x0396
     8e2:	0001751b          	.insn	4, 0x0001751b
     8e6:	0200                	.insn	2, 0x0200
     8e8:	4891                	.insn	2, 0x4891
     8ea:	7208                	.insn	2, 0x7208
     8ec:	7465                	.insn	2, 0x7465
     8ee:	9700                	.insn	2, 0x9700
     8f0:	004b0d03          	lb	s10,4(s6)
     8f4:	0000                	.insn	2, 0x
     8f6:	5a01                	.insn	2, 0x5a01
     8f8:	7c0e                	.insn	2, 0x7c0e
     8fa:	e000001b          	.insn	4, 0xe000001b
     8fe:	0004                	.insn	2, 0x0004
     900:	0100                	.insn	2, 0x0100
     902:	5a01                	.insn	2, 0x5a01
     904:	0305                	.insn	2, 0x0305
     906:	11c0                	.insn	2, 0x11c0
     908:	0000                	.insn	2, 0x
     90a:	0101                	.insn	2, 0x0101
     90c:	4891025b          	.insn	4, 0x4891025b
     910:	0101                	.insn	2, 0x0101
     912:	025c                	.insn	2, 0x025c
     914:	ff09                	.insn	2, 0xff09
     916:	0101                	.insn	2, 0x0101
     918:	035d                	.insn	2, 0x035d
     91a:	015c01a3          	sb	s5,3(s8)
     91e:	5e01                	.insn	2, 0x5e01
     920:	9102                	.insn	2, 0x9102
     922:	006c                	.insn	2, 0x006c
     924:	1300                	.insn	2, 0x1300
     926:	0000012b          	.insn	4, 0x012b
     92a:	4811                	.insn	2, 0x4811
     92c:	8c000003          	lb	zero,-1856(zero) # fffff8c0 <_peripheral_PLIC_end+0xf7fff8c0>
     930:	00004403          	lbu	s0,0(zero) # 0 <_vector_table_start>
     934:	1000                	.insn	2, 0x1000
     936:	1c00001b          	.insn	4, 0x1c00001b
     93a:	0000                	.insn	2, 0x
     93c:	0100                	.insn	2, 0x0100
     93e:	bb9c                	.insn	2, 0xbb9c
     940:	0002                	.insn	2, 0x0002
     942:	0300                	.insn	2, 0x0300
     944:	000002b3          	add	t0,zero,zero
     948:	038c                	.insn	2, 0x038c
     94a:	bb16                	.insn	2, 0xbb16
     94c:	0002                	.insn	2, 0x0002
     94e:	7b00                	.insn	2, 0x7b00
     950:	0000                	.insn	2, 0x
     952:	0300                	.insn	2, 0x0300
     954:	0404                	.insn	2, 0x0404
     956:	0000                	.insn	2, 0x
     958:	038c                	.insn	2, 0x038c
     95a:	5025                	.insn	2, 0x5025
     95c:	0000                	.insn	2, 0x
     95e:	a000                	.insn	2, 0xa000
     960:	0000                	.insn	2, 0x
     962:	0300                	.insn	2, 0x0300
     964:	030e                	.insn	2, 0x030e
     966:	0000                	.insn	2, 0x
     968:	038c                	.insn	2, 0x038c
     96a:	2e38                	.insn	2, 0x2e38
     96c:	0002                	.insn	2, 0x0002
     96e:	c500                	.insn	2, 0xc500
     970:	0000                	.insn	2, 0x
     972:	0b00                	.insn	2, 0x0b00
     974:	6176                	.insn	2, 0x6176
     976:	8c00                	.insn	2, 0x8c00
     978:	00384803          	lbu	a6,3(a6)
     97c:	0000                	.insn	2, 0x
     97e:	00ea                	.insn	2, 0x00ea
     980:	0000                	.insn	2, 0x
     982:	2c2e                	.insn	2, 0x2c2e
     984:	e000001b          	.insn	4, 0xe000001b
     988:	0004                	.insn	2, 0x0004
     98a:	0100                	.insn	2, 0x0100
     98c:	5a01                	.insn	2, 0x5a01
     98e:	0305                	.insn	2, 0x0305
     990:	0c78                	.insn	2, 0x0c78
     992:	0000                	.insn	2, 0x
     994:	0101                	.insn	2, 0x0101
     996:	01a3035b          	.insn	4, 0x01a3035b
     99a:	015a                	.insn	2, 0x015a
     99c:	5c01                	.insn	2, 0x5c01
     99e:	5b01a303          	lw	t1,1456(gp)
     9a2:	0101                	.insn	2, 0x0101
     9a4:	035d                	.insn	2, 0x035d
     9a6:	015c01a3          	sb	s5,3(s8)
     9aa:	5e01                	.insn	2, 0x5e01
     9ac:	5d01a303          	lw	t1,1488(gp)
     9b0:	0000                	.insn	2, 0x
     9b2:	00012413          	slti	s0,sp,0
     9b6:	1100                	.insn	2, 0x1100
     9b8:	00000457          	.insn	4, 0x0457
     9bc:	0385                	.insn	2, 0x0385
     9be:	0044                	.insn	2, 0x0044
     9c0:	0000                	.insn	2, 0x
     9c2:	1ae0                	.insn	2, 0x1ae0
     9c4:	0000                	.insn	2, 0x
     9c6:	0030                	.insn	2, 0x0030
     9c8:	0000                	.insn	2, 0x
     9ca:	9c01                	.insn	2, 0x9c01
     9cc:	0335                	.insn	2, 0x0335
     9ce:	0000                	.insn	2, 0x
     9d0:	00030e03          	lb	t3,0(t1)
     9d4:	8500                	.insn	2, 0x8500
     9d6:	022e1a03          	lh	s4,34(t3)
     9da:	0000                	.insn	2, 0x
     9dc:	0000010f          	.insn	4, 0x010f
     9e0:	0061760b          	.insn	4, 0x0061760b
     9e4:	0385                	.insn	2, 0x0385
     9e6:	382a                	.insn	2, 0x382a
     9e8:	0000                	.insn	2, 0x
     9ea:	3400                	.insn	2, 0x3400
     9ec:	0001                	.insn	2, 0x0001
     9ee:	1900                	.insn	2, 0x1900
     9f0:	000002b3          	add	t0,zero,zero
     9f4:	35080387          	.insn	4, 0x35080387
     9f8:	02000003          	lb	zero,32(zero) # 20 <_vector_table_start+0x20>
     9fc:	6c91                	.insn	2, 0x6c91
     9fe:	040e                	.insn	2, 0x040e
     a00:	e000001b          	.insn	4, 0xe000001b
     a04:	0004                	.insn	2, 0x0004
     a06:	0100                	.insn	2, 0x0100
     a08:	5a01                	.insn	2, 0x5a01
     a0a:	0305                	.insn	2, 0x0305
     a0c:	11b4                	.insn	2, 0x11b4
     a0e:	0000                	.insn	2, 0x
     a10:	0101                	.insn	2, 0x0101
     a12:	6c91025b          	.insn	4, 0x6c91025b
     a16:	0101                	.insn	2, 0x0101
     a18:	025c                	.insn	2, 0x025c
     a1a:	ff09                	.insn	2, 0xff09
     a1c:	0101                	.insn	2, 0x0101
     a1e:	035d                	.insn	2, 0x035d
     a20:	015a01a3          	sb	s5,3(s4)
     a24:	5e01                	.insn	2, 0x5e01
     a26:	5b01a303          	lw	t1,1456(gp)
     a2a:	0000                	.insn	2, 0x
     a2c:	2422                	.insn	2, 0x2422
     a2e:	0001                	.insn	2, 0x0001
     a30:	4500                	.insn	2, 0x4500
     a32:	23000003          	lb	zero,560(zero) # 230 <init_data+0x4>
     a36:	0061                	.insn	2, 0x0061
     a38:	0000                	.insn	2, 0x
     a3a:	0000                	.insn	2, 0x
     a3c:	4911                	.insn	2, 0x4911
     a3e:	7b000003          	lb	zero,1968(zero) # 7b0 <check_values+0x196>
     a42:	00004403          	lbu	s0,0(zero) # 0 <_vector_table_start>
     a46:	9400                	.insn	2, 0x9400
     a48:	001a                	.insn	2, 0x001a
     a4a:	4c00                	.insn	2, 0x4c00
     a4c:	0000                	.insn	2, 0x
     a4e:	0100                	.insn	2, 0x0100
     a50:	da9c                	.insn	2, 0xda9c
     a52:	03000003          	lb	zero,48(zero) # 30 <_vector_table_start+0x30>
     a56:	000002b3          	add	t0,zero,zero
     a5a:	bb15037b          	.insn	4, 0xbb15037b
     a5e:	0002                	.insn	2, 0x0002
     a60:	5900                	.insn	2, 0x5900
     a62:	0001                	.insn	2, 0x0001
     a64:	0300                	.insn	2, 0x0300
     a66:	0404                	.insn	2, 0x0404
     a68:	0000                	.insn	2, 0x
     a6a:	5024037b          	.insn	4, 0x5024037b
     a6e:	0000                	.insn	2, 0x
     a70:	7e00                	.insn	2, 0x7e00
     a72:	0001                	.insn	2, 0x0001
     a74:	0300                	.insn	2, 0x0300
     a76:	030e                	.insn	2, 0x030e
     a78:	0000                	.insn	2, 0x
     a7a:	2e37037b          	.insn	4, 0x2e37037b
     a7e:	0002                	.insn	2, 0x0002
     a80:	a300                	.insn	2, 0xa300
     a82:	0001                	.insn	2, 0x0001
     a84:	1800                	.insn	2, 0x1800
     a86:	7608                	.insn	2, 0x7608
     a88:	0061                	.insn	2, 0x0061
     a8a:	037d                	.insn	2, 0x037d
     a8c:	0000380b          	.insn	4, 0x380b
     a90:	0200                	.insn	2, 0x0200
     a92:	4c91                	.insn	2, 0x4c91
     a94:	7208                	.insn	2, 0x7208
     a96:	7465                	.insn	2, 0x7465
     a98:	7f00                	.insn	2, 0x7f00
     a9a:	004b0d03          	lb	s10,4(s6)
     a9e:	0000                	.insn	2, 0x
     aa0:	5a01                	.insn	2, 0x5a01
     aa2:	d40e                	.insn	2, 0xd40e
     aa4:	001a                	.insn	2, 0x001a
     aa6:	e000                	.insn	2, 0xe000
     aa8:	0004                	.insn	2, 0x0004
     aaa:	0100                	.insn	2, 0x0100
     aac:	5a01                	.insn	2, 0x5a01
     aae:	0305                	.insn	2, 0x0305
     ab0:	0c78                	.insn	2, 0x0c78
     ab2:	0000                	.insn	2, 0x
     ab4:	0101                	.insn	2, 0x0101
     ab6:	01a3035b          	.insn	4, 0x01a3035b
     aba:	015a                	.insn	2, 0x015a
     abc:	5c01                	.insn	2, 0x5c01
     abe:	5b01a303          	lw	t1,1456(gp)
     ac2:	0101                	.insn	2, 0x0101
     ac4:	035d                	.insn	2, 0x035d
     ac6:	015c01a3          	sb	s5,3(s8)
     aca:	5e01                	.insn	2, 0x5e01
     acc:	9102                	.insn	2, 0x9102
     ace:	006c                	.insn	2, 0x006c
     ad0:	1100                	.insn	2, 0x1100
     ad2:	0000036b          	.insn	4, 0x036b
     ad6:	0371                	.insn	2, 0x0371
     ad8:	0044                	.insn	2, 0x0044
     ada:	0000                	.insn	2, 0x
     adc:	1a44                	.insn	2, 0x1a44
     ade:	0000                	.insn	2, 0x
     ae0:	0050                	.insn	2, 0x0050
     ae2:	0000                	.insn	2, 0x
     ae4:	9c01                	.insn	2, 0x9c01
     ae6:	045e                	.insn	2, 0x045e
     ae8:	0000                	.insn	2, 0x
     aea:	0002b303          	.insn	4, 0x0002b303
     aee:	7100                	.insn	2, 0x7100
     af0:	02bb1403          	lh	s0,43(s6)
     af4:	0000                	.insn	2, 0x
     af6:	01c8                	.insn	2, 0x01c8
     af8:	0000                	.insn	2, 0x
     afa:	00030e03          	lb	t3,0(t1)
     afe:	7100                	.insn	2, 0x7100
     b00:	022e2803          	lw	a6,34(t3)
     b04:	0000                	.insn	2, 0x
     b06:	01ed                	.insn	2, 0x01ed
     b08:	0000                	.insn	2, 0x
     b0a:	0818                	.insn	2, 0x0818
     b0c:	6176                	.insn	2, 0x6176
     b0e:	7300                	.insn	2, 0x7300
     b10:	00380b03          	lb	s6,3(a6)
     b14:	0000                	.insn	2, 0x
     b16:	9102                	.insn	2, 0x9102
     b18:	084c                	.insn	2, 0x084c
     b1a:	6572                	.insn	2, 0x6572
     b1c:	0074                	.insn	2, 0x0074
     b1e:	0375                	.insn	2, 0x0375
     b20:	4b0d                	.insn	2, 0x4b0d
     b22:	0000                	.insn	2, 0x
     b24:	0100                	.insn	2, 0x0100
     b26:	0e5a                	.insn	2, 0x0e5a
     b28:	1a88                	.insn	2, 0x1a88
     b2a:	0000                	.insn	2, 0x
     b2c:	04e0                	.insn	2, 0x04e0
     b2e:	0000                	.insn	2, 0x
     b30:	0101                	.insn	2, 0x0101
     b32:	055a                	.insn	2, 0x055a
     b34:	000c7803          	.insn	4, 0x000c7803
     b38:	0100                	.insn	2, 0x0100
     b3a:	5b01                	.insn	2, 0x5b01
     b3c:	5a01a303          	lw	t1,1440(gp)
     b40:	0101                	.insn	2, 0x0101
     b42:	025c                	.insn	2, 0x025c
     b44:	ff09                	.insn	2, 0xff09
     b46:	0101                	.insn	2, 0x0101
     b48:	035d                	.insn	2, 0x035d
     b4a:	015b01a3          	sb	s5,3(s6)
     b4e:	5e01                	.insn	2, 0x5e01
     b50:	9102                	.insn	2, 0x9102
     b52:	0068                	.insn	2, 0x0068
     b54:	1100                	.insn	2, 0x1100
     b56:	0000034b          	.insn	4, 0x034b
     b5a:	0366                	.insn	2, 0x0366
     b5c:	0044                	.insn	2, 0x0044
     b5e:	0000                	.insn	2, 0x
     b60:	19f0                	.insn	2, 0x19f0
     b62:	0000                	.insn	2, 0x
     b64:	0054                	.insn	2, 0x0054
     b66:	0000                	.insn	2, 0x
     b68:	9c01                	.insn	2, 0x9c01
     b6a:	04e0                	.insn	2, 0x04e0
     b6c:	0000                	.insn	2, 0x
     b6e:	00030e03          	lb	t3,0(t1)
     b72:	6600                	.insn	2, 0x6600
     b74:	022e1903          	lh	s2,34(t3)
     b78:	0000                	.insn	2, 0x
     b7a:	0212                	.insn	2, 0x0212
     b7c:	0000                	.insn	2, 0x
     b7e:	0818                	.insn	2, 0x0818
     b80:	6176                	.insn	2, 0x6176
     b82:	6800                	.insn	2, 0x6800
     b84:	00380b03          	lb	s6,3(a6)
     b88:	0000                	.insn	2, 0x
     b8a:	9102                	.insn	2, 0x9102
     b8c:	194c                	.insn	2, 0x194c
     b8e:	000002b3          	add	t0,zero,zero
     b92:	036a                	.insn	2, 0x036a
     b94:	3508                	.insn	2, 0x3508
     b96:	02000003          	lb	zero,32(zero) # 20 <_vector_table_start+0x20>
     b9a:	4891                	.insn	2, 0x4891
     b9c:	7208                	.insn	2, 0x7208
     b9e:	7465                	.insn	2, 0x7465
     ba0:	6b00                	.insn	2, 0x6b00
     ba2:	004b0d03          	lb	s10,4(s6)
     ba6:	0000                	.insn	2, 0x
     ba8:	5a01                	.insn	2, 0x5a01
     baa:	380e                	.insn	2, 0x380e
     bac:	001a                	.insn	2, 0x001a
     bae:	e000                	.insn	2, 0xe000
     bb0:	0004                	.insn	2, 0x0004
     bb2:	0100                	.insn	2, 0x0100
     bb4:	5a01                	.insn	2, 0x5a01
     bb6:	0305                	.insn	2, 0x0305
     bb8:	11b4                	.insn	2, 0x11b4
     bba:	0000                	.insn	2, 0x
     bbc:	0101                	.insn	2, 0x0101
     bbe:	4891025b          	.insn	4, 0x4891025b
     bc2:	0101                	.insn	2, 0x0101
     bc4:	025c                	.insn	2, 0x025c
     bc6:	ff09                	.insn	2, 0xff09
     bc8:	0101                	.insn	2, 0x0101
     bca:	035d                	.insn	2, 0x035d
     bcc:	015a01a3          	sb	s5,3(s4)
     bd0:	5e01                	.insn	2, 0x5e01
     bd2:	9102                	.insn	2, 0x9102
     bd4:	0064                	.insn	2, 0x0064
     bd6:	2400                	.insn	2, 0x2400
     bd8:	0315                	.insn	2, 0x0315
     bda:	0000                	.insn	2, 0x
     bdc:	0249                	.insn	2, 0x0249
     bde:	440c                	.insn	2, 0x440c
     be0:	0000                	.insn	2, 0x
     be2:	d400                	.insn	2, 0xd400
     be4:	0011                	.insn	2, 0x0011
     be6:	0000                	.insn	2, 0x
     be8:	0008                	.insn	2, 0x0008
     bea:	0100                	.insn	2, 0x0100
     bec:	219c                	.insn	2, 0x219c
     bee:	0009                	.insn	2, 0x0009
     bf0:	0b00                	.insn	2, 0x0b00
     bf2:	0074756f          	jal	a0,483f8 <_peripheral_HLS_CONTROL_end+0x83f8>
     bf6:	0249                	.insn	2, 0x0249
     bf8:	f924                	.insn	2, 0xf924
     bfa:	0000                	.insn	2, 0x
     bfc:	3700                	.insn	2, 0x3700
     bfe:	0002                	.insn	2, 0x0002
     c00:	0300                	.insn	2, 0x0300
     c02:	000002b3          	add	t0,zero,zero
     c06:	0249                	.insn	2, 0x0249
     c08:	0002bb2f          	.insn	4, 0x0002bb2f
     c0c:	8800                	.insn	2, 0x8800
     c0e:	0002                	.insn	2, 0x0002
     c10:	0300                	.insn	2, 0x0300
     c12:	00000353          	.insn	4, 0x0353
     c16:	0249                	.insn	2, 0x0249
     c18:	5c44                	.insn	2, 0x5c44
     c1a:	0000                	.insn	2, 0x
     c1c:	ce00                	.insn	2, 0xce00
     c1e:	0002                	.insn	2, 0x0002
     c20:	0300                	.insn	2, 0x0300
     c22:	030e                	.insn	2, 0x030e
     c24:	0000                	.insn	2, 0x
     c26:	0249                	.insn	2, 0x0249
     c28:	2e58                	.insn	2, 0x2e58
     c2a:	0002                	.insn	2, 0x0002
     c2c:	1400                	.insn	2, 0x1400
     c2e:	0b000003          	lb	zero,176(zero) # b0 <_reset_handler+0x30>
     c32:	6176                	.insn	2, 0x6176
     c34:	4900                	.insn	2, 0x4900
     c36:	6802                	.insn	2, 0x6802
     c38:	0038                	.insn	2, 0x0038
     c3a:	0000                	.insn	2, 0x
     c3c:	042c                	.insn	2, 0x042c
     c3e:	0000                	.insn	2, 0x
     c40:	0003420f          	.insn	4, 0x0003420f
     c44:	4b00                	.insn	2, 0x4b00
     c46:	1002                	.insn	2, 0x1002
     c48:	0061                	.insn	2, 0x0061
     c4a:	0000                	.insn	2, 0x
     c4c:	000005a3          	sb	zero,11(zero) # b <_vector_table_start+0xb>
     c50:	0002ef0f          	.insn	4, 0x0002ef0f
     c54:	4b00                	.insn	2, 0x4b00
     c56:	1702                	.insn	2, 0x1702
     c58:	0061                	.insn	2, 0x0061
     c5a:	0000                	.insn	2, 0x
     c5c:	073c                	.insn	2, 0x073c
     c5e:	0000                	.insn	2, 0x
     c60:	00044d0f          	.insn	4, 0x00044d0f
     c64:	4b00                	.insn	2, 0x4b00
     c66:	1e02                	.insn	2, 0x1e02
     c68:	0061                	.insn	2, 0x0061
     c6a:	0000                	.insn	2, 0x
     c6c:	07c6                	.insn	2, 0x07c6
     c6e:	0000                	.insn	2, 0x
     c70:	6e12                	.insn	2, 0x6e12
     c72:	4b00                	.insn	2, 0x4b00
     c74:	2902                	.insn	2, 0x2902
     c76:	0061                	.insn	2, 0x0061
     c78:	0000                	.insn	2, 0x
     c7a:	0891                	.insn	2, 0x0891
     c7c:	0000                	.insn	2, 0x
     c7e:	6912                	.insn	2, 0x6912
     c80:	7864                	.insn	2, 0x7864
     c82:	4c00                	.insn	2, 0x4c00
     c84:	0a02                	.insn	2, 0x0a02
     c86:	0050                	.insn	2, 0x0050
     c88:	0000                	.insn	2, 0x
     c8a:	08f2                	.insn	2, 0x08f2
     c8c:	0000                	.insn	2, 0x
     c8e:	f70c                	.insn	2, 0xf70c
     c90:	0000                	.insn	2, 0x
     c92:	ac00                	.insn	2, 0xac00
     c94:	0005                	.insn	2, 0x0005
     c96:	2f00                	.insn	2, 0x2f00
     c98:	74010077          	.insn	4, 0x74010077
     c9c:	1102                	.insn	2, 0x1102
     c9e:	0000004b          	.insn	4, 0x004b
     ca2:	0c00                	.insn	2, 0x0c00
     ca4:	0000027b          	.insn	4, 0x027b
     ca8:	000005c3          	.insn	4, 0x05c3
     cac:	2530                	.insn	2, 0x2530
     cae:	0004                	.insn	2, 0x0004
     cb0:	0100                	.insn	2, 0x0100
     cb2:	0288                	.insn	2, 0x0288
     cb4:	00004b13          	xori	s6,zero,0
     cb8:	0000                	.insn	2, 0x
     cba:	490c                	.insn	2, 0x490c
     cbc:	0001                	.insn	2, 0x0001
     cbe:	7c00                	.insn	2, 0x7c00
     cc0:	0006                	.insn	2, 0x0006
     cc2:	0f00                	.insn	2, 0x0f00
     cc4:	0448                	.insn	2, 0x0448
     cc6:	0000                	.insn	2, 0x
     cc8:	02bc                	.insn	2, 0x02bc
     cca:	6116                	.insn	2, 0x6116
     ccc:	0000                	.insn	2, 0x
     cce:	2b00                	.insn	2, 0x2b00
     cd0:	000a                	.insn	2, 0x000a
     cd2:	0c00                	.insn	2, 0x0c00
     cd4:	0180                	.insn	2, 0x0180
     cd6:	0000                	.insn	2, 0x
     cd8:	05f4                	.insn	2, 0x05f4
     cda:	0000                	.insn	2, 0x
     cdc:	d619                	.insn	2, 0xd619
     cde:	0002                	.insn	2, 0x0002
     ce0:	e300                	.insn	2, 0xe300
     ce2:	1802                	.insn	2, 0x1802
     ce4:	00aa                	.insn	2, 0x00aa
     ce6:	0000                	.insn	2, 0x
     ce8:	5f01                	.insn	2, 0x5f01
     cea:	0c00                	.insn	2, 0x0c00
     cec:	01b8                	.insn	2, 0x01b8
     cee:	0000                	.insn	2, 0x
     cf0:	062a                	.insn	2, 0x062a
     cf2:	0000                	.insn	2, 0x
     cf4:	0002d60f          	.insn	4, 0x0002d60f
     cf8:	e700                	.insn	2, 0xe700
     cfa:	1702                	.insn	2, 0x1702
     cfc:	0000004b          	.insn	4, 0x004b
     d00:	0a38                	.insn	2, 0x0a38
     d02:	0000                	.insn	2, 0x
     d04:	000e                	.insn	2, 0x000e
     d06:	0019                	.insn	2, 0x0019
     d08:	2100                	.insn	2, 0x2100
     d0a:	0009                	.insn	2, 0x0009
     d0c:	0100                	.insn	2, 0x0100
     d0e:	5a01                	.insn	2, 0x5a01
     d10:	8502                	.insn	2, 0x8502
     d12:	0100                	.insn	2, 0x0100
     d14:	5b01                	.insn	2, 0x5b01
     d16:	8402                	.insn	2, 0x8402
     d18:	0100                	.insn	2, 0x0100
     d1a:	5d01                	.insn	2, 0x5d01
     d1c:	8302                	.insn	2, 0x8302
     d1e:	0000                	.insn	2, 0x
     d20:	1b00                	.insn	2, 0x1b00
     d22:	01a5                	.insn	2, 0x01a5
     d24:	0000                	.insn	2, 0x
     d26:	0002d60f          	.insn	4, 0x0002d60f
     d2a:	f600                	.insn	2, 0xf600
     d2c:	2002                	.insn	2, 0x2002
     d2e:	0068                	.insn	2, 0x0068
     d30:	0000                	.insn	2, 0x
     d32:	0a44                	.insn	2, 0x0a44
     d34:	0000                	.insn	2, 0x
     d36:	f80e                	.insn	2, 0xf80e
     d38:	0014                	.insn	2, 0x0014
     d3a:	2100                	.insn	2, 0x2100
     d3c:	0009                	.insn	2, 0x0009
     d3e:	0100                	.insn	2, 0x0100
     d40:	5a01                	.insn	2, 0x5a01
     d42:	8502                	.insn	2, 0x8502
     d44:	0100                	.insn	2, 0x0100
     d46:	5b01                	.insn	2, 0x5b01
     d48:	8402                	.insn	2, 0x8402
     d4a:	0100                	.insn	2, 0x0100
     d4c:	5c01                	.insn	2, 0x5c01
     d4e:	8b02                	.insn	2, 0x8b02
     d50:	0100                	.insn	2, 0x0100
     d52:	5d01                	.insn	2, 0x5d01
     d54:	8302                	.insn	2, 0x8302
     d56:	0100                	.insn	2, 0x0100
     d58:	5f01                	.insn	2, 0x5f01
     d5a:	3001                	.insn	2, 0x3001
     d5c:	0101                	.insn	2, 0x0101
     d5e:	0261                	.insn	2, 0x0261
     d60:	0089                	.insn	2, 0x0089
     d62:	0201                	.insn	2, 0x0201
     d64:	0072                	.insn	2, 0x0072
     d66:	8702                	.insn	2, 0x8702
     d68:	0100                	.insn	2, 0x0100
     d6a:	7202                	.insn	2, 0x7202
     d6c:	0204                	.insn	2, 0x0204
     d6e:	0078                	.insn	2, 0x0078
     d70:	0000                	.insn	2, 0x
     d72:	0c00                	.insn	2, 0x0c00
     d74:	01d4                	.insn	2, 0x01d4
     d76:	0000                	.insn	2, 0x
     d78:	0728                	.insn	2, 0x0728
     d7a:	0000                	.insn	2, 0x
     d7c:	6c12                	.insn	2, 0x6c12
     d7e:	1100                	.insn	2, 0x1100
     d80:	00611603          	lh	a2,6(sp) # 110c <_ntoa_long+0x480>
     d84:	0000                	.insn	2, 0x
     d86:	0a50                	.insn	2, 0x0a50
     d88:	0000                	.insn	2, 0x
     d8a:	3009                	.insn	2, 0x3009
     d8c:	af000013          	li	zero,-1296
     d90:	0006                	.insn	2, 0x0006
     d92:	0100                	.insn	2, 0x0100
     d94:	5b01                	.insn	2, 0x5b01
     d96:	8402                	.insn	2, 0x8402
     d98:	0100                	.insn	2, 0x0100
     d9a:	5c01                	.insn	2, 0x5c01
     d9c:	8b02                	.insn	2, 0x8b02
     d9e:	0100                	.insn	2, 0x0100
     da0:	5d01                	.insn	2, 0x5d01
     da2:	8302                	.insn	2, 0x8302
     da4:	0000                	.insn	2, 0x
     da6:	5409                	.insn	2, 0x5409
     da8:	d1000013          	li	zero,-752
     dac:	0006                	.insn	2, 0x0006
     dae:	0100                	.insn	2, 0x0100
     db0:	5a01                	.insn	2, 0x5a01
     db2:	0802                	.insn	2, 0x0802
     db4:	0120                	.insn	2, 0x0120
     db6:	5b01                	.insn	2, 0x5b01
     db8:	8402                	.insn	2, 0x8402
     dba:	0100                	.insn	2, 0x0100
     dbc:	5c01                	.insn	2, 0x5c01
     dbe:	8902                	.insn	2, 0x8902
     dc0:	017f 5d01 8302 0000 	.insn	10, 0x5409000083025d01017f
     dc8:	5409 
     dca:	f3000017          	auipc	zero,0xf3000
     dce:	0006                	.insn	2, 0x0006
     dd0:	0100                	.insn	2, 0x0100
     dd2:	5a01                	.insn	2, 0x5a01
     dd4:	0802                	.insn	2, 0x0802
     dd6:	0120                	.insn	2, 0x0120
     dd8:	5b01                	.insn	2, 0x5b01
     dda:	8402                	.insn	2, 0x8402
     ddc:	0100                	.insn	2, 0x0100
     dde:	5c01                	.insn	2, 0x5c01
     de0:	8902                	.insn	2, 0x8902
     de2:	017f 5d01 8302 0000 	.insn	10, 0x7009000083025d01017f
     dea:	7009 
     dec:	0f000017          	auipc	zero,0xf000
     df0:	01000007          	.insn	4, 0x01000007
     df4:	5b01                	.insn	2, 0x5b01
     df6:	8402                	.insn	2, 0x8402
     df8:	0100                	.insn	2, 0x0100
     dfa:	5c01                	.insn	2, 0x5c01
     dfc:	7802                	.insn	2, 0x7802
     dfe:	0100                	.insn	2, 0x0100
     e00:	5d01                	.insn	2, 0x5d01
     e02:	8302                	.insn	2, 0x8302
     e04:	0000                	.insn	2, 0x
     e06:	8014                	.insn	2, 0x8014
     e08:	0018                	.insn	2, 0x0018
     e0a:	0100                	.insn	2, 0x0100
     e0c:	5b01                	.insn	2, 0x5b01
     e0e:	8402                	.insn	2, 0x8402
     e10:	0100                	.insn	2, 0x0100
     e12:	5c01                	.insn	2, 0x5c01
     e14:	8b02                	.insn	2, 0x8b02
     e16:	0100                	.insn	2, 0x0100
     e18:	5d01                	.insn	2, 0x5d01
     e1a:	8302                	.insn	2, 0x8302
     e1c:	0000                	.insn	2, 0x
     e1e:	0c00                	.insn	2, 0x0c00
     e20:	021f 0000 07dc      	.insn	6, 0x07dc0000021f
     e26:	0000                	.insn	2, 0x
     e28:	7012                	.insn	2, 0x7012
     e2a:	2500                	.insn	2, 0x2500
     e2c:	022e1503          	lh	a0,34(t3)
     e30:	0000                	.insn	2, 0x
     e32:	00000b0f          	.insn	4, 0x0b0f
     e36:	6c12                	.insn	2, 0x6c12
     e38:	2600                	.insn	2, 0x2600
     e3a:	00611603          	lh	a2,6(sp)
     e3e:	0000                	.insn	2, 0x
     e40:	0b80                	.insn	2, 0x0b80
     e42:	0000                	.insn	2, 0x
     e44:	c925                	.insn	2, 0xc925
     e46:	000c                	.insn	2, 0x000c
     e48:	f000                	.insn	2, 0xf000
     e4a:	0015                	.insn	2, 0x0015
     e4c:	4d00                	.insn	2, 0x4d00
     e4e:	0002                	.insn	2, 0x0002
     e50:	2600                	.insn	2, 0x2600
     e52:	077f1a03          	lh	s4,119(t5)
     e56:	0000                	.insn	2, 0x
     e58:	e402                	.insn	2, 0xe402
     e5a:	000c                	.insn	2, 0x000c
     e5c:	c000                	.insn	2, 0xc000
     e5e:	0a00000b          	.insn	4, 0x0a00000b
     e62:	0cd9                	.insn	2, 0x0cd9
     e64:	0000                	.insn	2, 0x
     e66:	00024d1b          	.insn	4, 0x00024d1b
     e6a:	1500                	.insn	2, 0x1500
     e6c:	00000cef          	jal	s9,e6c <_ntoa_long+0x1e0>
     e70:	0be4                	.insn	2, 0x0be4
     e72:	0000                	.insn	2, 0x
     e74:	0000                	.insn	2, 0x
     e76:	7409                	.insn	2, 0x7409
     e78:	0016                	.insn	2, 0x0016
     e7a:	9b00                	.insn	2, 0x9b00
     e7c:	01000007          	.insn	4, 0x01000007
     e80:	5b01                	.insn	2, 0x5b01
     e82:	8402                	.insn	2, 0x8402
     e84:	0100                	.insn	2, 0x0100
     e86:	5c01                	.insn	2, 0x5c01
     e88:	7802                	.insn	2, 0x7802
     e8a:	017f 5d01 8302 0000 	.insn	10, 0xac09000083025d01017f
     e92:	ac09 
     e94:	bd000017          	auipc	zero,0xbd000
     e98:	01000007          	.insn	4, 0x01000007
     e9c:	5a01                	.insn	2, 0x5a01
     e9e:	0802                	.insn	2, 0x0802
     ea0:	0120                	.insn	2, 0x0120
     ea2:	5b01                	.insn	2, 0x5b01
     ea4:	8402                	.insn	2, 0x8402
     ea6:	0100                	.insn	2, 0x0100
     ea8:	5c01                	.insn	2, 0x5c01
     eaa:	8b02                	.insn	2, 0x8b02
     eac:	017f 5d01 8302 0000 	.insn	10, 0xfc14000083025d01017f
     eb4:	fc14 
     eb6:	01000017          	auipc	zero,0x1000
     eba:	5a01                	.insn	2, 0x5a01
     ebc:	0802                	.insn	2, 0x0802
     ebe:	0120                	.insn	2, 0x0120
     ec0:	5b01                	.insn	2, 0x5b01
     ec2:	8402                	.insn	2, 0x8402
     ec4:	0100                	.insn	2, 0x0100
     ec6:	5c01                	.insn	2, 0x5c01
     ec8:	8b02                	.insn	2, 0x8b02
     eca:	017f 5d01 8302 0000 	.insn	10, 0x1c00000083025d01017f
     ed2:	1c00 
     ed4:	0cae                	.insn	2, 0x0cae
     ed6:	0000                	.insn	2, 0x
     ed8:	129c                	.insn	2, 0x129c
     eda:	0000                	.insn	2, 0x
     edc:	0004                	.insn	2, 0x0004
     ede:	0000                	.insn	2, 0x
     ee0:	0270                	.insn	2, 0x0270
     ee2:	f609                	.insn	2, 0xf609
     ee4:	0a000007          	.insn	4, 0x0a000007
     ee8:	0cbe                	.insn	2, 0x0cbe
     eea:	0000                	.insn	2, 0x
     eec:	1c00                	.insn	2, 0x1c00
     eee:	0c84                	.insn	2, 0x0c84
     ef0:	0000                	.insn	2, 0x
     ef2:	1504                	.insn	2, 0x1504
     ef4:	0000                	.insn	2, 0x
     ef6:	0034                	.insn	2, 0x0034
     ef8:	0000                	.insn	2, 0x
     efa:	0271                	.insn	2, 0x0271
     efc:	00082f0f          	.insn	4, 0x00082f0f
     f00:	0a00                	.insn	2, 0x0a00
     f02:	0c94                	.insn	2, 0x0c94
     f04:	0000                	.insn	2, 0x
     f06:	9f15                	.insn	2, 0x9f15
     f08:	000c                	.insn	2, 0x000c
     f0a:	2000                	.insn	2, 0x2000
     f0c:	000c                	.insn	2, 0x000c
     f0e:	3100                	.insn	2, 0x3100
     f10:	0cae                	.insn	2, 0x0cae
     f12:	0000                	.insn	2, 0x
     f14:	1524                	.insn	2, 0x1524
     f16:	0000                	.insn	2, 0x
     f18:	01f9                	.insn	2, 0x01f9
     f1a:	0000                	.insn	2, 0x
     f1c:	c801                	.insn	2, 0xc801
     f1e:	0a0a                	.insn	2, 0x0a0a
     f20:	0cbe                	.insn	2, 0x0cbe
     f22:	0000                	.insn	2, 0x
     f24:	0000                	.insn	2, 0x
     f26:	ae25                	.insn	2, 0xae25
     f28:	000c                	.insn	2, 0x000c
     f2a:	5000                	.insn	2, 0x5000
     f2c:	0015                	.insn	2, 0x0015
     f2e:	0c00                	.insn	2, 0x0c00
     f30:	0002                	.insn	2, 0x0002
     f32:	8400                	.insn	2, 0x8400
     f34:	0b02                	.insn	2, 0x0b02
     f36:	0849                	.insn	2, 0x0849
     f38:	0000                	.insn	2, 0x
     f3a:	be0a                	.insn	2, 0xbe0a
     f3c:	000c                	.insn	2, 0x000c
     f3e:	0000                	.insn	2, 0x
     f40:	841c                	.insn	2, 0x841c
     f42:	000c                	.insn	2, 0x000c
     f44:	b000                	.insn	2, 0xb000
     f46:	0016                	.insn	2, 0x0016
     f48:	3800                	.insn	2, 0x3800
     f4a:	0000                	.insn	2, 0x
     f4c:	8500                	.insn	2, 0x8500
     f4e:	1502                	.insn	2, 0x1502
     f50:	0881                	.insn	2, 0x0881
     f52:	0000                	.insn	2, 0x
     f54:	940a                	.insn	2, 0x940a
     f56:	000c                	.insn	2, 0x000c
     f58:	1500                	.insn	2, 0x1500
     f5a:	0c9f 0000 0c37      	.insn	6, 0x0c3700000c9f
     f60:	0000                	.insn	2, 0x
     f62:	ae1d                	.insn	2, 0xae1d
     f64:	000c                	.insn	2, 0x000c
     f66:	d000                	.insn	2, 0xd000
     f68:	0016                	.insn	2, 0x0016
     f6a:	0400                	.insn	2, 0x0400
     f6c:	0000                	.insn	2, 0x
     f6e:	c800                	.insn	2, 0xc800
     f70:	0a0a                	.insn	2, 0x0a0a
     f72:	0cbe                	.insn	2, 0x0cbe
     f74:	0000                	.insn	2, 0x
     f76:	0000                	.insn	2, 0x
     f78:	6009                	.insn	2, 0x6009
     f7a:	0012                	.insn	2, 0x0012
     f7c:	9d00                	.insn	2, 0x9d00
     f7e:	0008                	.insn	2, 0x0008
     f80:	0100                	.insn	2, 0x0100
     f82:	5b01                	.insn	2, 0x5b01
     f84:	8402                	.insn	2, 0x8402
     f86:	0100                	.insn	2, 0x0100
     f88:	5c01                	.insn	2, 0x5c01
     f8a:	8b02                	.insn	2, 0x8b02
     f8c:	017f 5d01 8302 0000 	.insn	10, 0x8409000083025d01017f
     f94:	8409 
     f96:	be000013          	li	zero,-1056
     f9a:	0008                	.insn	2, 0x0008
     f9c:	0100                	.insn	2, 0x0100
     f9e:	5a01                	.insn	2, 0x5a01
     fa0:	3001                	.insn	2, 0x3001
     fa2:	0101                	.insn	2, 0x0101
     fa4:	0084025b          	.insn	4, 0x0084025b
     fa8:	0101                	.insn	2, 0x0101
     faa:	025c                	.insn	2, 0x025c
     fac:	0101008b          	.insn	4, 0x0101008b
     fb0:	025d                	.insn	2, 0x025d
     fb2:	32000083          	lb	ra,800(zero) # 320 <init_data+0xf4>
     fb6:	1468                	.insn	2, 0x1468
     fb8:	0000                	.insn	2, 0x
     fba:	0921                	.insn	2, 0x0921
     fbc:	0000                	.insn	2, 0x
     fbe:	0902                	.insn	2, 0x0902
     fc0:	0000                	.insn	2, 0x
     fc2:	0101                	.insn	2, 0x0101
     fc4:	025a                	.insn	2, 0x025a
     fc6:	0085                	.insn	2, 0x0085
     fc8:	0101                	.insn	2, 0x0101
     fca:	0084025b          	.insn	4, 0x0084025b
     fce:	0101                	.insn	2, 0x0101
     fd0:	025c                	.insn	2, 0x025c
     fd2:	0101008b          	.insn	4, 0x0101008b
     fd6:	025d                	.insn	2, 0x025d
     fd8:	01010083          	lb	ra,16(sp)
     fdc:	015f 0130 6001      	.insn	6, 0x60010130015f
     fe2:	8202                	.insn	2, 0x8202
     fe4:	0100                	.insn	2, 0x0100
     fe6:	6101                	.insn	2, 0x6101
     fe8:	8902                	.insn	2, 0x8902
     fea:	0100                	.insn	2, 0x0100
     fec:	7202                	.insn	2, 0x7202
     fee:	0100                	.insn	2, 0x0100
     ff0:	0138                	.insn	2, 0x0138
     ff2:	7202                	.insn	2, 0x7202
     ff4:	0204                	.insn	2, 0x0204
     ff6:	0078                	.insn	2, 0x0078
     ff8:	1400                	.insn	2, 0x1400
     ffa:	1494                	.insn	2, 0x1494
     ffc:	0000                	.insn	2, 0x
     ffe:	0101                	.insn	2, 0x0101
    1000:	025a                	.insn	2, 0x025a
    1002:	2508                	.insn	2, 0x2508
    1004:	0101                	.insn	2, 0x0101
    1006:	0084025b          	.insn	4, 0x0084025b
    100a:	0101                	.insn	2, 0x0101
    100c:	025c                	.insn	2, 0x025c
    100e:	01017f8b          	.insn	4, 0x01017f8b
    1012:	025d                	.insn	2, 0x025d
    1014:	00000083          	lb	ra,0(zero) # 0 <_vector_table_start>
    1018:	3724                	.insn	2, 0x3724
    101a:	22000003          	lb	zero,544(zero) # 220 <Xil_Out32+0x1c>
    101e:	0f01                	.insn	2, 0x0f01
    1020:	0050                	.insn	2, 0x0050
    1022:	0000                	.insn	2, 0x
    1024:	0c8c                	.insn	2, 0x0c8c
    1026:	0000                	.insn	2, 0x
    1028:	0528                	.insn	2, 0x0528
    102a:	0000                	.insn	2, 0x
    102c:	9c01                	.insn	2, 0x9c01
    102e:	00000b63          	beqz	zero,1044 <_ntoa_long+0x3b8>
    1032:	74756f0b          	.insn	4, 0x74756f0b
    1036:	2200                	.insn	2, 0x2200
    1038:	2701                	.insn	2, 0x2701
    103a:	00f9                	.insn	2, 0x00f9
    103c:	0000                	.insn	2, 0x
    103e:	00000c43          	.insn	4, 0x0c43
    1042:	0002b303          	.insn	4, 0x0002b303
    1046:	2200                	.insn	2, 0x2200
    1048:	3201                	.insn	2, 0x3201
    104a:	000002bb          	.insn	4, 0x02bb
    104e:	00000c73          	.insn	4, 0x0c73
    1052:	7864690b          	.insn	4, 0x7864690b
    1056:	2200                	.insn	2, 0x2200
    1058:	4101                	.insn	2, 0x4101
    105a:	0050                	.insn	2, 0x0050
    105c:	0000                	.insn	2, 0x
    105e:	0cb9                	.insn	2, 0x0cb9
    1060:	0000                	.insn	2, 0x
    1062:	00035303          	lhu	t1,0(t1)
    1066:	2200                	.insn	2, 0x2200
    1068:	4d01                	.insn	2, 0x4d01
    106a:	0050                	.insn	2, 0x0050
    106c:	0000                	.insn	2, 0x
    106e:	0d15                	.insn	2, 0x0d15
    1070:	0000                	.insn	2, 0x
    1072:	0002d603          	lhu	a2,0(t0) # 2000 <global_uart+0xb0>
    1076:	2200                	.insn	2, 0x2200
    1078:	6301                	.insn	2, 0x6301
    107a:	000000bb          	.insn	4, 0x00bb
    107e:	0d45                	.insn	2, 0x0d45
    1080:	0000                	.insn	2, 0x
    1082:	0002ff03          	.insn	4, 0x0002ff03
    1086:	2200                	.insn	2, 0x2200
    1088:	6f01                	.insn	2, 0x6f01
    108a:	00000b63          	beqz	zero,10a0 <_ntoa_long+0x414>
    108e:	0d88                	.insn	2, 0x0d88
    1090:	0000                	.insn	2, 0x
    1092:	00044803          	lbu	a6,0(s0)
    1096:	2200                	.insn	2, 0x2200
    1098:	8701                	.insn	2, 0x8701
    109a:	000000bb          	.insn	4, 0x00bb
    109e:	0e2a                	.insn	2, 0x0e2a
    10a0:	0000                	.insn	2, 0x
    10a2:	00042503          	lw	a0,0(s0)
    10a6:	2200                	.insn	2, 0x2200
    10a8:	9a01                	.insn	2, 0x9a01
    10aa:	0061                	.insn	2, 0x0061
    10ac:	0000                	.insn	2, 0x
    10ae:	0e68                	.insn	2, 0x0e68
    10b0:	0000                	.insn	2, 0x
    10b2:	0002ef03          	.insn	4, 0x0002ef03
    10b6:	2200                	.insn	2, 0x2200
    10b8:	ad01                	.insn	2, 0xad01
    10ba:	0061                	.insn	2, 0x0061
    10bc:	0000                	.insn	2, 0x
    10be:	0ea6                	.insn	2, 0x0ea6
    10c0:	0000                	.insn	2, 0x
    10c2:	00034203          	lbu	tp,0(t1)
    10c6:	2200                	.insn	2, 0x2200
    10c8:	c101                	.insn	2, 0xc101
    10ca:	0061                	.insn	2, 0x0061
    10cc:	0000                	.insn	2, 0x
    10ce:	0f79                	.insn	2, 0x0f79
    10d0:	0000                	.insn	2, 0x
    10d2:	6208                	.insn	2, 0x6208
    10d4:	6675                	.insn	2, 0x6675
    10d6:	2400                	.insn	2, 0x2400
    10d8:	0801                	.insn	2, 0x0801
    10da:	0b6a                	.insn	2, 0x0b6a
    10dc:	0000                	.insn	2, 0x
    10de:	7fb09103          	lh	sp,2043(ra)
    10e2:	6c12                	.insn	2, 0x6c12
    10e4:	6e65                	.insn	2, 0x6e65
    10e6:	2500                	.insn	2, 0x2500
    10e8:	0a01                	.insn	2, 0x0a01
    10ea:	0050                	.insn	2, 0x0050
    10ec:	0000                	.insn	2, 0x
    10ee:	00000fc7          	.insn	4, 0x0fc7
    10f2:	db0c                	.insn	2, 0xdb0c
    10f4:	0000                	.insn	2, 0x
    10f6:	1500                	.insn	2, 0x1500
    10f8:	000a                	.insn	2, 0x000a
    10fa:	0f00                	.insn	2, 0x0f00
    10fc:	0378                	.insn	2, 0x0378
    10fe:	0000                	.insn	2, 0x
    1100:	2b12012f          	.insn	4, 0x2b12012f
    1104:	0001                	.insn	2, 0x0001
    1106:	0f00                	.insn	2, 0x0f00
    1108:	0010                	.insn	2, 0x0010
    110a:	0000                	.insn	2, 0x
    110c:	7a26                	.insn	2, 0x7a26
    110e:	d800000b          	.insn	4, 0xd800000b
    1112:	000c                	.insn	2, 0x000c
    1114:	2d00                	.insn	2, 0x2d00
    1116:	0000                	.insn	2, 0x
    1118:	3500                	.insn	2, 0x3500
    111a:	0201                	.insn	2, 0x0201
    111c:	0bf8                	.insn	2, 0x0bf8
    111e:	0000                	.insn	2, 0x
    1120:	1035                	.insn	2, 0x1035
    1122:	0000                	.insn	2, 0x
    1124:	ed02                	.insn	2, 0xed02
    1126:	6100000b          	.insn	4, 0x6100000b
    112a:	0010                	.insn	2, 0x0010
    112c:	0200                	.insn	2, 0x0200
    112e:	0be2                	.insn	2, 0x0be2
    1130:	0000                	.insn	2, 0x
    1132:	10f4                	.insn	2, 0x10f4
    1134:	0000                	.insn	2, 0x
    1136:	d702                	.insn	2, 0xd702
    1138:	3d00000b          	.insn	4, 0x3d00000b
    113c:	0011                	.insn	2, 0x0011
    113e:	0200                	.insn	2, 0x0200
    1140:	0bcc                	.insn	2, 0x0bcc
    1142:	0000                	.insn	2, 0x
    1144:	1186                	.insn	2, 0x1186
    1146:	0000                	.insn	2, 0x
    1148:	c102                	.insn	2, 0xc102
    114a:	3300000b          	.insn	4, 0x3300000b
    114e:	0012                	.insn	2, 0x0012
    1150:	0200                	.insn	2, 0x0200
    1152:	0bb6                	.insn	2, 0x0bb6
    1154:	0000                	.insn	2, 0x
    1156:	141a                	.insn	2, 0x141a
    1158:	0000                	.insn	2, 0x
    115a:	ab02                	.insn	2, 0xab02
    115c:	4a00000b          	.insn	4, 0x4a00000b
    1160:	0014                	.insn	2, 0x0014
    1162:	0200                	.insn	2, 0x0200
    1164:	0ba0                	.insn	2, 0x0ba0
    1166:	0000                	.insn	2, 0x
    1168:	147a                	.insn	2, 0x147a
    116a:	0000                	.insn	2, 0x
    116c:	9502                	.insn	2, 0x9502
    116e:	c000000b          	.insn	4, 0xc000000b
    1172:	0014                	.insn	2, 0x0014
    1174:	0200                	.insn	2, 0x0200
    1176:	0b8a                	.insn	2, 0x0b8a
    1178:	0000                	.insn	2, 0x
    117a:	1506                	.insn	2, 0x1506
    117c:	0000                	.insn	2, 0x
    117e:	0426                	.insn	2, 0x0426
    1180:	000c                	.insn	2, 0x000c
    1182:	8000                	.insn	2, 0x8000
    1184:	000d                	.insn	2, 0x000d
    1186:	5b00                	.insn	2, 0x5b00
    1188:	0000                	.insn	2, 0x
    118a:	1d00                	.insn	2, 0x1d00
    118c:	0201                	.insn	2, 0x0201
    118e:	0c61                	.insn	2, 0x0c61
    1190:	0000                	.insn	2, 0x
    1192:	1536                	.insn	2, 0x1536
    1194:	0000                	.insn	2, 0x
    1196:	5602                	.insn	2, 0x5602
    1198:	000c                	.insn	2, 0x000c
    119a:	4d00                	.insn	2, 0x4d00
    119c:	0015                	.insn	2, 0x0015
    119e:	0200                	.insn	2, 0x0200
    11a0:	00000c4b          	.insn	4, 0x0c4b
    11a4:	157a                	.insn	2, 0x157a
    11a6:	0000                	.insn	2, 0x
    11a8:	4002                	.insn	2, 0x4002
    11aa:	000c                	.insn	2, 0x000c
    11ac:	9e00                	.insn	2, 0x9e00
    11ae:	0015                	.insn	2, 0x0015
    11b0:	0200                	.insn	2, 0x0200
    11b2:	0c35                	.insn	2, 0x0c35
    11b4:	0000                	.insn	2, 0x
    11b6:	15d9                	.insn	2, 0x15d9
    11b8:	0000                	.insn	2, 0x
    11ba:	2a02                	.insn	2, 0x2a02
    11bc:	000c                	.insn	2, 0x000c
    11be:	1400                	.insn	2, 0x1400
    11c0:	0016                	.insn	2, 0x0016
    11c2:	0200                	.insn	2, 0x0200
    11c4:	0c1f 0000 1678      	.insn	6, 0x167800000c1f
    11ca:	0000                	.insn	2, 0x
    11cc:	1402                	.insn	2, 0x1402
    11ce:	000c                	.insn	2, 0x000c
    11d0:	b300                	.insn	2, 0xb300
    11d2:	0016                	.insn	2, 0x0016
    11d4:	1b00                	.insn	2, 0x1b00
    11d6:	0000005b          	.insn	4, 0x005b
    11da:	6c15                	.insn	2, 0x6c15
    11dc:	000c                	.insn	2, 0x000c
    11de:	ee00                	.insn	2, 0xee00
    11e0:	0016                	.insn	2, 0x0016
    11e2:	3300                	.insn	2, 0x3300
    11e4:	0c78                	.insn	2, 0x0c78
    11e6:	0000                	.insn	2, 0x
    11e8:	00a4                	.insn	2, 0x00a4
    11ea:	0000                	.insn	2, 0x
    11ec:	0b21                	.insn	2, 0x0b21
    11ee:	0000                	.insn	2, 0x
    11f0:	7915                	.insn	2, 0x7915
    11f2:	000c                	.insn	2, 0x000c
    11f4:	2900                	.insn	2, 0x2900
    11f6:	14000017          	auipc	zero,0x14000
    11fa:	0ec0                	.insn	2, 0x0ec0
    11fc:	0000                	.insn	2, 0x
    11fe:	0101                	.insn	2, 0x0101
    1200:	025a                	.insn	2, 0x025a
    1202:	2008                	.insn	2, 0x2008
    1204:	0101                	.insn	2, 0x0101
    1206:	0082025b          	.insn	4, 0x0082025b
    120a:	0101                	.insn	2, 0x0101
    120c:	025c                	.insn	2, 0x025c
    120e:	7f86                	.insn	2, 0x7f86
    1210:	0101                	.insn	2, 0x0101
    1212:	025d                	.insn	2, 0x025d
    1214:	00000083          	lb	ra,0(zero) # 0 <_vector_table_start>
    1218:	1009                	.insn	2, 0x1009
    121a:	4300000f          	.insn	4, 0x4300000f
    121e:	0100000b          	.insn	4, 0x0100000b
    1222:	5a01                	.insn	2, 0x5a01
    1224:	0802                	.insn	2, 0x0802
    1226:	0120                	.insn	2, 0x0120
    1228:	5b01                	.insn	2, 0x5b01
    122a:	8202                	.insn	2, 0x8202
    122c:	0100                	.insn	2, 0x0100
    122e:	5c01                	.insn	2, 0x5c01
    1230:	8702                	.insn	2, 0x8702
    1232:	017f 5d01 8302 0000 	.insn	10, 0xc814000083025d01017f
    123a:	c814 
    123c:	0100000f          	fence	w,unknown
    1240:	5b01                	.insn	2, 0x5b01
    1242:	8202                	.insn	2, 0x8202
    1244:	0100                	.insn	2, 0x0100
    1246:	5c01                	.insn	2, 0x5c01
    1248:	7806                	.insn	2, 0x7806
    124a:	2000                	.insn	2, 0x2000
    124c:	01220087          	.insn	4, 0x01220087
    1250:	5d01                	.insn	2, 0x5d01
    1252:	8302                	.insn	2, 0x8302
    1254:	0000                	.insn	2, 0x
    1256:	0000                	.insn	2, 0x
    1258:	0000                	.insn	2, 0x
    125a:	0105                	.insn	2, 0x0105
    125c:	0402                	.insn	2, 0x0402
    125e:	0001                	.insn	2, 0x0001
    1260:	2200                	.insn	2, 0x2200
    1262:	0124                	.insn	2, 0x0124
    1264:	0000                	.insn	2, 0x
    1266:	0b7a                	.insn	2, 0x0b7a
    1268:	0000                	.insn	2, 0x
    126a:	00006123          	.insn	4, 0x6123
    126e:	1f00                	.insn	2, 0x1f00
    1270:	1600                	.insn	2, 0x1600
    1272:	0308                	.insn	2, 0x0308
    1274:	0000                	.insn	2, 0x
    1276:	0fec                	.insn	2, 0x0fec
    1278:	0050                	.insn	2, 0x0050
    127a:	0000                	.insn	2, 0x
    127c:	0401                	.insn	2, 0x0401
    127e:	000c                	.insn	2, 0x000c
    1280:	0600                	.insn	2, 0x0600
    1282:	0074756f          	jal	a0,48a88 <_peripheral_HLS_CONTROL_end+0x8a88>
    1286:	29ec                	.insn	2, 0x29ec
    1288:	00f9                	.insn	2, 0x00f9
    128a:	0000                	.insn	2, 0x
    128c:	b304                	.insn	2, 0xb304
    128e:	0002                	.insn	2, 0x0002
    1290:	ec00                	.insn	2, 0xec00
    1292:	bb34                	.insn	2, 0xbb34
    1294:	0002                	.insn	2, 0x0002
    1296:	0600                	.insn	2, 0x0600
    1298:	6469                	.insn	2, 0x6469
    129a:	0078                	.insn	2, 0x0078
    129c:	43ec                	.insn	2, 0x43ec
    129e:	0050                	.insn	2, 0x0050
    12a0:	0000                	.insn	2, 0x
    12a2:	5304                	.insn	2, 0x5304
    12a4:	ec000003          	lb	zero,-320(zero) # fffffec0 <_peripheral_PLIC_end+0xf7fffec0>
    12a8:	0000504f          	.insn	4, 0x504f
    12ac:	0600                	.insn	2, 0x0600
    12ae:	7562                	.insn	2, 0x7562
    12b0:	0066                	.insn	2, 0x0066
    12b2:	5dec                	.insn	2, 0x5dec
    12b4:	000002bb          	.insn	4, 0x02bb
    12b8:	6c06                	.insn	2, 0x6c06
    12ba:	6e65                	.insn	2, 0x6e65
    12bc:	ec00                	.insn	2, 0xec00
    12be:	5069                	.insn	2, 0x5069
    12c0:	0000                	.insn	2, 0x
    12c2:	0400                	.insn	2, 0x0400
    12c4:	02ff 0000 73ec 0b63 	.insn	10, 0x0b6373ec000002ff
    12cc:	0000 
    12ce:	4804                	.insn	2, 0x4804
    12d0:	0004                	.insn	2, 0x0004
    12d2:	ec00                	.insn	2, 0xec00
    12d4:	618a                	.insn	2, 0x618a
    12d6:	0000                	.insn	2, 0x
    12d8:	0400                	.insn	2, 0x0400
    12da:	0425                	.insn	2, 0x0425
    12dc:	0000                	.insn	2, 0x
    12de:	9dec                	.insn	2, 0x9dec
    12e0:	0061                	.insn	2, 0x0061
    12e2:	0000                	.insn	2, 0x
    12e4:	ef04                	.insn	2, 0xef04
    12e6:	0002                	.insn	2, 0x0002
    12e8:	ec00                	.insn	2, 0xec00
    12ea:	61b0                	.insn	2, 0x61b0
    12ec:	0000                	.insn	2, 0x
    12ee:	0400                	.insn	2, 0x0400
    12f0:	0342                	.insn	2, 0x0342
    12f2:	0000                	.insn	2, 0x
    12f4:	c4ec                	.insn	2, 0xc4ec
    12f6:	0061                	.insn	2, 0x0061
    12f8:	0000                	.insn	2, 0x
    12fa:	1600                	.insn	2, 0x1600
    12fc:	000003fb          	.insn	4, 0x03fb
    1300:	0fd0                	.insn	2, 0x0fd0
    1302:	0050                	.insn	2, 0x0050
    1304:	0000                	.insn	2, 0x
    1306:	8401                	.insn	2, 0x8401
    1308:	000c                	.insn	2, 0x000c
    130a:	0600                	.insn	2, 0x0600
    130c:	0074756f          	jal	a0,48b12 <_peripheral_HLS_CONTROL_end+0x8b12>
    1310:	25d0                	.insn	2, 0x25d0
    1312:	00f9                	.insn	2, 0x00f9
    1314:	0000                	.insn	2, 0x
    1316:	b304                	.insn	2, 0xb304
    1318:	0002                	.insn	2, 0x0002
    131a:	d000                	.insn	2, 0xd000
    131c:	bb30                	.insn	2, 0xbb30
    131e:	0002                	.insn	2, 0x0002
    1320:	0600                	.insn	2, 0x0600
    1322:	6469                	.insn	2, 0x6469
    1324:	0078                	.insn	2, 0x0078
    1326:	3fd0                	.insn	2, 0x3fd0
    1328:	0050                	.insn	2, 0x0050
    132a:	0000                	.insn	2, 0x
    132c:	5304                	.insn	2, 0x5304
    132e:	d0000003          	lb	zero,-768(zero) # fffffd00 <_peripheral_PLIC_end+0xf7fffd00>
    1332:	0000504b          	.insn	4, 0x504b
    1336:	0600                	.insn	2, 0x0600
    1338:	7562                	.insn	2, 0x7562
    133a:	0066                	.insn	2, 0x0066
    133c:	5fd0                	.insn	2, 0x5fd0
    133e:	022e                	.insn	2, 0x022e
    1340:	0000                	.insn	2, 0x
    1342:	6c06                	.insn	2, 0x6c06
    1344:	6e65                	.insn	2, 0x6e65
    1346:	d000                	.insn	2, 0xd000
    1348:	0000506b          	.insn	4, 0x506b
    134c:	0400                	.insn	2, 0x0400
    134e:	000002ef          	jal	t0,134e <_vsnprintf+0x17a>
    1352:	7dd0                	.insn	2, 0x7dd0
    1354:	0061                	.insn	2, 0x0061
    1356:	0000                	.insn	2, 0x
    1358:	4204                	.insn	2, 0x4204
    135a:	d0000003          	lb	zero,-768(zero) # fffffd00 <_peripheral_PLIC_end+0xf7fffd00>
    135e:	6191                	.insn	2, 0x6191
    1360:	0000                	.insn	2, 0x
    1362:	3400                	.insn	2, 0x3400
    1364:	02e5                	.insn	2, 0x02e5
    1366:	0000                	.insn	2, 0x
    1368:	d201                	.insn	2, 0xd201
    136a:	5c10                	.insn	2, 0x5c10
    136c:	0000                	.insn	2, 0x
    136e:	3500                	.insn	2, 0x3500
    1370:	691e                	.insn	2, 0x691e
    1372:	d600                	.insn	2, 0xd600
    1374:	5011                	.insn	2, 0x5011
    1376:	0000                	.insn	2, 0x
    1378:	0000                	.insn	2, 0x
    137a:	1600                	.insn	2, 0x1600
    137c:	035a                	.insn	2, 0x035a
    137e:	0000                	.insn	2, 0x
    1380:	15c5                	.insn	2, 0x15c5
    1382:	0061                	.insn	2, 0x0061
    1384:	0000                	.insn	2, 0x
    1386:	a901                	.insn	2, 0xa901
    1388:	000c                	.insn	2, 0x000c
    138a:	0600                	.insn	2, 0x0600
    138c:	00727473          	csrrci	s0,0x7,4
    1390:	28c5                	.insn	2, 0x28c5
    1392:	0ca9                	.insn	2, 0x0ca9
    1394:	0000                	.insn	2, 0x
    1396:	691e                	.insn	2, 0x691e
    1398:	c700                	.insn	2, 0xc700
    139a:	6110                	.insn	2, 0x6110
    139c:	0000                	.insn	2, 0x
    139e:	0000                	.insn	2, 0x
    13a0:	00022e13          	slti	t3,tp,0
    13a4:	1600                	.insn	2, 0x1600
    13a6:	0374                	.insn	2, 0x0374
    13a8:	0000                	.insn	2, 0x
    13aa:	14be                	.insn	2, 0x14be
    13ac:	00000b63          	beqz	zero,13c2 <_vsnprintf+0x1ee>
    13b0:	000cc903          	lbu	s2,0(s9)
    13b4:	0600                	.insn	2, 0x0600
    13b6:	be006863          	bltu	zero,zero,7a6 <check_values+0x18c>
    13ba:	00012423          	sw	zero,8(sp)
    13be:	0000                	.insn	2, 0x
    13c0:	6016                	.insn	2, 0x6016
    13c2:	b4000003          	lb	zero,-1216(zero) # fffffb40 <_peripheral_PLIC_end+0xf7fffb40>
    13c6:	611c                	.insn	2, 0x611c
    13c8:	0000                	.insn	2, 0x
    13ca:	0300                	.insn	2, 0x0300
    13cc:	0cf9                	.insn	2, 0x0cf9
    13ce:	0000                	.insn	2, 0x
    13d0:	7306                	.insn	2, 0x7306
    13d2:	7274                	.insn	2, 0x7274
    13d4:	b400                	.insn	2, 0xb400
    13d6:	00022e33          	sltz	t3,tp
    13da:	0400                	.insn	2, 0x0400
    13dc:	02ce                	.insn	2, 0x02ce
    13de:	0000                	.insn	2, 0x
    13e0:	3fb4                	.insn	2, 0x3fb4
    13e2:	0050                	.insn	2, 0x0050
    13e4:	0000                	.insn	2, 0x
    13e6:	731e                	.insn	2, 0x731e
    13e8:	b600                	.insn	2, 0xb600
    13ea:	00022e0f          	.insn	4, 0x00022e0f
    13ee:	0000                	.insn	2, 0x
    13f0:	dc36                	.insn	2, 0xdc36
    13f2:	0002                	.insn	2, 0x0002
    13f4:	0100                	.insn	2, 0x0100
    13f6:	14a8                	.insn	2, 0x14a8
    13f8:	000d3303          	.insn	4, 0x000d3303
    13fc:	0400                	.insn	2, 0x0400
    13fe:	03f1                	.insn	2, 0x03f1
    1400:	0000                	.insn	2, 0x
    1402:	22a8                	.insn	2, 0x22a8
    1404:	0124                	.insn	2, 0x0124
    1406:	0000                	.insn	2, 0x
    1408:	b304                	.insn	2, 0xb304
    140a:	0002                	.insn	2, 0x0002
    140c:	a800                	.insn	2, 0xa800
    140e:	00013033          	sltu	zero,sp,zero
    1412:	0600                	.insn	2, 0x0600
    1414:	6469                	.insn	2, 0x6469
    1416:	0078                	.insn	2, 0x0078
    1418:	42a8                	.insn	2, 0x42a8
    141a:	0050                	.insn	2, 0x0050
    141c:	0000                	.insn	2, 0x
    141e:	5304                	.insn	2, 0x5304
    1420:	a8000003          	lb	zero,-1408(zero) # fffffa80 <_peripheral_PLIC_end+0xf7fffa80>
    1424:	504e                	.insn	2, 0x504e
    1426:	0000                	.insn	2, 0x
    1428:	0000                	.insn	2, 0x
    142a:	c41f 0002 9e00      	.insn	6, 0x9e000002c41f
    1430:	11b4                	.insn	2, 0x11b4
    1432:	0000                	.insn	2, 0x
    1434:	000c                	.insn	2, 0x000c
    1436:	0000                	.insn	2, 0x
    1438:	9c01                	.insn	2, 0x9c01
    143a:	00000da3          	sb	zero,27(zero) # 1b <_vector_table_start+0x1b>
    143e:	f11a                	.insn	2, 0xf11a
    1440:	9e000003          	lb	zero,-1568(zero) # fffff9e0 <_peripheral_PLIC_end+0xf7fff9e0>
    1444:	00012423          	sw	zero,8(sp)
    1448:	4200                	.insn	2, 0x4200
    144a:	1a000017          	auipc	zero,0x1a000
    144e:	000002b3          	add	t0,zero,zero
    1452:	349e                	.insn	2, 0x349e
    1454:	0130                	.insn	2, 0x0130
    1456:	0000                	.insn	2, 0x
    1458:	175c                	.insn	2, 0x175c
    145a:	0000                	.insn	2, 0x
    145c:	78646937          	lui	s2,0x78646
    1460:	0100                	.insn	2, 0x0100
    1462:	439e                	.insn	2, 0x439e
    1464:	0050                	.insn	2, 0x0050
    1466:	0000                	.insn	2, 0x
    1468:	1776                	.insn	2, 0x1776
    146a:	0000                	.insn	2, 0x
    146c:	531a                	.insn	2, 0x531a
    146e:	9e000003          	lb	zero,-1568(zero) # fffff9e0 <_peripheral_PLIC_end+0xf7fff9e0>
    1472:	0000504f          	.insn	4, 0x504f
    1476:	9000                	.insn	2, 0x9000
    1478:	1d000017          	auipc	zero,0x1d000
    147c:	00000da3          	sb	zero,27(zero) # 1b <_vector_table_start+0x1b>
    1480:	11bc                	.insn	2, 0x11bc
    1482:	0000                	.insn	2, 0x
    1484:	0004                	.insn	2, 0x0004
    1486:	0000                	.insn	2, 0x
    1488:	05a2                	.insn	2, 0x05a2
    148a:	b40a                	.insn	2, 0xb40a
    148c:	000d                	.insn	2, 0x000d
    148e:	3800                	.insn	2, 0x3800
    1490:	11c0                	.insn	2, 0x11c0
    1492:	0000                	.insn	2, 0x
    1494:	017a                	.insn	2, 0x017a
    1496:	0000                	.insn	2, 0x
    1498:	0000                	.insn	2, 0x
    149a:	0a39                	.insn	2, 0x0a39
    149c:	0004                	.insn	2, 0x0004
    149e:	0100                	.insn	2, 0x0100
    14a0:	0a96                	.insn	2, 0x0a96
    14a2:	00e1                	.insn	2, 0x00e1
    14a4:	0000                	.insn	2, 0x
    14a6:	c001                	.insn	2, 0xc001
    14a8:	000d                	.insn	2, 0x000d
    14aa:	0400                	.insn	2, 0x0400
    14ac:	03f1                	.insn	2, 0x03f1
    14ae:	0000                	.insn	2, 0x
    14b0:	1896                	.insn	2, 0x1896
    14b2:	0124                	.insn	2, 0x0124
    14b4:	0000                	.insn	2, 0x
    14b6:	1f00                	.insn	2, 0x1f00
    14b8:	02ba                	.insn	2, 0x02ba
    14ba:	0000                	.insn	2, 0x
    14bc:	8889                	.insn	2, 0x8889
    14be:	000c                	.insn	2, 0x000c
    14c0:	0400                	.insn	2, 0x0400
    14c2:	0000                	.insn	2, 0x
    14c4:	0100                	.insn	2, 0x0100
    14c6:	099c                	.insn	2, 0x099c
    14c8:	000e                	.insn	2, 0x000e
    14ca:	1700                	.insn	2, 0x1700
    14cc:	03f1                	.insn	2, 0x03f1
    14ce:	0000                	.insn	2, 0x
    14d0:	2389                	.insn	2, 0x2389
    14d2:	0124                	.insn	2, 0x0124
    14d4:	0000                	.insn	2, 0x
    14d6:	5a01                	.insn	2, 0x5a01
    14d8:	0002b317          	auipc	t1,0x2b
    14dc:	8900                	.insn	2, 0x8900
    14de:	3034                	.insn	2, 0x3034
    14e0:	0001                	.insn	2, 0x0001
    14e2:	0100                	.insn	2, 0x0100
    14e4:	6469275b          	.insn	4, 0x6469275b
    14e8:	0078                	.insn	2, 0x0078
    14ea:	4389                	.insn	2, 0x4389
    14ec:	0050                	.insn	2, 0x0050
    14ee:	0000                	.insn	2, 0x
    14f0:	5c01                	.insn	2, 0x5c01
    14f2:	00035317          	auipc	t1,0x35
    14f6:	8900                	.insn	2, 0x8900
    14f8:	0000504f          	.insn	4, 0x504f
    14fc:	0100                	.insn	2, 0x0100
    14fe:	005d                	.insn	2, 0x005d
    1500:	ae1f 0002 8100      	.insn	6, 0x81000002ae1f
    1506:	0c78                	.insn	2, 0x0c78
    1508:	0000                	.insn	2, 0x
    150a:	0010                	.insn	2, 0x0010
    150c:	0000                	.insn	2, 0x
    150e:	9c01                	.insn	2, 0x9c01
    1510:	0e54                	.insn	2, 0x0e54
    1512:	0000                	.insn	2, 0x
    1514:	0003f117          	auipc	sp,0x3f
    1518:	8100                	.insn	2, 0x8100
    151a:	2425                	.insn	2, 0x2425
    151c:	0001                	.insn	2, 0x0001
    151e:	0100                	.insn	2, 0x0100
    1520:	1a5a                	.insn	2, 0x1a5a
    1522:	000002b3          	add	t0,zero,zero
    1526:	3681                	.insn	2, 0x3681
    1528:	0130                	.insn	2, 0x0130
    152a:	0000                	.insn	2, 0x
    152c:	17aa                	.insn	2, 0x17aa
    152e:	0000                	.insn	2, 0x
    1530:	78646927          	.insn	4, 0x78646927
    1534:	8100                	.insn	2, 0x8100
    1536:	5045                	.insn	2, 0x5045
    1538:	0000                	.insn	2, 0x
    153a:	0100                	.insn	2, 0x0100
    153c:	175c                	.insn	2, 0x175c
    153e:	00000353          	.insn	4, 0x0353
    1542:	5181                	.insn	2, 0x5181
    1544:	0050                	.insn	2, 0x0050
    1546:	0000                	.insn	2, 0x
    1548:	5d01                	.insn	2, 0x5d01
    154a:	3a00                	.insn	2, 0x3a00
    154c:	0cf9                	.insn	2, 0x0cf9
    154e:	0000                	.insn	2, 0x
    1550:	11c0                	.insn	2, 0x11c0
    1552:	0000                	.insn	2, 0x
    1554:	0014                	.insn	2, 0x0014
    1556:	0000                	.insn	2, 0x
    1558:	9c01                	.insn	2, 0x9c01
    155a:	0ebc                	.insn	2, 0x0ebc
    155c:	0000                	.insn	2, 0x
    155e:	0602                	.insn	2, 0x0602
    1560:	000d                	.insn	2, 0x000d
    1562:	c400                	.insn	2, 0xc400
    1564:	02000017          	auipc	zero,0x2000
    1568:	0d11                	.insn	2, 0x0d11
    156a:	0000                	.insn	2, 0x
    156c:	17e9                	.insn	2, 0x17e9
    156e:	0000                	.insn	2, 0x
    1570:	1c02                	.insn	2, 0x1c02
    1572:	000d                	.insn	2, 0x000d
    1574:	0e00                	.insn	2, 0x0e00
    1576:	0018                	.insn	2, 0x0018
    1578:	0200                	.insn	2, 0x0200
    157a:	00000d27          	.insn	4, 0x0d27
    157e:	00001833          	sll	a6,zero,zero
    1582:	f91d                	.insn	2, 0xf91d
    1584:	000c                	.insn	2, 0x000c
    1586:	c400                	.insn	2, 0xc400
    1588:	0011                	.insn	2, 0x0011
    158a:	0c00                	.insn	2, 0x0c00
    158c:	0000                	.insn	2, 0x
    158e:	a800                	.insn	2, 0xa800
    1590:	0214                	.insn	2, 0x0214
    1592:	0d1c                	.insn	2, 0x0d1c
    1594:	0000                	.insn	2, 0x
    1596:	1858                	.insn	2, 0x1858
    1598:	0000                	.insn	2, 0x
    159a:	2702                	.insn	2, 0x2702
    159c:	000d                	.insn	2, 0x000d
    159e:	7200                	.insn	2, 0x7200
    15a0:	0018                	.insn	2, 0x0018
    15a2:	0200                	.insn	2, 0x0200
    15a4:	0d11                	.insn	2, 0x0d11
    15a6:	0000                	.insn	2, 0x
    15a8:	188c                	.insn	2, 0x188c
    15aa:	0000                	.insn	2, 0x
    15ac:	060a                	.insn	2, 0x060a
    15ae:	000d                	.insn	2, 0x000d
    15b0:	0000                	.insn	2, 0x
    15b2:	3b00                	.insn	2, 0x3b00
    15b4:	00000da3          	sb	zero,27(zero) # 1b <_vector_table_start+0x1b>
    15b8:	19d4                	.insn	2, 0x19d4
    15ba:	0000                	.insn	2, 0x
    15bc:	001c                	.insn	2, 0x001c
    15be:	0000                	.insn	2, 0x
    15c0:	9c01                	.insn	2, 0x9c01
    15c2:	b402                	.insn	2, 0xb402
    15c4:	000d                	.insn	2, 0x000d
    15c6:	a600                	.insn	2, 0xa600
    15c8:	0018                	.insn	2, 0x0018
    15ca:	3c00                	.insn	2, 0x3c00
    15cc:	19e0                	.insn	2, 0x19e0
    15ce:	0000                	.insn	2, 0x
    15d0:	017a                	.insn	2, 0x017a
    15d2:	0000                	.insn	2, 0x
    15d4:	0000                	.insn	2, 0x
    15d6:	00ce                	.insn	2, 0x00ce
    15d8:	0000                	.insn	2, 0x
    15da:	0005                	.insn	2, 0x0005
    15dc:	0401                	.insn	2, 0x0401
    15de:	0585                	.insn	2, 0x0585
    15e0:	0000                	.insn	2, 0x
    15e2:	00037e03          	.insn	4, 0x00037e03
    15e6:	1d00                	.insn	2, 0x1d00
    15e8:	03ae                	.insn	2, 0x03ae
    15ea:	0000                	.insn	2, 0x
    15ec:	02d1                	.insn	2, 0x02d1
    15ee:	0000                	.insn	2, 0x
    15f0:	1b88                	.insn	2, 0x1b88
    15f2:	0000                	.insn	2, 0x
    15f4:	0004                	.insn	2, 0x0004
    15f6:	0000                	.insn	2, 0x
    15f8:	24a5                	.insn	2, 0x24a5
    15fa:	0000                	.insn	2, 0x
    15fc:	0101                	.insn	2, 0x0101
    15fe:	a006                	.insn	2, 0xa006
    1600:	0000                	.insn	2, 0x
    1602:	0100                	.insn	2, 0x0100
    1604:	0801                	.insn	2, 0x0801
    1606:	009e                	.insn	2, 0x009e
    1608:	0000                	.insn	2, 0x
    160a:	0201                	.insn	2, 0x0201
    160c:	3e05                	.insn	2, 0x3e05
    160e:	0000                	.insn	2, 0x
    1610:	0100                	.insn	2, 0x0100
    1612:	0702                	.insn	2, 0x0702
    1614:	00f1                	.insn	2, 0x00f1
    1616:	0000                	.insn	2, 0x
    1618:	0401                	.insn	2, 0x0401
    161a:	8205                	.insn	2, 0x8205
    161c:	0000                	.insn	2, 0x
    161e:	0200                	.insn	2, 0x0200
    1620:	0054                	.insn	2, 0x0054
    1622:	0000                	.insn	2, 0x
    1624:	4f02                	.insn	2, 0x4f02
    1626:	5519                	.insn	2, 0x5519
    1628:	0000                	.insn	2, 0x
    162a:	0100                	.insn	2, 0x0100
    162c:	0704                	.insn	2, 0x0704
    162e:	000000cf          	.insn	4, 0x00cf
    1632:	0801                	.insn	2, 0x0801
    1634:	7d05                	.insn	2, 0x7d05
    1636:	0000                	.insn	2, 0x
    1638:	0100                	.insn	2, 0x0100
    163a:	0708                	.insn	2, 0x0708
    163c:	00ca                	.insn	2, 0x00ca
    163e:	0000                	.insn	2, 0x
    1640:	0404                	.insn	2, 0x0404
    1642:	6905                	.insn	2, 0x6905
    1644:	746e                	.insn	2, 0x746e
    1646:	0100                	.insn	2, 0x0100
    1648:	0704                	.insn	2, 0x0704
    164a:	00d4                	.insn	2, 0x00d4
    164c:	0000                	.insn	2, 0x
    164e:	5602                	.insn	2, 0x5602
    1650:	0000                	.insn	2, 0x
    1652:	0300                	.insn	2, 0x0300
    1654:	1430                	.insn	2, 0x1430
    1656:	0049                	.insn	2, 0x0049
    1658:	0000                	.insn	2, 0x
    165a:	1001                	.insn	2, 0x1001
    165c:	9204                	.insn	2, 0x9204
    165e:	0000                	.insn	2, 0x
    1660:	0500                	.insn	2, 0x0500
    1662:	0460                	.insn	2, 0x0460
    1664:	0000                	.insn	2, 0x
    1666:	1b04                	.insn	2, 0x1b04
    1668:	9d06                	.insn	2, 0x9d06
    166a:	0000                	.insn	2, 0x
    166c:	0600                	.insn	2, 0x0600
    166e:	0078                	.insn	2, 0x0078
    1670:	0000                	.insn	2, 0x
    1672:	0700                	.insn	2, 0x0700
    1674:	0011                	.insn	2, 0x0011
    1676:	0000                	.insn	2, 0x
    1678:	0501                	.insn	2, 0x0501
    167a:	8806                	.insn	2, 0x8806
    167c:	0400001b          	.insn	4, 0x0400001b
    1680:	0000                	.insn	2, 0x
    1682:	0100                	.insn	2, 0x0100
    1684:	089c                	.insn	2, 0x089c
    1686:	046a                	.insn	2, 0x046a
    1688:	0000                	.insn	2, 0x
    168a:	0501                	.insn	2, 0x0501
    168c:	0000781b          	.insn	4, 0x781b
    1690:	cc00                	.insn	2, 0xcc00
    1692:	0018                	.insn	2, 0x0018
    1694:	0900                	.insn	2, 0x0900
    1696:	1b8c                	.insn	2, 0x1b8c
    1698:	0000                	.insn	2, 0x
    169a:	0000008b          	.insn	4, 0x008b
    169e:	010a                	.insn	2, 0x010a
    16a0:	035a                	.insn	2, 0x035a
    16a2:	005a01a3          	sb	t0,3(s4)
    16a6:	0000                	.insn	2, 0x
    16a8:	01b6                	.insn	2, 0x01b6
    16aa:	0000                	.insn	2, 0x
    16ac:	0005                	.insn	2, 0x0005
    16ae:	0401                	.insn	2, 0x0401
    16b0:	0619                	.insn	2, 0x0619
    16b2:	0000                	.insn	2, 0x
    16b4:	7e09                	.insn	2, 0x7e09
    16b6:	1d000003          	lb	zero,464(zero) # 1d0 <memset+0x1c>
    16ba:	000003bb          	.insn	4, 0x03bb
    16be:	02d1                	.insn	2, 0x02d1
    16c0:	0000                	.insn	2, 0x
    16c2:	1b8c                	.insn	2, 0x1b8c
    16c4:	0000                	.insn	2, 0x
    16c6:	007c                	.insn	2, 0x007c
    16c8:	0000                	.insn	2, 0x
    16ca:	2512                	.insn	2, 0x2512
    16cc:	0000                	.insn	2, 0x
    16ce:	0101                	.insn	2, 0x0101
    16d0:	a006                	.insn	2, 0xa006
    16d2:	0000                	.insn	2, 0x
    16d4:	0200                	.insn	2, 0x0200
    16d6:	0320                	.insn	2, 0x0320
    16d8:	0000                	.insn	2, 0x
    16da:	2b02                	.insn	2, 0x2b02
    16dc:	3918                	.insn	2, 0x3918
    16de:	0000                	.insn	2, 0x
    16e0:	0100                	.insn	2, 0x0100
    16e2:	0801                	.insn	2, 0x0801
    16e4:	009e                	.insn	2, 0x009e
    16e6:	0000                	.insn	2, 0x
    16e8:	0201                	.insn	2, 0x0201
    16ea:	3e05                	.insn	2, 0x3e05
    16ec:	0000                	.insn	2, 0x
    16ee:	0100                	.insn	2, 0x0100
    16f0:	0702                	.insn	2, 0x0702
    16f2:	00f1                	.insn	2, 0x00f1
    16f4:	0000                	.insn	2, 0x
    16f6:	0401                	.insn	2, 0x0401
    16f8:	8205                	.insn	2, 0x8205
    16fa:	0000                	.insn	2, 0x
    16fc:	0200                	.insn	2, 0x0200
    16fe:	0054                	.insn	2, 0x0054
    1700:	0000                	.insn	2, 0x
    1702:	4f02                	.insn	2, 0x4f02
    1704:	6119                	.insn	2, 0x6119
    1706:	0000                	.insn	2, 0x
    1708:	0100                	.insn	2, 0x0100
    170a:	0704                	.insn	2, 0x0704
    170c:	000000cf          	.insn	4, 0x00cf
    1710:	0801                	.insn	2, 0x0801
    1712:	7d05                	.insn	2, 0x7d05
    1714:	0000                	.insn	2, 0x
    1716:	0100                	.insn	2, 0x0100
    1718:	0708                	.insn	2, 0x0708
    171a:	00ca                	.insn	2, 0x00ca
    171c:	0000                	.insn	2, 0x
    171e:	7902                	.insn	2, 0x7902
    1720:	0004                	.insn	2, 0x0004
    1722:	0200                	.insn	2, 0x0200
    1724:	19e6                	.insn	2, 0x19e6
    1726:	0082                	.insn	2, 0x0082
    1728:	0000                	.insn	2, 0x
    172a:	040a                	.insn	2, 0x040a
    172c:	6905                	.insn	2, 0x6905
    172e:	746e                	.insn	2, 0x746e
    1730:	0100                	.insn	2, 0x0100
    1732:	0704                	.insn	2, 0x0704
    1734:	00d4                	.insn	2, 0x00d4
    1736:	0000                	.insn	2, 0x
    1738:	2202                	.insn	2, 0x2202
    173a:	03000003          	lb	zero,48(zero) # 30 <_vector_table_start+0x30>
    173e:	1318                	.insn	2, 0x1318
    1740:	002d                	.insn	2, 0x002d
    1742:	0000                	.insn	2, 0x
    1744:	5602                	.insn	2, 0x5602
    1746:	0000                	.insn	2, 0x
    1748:	0300                	.insn	2, 0x0300
    174a:	1430                	.insn	2, 0x1430
    174c:	0055                	.insn	2, 0x0055
    174e:	0000                	.insn	2, 0x
    1750:	00009c0b          	.insn	4, 0x9c0b
    1754:	0200                	.insn	2, 0x0200
    1756:	0000047b          	.insn	4, 0x047b
    175a:	76144d03          	lbu	s10,1889(s0)
    175e:	0000                	.insn	2, 0x
    1760:	0c00                	.insn	2, 0x0c00
    1762:	0484                	.insn	2, 0x0484
    1764:	0000                	.insn	2, 0x
    1766:	0410                	.insn	2, 0x0410
    1768:	0811                	.insn	2, 0x0811
    176a:	00f1                	.insn	2, 0x00f1
    176c:	0000                	.insn	2, 0x
    176e:	00787203          	.insn	4, 0x00787203
    1772:	0000a813          	slti	a6,ra,0
    1776:	0000                	.insn	2, 0x
    1778:	00787403          	.insn	4, 0x00787403
    177c:	a814                	.insn	2, 0xa814
    177e:	0000                	.insn	2, 0x
    1780:	0400                	.insn	2, 0x0400
    1782:	c804                	.insn	2, 0xc804
    1784:	0004                	.insn	2, 0x0004
    1786:	1500                	.insn	2, 0x1500
    1788:	00a8                	.insn	2, 0x00a8
    178a:	0000                	.insn	2, 0x
    178c:	0408                	.insn	2, 0x0408
    178e:	0494                	.insn	2, 0x0494
    1790:	0000                	.insn	2, 0x
    1792:	a816                	.insn	2, 0xa816
    1794:	0000                	.insn	2, 0x
    1796:	0c00                	.insn	2, 0x0c00
    1798:	0d00                	.insn	2, 0x0d00
    179a:	049d                	.insn	2, 0x049d
    179c:	0000                	.insn	2, 0x
    179e:	0401                	.insn	2, 0x0401
    17a0:	0311                	.insn	2, 0x0311
    17a2:	0001                	.insn	2, 0x0001
    17a4:	0500                	.insn	2, 0x0500
    17a6:	001f5003          	lhu	zero,1(t5)
    17aa:	0e00                	.insn	2, 0x0e00
    17ac:	b904                	.insn	2, 0xb904
    17ae:	0000                	.insn	2, 0x
    17b0:	0f00                	.insn	2, 0x0f00
    17b2:	04ba                	.insn	2, 0x04ba
    17b4:	0000                	.insn	2, 0x
    17b6:	2501                	.insn	2, 0x2501
    17b8:	9c0a                	.insn	2, 0x9c0a
    17ba:	0000                	.insn	2, 0x
    17bc:	ec00                	.insn	2, 0xec00
    17be:	1c00001b          	.insn	4, 0x1c00001b
    17c2:	0000                	.insn	2, 0x
    17c4:	0100                	.insn	2, 0x0100
    17c6:	339c                	.insn	2, 0x339c
    17c8:	0001                	.insn	2, 0x0001
    17ca:	0500                	.insn	2, 0x0500
    17cc:	016e                	.insn	2, 0x016e
    17ce:	0000                	.insn	2, 0x
    17d0:	1bf4                	.insn	2, 0x1bf4
    17d2:	0000                	.insn	2, 0x
    17d4:	0004                	.insn	2, 0x0004
    17d6:	0000                	.insn	2, 0x
    17d8:	06000b27          	.insn	4, 0x06000b27
    17dc:	0439                	.insn	2, 0x0439
    17de:	0000                	.insn	2, 0x
    17e0:	d019                	.insn	2, 0xd019
    17e2:	1c00001b          	.insn	4, 0x1c00001b
    17e6:	0000                	.insn	2, 0x
    17e8:	0100                	.insn	2, 0x0100
    17ea:	649c                	.insn	2, 0x649c
    17ec:	0001                	.insn	2, 0x0001
    17ee:	1000                	.insn	2, 0x1000
    17f0:	01006863          	bltu	zero,a6,1800 <_vsnprintf+0x62c>
    17f4:	1d19                	.insn	2, 0x1d19
    17f6:	0090                	.insn	2, 0x0090
    17f8:	0000                	.insn	2, 0x
    17fa:	5a01                	.insn	2, 0x5a01
    17fc:	6405                	.insn	2, 0x6405
    17fe:	0001                	.insn	2, 0x0001
    1800:	d800                	.insn	2, 0xd800
    1802:	0800001b          	.insn	4, 0x0800001b
    1806:	0000                	.insn	2, 0x
    1808:	1b00                	.insn	2, 0x1b00
    180a:	000d                	.insn	2, 0x000d
    180c:	0004a907          	.insn	4, 0x0004a907
    1810:	1300                	.insn	2, 0x1300
    1812:	0090                	.insn	2, 0x0090
    1814:	0000                	.insn	2, 0x
    1816:	0004d207          	.insn	4, 0x0004d207
    181a:	0e00                	.insn	2, 0x0e00
    181c:	0090                	.insn	2, 0x0090
    181e:	0000                	.insn	2, 0x
    1820:	6006                	.insn	2, 0x6006
    1822:	0004                	.insn	2, 0x0004
    1824:	0600                	.insn	2, 0x0600
    1826:	1b8c                	.insn	2, 0x1b8c
    1828:	0000                	.insn	2, 0x
    182a:	0014                	.insn	2, 0x0014
    182c:	0000                	.insn	2, 0x
    182e:	9c01                	.insn	2, 0x9c01
    1830:	0000019b          	.insn	4, 0x019b
    1834:	8b11                	.insn	2, 0x8b11
    1836:	0004                	.insn	2, 0x0004
    1838:	0100                	.insn	2, 0x0100
    183a:	1906                	.insn	2, 0x1906
    183c:	009c                	.insn	2, 0x009c
    183e:	0000                	.insn	2, 0x
    1840:	5a01                	.insn	2, 0x5a01
    1842:	0800                	.insn	2, 0x0800
    1844:	016e                	.insn	2, 0x016e
    1846:	0000                	.insn	2, 0x
    1848:	1ba0                	.insn	2, 0x1ba0
    184a:	0000                	.insn	2, 0x
    184c:	0018                	.insn	2, 0x0018
    184e:	0000                	.insn	2, 0x
    1850:	9c01                	.insn	2, 0x9c01
    1852:	6408                	.insn	2, 0x6408
    1854:	0001                	.insn	2, 0x0001
    1856:	b800                	.insn	2, 0xb800
    1858:	1800001b          	.insn	4, 0x1800001b
    185c:	0000                	.insn	2, 0x
    185e:	0100                	.insn	2, 0x0100
    1860:	009c                	.insn	2, 0x009c

Disassembly of section .debug_abbrev:

00000000 <.debug_abbrev>:
   0:	3401                	.insn	2, 0x3401
   2:	0300                	.insn	2, 0x0300
   4:	3a08                	.insn	2, 0x3a08
   6:	390b3b0b          	.insn	4, 0x390b3b0b
   a:	0213490b          	.insn	4, 0x0213490b
   e:	0018                	.insn	2, 0x0018
  10:	0200                	.insn	2, 0x0200
  12:	0111010b          	.insn	4, 0x0111010b
  16:	0612                	.insn	2, 0x0612
  18:	0000                	.insn	2, 0x
  1a:	49002103          	lw	sp,1168(zero) # 490 <compute_expected+0x3e>
  1e:	000b2f13          	slti	t5,s6,0
  22:	0400                	.insn	2, 0x0400
  24:	0024                	.insn	2, 0x0024
  26:	0b3e0b0b          	.insn	4, 0x0b3e0b0b
  2a:	00000e03          	lb	t3,0(zero) # 0 <_vector_table_start>
  2e:	0505                	.insn	2, 0x0505
  30:	0300                	.insn	2, 0x0300
  32:	3a08                	.insn	2, 0x3a08
  34:	390b3b0b          	.insn	4, 0x390b3b0b
  38:	0213490b          	.insn	4, 0x0213490b
  3c:	0018                	.insn	2, 0x0018
  3e:	0600                	.insn	2, 0x0600
  40:	0005                	.insn	2, 0x0005
  42:	0b3a0e03          	lb	t3,179(s4)
  46:	0b390b3b          	.insn	4, 0x0b390b3b
  4a:	1349                	.insn	2, 0x1349
  4c:	1802                	.insn	2, 0x1802
  4e:	0000                	.insn	2, 0x
  50:	03001607          	.insn	4, 0x03001607
  54:	3a0e                	.insn	2, 0x3a0e
  56:	390b3b0b          	.insn	4, 0x390b3b0b
  5a:	0013490b          	.insn	4, 0x0013490b
  5e:	0800                	.insn	2, 0x0800
  60:	210b000f          	.insn	4, 0x210b000f
  64:	4904                	.insn	2, 0x4904
  66:	09000013          	li	zero,144
  6a:	0101                	.insn	2, 0x0101
  6c:	1349                	.insn	2, 0x1349
  6e:	1301                	.insn	2, 0x1301
  70:	0000                	.insn	2, 0x
  72:	340a                	.insn	2, 0x340a
  74:	0300                	.insn	2, 0x0300
  76:	3a0e                	.insn	2, 0x3a0e
  78:	390b3b0b          	.insn	4, 0x390b3b0b
  7c:	0213490b          	.insn	4, 0x0213490b
  80:	0018                	.insn	2, 0x0018
  82:	0b00                	.insn	2, 0x0b00
  84:	0034                	.insn	2, 0x0034
  86:	213a0803          	lb	a6,531(s4)
  8a:	3b04                	.insn	2, 0x3b04
  8c:	1321390b          	.insn	4, 0x1321390b
  90:	1349                	.insn	2, 0x1349
  92:	0188                	.insn	2, 0x0188
  94:	0205                	.insn	2, 0x0205
  96:	0018                	.insn	2, 0x0018
  98:	0c00                	.insn	2, 0x0c00
  9a:	0035                	.insn	2, 0x0035
  9c:	1349                	.insn	2, 0x1349
  9e:	0000                	.insn	2, 0x
  a0:	260d                	.insn	2, 0x260d
  a2:	4900                	.insn	2, 0x4900
  a4:	0e000013          	li	zero,224
  a8:	0034                	.insn	2, 0x0034
  aa:	0b3a0e03          	lb	t3,179(s4)
  ae:	21390b3b          	.insn	4, 0x21390b3b
  b2:	4920                	.insn	2, 0x4920
  b4:	3c193f13          	sltiu	t5,s2,961
  b8:	0019                	.insn	2, 0x0019
  ba:	0f00                	.insn	2, 0x0f00
  bc:	0005                	.insn	2, 0x0005
  be:	1349                	.insn	2, 0x1349
  c0:	0000                	.insn	2, 0x
  c2:	2e10                	.insn	2, 0x2e10
  c4:	3f01                	.insn	2, 0x3f01
  c6:	0319                	.insn	2, 0x0319
  c8:	3a0e                	.insn	2, 0x3a0e
  ca:	0321                	.insn	2, 0x0321
  cc:	21390b3b          	.insn	4, 0x21390b3b
  d0:	2706                	.insn	2, 0x2706
  d2:	1119                	.insn	2, 0x1119
  d4:	1201                	.insn	2, 0x1201
  d6:	4006                	.insn	2, 0x4006
  d8:	7a18                	.insn	2, 0x7a18
  da:	0119                	.insn	2, 0x0119
  dc:	11000013          	li	zero,272
  e0:	0111010b          	.insn	4, 0x0111010b
  e4:	0612                	.insn	2, 0x0612
  e6:	1301                	.insn	2, 0x1301
  e8:	0000                	.insn	2, 0x
  ea:	2e12                	.insn	2, 0x2e12
  ec:	3f01                	.insn	2, 0x3f01
  ee:	0319                	.insn	2, 0x0319
  f0:	3a0e                	.insn	2, 0x3a0e
  f2:	0121                	.insn	2, 0x0121
  f4:	0b390b3b          	.insn	4, 0x0b390b3b
  f8:	13491927          	.insn	4, 0x13491927
  fc:	0111                	.insn	2, 0x0111
  fe:	0612                	.insn	2, 0x0612
 100:	1840                	.insn	2, 0x1840
 102:	197a                	.insn	2, 0x197a
 104:	1301                	.insn	2, 0x1301
 106:	0000                	.insn	2, 0x
 108:	25011113          	.insn	4, 0x25011113
 10c:	130e                	.insn	2, 0x130e
 10e:	1b1f030b          	.insn	4, 0x1b1f030b
 112:	111f 1201 1006      	.insn	6, 0x10061201111f
 118:	14000017          	auipc	zero,0x14000
 11c:	0024                	.insn	2, 0x0024
 11e:	0b3e0b0b          	.insn	4, 0x0b3e0b0b
 122:	00000803          	lb	a6,0(zero) # 0 <_vector_table_start>
 126:	1615                	.insn	2, 0x1615
 128:	0300                	.insn	2, 0x0300
 12a:	3a08                	.insn	2, 0x3a08
 12c:	390b3b0b          	.insn	4, 0x390b3b0b
 130:	0013490b          	.insn	4, 0x0013490b
 134:	1600                	.insn	2, 0x1600
 136:	0b0b000f          	.insn	4, 0x0b0b000f
 13a:	0000                	.insn	2, 0x
 13c:	3f012e17          	auipc	t3,0x3f012
 140:	0319                	.insn	2, 0x0319
 142:	3a0e                	.insn	2, 0x3a0e
 144:	390b3b0b          	.insn	4, 0x390b3b0b
 148:	3c19270b          	.insn	4, 0x3c19270b
 14c:	0119                	.insn	2, 0x0119
 14e:	18000013          	li	zero,384
 152:	012e                	.insn	2, 0x012e
 154:	0e03193f 0b3b0b3a 	.insn	8, 0x0b3b0b3a0e03193f
 15c:	0b39                	.insn	2, 0x0b39
 15e:	13491927          	.insn	4, 0x13491927
 162:	193c                	.insn	2, 0x193c
 164:	1301                	.insn	2, 0x1301
 166:	0000                	.insn	2, 0x
 168:	1819                	.insn	2, 0x1819
 16a:	0000                	.insn	2, 0x
 16c:	1a00                	.insn	2, 0x1a00
 16e:	012e                	.insn	2, 0x012e
 170:	0e03193f 0b3b0b3a 	.insn	8, 0x0b3b0b3a0e03193f
 178:	0b39                	.insn	2, 0x0b39
 17a:	1349                	.insn	2, 0x1349
 17c:	0111                	.insn	2, 0x0111
 17e:	0612                	.insn	2, 0x0612
 180:	1840                	.insn	2, 0x1840
 182:	197c                	.insn	2, 0x197c
 184:	1301                	.insn	2, 0x1301
 186:	0000                	.insn	2, 0x
 188:	3f012e1b          	.insn	4, 0x3f012e1b
 18c:	0319                	.insn	2, 0x0319
 18e:	3a0e                	.insn	2, 0x3a0e
 190:	390b3b0b          	.insn	4, 0x390b3b0b
 194:	1119270b          	.insn	4, 0x1119270b
 198:	1201                	.insn	2, 0x1201
 19a:	4006                	.insn	2, 0x4006
 19c:	7c18                	.insn	2, 0x7c18
 19e:	0119                	.insn	2, 0x0119
 1a0:	1c000013          	li	zero,448
 1a4:	012e                	.insn	2, 0x012e
 1a6:	0e03193f 0b3b0b3a 	.insn	8, 0x0b3b0b3a0e03193f
 1ae:	0b39                	.insn	2, 0x0b39
 1b0:	0111                	.insn	2, 0x0111
 1b2:	0612                	.insn	2, 0x0612
 1b4:	1840                	.insn	2, 0x1840
 1b6:	197c                	.insn	2, 0x197c
 1b8:	1301                	.insn	2, 0x1301
 1ba:	0000                	.insn	2, 0x
 1bc:	2e1d                	.insn	2, 0x2e1d
 1be:	3f01                	.insn	2, 0x3f01
 1c0:	0319                	.insn	2, 0x0319
 1c2:	3a0e                	.insn	2, 0x3a0e
 1c4:	390b3b0b          	.insn	4, 0x390b3b0b
 1c8:	4919270b          	.insn	4, 0x4919270b
 1cc:	12011113          	.insn	4, 0x12011113
 1d0:	4006                	.insn	2, 0x4006
 1d2:	7c18                	.insn	2, 0x7c18
 1d4:	0119                	.insn	2, 0x0119
 1d6:	1e000013          	li	zero,480
 1da:	012e                	.insn	2, 0x012e
 1dc:	0b3a0e03          	lb	t3,179(s4)
 1e0:	0b390b3b          	.insn	4, 0x0b390b3b
 1e4:	01111927          	.insn	4, 0x01111927
 1e8:	0612                	.insn	2, 0x0612
 1ea:	1840                	.insn	2, 0x1840
 1ec:	197a                	.insn	2, 0x197a
 1ee:	1301                	.insn	2, 0x1301
 1f0:	0000                	.insn	2, 0x
 1f2:	2e1f 0301 3a0e      	.insn	6, 0x3a0e03012e1f
 1f8:	390b3b0b          	.insn	4, 0x390b3b0b
 1fc:	4919270b          	.insn	4, 0x4919270b
 200:	12011113          	.insn	4, 0x12011113
 204:	4006                	.insn	2, 0x4006
 206:	7a18                	.insn	2, 0x7a18
 208:	0119                	.insn	2, 0x0119
 20a:	20000013          	li	zero,512
 20e:	0026                	.insn	2, 0x0026
 210:	0000                	.insn	2, 0x
 212:	0100                	.insn	2, 0x0100
 214:	0011                	.insn	2, 0x0011
 216:	1710                	.insn	2, 0x1710
 218:	1755                	.insn	2, 0x1755
 21a:	0e1b0e03          	lb	t3,225(s6)
 21e:	0e25                	.insn	2, 0x0e25
 220:	00000513          	li	a0,0
 224:	0100                	.insn	2, 0x0100
 226:	0049                	.insn	2, 0x0049
 228:	1802                	.insn	2, 0x1802
 22a:	187e                	.insn	2, 0x187e
 22c:	0000                	.insn	2, 0x
 22e:	0502                	.insn	2, 0x0502
 230:	3100                	.insn	2, 0x3100
 232:	00170213          	addi	tp,a4,1
 236:	0300                	.insn	2, 0x0300
 238:	0005                	.insn	2, 0x0005
 23a:	213a0e03          	lb	t3,531(s4)
 23e:	3b01                	.insn	2, 0x3b01
 240:	3905                	.insn	2, 0x3905
 242:	0213490b          	.insn	4, 0x0213490b
 246:	04000017          	auipc	zero,0x4000
 24a:	0005                	.insn	2, 0x0005
 24c:	213a0e03          	lb	t3,531(s4)
 250:	3b01                	.insn	2, 0x3b01
 252:	490b390b          	.insn	4, 0x490b390b
 256:	05000013          	li	zero,80
 25a:	0024                	.insn	2, 0x0024
 25c:	0b3e0b0b          	.insn	4, 0x0b3e0b0b
 260:	00000e03          	lb	t3,0(zero) # 0 <_vector_table_start>
 264:	0506                	.insn	2, 0x0506
 266:	0300                	.insn	2, 0x0300
 268:	3a08                	.insn	2, 0x3a08
 26a:	0121                	.insn	2, 0x0121
 26c:	0b390b3b          	.insn	4, 0x0b390b3b
 270:	1349                	.insn	2, 0x1349
 272:	0000                	.insn	2, 0x
 274:	03001607          	.insn	4, 0x03001607
 278:	3a0e                	.insn	2, 0x3a0e
 27a:	390b3b0b          	.insn	4, 0x390b3b0b
 27e:	0013490b          	.insn	4, 0x0013490b
 282:	0800                	.insn	2, 0x0800
 284:	0034                	.insn	2, 0x0034
 286:	213a0803          	lb	a6,531(s4)
 28a:	3b01                	.insn	2, 0x3b01
 28c:	3905                	.insn	2, 0x3905
 28e:	0213490b          	.insn	4, 0x0213490b
 292:	0018                	.insn	2, 0x0018
 294:	0900                	.insn	2, 0x0900
 296:	0148                	.insn	2, 0x0148
 298:	017d                	.insn	2, 0x017d
 29a:	1301                	.insn	2, 0x1301
 29c:	0000                	.insn	2, 0x
 29e:	050a                	.insn	2, 0x050a
 2a0:	3100                	.insn	2, 0x3100
 2a2:	0b000013          	li	zero,176
 2a6:	0005                	.insn	2, 0x0005
 2a8:	213a0803          	lb	a6,531(s4)
 2ac:	3b01                	.insn	2, 0x3b01
 2ae:	3905                	.insn	2, 0x3905
 2b0:	0213490b          	.insn	4, 0x0213490b
 2b4:	0c000017          	auipc	zero,0xc000
 2b8:	1755010b          	.insn	4, 0x1755010b
 2bc:	1301                	.insn	2, 0x1301
 2be:	0000                	.insn	2, 0x
 2c0:	050d                	.insn	2, 0x050d
 2c2:	4900                	.insn	2, 0x4900
 2c4:	0e000013          	li	zero,224
 2c8:	0148                	.insn	2, 0x0148
 2ca:	017d                	.insn	2, 0x017d
 2cc:	0000137f 0300340f 	.insn	12, 0x01213a0e0300340f0000137f
 2d4:	01213a0e 
 2d8:	0b39053b          	.insn	4, 0x0b39053b
 2dc:	1349                	.insn	2, 0x1349
 2de:	1702                	.insn	2, 0x1702
 2e0:	0000                	.insn	2, 0x
 2e2:	2610                	.insn	2, 0x2610
 2e4:	4900                	.insn	2, 0x4900
 2e6:	11000013          	li	zero,272
 2ea:	012e                	.insn	2, 0x012e
 2ec:	0e03193f 3b01213a 	.insn	8, 0x3b01213a0e03193f
 2f4:	3905                	.insn	2, 0x3905
 2f6:	0521                	.insn	2, 0x0521
 2f8:	13491927          	.insn	4, 0x13491927
 2fc:	0111                	.insn	2, 0x0111
 2fe:	0612                	.insn	2, 0x0612
 300:	1840                	.insn	2, 0x1840
 302:	197a                	.insn	2, 0x197a
 304:	1301                	.insn	2, 0x1301
 306:	0000                	.insn	2, 0x
 308:	3412                	.insn	2, 0x3412
 30a:	0300                	.insn	2, 0x0300
 30c:	3a08                	.insn	2, 0x3a08
 30e:	0121                	.insn	2, 0x0121
 310:	0b39053b          	.insn	4, 0x0b39053b
 314:	1349                	.insn	2, 0x1349
 316:	1702                	.insn	2, 0x1702
 318:	0000                	.insn	2, 0x
 31a:	0b000f13          	li	t5,176
 31e:	0421                	.insn	2, 0x0421
 320:	1349                	.insn	2, 0x1349
 322:	0000                	.insn	2, 0x
 324:	4814                	.insn	2, 0x4814
 326:	7d01                	.insn	2, 0x7d01
 328:	0001                	.insn	2, 0x0001
 32a:	1500                	.insn	2, 0x1500
 32c:	0034                	.insn	2, 0x0034
 32e:	1331                	.insn	2, 0x1331
 330:	1702                	.insn	2, 0x1702
 332:	0000                	.insn	2, 0x
 334:	2e16                	.insn	2, 0x2e16
 336:	0301                	.insn	2, 0x0301
 338:	3a0e                	.insn	2, 0x3a0e
 33a:	0121                	.insn	2, 0x0121
 33c:	0b390b3b          	.insn	4, 0x0b390b3b
 340:	13491927          	.insn	4, 0x13491927
 344:	0b20                	.insn	2, 0x0b20
 346:	1301                	.insn	2, 0x1301
 348:	0000                	.insn	2, 0x
 34a:	03000517          	auipc	a0,0x3000
 34e:	3a0e                	.insn	2, 0x3a0e
 350:	0121                	.insn	2, 0x0121
 352:	0b390b3b          	.insn	4, 0x0b390b3b
 356:	1349                	.insn	2, 0x1349
 358:	1802                	.insn	2, 0x1802
 35a:	0000                	.insn	2, 0x
 35c:	1818                	.insn	2, 0x1818
 35e:	0000                	.insn	2, 0x
 360:	1900                	.insn	2, 0x1900
 362:	0034                	.insn	2, 0x0034
 364:	213a0e03          	lb	t3,531(s4)
 368:	3b01                	.insn	2, 0x3b01
 36a:	3905                	.insn	2, 0x3905
 36c:	0213490b          	.insn	4, 0x0213490b
 370:	0018                	.insn	2, 0x0018
 372:	1a00                	.insn	2, 0x1a00
 374:	0005                	.insn	2, 0x0005
 376:	213a0e03          	lb	t3,531(s4)
 37a:	3b01                	.insn	2, 0x3b01
 37c:	490b390b          	.insn	4, 0x490b390b
 380:	00170213          	addi	tp,a4,1
 384:	1b00                	.insn	2, 0x1b00
 386:	1755010b          	.insn	4, 0x1755010b
 38a:	0000                	.insn	2, 0x
 38c:	1d1c                	.insn	2, 0x1d1c
 38e:	3101                	.insn	2, 0x3101
 390:	12011113          	.insn	4, 0x12011113
 394:	5806                	.insn	2, 0x5806
 396:	0121                	.insn	2, 0x0121
 398:	0559                	.insn	2, 0x0559
 39a:	13010b57          	.insn	4, 0x13010b57
 39e:	0000                	.insn	2, 0x
 3a0:	1d1d                	.insn	2, 0x1d1d
 3a2:	3101                	.insn	2, 0x3101
 3a4:	12011113          	.insn	4, 0x12011113
 3a8:	5806                	.insn	2, 0x5806
 3aa:	0121                	.insn	2, 0x0121
 3ac:	0b59                	.insn	2, 0x0b59
 3ae:	00000b57          	.insn	4, 0x0b57
 3b2:	341e                	.insn	2, 0x341e
 3b4:	0300                	.insn	2, 0x0300
 3b6:	3a08                	.insn	2, 0x3a08
 3b8:	0121                	.insn	2, 0x0121
 3ba:	0b390b3b          	.insn	4, 0x0b390b3b
 3be:	1349                	.insn	2, 0x1349
 3c0:	0000                	.insn	2, 0x
 3c2:	2e1f 0301 3a0e      	.insn	6, 0x3a0e03012e1f
 3c8:	0121                	.insn	2, 0x0121
 3ca:	21390b3b          	.insn	4, 0x21390b3b
 3ce:	2714                	.insn	2, 0x2714
 3d0:	1119                	.insn	2, 0x1119
 3d2:	1201                	.insn	2, 0x1201
 3d4:	4006                	.insn	2, 0x4006
 3d6:	7a18                	.insn	2, 0x7a18
 3d8:	0119                	.insn	2, 0x0119
 3da:	20000013          	li	zero,512
 3de:	0115                	.insn	2, 0x0115
 3e0:	13011927          	.insn	4, 0x13011927
 3e4:	0000                	.insn	2, 0x
 3e6:	0d21                	.insn	2, 0x0d21
 3e8:	0300                	.insn	2, 0x0300
 3ea:	3a08                	.insn	2, 0x3a08
 3ec:	0121                	.insn	2, 0x0121
 3ee:	0b390b3b          	.insn	4, 0x0b390b3b
 3f2:	1349                	.insn	2, 0x1349
 3f4:	0b38                	.insn	2, 0x0b38
 3f6:	0000                	.insn	2, 0x
 3f8:	0122                	.insn	2, 0x0122
 3fa:	4901                	.insn	2, 0x4901
 3fc:	00130113          	addi	sp,t1,1 # 364f3 <_peripheral_HLS_CONTROL_start+0x64f3>
 400:	2300                	.insn	2, 0x2300
 402:	0021                	.insn	2, 0x0021
 404:	1349                	.insn	2, 0x1349
 406:	00000b2f          	.insn	4, 0x0b2f
 40a:	2e24                	.insn	2, 0x2e24
 40c:	0301                	.insn	2, 0x0301
 40e:	3a0e                	.insn	2, 0x3a0e
 410:	0121                	.insn	2, 0x0121
 412:	0b39053b          	.insn	4, 0x0b39053b
 416:	13491927          	.insn	4, 0x13491927
 41a:	0111                	.insn	2, 0x0111
 41c:	0612                	.insn	2, 0x0612
 41e:	1840                	.insn	2, 0x1840
 420:	197a                	.insn	2, 0x197a
 422:	1301                	.insn	2, 0x1301
 424:	0000                	.insn	2, 0x
 426:	1d25                	.insn	2, 0x1d25
 428:	3101                	.insn	2, 0x3101
 42a:	55015213          	.insn	4, 0x55015213
 42e:	01215817          	auipc	a6,0x1215
 432:	0559                	.insn	2, 0x0559
 434:	13010b57          	.insn	4, 0x13010b57
 438:	0000                	.insn	2, 0x
 43a:	1d26                	.insn	2, 0x1d26
 43c:	3101                	.insn	2, 0x3101
 43e:	55015213          	.insn	4, 0x55015213
 442:	01215817          	auipc	a6,0x1215
 446:	0559                	.insn	2, 0x0559
 448:	000a2157          	.insn	4, 0x000a2157
 44c:	2700                	.insn	2, 0x2700
 44e:	0005                	.insn	2, 0x0005
 450:	213a0803          	lb	a6,531(s4)
 454:	3b01                	.insn	2, 0x3b01
 456:	490b390b          	.insn	4, 0x490b390b
 45a:	00180213          	addi	tp,a6,1 # 1215443 <_peripheral_HLS_CONTROL_end+0x11d5443>
 45e:	2800                	.insn	2, 0x2800
 460:	0111                	.insn	2, 0x0111
 462:	0e25                	.insn	2, 0x0e25
 464:	1f030b13          	addi	s6,t1,496
 468:	01111f1b          	.insn	4, 0x01111f1b
 46c:	0612                	.insn	2, 0x0612
 46e:	1710                	.insn	2, 0x1710
 470:	0000                	.insn	2, 0x
 472:	0f29                	.insn	2, 0x0f29
 474:	0b00                	.insn	2, 0x0b00
 476:	000e030b          	.insn	4, 0x000e030b
 47a:	2a00                	.insn	2, 0x2a00
 47c:	0024                	.insn	2, 0x0024
 47e:	0b3e0b0b          	.insn	4, 0x0b3e0b0b
 482:	00000803          	lb	a6,0(zero) # 0 <_vector_table_start>
 486:	0b000f2b          	.insn	4, 0x0b000f2b
 48a:	2c00000b          	.insn	4, 0x2c00000b
 48e:	0b0b0113          	addi	sp,s6,176
 492:	0b3a                	.insn	2, 0x0b3a
 494:	0b390b3b          	.insn	4, 0x0b390b3b
 498:	1301                	.insn	2, 0x1301
 49a:	0000                	.insn	2, 0x
 49c:	2e2d                	.insn	2, 0x2e2d
 49e:	3f01                	.insn	2, 0x3f01
 4a0:	0319                	.insn	2, 0x0319
 4a2:	3a0e                	.insn	2, 0x3a0e
 4a4:	390b3b0b          	.insn	4, 0x390b3b0b
 4a8:	3c19270b          	.insn	4, 0x3c19270b
 4ac:	0119                	.insn	2, 0x0119
 4ae:	2e000013          	li	zero,736
 4b2:	0148                	.insn	2, 0x0148
 4b4:	017d                	.insn	2, 0x017d
 4b6:	0182                	.insn	2, 0x0182
 4b8:	7f19                	.insn	2, 0x7f19
 4ba:	2f000013          	li	zero,752
 4be:	0034                	.insn	2, 0x0034
 4c0:	0b3a0803          	lb	a6,179(s4)
 4c4:	0b39053b          	.insn	4, 0x0b39053b
 4c8:	1349                	.insn	2, 0x1349
 4ca:	0000                	.insn	2, 0x
 4cc:	3430                	.insn	2, 0x3430
 4ce:	0300                	.insn	2, 0x0300
 4d0:	3a0e                	.insn	2, 0x3a0e
 4d2:	39053b0b          	.insn	4, 0x39053b0b
 4d6:	0013490b          	.insn	4, 0x0013490b
 4da:	3100                	.insn	2, 0x3100
 4dc:	011d                	.insn	2, 0x011d
 4de:	1331                	.insn	2, 0x1331
 4e0:	0152                	.insn	2, 0x0152
 4e2:	1755                	.insn	2, 0x1755
 4e4:	0b58                	.insn	2, 0x0b58
 4e6:	0b59                	.insn	2, 0x0b59
 4e8:	00000b57          	.insn	4, 0x0b57
 4ec:	4832                	.insn	2, 0x4832
 4ee:	7d01                	.insn	2, 0x7d01
 4f0:	7f01                	.insn	2, 0x7f01
 4f2:	00130113          	addi	sp,t1,1
 4f6:	3300                	.insn	2, 0x3300
 4f8:	1331010b          	.insn	4, 0x1331010b
 4fc:	1755                	.insn	2, 0x1755
 4fe:	1301                	.insn	2, 0x1301
 500:	0000                	.insn	2, 0x
 502:	3434                	.insn	2, 0x3434
 504:	0300                	.insn	2, 0x0300
 506:	3a0e                	.insn	2, 0x3a0e
 508:	390b3b0b          	.insn	4, 0x390b3b0b
 50c:	0013490b          	.insn	4, 0x0013490b
 510:	3500                	.insn	2, 0x3500
 512:	0000010b          	.insn	4, 0x010b
 516:	2e36                	.insn	2, 0x2e36
 518:	0301                	.insn	2, 0x0301
 51a:	3a0e                	.insn	2, 0x3a0e
 51c:	390b3b0b          	.insn	4, 0x390b3b0b
 520:	2019270b          	.insn	4, 0x2019270b
 524:	0013010b          	.insn	4, 0x0013010b
 528:	3700                	.insn	2, 0x3700
 52a:	0005                	.insn	2, 0x0005
 52c:	0b3a0803          	lb	a6,179(s4)
 530:	0b390b3b          	.insn	4, 0x0b390b3b
 534:	1349                	.insn	2, 0x1349
 536:	1702                	.insn	2, 0x1702
 538:	0000                	.insn	2, 0x
 53a:	4838                	.insn	2, 0x4838
 53c:	7d00                	.insn	2, 0x7d00
 53e:	8201                	.insn	2, 0x8201
 540:	1901                	.insn	2, 0x1901
 542:	0000137f 3f012e39 	.insn	12, 0x3a0e03193f012e390000137f
 54a:	3a0e0319 
 54e:	390b3b0b          	.insn	4, 0x390b3b0b
 552:	4919270b          	.insn	4, 0x4919270b
 556:	010b2013          	slti	zero,s6,16
 55a:	3a000013          	li	zero,928
 55e:	012e                	.insn	2, 0x012e
 560:	1331                	.insn	2, 0x1331
 562:	0111                	.insn	2, 0x0111
 564:	0612                	.insn	2, 0x0612
 566:	1840                	.insn	2, 0x1840
 568:	1301                	.insn	2, 0x1301
 56a:	0000                	.insn	2, 0x
 56c:	31012e3b          	.insn	4, 0x31012e3b
 570:	12011113          	.insn	4, 0x12011113
 574:	4006                	.insn	2, 0x4006
 576:	7a18                	.insn	2, 0x7a18
 578:	0019                	.insn	2, 0x0019
 57a:	3c00                	.insn	2, 0x3c00
 57c:	0048                	.insn	2, 0x0048
 57e:	017d                	.insn	2, 0x017d
 580:	0000137f 00240100 	.insn	12, 0x0b3e0b0b002401000000137f
 588:	0b3e0b0b 
 58c:	00000e03          	lb	t3,0(zero) # 0 <_vector_table_start>
 590:	1602                	.insn	2, 0x1602
 592:	0300                	.insn	2, 0x0300
 594:	3a0e                	.insn	2, 0x3a0e
 596:	390b3b0b          	.insn	4, 0x390b3b0b
 59a:	0013490b          	.insn	4, 0x0013490b
 59e:	0300                	.insn	2, 0x0300
 5a0:	0111                	.insn	2, 0x0111
 5a2:	0e25                	.insn	2, 0x0e25
 5a4:	1f030b13          	addi	s6,t1,496
 5a8:	01111f1b          	.insn	4, 0x01111f1b
 5ac:	0612                	.insn	2, 0x0612
 5ae:	1710                	.insn	2, 0x1710
 5b0:	0000                	.insn	2, 0x
 5b2:	2404                	.insn	2, 0x2404
 5b4:	0b00                	.insn	2, 0x0b00
 5b6:	030b3e0b          	.insn	4, 0x030b3e0b
 5ba:	0008                	.insn	2, 0x0008
 5bc:	0500                	.insn	2, 0x0500
 5be:	012e                	.insn	2, 0x012e
 5c0:	0e03193f 0b3b0b3a 	.insn	8, 0x0b3b0b3a0e03193f
 5c8:	0b39                	.insn	2, 0x0b39
 5ca:	193c1927          	.insn	4, 0x193c1927
 5ce:	1301                	.insn	2, 0x1301
 5d0:	0000                	.insn	2, 0x
 5d2:	0506                	.insn	2, 0x0506
 5d4:	4900                	.insn	2, 0x4900
 5d6:	07000013          	li	zero,112
 5da:	012e                	.insn	2, 0x012e
 5dc:	0e03193f 0b3b0b3a 	.insn	8, 0x0b3b0b3a0e03193f
 5e4:	0b39                	.insn	2, 0x0b39
 5e6:	01111927          	.insn	4, 0x01111927
 5ea:	0612                	.insn	2, 0x0612
 5ec:	1840                	.insn	2, 0x1840
 5ee:	197a                	.insn	2, 0x197a
 5f0:	0000                	.insn	2, 0x
 5f2:	0508                	.insn	2, 0x0508
 5f4:	0300                	.insn	2, 0x0300
 5f6:	3a0e                	.insn	2, 0x3a0e
 5f8:	390b3b0b          	.insn	4, 0x390b3b0b
 5fc:	0213490b          	.insn	4, 0x0213490b
 600:	09000017          	auipc	zero,0x9000
 604:	0148                	.insn	2, 0x0148
 606:	017d                	.insn	2, 0x017d
 608:	0182                	.insn	2, 0x0182
 60a:	7f19                	.insn	2, 0x7f19
 60c:	0a000013          	li	zero,160
 610:	0049                	.insn	2, 0x0049
 612:	1802                	.insn	2, 0x1802
 614:	187e                	.insn	2, 0x187e
 616:	0000                	.insn	2, 0x
 618:	0100                	.insn	2, 0x0100
 61a:	0024                	.insn	2, 0x0024
 61c:	0b3e0b0b          	.insn	4, 0x0b3e0b0b
 620:	00000e03          	lb	t3,0(zero) # 0 <_vector_table_start>
 624:	1602                	.insn	2, 0x1602
 626:	0300                	.insn	2, 0x0300
 628:	3a0e                	.insn	2, 0x3a0e
 62a:	390b3b0b          	.insn	4, 0x390b3b0b
 62e:	0013490b          	.insn	4, 0x0013490b
 632:	0300                	.insn	2, 0x0300
 634:	000d                	.insn	2, 0x000d
 636:	213a0803          	lb	a6,531(s4)
 63a:	3b04                	.insn	2, 0x3b04
 63c:	1721390b          	.insn	4, 0x1721390b
 640:	1349                	.insn	2, 0x1349
 642:	0b38                	.insn	2, 0x0b38
 644:	0000                	.insn	2, 0x
 646:	0d04                	.insn	2, 0x0d04
 648:	0300                	.insn	2, 0x0300
 64a:	3a0e                	.insn	2, 0x3a0e
 64c:	0421                	.insn	2, 0x0421
 64e:	21390b3b          	.insn	4, 0x21390b3b
 652:	38134917          	auipc	s2,0x38134
 656:	0500000b          	.insn	4, 0x0500000b
 65a:	001d                	.insn	2, 0x001d
 65c:	1331                	.insn	2, 0x1331
 65e:	0111                	.insn	2, 0x0111
 660:	0612                	.insn	2, 0x0612
 662:	2158                	.insn	2, 0x2158
 664:	5901                	.insn	2, 0x5901
 666:	000b570b          	.insn	4, 0x000b570b
 66a:	0600                	.insn	2, 0x0600
 66c:	012e                	.insn	2, 0x012e
 66e:	0e03193f 3b01213a 	.insn	8, 0x3b01213a0e03193f
 676:	0621390b          	.insn	4, 0x0621390b
 67a:	01111927          	.insn	4, 0x01111927
 67e:	0612                	.insn	2, 0x0612
 680:	1840                	.insn	2, 0x1840
 682:	197a                	.insn	2, 0x197a
 684:	1301                	.insn	2, 0x1301
 686:	0000                	.insn	2, 0x
 688:	3f002e07          	.insn	4, 0x3f002e07
 68c:	0319                	.insn	2, 0x0319
 68e:	3a0e                	.insn	2, 0x3a0e
 690:	0121                	.insn	2, 0x0121
 692:	21390b3b          	.insn	4, 0x21390b3b
 696:	2013492f          	.insn	4, 0x2013492f
 69a:	0321                	.insn	2, 0x0321
 69c:	0000                	.insn	2, 0x
 69e:	2e08                	.insn	2, 0x2e08
 6a0:	3100                	.insn	2, 0x3100
 6a2:	12011113          	.insn	4, 0x12011113
 6a6:	4006                	.insn	2, 0x4006
 6a8:	7a18                	.insn	2, 0x7a18
 6aa:	0019                	.insn	2, 0x0019
 6ac:	0900                	.insn	2, 0x0900
 6ae:	0111                	.insn	2, 0x0111
 6b0:	0e25                	.insn	2, 0x0e25
 6b2:	1f030b13          	addi	s6,t1,496
 6b6:	01111f1b          	.insn	4, 0x01111f1b
 6ba:	0612                	.insn	2, 0x0612
 6bc:	1710                	.insn	2, 0x1710
 6be:	0000                	.insn	2, 0x
 6c0:	240a                	.insn	2, 0x240a
 6c2:	0b00                	.insn	2, 0x0b00
 6c4:	030b3e0b          	.insn	4, 0x030b3e0b
 6c8:	0008                	.insn	2, 0x0008
 6ca:	0b00                	.insn	2, 0x0b00
 6cc:	0035                	.insn	2, 0x0035
 6ce:	1349                	.insn	2, 0x1349
 6d0:	0000                	.insn	2, 0x
 6d2:	130c                	.insn	2, 0x130c
 6d4:	0301                	.insn	2, 0x0301
 6d6:	0b0e                	.insn	2, 0x0b0e
 6d8:	3b0b3a0b          	.insn	4, 0x3b0b3a0b
 6dc:	010b390b          	.insn	4, 0x010b390b
 6e0:	0d000013          	li	zero,208
 6e4:	0034                	.insn	2, 0x0034
 6e6:	0b3a0e03          	lb	t3,179(s4)
 6ea:	0b390b3b          	.insn	4, 0x0b390b3b
 6ee:	1349                	.insn	2, 0x1349
 6f0:	1802193f 0f0e0000 	.insn	8, 0x0f0e00001802193f
 6f8:	0b00                	.insn	2, 0x0b00
 6fa:	0013490b          	.insn	4, 0x0013490b
 6fe:	0f00                	.insn	2, 0x0f00
 700:	012e                	.insn	2, 0x012e
 702:	0e03193f 0b3b0b3a 	.insn	8, 0x0b3b0b3a0e03193f
 70a:	0b39                	.insn	2, 0x0b39
 70c:	1349                	.insn	2, 0x1349
 70e:	0111                	.insn	2, 0x0111
 710:	0612                	.insn	2, 0x0612
 712:	1840                	.insn	2, 0x1840
 714:	197a                	.insn	2, 0x197a
 716:	1301                	.insn	2, 0x1301
 718:	0000                	.insn	2, 0x
 71a:	0510                	.insn	2, 0x0510
 71c:	0300                	.insn	2, 0x0300
 71e:	3a08                	.insn	2, 0x3a08
 720:	390b3b0b          	.insn	4, 0x390b3b0b
 724:	0213490b          	.insn	4, 0x0213490b
 728:	0018                	.insn	2, 0x0018
 72a:	1100                	.insn	2, 0x1100
 72c:	0005                	.insn	2, 0x0005
 72e:	0b3a0e03          	lb	t3,179(s4)
 732:	0b390b3b          	.insn	4, 0x0b390b3b
 736:	1349                	.insn	2, 0x1349
 738:	1802                	.insn	2, 0x1802
 73a:	0000                	.insn	2, 0x
	...

Disassembly of section .debug_aranges:

00000000 <.debug_aranges>:
   0:	001c                	.insn	2, 0x001c
   2:	0000                	.insn	2, 0x
   4:	0002                	.insn	2, 0x0002
   6:	0000                	.insn	2, 0x
   8:	0000                	.insn	2, 0x
   a:	0004                	.insn	2, 0x0004
   c:	0000                	.insn	2, 0x
   e:	0000                	.insn	2, 0x
  10:	0160                	.insn	2, 0x0160
  12:	0000                	.insn	2, 0x
  14:	0b18                	.insn	2, 0x0b18
	...
  1e:	0000                	.insn	2, 0x
  20:	002c                	.insn	2, 0x002c
  22:	0000                	.insn	2, 0x
  24:	0002                	.insn	2, 0x0002
  26:	06d4                	.insn	2, 0x06d4
  28:	0000                	.insn	2, 0x
  2a:	0004                	.insn	2, 0x0004
	...
  34:	0080                	.insn	2, 0x0080
  36:	0000                	.insn	2, 0x
  38:	0080                	.insn	2, 0x0080
  3a:	0000                	.insn	2, 0x
  3c:	00ac                	.insn	2, 0x00ac
  3e:	0000                	.insn	2, 0x
  40:	012c                	.insn	2, 0x012c
  42:	0000                	.insn	2, 0x
  44:	0034                	.insn	2, 0x0034
	...
  4e:	0000                	.insn	2, 0x
  50:	001c                	.insn	2, 0x001c
  52:	0000                	.insn	2, 0x
  54:	0002                	.insn	2, 0x0002
  56:	000006f7          	.insn	4, 0x06f7
  5a:	0004                	.insn	2, 0x0004
  5c:	0000                	.insn	2, 0x
  5e:	0000                	.insn	2, 0x
  60:	0c78                	.insn	2, 0x0c78
  62:	0000                	.insn	2, 0x
  64:	0f10                	.insn	2, 0x0f10
	...
  6e:	0000                	.insn	2, 0x
  70:	001c                	.insn	2, 0x001c
  72:	0000                	.insn	2, 0x
  74:	0002                	.insn	2, 0x0002
  76:	15d6                	.insn	2, 0x15d6
  78:	0000                	.insn	2, 0x
  7a:	0004                	.insn	2, 0x0004
  7c:	0000                	.insn	2, 0x
  7e:	0000                	.insn	2, 0x
  80:	1b88                	.insn	2, 0x1b88
  82:	0000                	.insn	2, 0x
  84:	0004                	.insn	2, 0x0004
	...
  8e:	0000                	.insn	2, 0x
  90:	001c                	.insn	2, 0x001c
  92:	0000                	.insn	2, 0x
  94:	0002                	.insn	2, 0x0002
  96:	16a8                	.insn	2, 0x16a8
  98:	0000                	.insn	2, 0x
  9a:	0004                	.insn	2, 0x0004
  9c:	0000                	.insn	2, 0x
  9e:	0000                	.insn	2, 0x
  a0:	1b8c                	.insn	2, 0x1b8c
  a2:	0000                	.insn	2, 0x
  a4:	007c                	.insn	2, 0x007c
	...

Disassembly of section .debug_line:

00000000 <.debug_line>:
       0:	0925                	.insn	2, 0x0925
       2:	0000                	.insn	2, 0x
       4:	0005                	.insn	2, 0x0005
       6:	0004                	.insn	2, 0x0004
       8:	0081                	.insn	2, 0x0081
       a:	0000                	.insn	2, 0x
       c:	0101                	.insn	2, 0x0101
       e:	fb01                	.insn	2, 0xfb01
      10:	0d0e                	.insn	2, 0x0d0e
      12:	0100                	.insn	2, 0x0100
      14:	0101                	.insn	2, 0x0101
      16:	0001                	.insn	2, 0x0001
      18:	0000                	.insn	2, 0x
      1a:	0001                	.insn	2, 0x0001
      1c:	0100                	.insn	2, 0x0100
      1e:	0101                	.insn	2, 0x0101
      20:	091f 000b 0000      	.insn	6, 0x000b091f
      26:	0072                	.insn	2, 0x0072
      28:	0000                	.insn	2, 0x
      2a:	0076                	.insn	2, 0x0076
      2c:	0000                	.insn	2, 0x
      2e:	00c5                	.insn	2, 0x00c5
      30:	0000                	.insn	2, 0x
      32:	024d                	.insn	2, 0x024d
      34:	0000                	.insn	2, 0x
      36:	0119                	.insn	2, 0x0119
      38:	0000                	.insn	2, 0x
      3a:	00000163          	beqz	zero,3c <_vector_table_start+0x3c>
      3e:	01a9                	.insn	2, 0x01a9
      40:	0000                	.insn	2, 0x
      42:	01fa                	.insn	2, 0x01fa
      44:	0000                	.insn	2, 0x
      46:	0102                	.insn	2, 0x0102
      48:	021f 0d0f 0004      	.insn	6, 0x00040d0f021f
      4e:	0000                	.insn	2, 0x
      50:	5101                	.insn	2, 0x5101
      52:	0002                	.insn	2, 0x0002
      54:	0200                	.insn	2, 0x0200
      56:	025a                	.insn	2, 0x025a
      58:	0000                	.insn	2, 0x
      5a:	00026303          	.insn	4, 0x00026303
      5e:	0400                	.insn	2, 0x0400
      60:	0004                	.insn	2, 0x0004
      62:	0000                	.insn	2, 0x
      64:	6b01                	.insn	2, 0x6b01
      66:	0002                	.insn	2, 0x0002
      68:	0500                	.insn	2, 0x0500
      6a:	027c                	.insn	2, 0x027c
      6c:	0000                	.insn	2, 0x
      6e:	8606                	.insn	2, 0x8606
      70:	0002                	.insn	2, 0x0002
      72:	0700                	.insn	2, 0x0700
      74:	0000028f          	.insn	4, 0x028f
      78:	00029b03          	lh	s6,0(t0)
      7c:	0400                	.insn	2, 0x0400
      7e:	02ad                	.insn	2, 0x02ad
      80:	0000                	.insn	2, 0x
      82:	b604                	.insn	2, 0xb604
      84:	0002                	.insn	2, 0x0002
      86:	0800                	.insn	2, 0x0800
      88:	000002bf 00350508 	.insn	8, 0x00350508000002bf
      90:	0205                	.insn	2, 0x0205
      92:	0160                	.insn	2, 0x0160
      94:	0000                	.insn	2, 0x
      96:	051a                	.insn	2, 0x051a
      98:	0901030f          	.insn	4, 0x0901030f
      9c:	0012                	.insn	2, 0x0012
      9e:	0501                	.insn	2, 0x0501
      a0:	09000303          	lb	t1,144(zero) # 90 <_reset_handler+0x10>
      a4:	0004                	.insn	2, 0x0004
      a6:	0501                	.insn	2, 0x0501
      a8:	0326                	.insn	2, 0x0326
      aa:	0901                	.insn	2, 0x0901
      ac:	0002                	.insn	2, 0x0002
      ae:	0501                	.insn	2, 0x0501
      b0:	0314                	.insn	2, 0x0314
      b2:	0900                	.insn	2, 0x0900
      b4:	000a                	.insn	2, 0x000a
      b6:	0501                	.insn	2, 0x0501
      b8:	0326                	.insn	2, 0x0326
      ba:	0900                	.insn	2, 0x0900
      bc:	000a                	.insn	2, 0x000a
      be:	0501                	.insn	2, 0x0501
      c0:	0318                	.insn	2, 0x0318
      c2:	0900                	.insn	2, 0x0900
      c4:	0004                	.insn	2, 0x0004
      c6:	0501                	.insn	2, 0x0501
      c8:	001e                	.insn	2, 0x001e
      ca:	0402                	.insn	2, 0x0402
      cc:	097f0303          	lb	t1,151(t5)
      d0:	0004                	.insn	2, 0x0004
      d2:	0501                	.insn	2, 0x0501
      d4:	0018                	.insn	2, 0x0018
      d6:	0402                	.insn	2, 0x0402
      d8:	0301                	.insn	2, 0x0301
      da:	0900                	.insn	2, 0x0900
      dc:	000a                	.insn	2, 0x000a
      de:	0501                	.insn	2, 0x0501
      e0:	0301                	.insn	2, 0x0301
      e2:	000c0903          	lb	s2,0(s8)
      e6:	0301                	.insn	2, 0x0301
      e8:	0904                	.insn	2, 0x0904
      ea:	000a                	.insn	2, 0x000a
      ec:	0501                	.insn	2, 0x0501
      ee:	0901031b          	.insn	4, 0x0901031b
      f2:	000e                	.insn	2, 0x000e
      f4:	0501                	.insn	2, 0x0501
      f6:	0309                	.insn	2, 0x0309
      f8:	0901                	.insn	2, 0x0901
      fa:	0004                	.insn	2, 0x0004
      fc:	0301                	.insn	2, 0x0301
      fe:	0901                	.insn	2, 0x0901
     100:	0002                	.insn	2, 0x0002
     102:	0501                	.insn	2, 0x0501
     104:	030c                	.insn	2, 0x030c
     106:	0900                	.insn	2, 0x0900
     108:	0006                	.insn	2, 0x0006
     10a:	0501                	.insn	2, 0x0501
     10c:	030d                	.insn	2, 0x030d
     10e:	097f 0008 0501 0310 	.insn	10, 0x0900031005010008097f
     116:	0900 
     118:	0006                	.insn	2, 0x0006
     11a:	0501                	.insn	2, 0x0501
     11c:	030a                	.insn	2, 0x030a
     11e:	0902                	.insn	2, 0x0902
     120:	0002                	.insn	2, 0x0002
     122:	0501                	.insn	2, 0x0501
     124:	0301                	.insn	2, 0x0301
     126:	0901                	.insn	2, 0x0901
     128:	0004                	.insn	2, 0x0004
     12a:	0401                	.insn	2, 0x0401
     12c:	0302                	.insn	2, 0x0302
     12e:	00cc                	.insn	2, 0x00cc
     130:	0a09                	.insn	2, 0x0a09
     132:	0100                	.insn	2, 0x0100
     134:	0a05                	.insn	2, 0x0a05
     136:	0a090103          	lb	sp,160(s2) # 381346f2 <_peripheral_PLIC_end+0x301346f2>
     13a:	0100                	.insn	2, 0x0100
     13c:	0905                	.insn	2, 0x0905
     13e:	04090003          	lb	zero,64(s2)
     142:	0100                	.insn	2, 0x0100
     144:	0105                	.insn	2, 0x0105
     146:	02090103          	lb	sp,32(s2)
     14a:	0100                	.insn	2, 0x0100
     14c:	0900c803          	lbu	a6,144(ra)
     150:	0008                	.insn	2, 0x0008
     152:	0501                	.insn	2, 0x0501
     154:	0310                	.insn	2, 0x0310
     156:	0902                	.insn	2, 0x0902
     158:	000e                	.insn	2, 0x000e
     15a:	0501                	.insn	2, 0x0501
     15c:	030d                	.insn	2, 0x030d
     15e:	0901                	.insn	2, 0x0901
     160:	0008                	.insn	2, 0x0008
     162:	0501                	.insn	2, 0x0501
     164:	0301                	.insn	2, 0x0301
     166:	0901                	.insn	2, 0x0901
     168:	000a                	.insn	2, 0x000a
     16a:	0401                	.insn	2, 0x0401
     16c:	03130503          	lb	a0,49(t1)
     170:	7edf 0809 0100      	.insn	6, 0x010008097edf
     176:	1805                	.insn	2, 0x1805
     178:	12090303          	lb	t1,288(s2)
     17c:	0100                	.insn	2, 0x0100
     17e:	0505                	.insn	2, 0x0505
     180:	04090003          	lb	zero,64(s2)
     184:	0100                	.insn	2, 0x0100
     186:	2005                	.insn	2, 0x2005
     188:	02090103          	lb	sp,32(s2)
     18c:	0100                	.insn	2, 0x0100
     18e:	0d05                	.insn	2, 0x0d05
     190:	04090003          	lb	zero,64(s2)
     194:	0100                	.insn	2, 0x0100
     196:	2405                	.insn	2, 0x2405
     198:	02090103          	lb	sp,32(s2)
     19c:	0100                	.insn	2, 0x0100
     19e:	1105                	.insn	2, 0x1105
     1a0:	04090003          	lb	zero,64(s2)
     1a4:	0100                	.insn	2, 0x0100
     1a6:	2805                	.insn	2, 0x2805
     1a8:	02090103          	lb	sp,32(s2)
     1ac:	0100                	.insn	2, 0x0100
     1ae:	1505                	.insn	2, 0x1505
     1b0:	04090003          	lb	zero,64(s2)
     1b4:	0100                	.insn	2, 0x0100
     1b6:	2f05                	.insn	2, 0x2f05
     1b8:	02090103          	lb	sp,32(s2)
     1bc:	0100                	.insn	2, 0x0100
     1be:	1e05                	.insn	2, 0x1e05
     1c0:	0c090003          	lb	zero,192(s2)
     1c4:	0100                	.insn	2, 0x0100
     1c6:	3305                	.insn	2, 0x3305
     1c8:	16090003          	lb	zero,352(s2)
     1cc:	0100                	.insn	2, 0x0100
     1ce:	2b05                	.insn	2, 0x2b05
     1d0:	04090003          	lb	zero,64(s2)
     1d4:	0100                	.insn	2, 0x0100
     1d6:	3705                	.insn	2, 0x3705
     1d8:	0200                	.insn	2, 0x0200
     1da:	0304                	.insn	2, 0x0304
     1dc:	1e097f03          	.insn	4, 0x1e097f03
     1e0:	0100                	.insn	2, 0x0100
     1e2:	3105                	.insn	2, 0x3105
     1e4:	0200                	.insn	2, 0x0200
     1e6:	0104                	.insn	2, 0x0104
     1e8:	0a090003          	lb	zero,160(s2)
     1ec:	0100                	.insn	2, 0x0100
     1ee:	3305                	.insn	2, 0x3305
     1f0:	0200                	.insn	2, 0x0200
     1f2:	0204                	.insn	2, 0x0204
     1f4:	0a097f03          	.insn	4, 0x0a097f03
     1f8:	0100                	.insn	2, 0x0100
     1fa:	2d05                	.insn	2, 0x2d05
     1fc:	0200                	.insn	2, 0x0200
     1fe:	0104                	.insn	2, 0x0104
     200:	0a090003          	lb	zero,160(s2)
     204:	0100                	.insn	2, 0x0100
     206:	2f05                	.insn	2, 0x2f05
     208:	0200                	.insn	2, 0x0200
     20a:	0204                	.insn	2, 0x0204
     20c:	0a097f03          	.insn	4, 0x0a097f03
     210:	0100                	.insn	2, 0x0100
     212:	2905                	.insn	2, 0x2905
     214:	0200                	.insn	2, 0x0200
     216:	0104                	.insn	2, 0x0104
     218:	0a090003          	lb	zero,160(s2)
     21c:	0100                	.insn	2, 0x0100
     21e:	2705                	.insn	2, 0x2705
     220:	0200                	.insn	2, 0x0200
     222:	0204                	.insn	2, 0x0204
     224:	0a097f03          	.insn	4, 0x0a097f03
     228:	0100                	.insn	2, 0x0100
     22a:	2105                	.insn	2, 0x2105
     22c:	0200                	.insn	2, 0x0200
     22e:	0104                	.insn	2, 0x0104
     230:	0a090003          	lb	zero,160(s2)
     234:	0100                	.insn	2, 0x0100
     236:	1805                	.insn	2, 0x1805
     238:	0a090703          	lb	a4,160(s2)
     23c:	0100                	.insn	2, 0x0100
     23e:	0505                	.insn	2, 0x0505
     240:	04090003          	lb	zero,64(s2)
     244:	0100                	.insn	2, 0x0100
     246:	2005                	.insn	2, 0x2005
     248:	02090103          	lb	sp,32(s2)
     24c:	0100                	.insn	2, 0x0100
     24e:	0d05                	.insn	2, 0x0d05
     250:	04090003          	lb	zero,64(s2)
     254:	0100                	.insn	2, 0x0100
     256:	2405                	.insn	2, 0x2405
     258:	02090103          	lb	sp,32(s2)
     25c:	0100                	.insn	2, 0x0100
     25e:	1105                	.insn	2, 0x1105
     260:	04090003          	lb	zero,64(s2)
     264:	0100                	.insn	2, 0x0100
     266:	2805                	.insn	2, 0x2805
     268:	02090103          	lb	sp,32(s2)
     26c:	0100                	.insn	2, 0x0100
     26e:	1505                	.insn	2, 0x1505
     270:	04090003          	lb	zero,64(s2)
     274:	0100                	.insn	2, 0x0100
     276:	3005                	.insn	2, 0x3005
     278:	02090103          	lb	sp,32(s2)
     27c:	0100                	.insn	2, 0x0100
     27e:	1e05                	.insn	2, 0x1e05
     280:	0c090003          	lb	zero,192(s2)
     284:	0100                	.insn	2, 0x0100
     286:	3405                	.insn	2, 0x3405
     288:	14090003          	lb	zero,320(s2)
     28c:	0100                	.insn	2, 0x0100
     28e:	2b05                	.insn	2, 0x2b05
     290:	04090003          	lb	zero,64(s2)
     294:	0100                	.insn	2, 0x0100
     296:	3705                	.insn	2, 0x3705
     298:	0200                	.insn	2, 0x0200
     29a:	0304                	.insn	2, 0x0304
     29c:	22097f03          	.insn	4, 0x22097f03
     2a0:	0100                	.insn	2, 0x0100
     2a2:	3105                	.insn	2, 0x3105
     2a4:	0200                	.insn	2, 0x0200
     2a6:	0104                	.insn	2, 0x0104
     2a8:	0a090003          	lb	zero,160(s2)
     2ac:	0100                	.insn	2, 0x0100
     2ae:	3305                	.insn	2, 0x3305
     2b0:	0200                	.insn	2, 0x0200
     2b2:	0204                	.insn	2, 0x0204
     2b4:	0a097f03          	.insn	4, 0x0a097f03
     2b8:	0100                	.insn	2, 0x0100
     2ba:	2d05                	.insn	2, 0x2d05
     2bc:	0200                	.insn	2, 0x0200
     2be:	0104                	.insn	2, 0x0104
     2c0:	0a090003          	lb	zero,160(s2)
     2c4:	0100                	.insn	2, 0x0100
     2c6:	2f05                	.insn	2, 0x2f05
     2c8:	0200                	.insn	2, 0x0200
     2ca:	0204                	.insn	2, 0x0204
     2cc:	0a097f03          	.insn	4, 0x0a097f03
     2d0:	0100                	.insn	2, 0x0100
     2d2:	2905                	.insn	2, 0x2905
     2d4:	0200                	.insn	2, 0x0200
     2d6:	0104                	.insn	2, 0x0104
     2d8:	0a090003          	lb	zero,160(s2)
     2dc:	0100                	.insn	2, 0x0100
     2de:	2705                	.insn	2, 0x2705
     2e0:	0200                	.insn	2, 0x0200
     2e2:	0204                	.insn	2, 0x0204
     2e4:	0a097f03          	.insn	4, 0x0a097f03
     2e8:	0100                	.insn	2, 0x0100
     2ea:	2105                	.insn	2, 0x2105
     2ec:	0200                	.insn	2, 0x0200
     2ee:	0104                	.insn	2, 0x0104
     2f0:	0a090003          	lb	zero,160(s2)
     2f4:	0100                	.insn	2, 0x0100
     2f6:	1805                	.insn	2, 0x1805
     2f8:	0a090703          	lb	a4,160(s2)
     2fc:	0100                	.insn	2, 0x0100
     2fe:	0505                	.insn	2, 0x0505
     300:	04090003          	lb	zero,64(s2)
     304:	0100                	.insn	2, 0x0100
     306:	2005                	.insn	2, 0x2005
     308:	02090103          	lb	sp,32(s2)
     30c:	0100                	.insn	2, 0x0100
     30e:	0d05                	.insn	2, 0x0d05
     310:	04090003          	lb	zero,64(s2)
     314:	0100                	.insn	2, 0x0100
     316:	2405                	.insn	2, 0x2405
     318:	02090103          	lb	sp,32(s2)
     31c:	0100                	.insn	2, 0x0100
     31e:	1105                	.insn	2, 0x1105
     320:	04090003          	lb	zero,64(s2)
     324:	0100                	.insn	2, 0x0100
     326:	2805                	.insn	2, 0x2805
     328:	02090103          	lb	sp,32(s2)
     32c:	0100                	.insn	2, 0x0100
     32e:	1505                	.insn	2, 0x1505
     330:	04090003          	lb	zero,64(s2)
     334:	0100                	.insn	2, 0x0100
     336:	1e05                	.insn	2, 0x1e05
     338:	02090103          	lb	sp,32(s2)
     33c:	0100                	.insn	2, 0x0100
     33e:	2d05                	.insn	2, 0x2d05
     340:	16090003          	lb	zero,352(s2)
     344:	0100                	.insn	2, 0x0100
     346:	3b05                	.insn	2, 0x3b05
     348:	0200                	.insn	2, 0x0200
     34a:	0304                	.insn	2, 0x0304
     34c:	32097f03          	.insn	4, 0x32097f03
     350:	0100                	.insn	2, 0x0100
     352:	3305                	.insn	2, 0x3305
     354:	0200                	.insn	2, 0x0200
     356:	0104                	.insn	2, 0x0104
     358:	0a090003          	lb	zero,160(s2)
     35c:	0100                	.insn	2, 0x0100
     35e:	3705                	.insn	2, 0x3705
     360:	0200                	.insn	2, 0x0200
     362:	0204                	.insn	2, 0x0204
     364:	0a097f03          	.insn	4, 0x0a097f03
     368:	0100                	.insn	2, 0x0100
     36a:	2f05                	.insn	2, 0x2f05
     36c:	0200                	.insn	2, 0x0200
     36e:	0104                	.insn	2, 0x0104
     370:	0a090003          	lb	zero,160(s2)
     374:	0100                	.insn	2, 0x0100
     376:	0200                	.insn	2, 0x0200
     378:	0204                	.insn	2, 0x0204
     37a:	0a097f03          	.insn	4, 0x0a097f03
     37e:	0100                	.insn	2, 0x0100
     380:	2905                	.insn	2, 0x2905
     382:	0200                	.insn	2, 0x0200
     384:	0104                	.insn	2, 0x0104
     386:	0a090003          	lb	zero,160(s2)
     38a:	0100                	.insn	2, 0x0100
     38c:	2705                	.insn	2, 0x2705
     38e:	0200                	.insn	2, 0x0200
     390:	0204                	.insn	2, 0x0204
     392:	0a097f03          	.insn	4, 0x0a097f03
     396:	0100                	.insn	2, 0x0100
     398:	2105                	.insn	2, 0x2105
     39a:	0200                	.insn	2, 0x0200
     39c:	0104                	.insn	2, 0x0104
     39e:	0a090003          	lb	zero,160(s2)
     3a2:	0100                	.insn	2, 0x0100
     3a4:	0105                	.insn	2, 0x0105
     3a6:	0a090603          	lb	a2,160(s2)
     3aa:	0100                	.insn	2, 0x0100
     3ac:	1305                	.insn	2, 0x1305
     3ae:	0a090703          	lb	a4,160(s2)
     3b2:	0100                	.insn	2, 0x0100
     3b4:	1805                	.insn	2, 0x1805
     3b6:	12090203          	lb	tp,288(s2)
     3ba:	0100                	.insn	2, 0x0100
     3bc:	0505                	.insn	2, 0x0505
     3be:	04090003          	lb	zero,64(s2)
     3c2:	0100                	.insn	2, 0x0100
     3c4:	1c05                	.insn	2, 0x1c05
     3c6:	02090103          	lb	sp,32(s2)
     3ca:	0100                	.insn	2, 0x0100
     3cc:	0905                	.insn	2, 0x0905
     3ce:	04090003          	lb	zero,64(s2)
     3d2:	0100                	.insn	2, 0x0100
     3d4:	2005                	.insn	2, 0x2005
     3d6:	02090103          	lb	sp,32(s2)
     3da:	0100                	.insn	2, 0x0100
     3dc:	0d05                	.insn	2, 0x0d05
     3de:	04090003          	lb	zero,64(s2)
     3e2:	0100                	.insn	2, 0x0100
     3e4:	2405                	.insn	2, 0x2405
     3e6:	02090103          	lb	sp,32(s2)
     3ea:	0100                	.insn	2, 0x0100
     3ec:	1105                	.insn	2, 0x1105
     3ee:	04090003          	lb	zero,64(s2)
     3f2:	0100                	.insn	2, 0x0100
     3f4:	2805                	.insn	2, 0x2805
     3f6:	02090103          	lb	sp,32(s2)
     3fa:	0100                	.insn	2, 0x0100
     3fc:	1505                	.insn	2, 0x1505
     3fe:	04090003          	lb	zero,64(s2)
     402:	0100                	.insn	2, 0x0100
     404:	2c05                	.insn	2, 0x2c05
     406:	02090103          	lb	sp,32(s2)
     40a:	0100                	.insn	2, 0x0100
     40c:	1905                	.insn	2, 0x1905
     40e:	04090003          	lb	zero,64(s2)
     412:	0100                	.insn	2, 0x0100
     414:	3005                	.insn	2, 0x3005
     416:	02090103          	lb	sp,32(s2)
     41a:	0100                	.insn	2, 0x0100
     41c:	1d05                	.insn	2, 0x1d05
     41e:	04090003          	lb	zero,64(s2)
     422:	0100                	.insn	2, 0x0100
     424:	2905                	.insn	2, 0x2905
     426:	02090203          	lb	tp,32(s2)
     42a:	0100                	.insn	2, 0x0100
     42c:	3305                	.insn	2, 0x3305
     42e:	16090003          	lb	zero,352(s2)
     432:	0100                	.insn	2, 0x0100
     434:	3c05                	.insn	2, 0x3c05
     436:	2a090003          	lb	zero,672(s2)
     43a:	0100                	.insn	2, 0x0100
     43c:	4505                	.insn	2, 0x4505
     43e:	14090003          	lb	zero,320(s2)
     442:	0100                	.insn	2, 0x0100
     444:	4c05                	.insn	2, 0x4c05
     446:	22090003          	lb	zero,544(s2)
     44a:	0100                	.insn	2, 0x0100
     44c:	5505                	.insn	2, 0x5505
     44e:	14090003          	lb	zero,320(s2)
     452:	0100                	.insn	2, 0x0100
     454:	5b05                	.insn	2, 0x5b05
     456:	0a090003          	lb	zero,160(s2)
     45a:	0100                	.insn	2, 0x0100
     45c:	5805                	.insn	2, 0x5805
     45e:	0a090003          	lb	zero,160(s2)
     462:	0100                	.insn	2, 0x0100
     464:	4905                	.insn	2, 0x4905
     466:	12090003          	lb	zero,288(s2)
     46a:	0100                	.insn	2, 0x0100
     46c:	2905                	.insn	2, 0x2905
     46e:	04090003          	lb	zero,64(s2)
     472:	0100                	.insn	2, 0x0100
     474:	3805                	.insn	2, 0x3805
     476:	16090003          	lb	zero,352(s2)
     47a:	0100                	.insn	2, 0x0100
     47c:	3f05                	.insn	2, 0x3f05
     47e:	0200                	.insn	2, 0x0200
     480:	0304                	.insn	2, 0x0304
     482:	2c097e03          	.insn	4, 0x2c097e03
     486:	0100                	.insn	2, 0x0100
     488:	3905                	.insn	2, 0x3905
     48a:	0200                	.insn	2, 0x0200
     48c:	0104                	.insn	2, 0x0104
     48e:	0a090003          	lb	zero,160(s2)
     492:	0100                	.insn	2, 0x0100
     494:	3b05                	.insn	2, 0x3b05
     496:	0200                	.insn	2, 0x0200
     498:	0204                	.insn	2, 0x0204
     49a:	0a097f03          	.insn	4, 0x0a097f03
     49e:	0100                	.insn	2, 0x0100
     4a0:	3505                	.insn	2, 0x3505
     4a2:	0200                	.insn	2, 0x0200
     4a4:	0104                	.insn	2, 0x0104
     4a6:	0a090003          	lb	zero,160(s2)
     4aa:	0100                	.insn	2, 0x0100
     4ac:	3b05                	.insn	2, 0x3b05
     4ae:	0200                	.insn	2, 0x0200
     4b0:	0204                	.insn	2, 0x0204
     4b2:	0a097f03          	.insn	4, 0x0a097f03
     4b6:	0100                	.insn	2, 0x0100
     4b8:	3305                	.insn	2, 0x3305
     4ba:	0200                	.insn	2, 0x0200
     4bc:	0104                	.insn	2, 0x0104
     4be:	0a090003          	lb	zero,160(s2)
     4c2:	0100                	.insn	2, 0x0100
     4c4:	3705                	.insn	2, 0x3705
     4c6:	0200                	.insn	2, 0x0200
     4c8:	0204                	.insn	2, 0x0204
     4ca:	0a097f03          	.insn	4, 0x0a097f03
     4ce:	0100                	.insn	2, 0x0100
     4d0:	2f05                	.insn	2, 0x2f05
     4d2:	0200                	.insn	2, 0x0200
     4d4:	0104                	.insn	2, 0x0104
     4d6:	0a090003          	lb	zero,160(s2)
     4da:	0100                	.insn	2, 0x0100
     4dc:	0200                	.insn	2, 0x0200
     4de:	0204                	.insn	2, 0x0204
     4e0:	0a097f03          	.insn	4, 0x0a097f03
     4e4:	0100                	.insn	2, 0x0100
     4e6:	2905                	.insn	2, 0x2905
     4e8:	0200                	.insn	2, 0x0200
     4ea:	0104                	.insn	2, 0x0104
     4ec:	0a090003          	lb	zero,160(s2)
     4f0:	0100                	.insn	2, 0x0100
     4f2:	2b05                	.insn	2, 0x2b05
     4f4:	0200                	.insn	2, 0x0200
     4f6:	0204                	.insn	2, 0x0204
     4f8:	0a097f03          	.insn	4, 0x0a097f03
     4fc:	0100                	.insn	2, 0x0100
     4fe:	2505                	.insn	2, 0x2505
     500:	0200                	.insn	2, 0x0200
     502:	0104                	.insn	2, 0x0104
     504:	0a090003          	lb	zero,160(s2)
     508:	0100                	.insn	2, 0x0100
     50a:	2705                	.insn	2, 0x2705
     50c:	0200                	.insn	2, 0x0200
     50e:	0204                	.insn	2, 0x0204
     510:	0a097f03          	.insn	4, 0x0a097f03
     514:	0100                	.insn	2, 0x0100
     516:	2105                	.insn	2, 0x2105
     518:	0200                	.insn	2, 0x0200
     51a:	0104                	.insn	2, 0x0104
     51c:	0a090003          	lb	zero,160(s2)
     520:	0100                	.insn	2, 0x0100
     522:	0105                	.insn	2, 0x0105
     524:	0a091003          	lh	zero,160(s2)
     528:	0100                	.insn	2, 0x0100
     52a:	1305                	.insn	2, 0x1305
     52c:	0a090603          	lb	a2,160(s2)
     530:	0100                	.insn	2, 0x0100
     532:	1805                	.insn	2, 0x1805
     534:	10090303          	lb	t1,256(s2)
     538:	0100                	.insn	2, 0x0100
     53a:	0505                	.insn	2, 0x0505
     53c:	04090003          	lb	zero,64(s2)
     540:	0100                	.insn	2, 0x0100
     542:	1c05                	.insn	2, 0x1c05
     544:	02090103          	lb	sp,32(s2)
     548:	0100                	.insn	2, 0x0100
     54a:	0905                	.insn	2, 0x0905
     54c:	04090003          	lb	zero,64(s2)
     550:	0100                	.insn	2, 0x0100
     552:	2005                	.insn	2, 0x2005
     554:	02090103          	lb	sp,32(s2)
     558:	0100                	.insn	2, 0x0100
     55a:	0d05                	.insn	2, 0x0d05
     55c:	04090003          	lb	zero,64(s2)
     560:	0100                	.insn	2, 0x0100
     562:	2405                	.insn	2, 0x2405
     564:	02090103          	lb	sp,32(s2)
     568:	0100                	.insn	2, 0x0100
     56a:	1105                	.insn	2, 0x1105
     56c:	04090003          	lb	zero,64(s2)
     570:	0100                	.insn	2, 0x0100
     572:	1d05                	.insn	2, 0x1d05
     574:	02090103          	lb	sp,32(s2)
     578:	0100                	.insn	2, 0x0100
     57a:	2705                	.insn	2, 0x2705
     57c:	16090003          	lb	zero,352(s2)
     580:	0100                	.insn	2, 0x0100
     582:	3705                	.insn	2, 0x3705
     584:	2a090003          	lb	zero,672(s2)
     588:	0100                	.insn	2, 0x0100
     58a:	4105                	.insn	2, 0x4105
     58c:	16090003          	lb	zero,352(s2)
     590:	0100                	.insn	2, 0x0100
     592:	1805                	.insn	2, 0x1805
     594:	2a090003          	lb	zero,672(s2)
     598:	0100                	.insn	2, 0x0100
     59a:	2505                	.insn	2, 0x2505
     59c:	04090303          	lb	t1,64(s2)
     5a0:	0100                	.insn	2, 0x0100
     5a2:	1905                	.insn	2, 0x1905
     5a4:	16097e03          	.insn	4, 0x16097e03
     5a8:	0100                	.insn	2, 0x0100
     5aa:	2505                	.insn	2, 0x2505
     5ac:	2a090303          	lb	t1,672(s2)
     5b0:	0100                	.insn	2, 0x0100
     5b2:	1905                	.insn	2, 0x1905
     5b4:	16097d03          	.insn	4, 0x16097d03
     5b8:	0100                	.insn	2, 0x0100
     5ba:	2005                	.insn	2, 0x2005
     5bc:	48090603          	lb	a2,1152(s2)
     5c0:	0100                	.insn	2, 0x0100
     5c2:	2505                	.insn	2, 0x2505
     5c4:	04090403          	lb	s0,64(s2)
     5c8:	0100                	.insn	2, 0x0100
     5ca:	1505                	.insn	2, 0x1505
     5cc:	16097e03          	.insn	4, 0x16097e03
     5d0:	0100                	.insn	2, 0x0100
     5d2:	2505                	.insn	2, 0x2505
     5d4:	2a090303          	lb	t1,672(s2)
     5d8:	0100                	.insn	2, 0x0100
     5da:	1505                	.insn	2, 0x1505
     5dc:	16097d03          	.insn	4, 0x16097d03
     5e0:	0100                	.insn	2, 0x0100
     5e2:	3705                	.insn	2, 0x3705
     5e4:	0200                	.insn	2, 0x0200
     5e6:	0204                	.insn	2, 0x0204
     5e8:	48097603          	.insn	4, 0x48097603
     5ec:	0100                	.insn	2, 0x0100
     5ee:	2f05                	.insn	2, 0x2f05
     5f0:	0200                	.insn	2, 0x0200
     5f2:	0104                	.insn	2, 0x0104
     5f4:	0a090003          	lb	zero,160(s2)
     5f8:	0100                	.insn	2, 0x0100
     5fa:	3305                	.insn	2, 0x3305
     5fc:	0200                	.insn	2, 0x0200
     5fe:	0204                	.insn	2, 0x0204
     600:	0a097f03          	.insn	4, 0x0a097f03
     604:	0100                	.insn	2, 0x0100
     606:	2b05                	.insn	2, 0x2b05
     608:	0200                	.insn	2, 0x0200
     60a:	0104                	.insn	2, 0x0104
     60c:	0a090003          	lb	zero,160(s2)
     610:	0100                	.insn	2, 0x0100
     612:	0200                	.insn	2, 0x0200
     614:	0204                	.insn	2, 0x0204
     616:	0a097f03          	.insn	4, 0x0a097f03
     61a:	0100                	.insn	2, 0x0100
     61c:	2505                	.insn	2, 0x2505
     61e:	0200                	.insn	2, 0x0200
     620:	0104                	.insn	2, 0x0104
     622:	0a090003          	lb	zero,160(s2)
     626:	0100                	.insn	2, 0x0100
     628:	2705                	.insn	2, 0x2705
     62a:	0200                	.insn	2, 0x0200
     62c:	0204                	.insn	2, 0x0204
     62e:	0a097f03          	.insn	4, 0x0a097f03
     632:	0100                	.insn	2, 0x0100
     634:	2105                	.insn	2, 0x2105
     636:	0200                	.insn	2, 0x0200
     638:	0104                	.insn	2, 0x0104
     63a:	0a090003          	lb	zero,160(s2)
     63e:	0100                	.insn	2, 0x0100
     640:	0c05                	.insn	2, 0x0c05
     642:	0a091903          	lh	s2,160(s2)
     646:	0100                	.insn	2, 0x0100
     648:	0105                	.insn	2, 0x0105
     64a:	02090103          	lb	sp,32(s2)
     64e:	0100                	.insn	2, 0x0100
     650:	0404                	.insn	2, 0x0404
     652:	1305                	.insn	2, 0x1305
     654:	097fa903          	lw	s2,151(t6)
     658:	000a                	.insn	2, 0x000a
     65a:	0501                	.insn	2, 0x0501
     65c:	030e                	.insn	2, 0x030e
     65e:	0902                	.insn	2, 0x0902
     660:	0008                	.insn	2, 0x0008
     662:	0501                	.insn	2, 0x0501
     664:	0305                	.insn	2, 0x0305
     666:	0902                	.insn	2, 0x0902
     668:	0006                	.insn	2, 0x0006
     66a:	0301                	.insn	2, 0x0301
     66c:	0901                	.insn	2, 0x0901
     66e:	000a                	.insn	2, 0x000a
     670:	0001                	.insn	2, 0x0001
     672:	0402                	.insn	2, 0x0402
     674:	0601                	.insn	2, 0x0601
     676:	0e090003          	lb	zero,224(s2)
     67a:	0100                	.insn	2, 0x0100
     67c:	3505                	.insn	2, 0x3505
     67e:	0306                	.insn	2, 0x0306
     680:	0901                	.insn	2, 0x0901
     682:	000c                	.insn	2, 0x000c
     684:	0501                	.insn	2, 0x0501
     686:	0305                	.insn	2, 0x0305
     688:	0900                	.insn	2, 0x0900
     68a:	0008                	.insn	2, 0x0008
     68c:	0001                	.insn	2, 0x0001
     68e:	0402                	.insn	2, 0x0402
     690:	0601                	.insn	2, 0x0601
     692:	08090003          	lb	zero,128(s2)
     696:	0100                	.insn	2, 0x0100
     698:	3505                	.insn	2, 0x3505
     69a:	0306                	.insn	2, 0x0306
     69c:	0901                	.insn	2, 0x0901
     69e:	000c                	.insn	2, 0x000c
     6a0:	0501                	.insn	2, 0x0501
     6a2:	0305                	.insn	2, 0x0305
     6a4:	0900                	.insn	2, 0x0900
     6a6:	0008                	.insn	2, 0x0008
     6a8:	0001                	.insn	2, 0x0001
     6aa:	0402                	.insn	2, 0x0402
     6ac:	0601                	.insn	2, 0x0601
     6ae:	08090003          	lb	zero,128(s2)
     6b2:	0100                	.insn	2, 0x0100
     6b4:	3505                	.insn	2, 0x3505
     6b6:	0306                	.insn	2, 0x0306
     6b8:	0901                	.insn	2, 0x0901
     6ba:	000c                	.insn	2, 0x000c
     6bc:	0501                	.insn	2, 0x0501
     6be:	0305                	.insn	2, 0x0305
     6c0:	0900                	.insn	2, 0x0900
     6c2:	0008                	.insn	2, 0x0008
     6c4:	0001                	.insn	2, 0x0001
     6c6:	0402                	.insn	2, 0x0402
     6c8:	0601                	.insn	2, 0x0601
     6ca:	08090003          	lb	zero,128(s2)
     6ce:	0100                	.insn	2, 0x0100
     6d0:	3505                	.insn	2, 0x3505
     6d2:	0306                	.insn	2, 0x0306
     6d4:	0901                	.insn	2, 0x0901
     6d6:	000c                	.insn	2, 0x000c
     6d8:	0501                	.insn	2, 0x0501
     6da:	0305                	.insn	2, 0x0305
     6dc:	0900                	.insn	2, 0x0900
     6de:	0008                	.insn	2, 0x0008
     6e0:	0001                	.insn	2, 0x0001
     6e2:	0402                	.insn	2, 0x0402
     6e4:	0601                	.insn	2, 0x0601
     6e6:	08090003          	lb	zero,128(s2)
     6ea:	0100                	.insn	2, 0x0100
     6ec:	3505                	.insn	2, 0x3505
     6ee:	0306                	.insn	2, 0x0306
     6f0:	0901                	.insn	2, 0x0901
     6f2:	000c                	.insn	2, 0x000c
     6f4:	0501                	.insn	2, 0x0501
     6f6:	0305                	.insn	2, 0x0305
     6f8:	0900                	.insn	2, 0x0900
     6fa:	0008                	.insn	2, 0x0008
     6fc:	0001                	.insn	2, 0x0001
     6fe:	0402                	.insn	2, 0x0402
     700:	0601                	.insn	2, 0x0601
     702:	0a090003          	lb	zero,160(s2)
     706:	0100                	.insn	2, 0x0100
     708:	3505                	.insn	2, 0x3505
     70a:	0306                	.insn	2, 0x0306
     70c:	0901                	.insn	2, 0x0901
     70e:	000c                	.insn	2, 0x000c
     710:	0501                	.insn	2, 0x0501
     712:	0305                	.insn	2, 0x0305
     714:	0900                	.insn	2, 0x0900
     716:	0008                	.insn	2, 0x0008
     718:	0001                	.insn	2, 0x0001
     71a:	0402                	.insn	2, 0x0402
     71c:	0601                	.insn	2, 0x0601
     71e:	08090003          	lb	zero,128(s2)
     722:	0100                	.insn	2, 0x0100
     724:	0105                	.insn	2, 0x0105
     726:	0306                	.insn	2, 0x0306
     728:	0901                	.insn	2, 0x0901
     72a:	000c                	.insn	2, 0x000c
     72c:	0501                	.insn	2, 0x0501
     72e:	0331                	.insn	2, 0x0331
     730:	000a0903          	lb	s2,0(s4)
     734:	0501                	.insn	2, 0x0501
     736:	0305                	.insn	2, 0x0305
     738:	0902                	.insn	2, 0x0902
     73a:	000c                	.insn	2, 0x000c
     73c:	0301                	.insn	2, 0x0301
     73e:	0901                	.insn	2, 0x0901
     740:	000e                	.insn	2, 0x000e
     742:	0501                	.insn	2, 0x0501
     744:	0349                	.insn	2, 0x0349
     746:	0901                	.insn	2, 0x0901
     748:	0012                	.insn	2, 0x0012
     74a:	0501                	.insn	2, 0x0501
     74c:	0305                	.insn	2, 0x0305
     74e:	0900                	.insn	2, 0x0900
     750:	0006                	.insn	2, 0x0006
     752:	0501                	.insn	2, 0x0501
     754:	0349                	.insn	2, 0x0349
     756:	0901                	.insn	2, 0x0901
     758:	000e                	.insn	2, 0x000e
     75a:	0501                	.insn	2, 0x0501
     75c:	0305                	.insn	2, 0x0305
     75e:	0900                	.insn	2, 0x0900
     760:	0006                	.insn	2, 0x0006
     762:	0501                	.insn	2, 0x0501
     764:	0349                	.insn	2, 0x0349
     766:	0901                	.insn	2, 0x0901
     768:	000e                	.insn	2, 0x000e
     76a:	0501                	.insn	2, 0x0501
     76c:	0305                	.insn	2, 0x0305
     76e:	0900                	.insn	2, 0x0900
     770:	0006                	.insn	2, 0x0006
     772:	0501                	.insn	2, 0x0501
     774:	0349                	.insn	2, 0x0349
     776:	0901                	.insn	2, 0x0901
     778:	000e                	.insn	2, 0x000e
     77a:	0501                	.insn	2, 0x0501
     77c:	0305                	.insn	2, 0x0305
     77e:	0900                	.insn	2, 0x0900
     780:	0006                	.insn	2, 0x0006
     782:	0501                	.insn	2, 0x0501
     784:	0901034b          	.insn	4, 0x0901034b
     788:	000e                	.insn	2, 0x000e
     78a:	0501                	.insn	2, 0x0501
     78c:	0305                	.insn	2, 0x0305
     78e:	0900                	.insn	2, 0x0900
     790:	0006                	.insn	2, 0x0006
     792:	0501                	.insn	2, 0x0501
     794:	0349                	.insn	2, 0x0349
     796:	0901                	.insn	2, 0x0901
     798:	000e                	.insn	2, 0x000e
     79a:	0501                	.insn	2, 0x0501
     79c:	0305                	.insn	2, 0x0305
     79e:	0900                	.insn	2, 0x0900
     7a0:	0006                	.insn	2, 0x0006
     7a2:	0501                	.insn	2, 0x0501
     7a4:	0301                	.insn	2, 0x0301
     7a6:	0901                	.insn	2, 0x0901
     7a8:	000e                	.insn	2, 0x000e
     7aa:	0501                	.insn	2, 0x0501
     7ac:	030c                	.insn	2, 0x030c
     7ae:	0910                	.insn	2, 0x0910
     7b0:	000a                	.insn	2, 0x000a
     7b2:	0501                	.insn	2, 0x0501
     7b4:	0305                	.insn	2, 0x0305
     7b6:	00440907          	.insn	4, 0x00440907
     7ba:	0501                	.insn	2, 0x0501
     7bc:	09090313          	addi	t1,s2,144
     7c0:	000e                	.insn	2, 0x000e
     7c2:	0501                	.insn	2, 0x0501
     7c4:	0305                	.insn	2, 0x0305
     7c6:	0902                	.insn	2, 0x0902
     7c8:	0012                	.insn	2, 0x0012
     7ca:	0301                	.insn	2, 0x0301
     7cc:	0901                	.insn	2, 0x0901
     7ce:	000a                	.insn	2, 0x000a
     7d0:	0301                	.insn	2, 0x0301
     7d2:	0901                	.insn	2, 0x0901
     7d4:	000a                	.insn	2, 0x000a
     7d6:	0301                	.insn	2, 0x0301
     7d8:	0901                	.insn	2, 0x0901
     7da:	000a                	.insn	2, 0x000a
     7dc:	0301                	.insn	2, 0x0301
     7de:	0901                	.insn	2, 0x0901
     7e0:	000a                	.insn	2, 0x000a
     7e2:	0301                	.insn	2, 0x0301
     7e4:	000a0903          	lb	s2,0(s4)
     7e8:	0301                	.insn	2, 0x0301
     7ea:	001c0907          	.insn	4, 0x001c0907
     7ee:	0301                	.insn	2, 0x0301
     7f0:	0901                	.insn	2, 0x0901
     7f2:	000a                	.insn	2, 0x000a
     7f4:	0301                	.insn	2, 0x0301
     7f6:	0902                	.insn	2, 0x0902
     7f8:	0014                	.insn	2, 0x0014
     7fa:	0301                	.insn	2, 0x0301
     7fc:	0902                	.insn	2, 0x0902
     7fe:	000a                	.insn	2, 0x000a
     800:	0501                	.insn	2, 0x0501
     802:	0309                	.insn	2, 0x0309
     804:	0901                	.insn	2, 0x0901
     806:	0006                	.insn	2, 0x0006
     808:	0501                	.insn	2, 0x0501
     80a:	030c                	.insn	2, 0x030c
     80c:	00040903          	lb	s2,0(s0)
     810:	0301                	.insn	2, 0x0301
     812:	0901                	.insn	2, 0x0901
     814:	000a                	.insn	2, 0x000a
     816:	0501                	.insn	2, 0x0501
     818:	0311                	.insn	2, 0x0311
     81a:	0902                	.insn	2, 0x0902
     81c:	000e                	.insn	2, 0x000e
     81e:	0501                	.insn	2, 0x0501
     820:	0316                	.insn	2, 0x0316
     822:	0902                	.insn	2, 0x0902
     824:	0004                	.insn	2, 0x0004
     826:	0501                	.insn	2, 0x0501
     828:	0318                	.insn	2, 0x0318
     82a:	0901                	.insn	2, 0x0901
     82c:	0006                	.insn	2, 0x0006
     82e:	0501                	.insn	2, 0x0501
     830:	030d                	.insn	2, 0x030d
     832:	0902                	.insn	2, 0x0902
     834:	0012                	.insn	2, 0x0012
     836:	0501                	.insn	2, 0x0501
     838:	0902030f          	.insn	4, 0x0902030f
     83c:	0006                	.insn	2, 0x0006
     83e:	0001                	.insn	2, 0x0001
     840:	0402                	.insn	2, 0x0402
     842:	0601                	.insn	2, 0x0601
     844:	12090003          	lb	zero,288(s2)
     848:	0100                	.insn	2, 0x0100
     84a:	0505                	.insn	2, 0x0505
     84c:	0306                	.insn	2, 0x0306
     84e:	090e                	.insn	2, 0x090e
     850:	0004                	.insn	2, 0x0004
     852:	0301                	.insn	2, 0x0301
     854:	0901                	.insn	2, 0x0901
     856:	0014                	.insn	2, 0x0014
     858:	0301                	.insn	2, 0x0301
     85a:	0901                	.insn	2, 0x0901
     85c:	001c                	.insn	2, 0x001c
     85e:	0301                	.insn	2, 0x0301
     860:	0902                	.insn	2, 0x0902
     862:	001c                	.insn	2, 0x001c
     864:	0301                	.insn	2, 0x0301
     866:	0902                	.insn	2, 0x0902
     868:	0010                	.insn	2, 0x0010
     86a:	0001                	.insn	2, 0x0001
     86c:	0402                	.insn	2, 0x0402
     86e:	0601                	.insn	2, 0x0601
     870:	18090003          	lb	zero,384(s2)
     874:	0100                	.insn	2, 0x0100
     876:	0905                	.insn	2, 0x0905
     878:	0306                	.insn	2, 0x0306
     87a:	00100907          	.insn	4, 0x00100907
     87e:	0501                	.insn	2, 0x0501
     880:	030d                	.insn	2, 0x030d
     882:	0902                	.insn	2, 0x0902
     884:	000a                	.insn	2, 0x000a
     886:	0501                	.insn	2, 0x0501
     888:	0310                	.insn	2, 0x0310
     88a:	00040903          	lb	s2,0(s0)
     88e:	0301                	.insn	2, 0x0301
     890:	0901                	.insn	2, 0x0901
     892:	000a                	.insn	2, 0x000a
     894:	0501                	.insn	2, 0x0501
     896:	0315                	.insn	2, 0x0315
     898:	0902                	.insn	2, 0x0902
     89a:	000e                	.insn	2, 0x000e
     89c:	0501                	.insn	2, 0x0501
     89e:	031a                	.insn	2, 0x031a
     8a0:	0902                	.insn	2, 0x0902
     8a2:	0004                	.insn	2, 0x0004
     8a4:	0501                	.insn	2, 0x0501
     8a6:	031c                	.insn	2, 0x031c
     8a8:	0901                	.insn	2, 0x0901
     8aa:	0006                	.insn	2, 0x0006
     8ac:	0501                	.insn	2, 0x0501
     8ae:	0311                	.insn	2, 0x0311
     8b0:	0902                	.insn	2, 0x0902
     8b2:	0012                	.insn	2, 0x0012
     8b4:	0501                	.insn	2, 0x0501
     8b6:	09020313          	addi	t1,tp,144 # 90 <_reset_handler+0x10>
     8ba:	0006                	.insn	2, 0x0006
     8bc:	0001                	.insn	2, 0x0001
     8be:	0402                	.insn	2, 0x0402
     8c0:	0601                	.insn	2, 0x0601
     8c2:	12090003          	lb	zero,288(s2)
     8c6:	0100                	.insn	2, 0x0100
     8c8:	0905                	.insn	2, 0x0905
     8ca:	0306                	.insn	2, 0x0306
     8cc:	0911                	.insn	2, 0x0911
     8ce:	0004                	.insn	2, 0x0004
     8d0:	0501                	.insn	2, 0x0501
     8d2:	0305                	.insn	2, 0x0305
     8d4:	0905                	.insn	2, 0x0905
     8d6:	0002                	.insn	2, 0x0002
     8d8:	0501                	.insn	2, 0x0501
     8da:	09010313          	addi	t1,sp,144 # 405a4 <_peripheral_HLS_CONTROL_end+0x5a4>
     8de:	000a                	.insn	2, 0x000a
     8e0:	0501                	.insn	2, 0x0501
     8e2:	000a                	.insn	2, 0x000a
     8e4:	0402                	.insn	2, 0x0402
     8e6:	0301                	.insn	2, 0x0301
     8e8:	0900                	.insn	2, 0x0900
     8ea:	0014                	.insn	2, 0x0014
     8ec:	0301                	.insn	2, 0x0301
     8ee:	0901                	.insn	2, 0x0901
     8f0:	0008                	.insn	2, 0x0008
     8f2:	0501                	.insn	2, 0x0501
     8f4:	0308                	.insn	2, 0x0308
     8f6:	0900                	.insn	2, 0x0900
     8f8:	000c                	.insn	2, 0x000c
     8fa:	0501                	.insn	2, 0x0501
     8fc:	0309                	.insn	2, 0x0309
     8fe:	0901                	.insn	2, 0x0901
     900:	0002                	.insn	2, 0x0002
     902:	0501                	.insn	2, 0x0501
     904:	0310                	.insn	2, 0x0310
     906:	0901                	.insn	2, 0x0901
     908:	000a                	.insn	2, 0x000a
     90a:	0501                	.insn	2, 0x0501
     90c:	0309                	.insn	2, 0x0309
     90e:	00040903          	lb	s2,0(s0)
     912:	0501                	.insn	2, 0x0501
     914:	030c                	.insn	2, 0x030c
     916:	0904                	.insn	2, 0x0904
     918:	000a                	.insn	2, 0x000a
     91a:	0501                	.insn	2, 0x0501
     91c:	0301                	.insn	2, 0x0301
     91e:	0902                	.insn	2, 0x0902
     920:	0002                	.insn	2, 0x0002
     922:	0901                	.insn	2, 0x0901
     924:	001c                	.insn	2, 0x001c
     926:	0100                	.insn	2, 0x0100
     928:	9901                	.insn	2, 0x9901
     92a:	0001                	.insn	2, 0x0001
     92c:	0500                	.insn	2, 0x0500
     92e:	0400                	.insn	2, 0x0400
     930:	2e00                	.insn	2, 0x2e00
     932:	0000                	.insn	2, 0x
     934:	0100                	.insn	2, 0x0100
     936:	0101                	.insn	2, 0x0101
     938:	000d0efb          	.insn	4, 0x000d0efb
     93c:	0101                	.insn	2, 0x0101
     93e:	0101                	.insn	2, 0x0101
     940:	0000                	.insn	2, 0x
     942:	0100                	.insn	2, 0x0100
     944:	0000                	.insn	2, 0x
     946:	0101                	.insn	2, 0x0101
     948:	1f01                	.insn	2, 0x1f01
     94a:	0b02                	.insn	2, 0x0b02
     94c:	0000                	.insn	2, 0x
     94e:	7600                	.insn	2, 0x7600
     950:	0000                	.insn	2, 0x
     952:	0200                	.insn	2, 0x0200
     954:	1f01                	.insn	2, 0x1f01
     956:	0f02                	.insn	2, 0x0f02
     958:	c702                	.insn	2, 0xc702
     95a:	0002                	.insn	2, 0x0002
     95c:	0100                	.insn	2, 0x0100
     95e:	000002c7          	.insn	4, 0x02c7
     962:	0001                	.insn	2, 0x0001
     964:	0205                	.insn	2, 0x0205
     966:	0000                	.insn	2, 0x
     968:	0000                	.insn	2, 0x
     96a:	03010b03          	lb	s6,48(sp)
     96e:	0902                	.insn	2, 0x0902
     970:	0004                	.insn	2, 0x0004
     972:	0901                	.insn	2, 0x0901
     974:	007c                	.insn	2, 0x007c
     976:	0100                	.insn	2, 0x0100
     978:	0001                	.insn	2, 0x0001
     97a:	0205                	.insn	2, 0x0205
     97c:	0080                	.insn	2, 0x0080
     97e:	0000                	.insn	2, 0x
     980:	03011903          	lh	s2,48(sp)
     984:	0901                	.insn	2, 0x0901
     986:	0004                	.insn	2, 0x0004
     988:	0301                	.insn	2, 0x0301
     98a:	0901                	.insn	2, 0x0901
     98c:	0004                	.insn	2, 0x0004
     98e:	0301                	.insn	2, 0x0301
     990:	0901                	.insn	2, 0x0901
     992:	0004                	.insn	2, 0x0004
     994:	0301                	.insn	2, 0x0301
     996:	0901                	.insn	2, 0x0901
     998:	0004                	.insn	2, 0x0004
     99a:	0301                	.insn	2, 0x0301
     99c:	0901                	.insn	2, 0x0901
     99e:	0004                	.insn	2, 0x0004
     9a0:	0301                	.insn	2, 0x0301
     9a2:	0901                	.insn	2, 0x0901
     9a4:	0004                	.insn	2, 0x0004
     9a6:	0301                	.insn	2, 0x0301
     9a8:	0901                	.insn	2, 0x0901
     9aa:	0004                	.insn	2, 0x0004
     9ac:	0301                	.insn	2, 0x0301
     9ae:	0901                	.insn	2, 0x0901
     9b0:	0004                	.insn	2, 0x0004
     9b2:	0301                	.insn	2, 0x0301
     9b4:	0901                	.insn	2, 0x0901
     9b6:	0004                	.insn	2, 0x0004
     9b8:	0301                	.insn	2, 0x0301
     9ba:	0901                	.insn	2, 0x0901
     9bc:	0004                	.insn	2, 0x0004
     9be:	0301                	.insn	2, 0x0301
     9c0:	0901                	.insn	2, 0x0901
     9c2:	0004                	.insn	2, 0x0004
     9c4:	0301                	.insn	2, 0x0301
     9c6:	0901                	.insn	2, 0x0901
     9c8:	0004                	.insn	2, 0x0004
     9ca:	0301                	.insn	2, 0x0301
     9cc:	0901                	.insn	2, 0x0901
     9ce:	0004                	.insn	2, 0x0004
     9d0:	0301                	.insn	2, 0x0301
     9d2:	0901                	.insn	2, 0x0901
     9d4:	0004                	.insn	2, 0x0004
     9d6:	0301                	.insn	2, 0x0301
     9d8:	0901                	.insn	2, 0x0901
     9da:	0004                	.insn	2, 0x0004
     9dc:	0301                	.insn	2, 0x0301
     9de:	0901                	.insn	2, 0x0901
     9e0:	0004                	.insn	2, 0x0004
     9e2:	0301                	.insn	2, 0x0301
     9e4:	0901                	.insn	2, 0x0901
     9e6:	0004                	.insn	2, 0x0004
     9e8:	0301                	.insn	2, 0x0301
     9ea:	0901                	.insn	2, 0x0901
     9ec:	0004                	.insn	2, 0x0004
     9ee:	0301                	.insn	2, 0x0301
     9f0:	0901                	.insn	2, 0x0901
     9f2:	0004                	.insn	2, 0x0004
     9f4:	0301                	.insn	2, 0x0301
     9f6:	0901                	.insn	2, 0x0901
     9f8:	0004                	.insn	2, 0x0004
     9fa:	0301                	.insn	2, 0x0301
     9fc:	0901                	.insn	2, 0x0901
     9fe:	0004                	.insn	2, 0x0004
     a00:	0301                	.insn	2, 0x0301
     a02:	0901                	.insn	2, 0x0901
     a04:	0004                	.insn	2, 0x0004
     a06:	0301                	.insn	2, 0x0301
     a08:	0901                	.insn	2, 0x0901
     a0a:	0004                	.insn	2, 0x0004
     a0c:	0301                	.insn	2, 0x0301
     a0e:	0901                	.insn	2, 0x0901
     a10:	0004                	.insn	2, 0x0004
     a12:	0301                	.insn	2, 0x0301
     a14:	0901                	.insn	2, 0x0901
     a16:	0004                	.insn	2, 0x0004
     a18:	0301                	.insn	2, 0x0301
     a1a:	0901                	.insn	2, 0x0901
     a1c:	0004                	.insn	2, 0x0004
     a1e:	0301                	.insn	2, 0x0301
     a20:	0901                	.insn	2, 0x0901
     a22:	0004                	.insn	2, 0x0004
     a24:	0301                	.insn	2, 0x0301
     a26:	0901                	.insn	2, 0x0901
     a28:	0004                	.insn	2, 0x0004
     a2a:	0301                	.insn	2, 0x0301
     a2c:	0901                	.insn	2, 0x0901
     a2e:	0004                	.insn	2, 0x0004
     a30:	0301                	.insn	2, 0x0301
     a32:	0901                	.insn	2, 0x0901
     a34:	0004                	.insn	2, 0x0004
     a36:	0301                	.insn	2, 0x0301
     a38:	00040907          	.insn	4, 0x00040907
     a3c:	0301                	.insn	2, 0x0301
     a3e:	0901                	.insn	2, 0x0901
     a40:	0004                	.insn	2, 0x0004
     a42:	0301                	.insn	2, 0x0301
     a44:	0901                	.insn	2, 0x0901
     a46:	0004                	.insn	2, 0x0004
     a48:	0301                	.insn	2, 0x0301
     a4a:	0901                	.insn	2, 0x0901
     a4c:	0004                	.insn	2, 0x0004
     a4e:	0301                	.insn	2, 0x0301
     a50:	00040903          	lb	s2,0(s0)
     a54:	0301                	.insn	2, 0x0301
     a56:	0904                	.insn	2, 0x0904
     a58:	0004                	.insn	2, 0x0004
     a5a:	0301                	.insn	2, 0x0301
     a5c:	0901                	.insn	2, 0x0901
     a5e:	0008                	.insn	2, 0x0008
     a60:	0301                	.insn	2, 0x0301
     a62:	00040907          	.insn	4, 0x00040907
     a66:	0301                	.insn	2, 0x0301
     a68:	00080903          	lb	s2,0(a6)
     a6c:	0301                	.insn	2, 0x0301
     a6e:	00040903          	lb	s2,0(s0)
     a72:	0901                	.insn	2, 0x0901
     a74:	0004                	.insn	2, 0x0004
     a76:	0100                	.insn	2, 0x0100
     a78:	0001                	.insn	2, 0x0001
     a7a:	0205                	.insn	2, 0x0205
     a7c:	012c                	.insn	2, 0x012c
     a7e:	0000                	.insn	2, 0x
     a80:	0100de03          	lhu	t3,16(ra)
     a84:	04090103          	lb	sp,64(s2)
     a88:	0100                	.insn	2, 0x0100
     a8a:	08090103          	lb	sp,128(s2)
     a8e:	0100                	.insn	2, 0x0100
     a90:	04090303          	lb	t1,64(s2)
     a94:	0100                	.insn	2, 0x0100
     a96:	04090103          	lb	sp,64(s2)
     a9a:	0100                	.insn	2, 0x0100
     a9c:	04090203          	lb	tp,64(s2)
     aa0:	0100                	.insn	2, 0x0100
     aa2:	04090303          	lb	t1,64(s2)
     aa6:	0100                	.insn	2, 0x0100
     aa8:	04090103          	lb	sp,64(s2)
     aac:	0100                	.insn	2, 0x0100
     aae:	08090103          	lb	sp,128(s2)
     ab2:	0100                	.insn	2, 0x0100
     ab4:	04090403          	lb	s0,64(s2)
     ab8:	0100                	.insn	2, 0x0100
     aba:	04090403          	lb	s0,64(s2)
     abe:	0100                	.insn	2, 0x0100
     ac0:	0409                	.insn	2, 0x0409
     ac2:	0000                	.insn	2, 0x
     ac4:	0101                	.insn	2, 0x0101
     ac6:	000019db          	.insn	4, 0x19db
     aca:	0005                	.insn	2, 0x0005
     acc:	0004                	.insn	2, 0x0004
     ace:	00000057          	.insn	4, 0x0057
     ad2:	0101                	.insn	2, 0x0101
     ad4:	fb01                	.insn	2, 0xfb01
     ad6:	0d0e                	.insn	2, 0x0d0e
     ad8:	0100                	.insn	2, 0x0100
     ada:	0101                	.insn	2, 0x0101
     adc:	0001                	.insn	2, 0x0001
     ade:	0000                	.insn	2, 0x
     ae0:	0001                	.insn	2, 0x0001
     ae2:	0100                	.insn	2, 0x0100
     ae4:	0101                	.insn	2, 0x0101
     ae6:	061f 02d1 0000      	.insn	6, 0x02d1061f
     aec:	0072                	.insn	2, 0x0072
     aee:	0000                	.insn	2, 0x
     af0:	0311                	.insn	2, 0x0311
     af2:	0000                	.insn	2, 0x
     af4:	0346                	.insn	2, 0x0346
     af6:	0000                	.insn	2, 0x
     af8:	0374                	.insn	2, 0x0374
     afa:	0000                	.insn	2, 0x
     afc:	024d                	.insn	2, 0x024d
     afe:	0000                	.insn	2, 0x
     b00:	0102                	.insn	2, 0x0102
     b02:	021f 070f 0309      	.insn	6, 0x0309070f021f
     b08:	0000                	.insn	2, 0x
     b0a:	0901                	.insn	2, 0x0901
     b0c:	01000003          	lb	zero,16(zero) # 10 <_vector_table_start+0x10>
     b10:	039e                	.insn	2, 0x039e
     b12:	0000                	.insn	2, 0x
     b14:	8602                	.insn	2, 0x8602
     b16:	0002                	.insn	2, 0x0002
     b18:	0200                	.insn	2, 0x0200
     b1a:	0000026b          	.insn	4, 0x026b
     b1e:	00027c03          	.insn	4, 0x00027c03
     b22:	0400                	.insn	2, 0x0400
     b24:	000003a7          	.insn	4, 0x03a7
     b28:	0505                	.insn	2, 0x0505
     b2a:	0001                	.insn	2, 0x0001
     b2c:	0205                	.insn	2, 0x0205
     b2e:	0c78                	.insn	2, 0x0c78
     b30:	0000                	.insn	2, 0x
     b32:	01018103          	lb	sp,16(gp)
     b36:	0305                	.insn	2, 0x0305
     b38:	00090103          	lb	sp,0(s2)
     b3c:	0100                	.insn	2, 0x0100
     b3e:	0605                	.insn	2, 0x0605
     b40:	0306                	.insn	2, 0x0306
     b42:	0900                	.insn	2, 0x0900
     b44:	0000                	.insn	2, 0x
     b46:	0501                	.insn	2, 0x0501
     b48:	0605                	.insn	2, 0x0605
     b4a:	04090103          	lb	sp,64(s2)
     b4e:	0100                	.insn	2, 0x0100
     b50:	1a05                	.insn	2, 0x1a05
     b52:	0306                	.insn	2, 0x0306
     b54:	0900                	.insn	2, 0x0900
     b56:	0000                	.insn	2, 0x
     b58:	0501                	.insn	2, 0x0501
     b5a:	0301                	.insn	2, 0x0301
     b5c:	0902                	.insn	2, 0x0902
     b5e:	0008                	.insn	2, 0x0008
     b60:	0601                	.insn	2, 0x0601
     b62:	04090403          	lb	s0,64(s2)
     b66:	0100                	.insn	2, 0x0100
     b68:	0305                	.insn	2, 0x0305
     b6a:	00090103          	lb	sp,0(s2)
     b6e:	0100                	.insn	2, 0x0100
     b70:	1405                	.insn	2, 0x1405
     b72:	00090003          	lb	zero,0(s2)
     b76:	0100                	.insn	2, 0x0100
     b78:	2205                	.insn	2, 0x2205
     b7a:	00090003          	lb	zero,0(s2)
     b7e:	0100                	.insn	2, 0x0100
     b80:	2d05                	.insn	2, 0x2d05
     b82:	00090003          	lb	zero,0(s2)
     b86:	0100                	.insn	2, 0x0100
     b88:	0105                	.insn	2, 0x0105
     b8a:	0306                	.insn	2, 0x0306
     b8c:	0901                	.insn	2, 0x0901
     b8e:	0000                	.insn	2, 0x
     b90:	0601                	.insn	2, 0x0601
     b92:	09019703          	lh	a4,144(gp)
     b96:	0004                	.insn	2, 0x0004
     b98:	0601                	.insn	2, 0x0601
     b9a:	34090003          	lb	zero,832(s2)
     b9e:	0100                	.insn	2, 0x0100
     ba0:	0305                	.insn	2, 0x0305
     ba2:	0306                	.insn	2, 0x0306
     ba4:	0901                	.insn	2, 0x0901
     ba6:	0004                	.insn	2, 0x0004
     ba8:	0301                	.insn	2, 0x0301
     baa:	0901                	.insn	2, 0x0901
     bac:	0000                	.insn	2, 0x
     bae:	0301                	.insn	2, 0x0301
     bb0:	00000903          	lb	s2,0(zero) # 0 <_vector_table_start>
     bb4:	0501                	.insn	2, 0x0501
     bb6:	0601                	.insn	2, 0x0601
     bb8:	00097b03          	.insn	4, 0x00097b03
     bbc:	0100                	.insn	2, 0x0100
     bbe:	0f05                	.insn	2, 0x0f05
     bc0:	10090a03          	lb	s4,256(s2)
     bc4:	0100                	.insn	2, 0x0100
     bc6:	0d05                	.insn	2, 0x0d05
     bc8:	04094f03          	lbu	t5,64(s2)
     bcc:	0100                	.insn	2, 0x0100
     bce:	0605                	.insn	2, 0x0605
     bd0:	04092c03          	lw	s8,64(s2)
     bd4:	0100                	.insn	2, 0x0100
     bd6:	0505                	.insn	2, 0x0505
     bd8:	0306                	.insn	2, 0x0306
     bda:	0901                	.insn	2, 0x0901
     bdc:	0004                	.insn	2, 0x0004
     bde:	0501                	.insn	2, 0x0501
     be0:	0003060b          	.insn	4, 0x0003060b
     be4:	0009                	.insn	2, 0x0009
     be6:	0100                	.insn	2, 0x0100
     be8:	0305                	.insn	2, 0x0305
     bea:	0306                	.insn	2, 0x0306
     bec:	0904                	.insn	2, 0x0904
     bee:	0004                	.insn	2, 0x0004
     bf0:	0501                	.insn	2, 0x0501
     bf2:	0606                	.insn	2, 0x0606
     bf4:	00090003          	lb	zero,0(s2)
     bf8:	0100                	.insn	2, 0x0100
     bfa:	3605                	.insn	2, 0x3605
     bfc:	0c090303          	lb	t1,192(s2)
     c00:	0100                	.insn	2, 0x0100
     c02:	1205                	.insn	2, 0x1205
     c04:	14090003          	lb	zero,320(s2)
     c08:	0100                	.insn	2, 0x0100
     c0a:	1405                	.insn	2, 0x1405
     c0c:	08090203          	lb	tp,128(s2)
     c10:	0100                	.insn	2, 0x0100
     c12:	0200                	.insn	2, 0x0200
     c14:	0104                	.insn	2, 0x0104
     c16:	08090003          	lb	zero,128(s2)
     c1a:	0100                	.insn	2, 0x0100
     c1c:	0d05                	.insn	2, 0x0d05
     c1e:	04097f03          	.insn	4, 0x04097f03
     c22:	0100                	.insn	2, 0x0100
     c24:	0505                	.insn	2, 0x0505
     c26:	0306                	.insn	2, 0x0306
     c28:	097d                	.insn	2, 0x097d
     c2a:	0004                	.insn	2, 0x0004
     c2c:	0501                	.insn	2, 0x0501
     c2e:	09010307          	.insn	4, 0x09010307
     c32:	0000                	.insn	2, 0x
     c34:	0501                	.insn	2, 0x0501
     c36:	00030627          	.insn	4, 0x00030627
     c3a:	0009                	.insn	2, 0x0009
     c3c:	0100                	.insn	2, 0x0100
     c3e:	1205                	.insn	2, 0x1205
     c40:	04090003          	lb	zero,64(s2)
     c44:	0100                	.insn	2, 0x0100
     c46:	0705                	.insn	2, 0x0705
     c48:	0306                	.insn	2, 0x0306
     c4a:	0901                	.insn	2, 0x0901
     c4c:	0004                	.insn	2, 0x0004
     c4e:	0501                	.insn	2, 0x0501
     c50:	0612                	.insn	2, 0x0612
     c52:	00090003          	lb	zero,0(s2)
     c56:	0100                	.insn	2, 0x0100
     c58:	0200                	.insn	2, 0x0200
     c5a:	0104                	.insn	2, 0x0104
     c5c:	10090003          	lb	zero,256(s2)
     c60:	0100                	.insn	2, 0x0100
     c62:	0e05                	.insn	2, 0x0e05
     c64:	0200                	.insn	2, 0x0200
     c66:	0804                	.insn	2, 0x0804
     c68:	04090003          	lb	zero,64(s2)
     c6c:	0100                	.insn	2, 0x0100
     c6e:	1205                	.insn	2, 0x1205
     c70:	0200                	.insn	2, 0x0200
     c72:	0804                	.insn	2, 0x0804
     c74:	04090003          	lb	zero,64(s2)
     c78:	0100                	.insn	2, 0x0100
     c7a:	0705                	.insn	2, 0x0705
     c7c:	0200                	.insn	2, 0x0200
     c7e:	0804                	.insn	2, 0x0804
     c80:	0306                	.insn	2, 0x0306
     c82:	0901                	.insn	2, 0x0901
     c84:	0008                	.insn	2, 0x0008
     c86:	0501                	.insn	2, 0x0501
     c88:	000d                	.insn	2, 0x000d
     c8a:	0402                	.insn	2, 0x0402
     c8c:	0608                	.insn	2, 0x0608
     c8e:	00090003          	lb	zero,0(s2)
     c92:	0100                	.insn	2, 0x0100
     c94:	1405                	.insn	2, 0x1405
     c96:	0200                	.insn	2, 0x0200
     c98:	0804                	.insn	2, 0x0804
     c9a:	0306                	.insn	2, 0x0306
     c9c:	0901                	.insn	2, 0x0901
     c9e:	0004                	.insn	2, 0x0004
     ca0:	0501                	.insn	2, 0x0501
     ca2:	09030303          	lb	t1,144(t1)
     ca6:	0004                	.insn	2, 0x0004
     ca8:	0301                	.insn	2, 0x0301
     caa:	7fba                	.insn	2, 0x7fba
     cac:	0009                	.insn	2, 0x0009
     cae:	0100                	.insn	2, 0x0100
     cb0:	0f05                	.insn	2, 0x0f05
     cb2:	0306                	.insn	2, 0x0306
     cb4:	0900                	.insn	2, 0x0900
     cb6:	0000                	.insn	2, 0x
     cb8:	0501                	.insn	2, 0x0501
     cba:	0306                	.insn	2, 0x0306
     cbc:	0900                	.insn	2, 0x0900
     cbe:	0004                	.insn	2, 0x0004
     cc0:	0501                	.insn	2, 0x0501
     cc2:	0d030603          	lb	a2,208(t1)
     cc6:	0409                	.insn	2, 0x0409
     cc8:	0100                	.insn	2, 0x0100
     cca:	0605                	.insn	2, 0x0605
     ccc:	0306                	.insn	2, 0x0306
     cce:	0900                	.insn	2, 0x0900
     cd0:	0000                	.insn	2, 0x
     cd2:	0501                	.insn	2, 0x0501
     cd4:	0605                	.insn	2, 0x0605
     cd6:	04090103          	lb	sp,64(s2)
     cda:	0100                	.insn	2, 0x0100
     cdc:	0805                	.insn	2, 0x0805
     cde:	0306                	.insn	2, 0x0306
     ce0:	0900                	.insn	2, 0x0900
     ce2:	0000                	.insn	2, 0x
     ce4:	0501                	.insn	2, 0x0501
     ce6:	0324                	.insn	2, 0x0324
     ce8:	0900                	.insn	2, 0x0900
     cea:	0004                	.insn	2, 0x0004
     cec:	0501                	.insn	2, 0x0501
     cee:	0605                	.insn	2, 0x0605
     cf0:	04090603          	lb	a2,64(s2)
     cf4:	0100                	.insn	2, 0x0100
     cf6:	0805                	.insn	2, 0x0805
     cf8:	0306                	.insn	2, 0x0306
     cfa:	0900                	.insn	2, 0x0900
     cfc:	0000                	.insn	2, 0x
     cfe:	0501                	.insn	2, 0x0501
     d00:	060a                	.insn	2, 0x060a
     d02:	08090603          	lb	a2,128(s2)
     d06:	0100                	.insn	2, 0x0100
     d08:	0d05                	.insn	2, 0x0d05
     d0a:	0306                	.insn	2, 0x0306
     d0c:	0900                	.insn	2, 0x0900
     d0e:	0000                	.insn	2, 0x
     d10:	0501                	.insn	2, 0x0501
     d12:	04030607          	.insn	4, 0x04030607
     d16:	0809                	.insn	2, 0x0809
     d18:	0100                	.insn	2, 0x0100
     d1a:	1205                	.insn	2, 0x1205
     d1c:	0306                	.insn	2, 0x0306
     d1e:	0900                	.insn	2, 0x0900
     d20:	0000                	.insn	2, 0x
     d22:	0501                	.insn	2, 0x0501
     d24:	04030603          	lb	a2,64(t1)
     d28:	0809                	.insn	2, 0x0809
     d2a:	0100                	.insn	2, 0x0100
     d2c:	1205                	.insn	2, 0x1205
     d2e:	0306                	.insn	2, 0x0306
     d30:	097c                	.insn	2, 0x097c
     d32:	0000                	.insn	2, 0x
     d34:	0501                	.insn	2, 0x0501
     d36:	030e                	.insn	2, 0x030e
     d38:	0900                	.insn	2, 0x0900
     d3a:	0004                	.insn	2, 0x0004
     d3c:	0501                	.insn	2, 0x0501
     d3e:	0605                	.insn	2, 0x0605
     d40:	04090503          	lb	a0,64(s2)
     d44:	0100                	.insn	2, 0x0100
     d46:	1d05                	.insn	2, 0x1d05
     d48:	0306                	.insn	2, 0x0306
     d4a:	00000943          	.insn	4, 0x0943
     d4e:	0501                	.insn	2, 0x0501
     d50:	0308                	.insn	2, 0x0308
     d52:	093d                	.insn	2, 0x093d
     d54:	0004                	.insn	2, 0x0004
     d56:	0501                	.insn	2, 0x0501
     d58:	060a                	.insn	2, 0x060a
     d5a:	04090303          	lb	t1,64(s2)
     d5e:	0100                	.insn	2, 0x0100
     d60:	1405                	.insn	2, 0x1405
     d62:	0306                	.insn	2, 0x0306
     d64:	0900                	.insn	2, 0x0900
     d66:	0000                	.insn	2, 0x
     d68:	0501                	.insn	2, 0x0501
     d6a:	030d                	.insn	2, 0x030d
     d6c:	0900                	.insn	2, 0x0900
     d6e:	0004                	.insn	2, 0x0004
     d70:	0501                	.insn	2, 0x0501
     d72:	01030607          	.insn	4, 0x01030607
     d76:	0409                	.insn	2, 0x0409
     d78:	0100                	.insn	2, 0x0100
     d7a:	1205                	.insn	2, 0x1205
     d7c:	0306                	.insn	2, 0x0306
     d7e:	0900                	.insn	2, 0x0900
     d80:	0000                	.insn	2, 0x
     d82:	0501                	.insn	2, 0x0501
     d84:	030e                	.insn	2, 0x030e
     d86:	0900                	.insn	2, 0x0900
     d88:	0008                	.insn	2, 0x0008
     d8a:	0501                	.insn	2, 0x0501
     d8c:	0312                	.insn	2, 0x0312
     d8e:	0900                	.insn	2, 0x0900
     d90:	0004                	.insn	2, 0x0004
     d92:	0501                	.insn	2, 0x0501
     d94:	07030603          	lb	a2,112(t1)
     d98:	0809                	.insn	2, 0x0809
     d9a:	0100                	.insn	2, 0x0100
     d9c:	097fb503          	.insn	4, 0x097fb503
     da0:	0000                	.insn	2, 0x
     da2:	0301                	.insn	2, 0x0301
     da4:	00000903          	lb	s2,0(zero) # 0 <_vector_table_start>
     da8:	0501                	.insn	2, 0x0501
     daa:	0606                	.insn	2, 0x0606
     dac:	00090003          	lb	zero,0(s2)
     db0:	0100                	.insn	2, 0x0100
     db2:	1c05                	.insn	2, 0x1c05
     db4:	0306                	.insn	2, 0x0306
     db6:	0901                	.insn	2, 0x0901
     db8:	0008                	.insn	2, 0x0008
     dba:	0501                	.insn	2, 0x0501
     dbc:	00df0303          	lb	t1,13(t5)
     dc0:	0809                	.insn	2, 0x0809
     dc2:	0100                	.insn	2, 0x0100
     dc4:	097fba03          	.insn	4, 0x097fba03
     dc8:	0000                	.insn	2, 0x
     dca:	0501                	.insn	2, 0x0501
     dcc:	0003060f          	.insn	4, 0x0003060f
     dd0:	0009                	.insn	2, 0x0009
     dd2:	0100                	.insn	2, 0x0100
     dd4:	0605                	.insn	2, 0x0605
     dd6:	04090003          	lb	zero,64(s2)
     dda:	0100                	.insn	2, 0x0100
     ddc:	0a05                	.insn	2, 0x0a05
     dde:	0c093603          	.insn	4, 0x0c093603
     de2:	0100                	.insn	2, 0x0100
     de4:	0505                	.insn	2, 0x0505
     de6:	0306                	.insn	2, 0x0306
     de8:	0004094b          	.insn	4, 0x0004094b
     dec:	0501                	.insn	2, 0x0501
     dee:	0608                	.insn	2, 0x0608
     df0:	00090003          	lb	zero,0(s2)
     df4:	0100                	.insn	2, 0x0100
     df6:	1905                	.insn	2, 0x1905
     df8:	0306                	.insn	2, 0x0306
     dfa:	00040903          	lb	s2,0(s0)
     dfe:	0601                	.insn	2, 0x0601
     e00:	08097d03          	.insn	4, 0x08097d03
     e04:	0100                	.insn	2, 0x0100
     e06:	04090303          	lb	t1,64(s2)
     e0a:	0100                	.insn	2, 0x0100
     e0c:	1205                	.insn	2, 0x1205
     e0e:	08090103          	lb	sp,128(s2)
     e12:	0100                	.insn	2, 0x0100
     e14:	1905                	.insn	2, 0x1905
     e16:	04097f03          	.insn	4, 0x04097f03
     e1a:	0100                	.insn	2, 0x0100
     e1c:	0705                	.insn	2, 0x0705
     e1e:	0306                	.insn	2, 0x0306
     e20:	0901                	.insn	2, 0x0901
     e22:	000c                	.insn	2, 0x000c
     e24:	0501                	.insn	2, 0x0501
     e26:	060e                	.insn	2, 0x060e
     e28:	00090003          	lb	zero,0(s2)
     e2c:	0100                	.insn	2, 0x0100
     e2e:	1205                	.insn	2, 0x1205
     e30:	04090003          	lb	zero,64(s2)
     e34:	0100                	.insn	2, 0x0100
     e36:	1905                	.insn	2, 0x1905
     e38:	0306                	.insn	2, 0x0306
     e3a:	097f 0008 0501 0335 	.insn	10, 0x0903033505010008097f
     e42:	0903 
     e44:	0004                	.insn	2, 0x0004
     e46:	0501                	.insn	2, 0x0501
     e48:	0624                	.insn	2, 0x0624
     e4a:	04090003          	lb	zero,64(s2)
     e4e:	0100                	.insn	2, 0x0100
     e50:	3505                	.insn	2, 0x3505
     e52:	04090003          	lb	zero,64(s2)
     e56:	0100                	.insn	2, 0x0100
     e58:	1205                	.insn	2, 0x1205
     e5a:	08090103          	lb	sp,128(s2)
     e5e:	0100                	.insn	2, 0x0100
     e60:	3505                	.insn	2, 0x3505
     e62:	04097f03          	.insn	4, 0x04097f03
     e66:	0100                	.insn	2, 0x0100
     e68:	0705                	.insn	2, 0x0705
     e6a:	0306                	.insn	2, 0x0306
     e6c:	0901                	.insn	2, 0x0901
     e6e:	0010                	.insn	2, 0x0010
     e70:	0501                	.insn	2, 0x0501
     e72:	060e                	.insn	2, 0x060e
     e74:	00090003          	lb	zero,0(s2)
     e78:	0100                	.insn	2, 0x0100
     e7a:	1205                	.insn	2, 0x1205
     e7c:	04090003          	lb	zero,64(s2)
     e80:	0100                	.insn	2, 0x0100
     e82:	3505                	.insn	2, 0x3505
     e84:	0306                	.insn	2, 0x0306
     e86:	097f 0008 0501 0624 	.insn	10, 0x0003062405010008097f
     e8e:	0003 
     e90:	0009                	.insn	2, 0x0009
     e92:	0100                	.insn	2, 0x0100
     e94:	0305                	.insn	2, 0x0305
     e96:	0306                	.insn	2, 0x0306
     e98:	0906                	.insn	2, 0x0906
     e9a:	0008                	.insn	2, 0x0008
     e9c:	0501                	.insn	2, 0x0501
     e9e:	0606                	.insn	2, 0x0606
     ea0:	00090003          	lb	zero,0(s2)
     ea4:	0100                	.insn	2, 0x0100
     ea6:	3505                	.insn	2, 0x3505
     ea8:	0306                	.insn	2, 0x0306
     eaa:	097a                	.insn	2, 0x097a
     eac:	0010                	.insn	2, 0x0010
     eae:	0501                	.insn	2, 0x0501
     eb0:	0624                	.insn	2, 0x0624
     eb2:	04090003          	lb	zero,64(s2)
     eb6:	0100                	.insn	2, 0x0100
     eb8:	0305                	.insn	2, 0x0305
     eba:	0306                	.insn	2, 0x0306
     ebc:	0906                	.insn	2, 0x0906
     ebe:	0004                	.insn	2, 0x0004
     ec0:	0501                	.insn	2, 0x0501
     ec2:	0606                	.insn	2, 0x0606
     ec4:	00090003          	lb	zero,0(s2)
     ec8:	0100                	.insn	2, 0x0100
     eca:	0505                	.insn	2, 0x0505
     ecc:	0306                	.insn	2, 0x0306
     ece:	0901                	.insn	2, 0x0901
     ed0:	0004                	.insn	2, 0x0004
     ed2:	0501                	.insn	2, 0x0501
     ed4:	0608                	.insn	2, 0x0608
     ed6:	00090003          	lb	zero,0(s2)
     eda:	0100                	.insn	2, 0x0100
     edc:	2b05                	.insn	2, 0x2b05
     ede:	04090003          	lb	zero,64(s2)
     ee2:	0100                	.insn	2, 0x0100
     ee4:	0a05                	.insn	2, 0x0a05
     ee6:	10090103          	lb	sp,256(s2)
     eea:	0100                	.insn	2, 0x0100
     eec:	0f05                	.insn	2, 0x0f05
     eee:	04090103          	lb	sp,64(s2)
     ef2:	0100                	.insn	2, 0x0100
     ef4:	0a05                	.insn	2, 0x0a05
     ef6:	0306                	.insn	2, 0x0306
     ef8:	00080907          	.insn	4, 0x00080907
     efc:	0301                	.insn	2, 0x0301
     efe:	00000903          	lb	s2,0(zero) # 0 <_vector_table_start>
     f02:	0501                	.insn	2, 0x0501
     f04:	060d                	.insn	2, 0x060d
     f06:	00090003          	lb	zero,0(s2)
     f0a:	0100                	.insn	2, 0x0100
     f0c:	0705                	.insn	2, 0x0705
     f0e:	0306                	.insn	2, 0x0306
     f10:	0904                	.insn	2, 0x0904
     f12:	0008                	.insn	2, 0x0008
     f14:	0501                	.insn	2, 0x0501
     f16:	0612                	.insn	2, 0x0612
     f18:	00090003          	lb	zero,0(s2)
     f1c:	0100                	.insn	2, 0x0100
     f1e:	0305                	.insn	2, 0x0305
     f20:	0306                	.insn	2, 0x0306
     f22:	0904                	.insn	2, 0x0904
     f24:	0010                	.insn	2, 0x0010
     f26:	0501                	.insn	2, 0x0501
     f28:	0606                	.insn	2, 0x0606
     f2a:	00090003          	lb	zero,0(s2)
     f2e:	0100                	.insn	2, 0x0100
     f30:	0305                	.insn	2, 0x0305
     f32:	0306                	.insn	2, 0x0306
     f34:	090c                	.insn	2, 0x090c
     f36:	0008                	.insn	2, 0x0008
     f38:	0301                	.insn	2, 0x0301
     f3a:	7fb5                	.insn	2, 0x7fb5
     f3c:	0009                	.insn	2, 0x0009
     f3e:	0100                	.insn	2, 0x0100
     f40:	00090303          	lb	t1,0(s2)
     f44:	0100                	.insn	2, 0x0100
     f46:	1d05                	.insn	2, 0x1d05
     f48:	0306                	.insn	2, 0x0306
     f4a:	0900                	.insn	2, 0x0900
     f4c:	0000                	.insn	2, 0x
     f4e:	0501                	.insn	2, 0x0501
     f50:	0306                	.insn	2, 0x0306
     f52:	0900                	.insn	2, 0x0900
     f54:	0004                	.insn	2, 0x0004
     f56:	0501                	.insn	2, 0x0501
     f58:	061c                	.insn	2, 0x061c
     f5a:	04090103          	lb	sp,64(s2)
     f5e:	0100                	.insn	2, 0x0100
     f60:	0705                	.insn	2, 0x0705
     f62:	0c090103          	lb	sp,192(s2)
     f66:	0100                	.insn	2, 0x0100
     f68:	2605                	.insn	2, 0x2605
     f6a:	18097f03          	.insn	4, 0x18097f03
     f6e:	0100                	.insn	2, 0x0100
     f70:	1c05                	.insn	2, 0x1c05
     f72:	00090003          	lb	zero,0(s2)
     f76:	0100                	.insn	2, 0x0100
     f78:	0705                	.insn	2, 0x0705
     f7a:	0306                	.insn	2, 0x0306
     f7c:	0901                	.insn	2, 0x0901
     f7e:	0008                	.insn	2, 0x0008
     f80:	0501                	.insn	2, 0x0501
     f82:	060a                	.insn	2, 0x060a
     f84:	1c090503          	lb	a0,448(s2)
     f88:	0100                	.insn	2, 0x0100
     f8a:	0305                	.insn	2, 0x0305
     f8c:	04090503          	lb	a0,64(s2)
     f90:	0100                	.insn	2, 0x0100
     f92:	0605                	.insn	2, 0x0605
     f94:	0306                	.insn	2, 0x0306
     f96:	0900                	.insn	2, 0x0900
     f98:	0000                	.insn	2, 0x
     f9a:	0501                	.insn	2, 0x0501
     f9c:	061c                	.insn	2, 0x061c
     f9e:	04090103          	lb	sp,64(s2)
     fa2:	0100                	.insn	2, 0x0100
     fa4:	1005                	.insn	2, 0x1005
     fa6:	0306                	.insn	2, 0x0306
     fa8:	0900                	.insn	2, 0x0900
     faa:	0000                	.insn	2, 0x
     fac:	0501                	.insn	2, 0x0501
     fae:	031c                	.insn	2, 0x031c
     fb0:	0900                	.insn	2, 0x0900
     fb2:	0004                	.insn	2, 0x0004
     fb4:	0501                	.insn	2, 0x0501
     fb6:	01030607          	.insn	4, 0x01030607
     fba:	0409                	.insn	2, 0x0409
     fbc:	0100                	.insn	2, 0x0100
     fbe:	1c05                	.insn	2, 0x1c05
     fc0:	0306                	.insn	2, 0x0306
     fc2:	097f 0004 0501 0307 	.insn	10, 0x0901030705010004097f
     fca:	0901 
     fcc:	0004                	.insn	2, 0x0004
     fce:	0501                	.insn	2, 0x0501
     fd0:	061c                	.insn	2, 0x061c
     fd2:	14097f03          	.insn	4, 0x14097f03
     fd6:	0100                	.insn	2, 0x0100
     fd8:	0105                	.insn	2, 0x0105
     fda:	0306                	.insn	2, 0x0306
     fdc:	00d4                	.insn	2, 0x00d4
     fde:	0409                	.insn	2, 0x0409
     fe0:	0100                	.insn	2, 0x0100
     fe2:	1905                	.insn	2, 0x1905
     fe4:	097fba03          	.insn	4, 0x097fba03
     fe8:	0038                	.insn	2, 0x0038
     fea:	0501                	.insn	2, 0x0501
     fec:	0900030f          	.insn	4, 0x0900030f
     ff0:	0004                	.insn	2, 0x0004
     ff2:	0501                	.insn	2, 0x0501
     ff4:	032a                	.insn	2, 0x032a
     ff6:	0900                	.insn	2, 0x0900
     ff8:	0004                	.insn	2, 0x0004
     ffa:	0501                	.insn	2, 0x0501
     ffc:	0341                	.insn	2, 0x0341
     ffe:	0900                	.insn	2, 0x0900
    1000:	0004                	.insn	2, 0x0004
    1002:	0501                	.insn	2, 0x0501
    1004:	09000337          	lui	t1,0x9000
    1008:	0004                	.insn	2, 0x0004
    100a:	0501                	.insn	2, 0x0501
    100c:	0619                	.insn	2, 0x0619
    100e:	04090303          	lb	t1,64(s2)
    1012:	0100                	.insn	2, 0x0100
    1014:	3505                	.insn	2, 0x3505
    1016:	0c090303          	lb	t1,192(s2)
    101a:	0100                	.insn	2, 0x0100
    101c:	2405                	.insn	2, 0x2405
    101e:	0306                	.insn	2, 0x0306
    1020:	0900                	.insn	2, 0x0900
    1022:	0000                	.insn	2, 0x
    1024:	0501                	.insn	2, 0x0501
    1026:	06030603          	lb	a2,96(t1) # 9000060 <_peripheral_PLIC_end+0x1000060>
    102a:	0409                	.insn	2, 0x0409
    102c:	0100                	.insn	2, 0x0100
    102e:	0605                	.insn	2, 0x0605
    1030:	0306                	.insn	2, 0x0306
    1032:	0900                	.insn	2, 0x0900
    1034:	0000                	.insn	2, 0x
    1036:	0501                	.insn	2, 0x0501
    1038:	0605                	.insn	2, 0x0605
    103a:	08090103          	lb	sp,128(s2)
    103e:	0100                	.insn	2, 0x0100
    1040:	0805                	.insn	2, 0x0805
    1042:	0306                	.insn	2, 0x0306
    1044:	0900                	.insn	2, 0x0900
    1046:	0000                	.insn	2, 0x
    1048:	0501                	.insn	2, 0x0501
    104a:	0605                	.insn	2, 0x0605
    104c:	04090603          	lb	a2,64(s2)
    1050:	0100                	.insn	2, 0x0100
    1052:	0805                	.insn	2, 0x0805
    1054:	0306                	.insn	2, 0x0306
    1056:	0900                	.insn	2, 0x0900
    1058:	0000                	.insn	2, 0x
    105a:	0501                	.insn	2, 0x0501
    105c:	031d                	.insn	2, 0x031d
    105e:	0952                	.insn	2, 0x0952
    1060:	0004                	.insn	2, 0x0004
    1062:	0501                	.insn	2, 0x0501
    1064:	0308                	.insn	2, 0x0308
    1066:	092e                	.insn	2, 0x092e
    1068:	0004                	.insn	2, 0x0004
    106a:	0501                	.insn	2, 0x0501
    106c:	060a                	.insn	2, 0x060a
    106e:	04090603          	lb	a2,64(s2)
    1072:	0100                	.insn	2, 0x0100
    1074:	0d05                	.insn	2, 0x0d05
    1076:	0306                	.insn	2, 0x0306
    1078:	0900                	.insn	2, 0x0900
    107a:	0000                	.insn	2, 0x
    107c:	0501                	.insn	2, 0x0501
    107e:	0605                	.insn	2, 0x0605
    1080:	08090303          	lb	t1,128(s2)
    1084:	0100                	.insn	2, 0x0100
    1086:	0805                	.insn	2, 0x0805
    1088:	0306                	.insn	2, 0x0306
    108a:	0900                	.insn	2, 0x0900
    108c:	0000                	.insn	2, 0x
    108e:	0501                	.insn	2, 0x0501
    1090:	11030603          	lb	a2,272(t1)
    1094:	0809                	.insn	2, 0x0809
    1096:	0100                	.insn	2, 0x0100
    1098:	097fb503          	.insn	4, 0x097fb503
    109c:	0000                	.insn	2, 0x
    109e:	0301                	.insn	2, 0x0301
    10a0:	00000903          	lb	s2,0(zero) # 0 <_vector_table_start>
    10a4:	0501                	.insn	2, 0x0501
    10a6:	0606                	.insn	2, 0x0606
    10a8:	00090003          	lb	zero,0(s2)
    10ac:	0100                	.insn	2, 0x0100
    10ae:	0505                	.insn	2, 0x0505
    10b0:	10090803          	lb	a6,256(s2)
    10b4:	0100                	.insn	2, 0x0100
    10b6:	0a05                	.insn	2, 0x0a05
    10b8:	10097f03          	.insn	4, 0x10097f03
    10bc:	0100                	.insn	2, 0x0100
    10be:	0505                	.insn	2, 0x0505
    10c0:	04090103          	lb	sp,64(s2)
    10c4:	0100                	.insn	2, 0x0100
    10c6:	0306                	.insn	2, 0x0306
    10c8:	0900                	.insn	2, 0x0900
    10ca:	0008                	.insn	2, 0x0008
    10cc:	0501                	.insn	2, 0x0501
    10ce:	030a                	.insn	2, 0x030a
    10d0:	097f 0004 0501 0307 	.insn	10, 0x0937030705010004097f
    10d8:	0937 
    10da:	0008                	.insn	2, 0x0008
    10dc:	0501                	.insn	2, 0x0501
    10de:	0612                	.insn	2, 0x0612
    10e0:	00090003          	lb	zero,0(s2)
    10e4:	0100                	.insn	2, 0x0100
    10e6:	0e05                	.insn	2, 0x0e05
    10e8:	08090003          	lb	zero,128(s2)
    10ec:	0100                	.insn	2, 0x0100
    10ee:	1205                	.insn	2, 0x1205
    10f0:	04090003          	lb	zero,64(s2)
    10f4:	0100                	.insn	2, 0x0100
    10f6:	1905                	.insn	2, 0x1905
    10f8:	0306                	.insn	2, 0x0306
    10fa:	0960                	.insn	2, 0x0960
    10fc:	000c                	.insn	2, 0x000c
    10fe:	0501                	.insn	2, 0x0501
    1100:	09090303          	lb	t1,144(s2)
    1104:	000c                	.insn	2, 0x000c
    1106:	0501                	.insn	2, 0x0501
    1108:	0606                	.insn	2, 0x0606
    110a:	00090003          	lb	zero,0(s2)
    110e:	0100                	.insn	2, 0x0100
    1110:	0505                	.insn	2, 0x0505
    1112:	0306                	.insn	2, 0x0306
    1114:	0901                	.insn	2, 0x0901
    1116:	0004                	.insn	2, 0x0004
    1118:	0501                	.insn	2, 0x0501
    111a:	0608                	.insn	2, 0x0608
    111c:	00090003          	lb	zero,0(s2)
    1120:	0100                	.insn	2, 0x0100
    1122:	2b05                	.insn	2, 0x2b05
    1124:	08090003          	lb	zero,128(s2)
    1128:	0100                	.insn	2, 0x0100
    112a:	3d05                	.insn	2, 0x3d05
    112c:	04090003          	lb	zero,64(s2)
    1130:	0100                	.insn	2, 0x0100
    1132:	0705                	.insn	2, 0x0705
    1134:	0306                	.insn	2, 0x0306
    1136:	0901                	.insn	2, 0x0901
    1138:	0004                	.insn	2, 0x0004
    113a:	0501                	.insn	2, 0x0501
    113c:	060a                	.insn	2, 0x060a
    113e:	00090003          	lb	zero,0(s2)
    1142:	0100                	.insn	2, 0x0100
    1144:	0705                	.insn	2, 0x0705
    1146:	0306                	.insn	2, 0x0306
    1148:	0901                	.insn	2, 0x0901
    114a:	0004                	.insn	2, 0x0004
    114c:	0501                	.insn	2, 0x0501
    114e:	060a                	.insn	2, 0x060a
    1150:	00090003          	lb	zero,0(s2)
    1154:	0100                	.insn	2, 0x0100
    1156:	0505                	.insn	2, 0x0505
    1158:	0306                	.insn	2, 0x0306
    115a:	0904                	.insn	2, 0x0904
    115c:	0004                	.insn	2, 0x0004
    115e:	0501                	.insn	2, 0x0501
    1160:	0608                	.insn	2, 0x0608
    1162:	00090003          	lb	zero,0(s2)
    1166:	0100                	.insn	2, 0x0100
    1168:	1705                	.insn	2, 0x1705
    116a:	08090003          	lb	zero,128(s2)
    116e:	0100                	.insn	2, 0x0100
    1170:	1205                	.insn	2, 0x1205
    1172:	0c090103          	lb	sp,192(s2)
    1176:	0100                	.insn	2, 0x0100
    1178:	0705                	.insn	2, 0x0705
    117a:	0306                	.insn	2, 0x0306
    117c:	0909                	.insn	2, 0x0909
    117e:	0004                	.insn	2, 0x0004
    1180:	0501                	.insn	2, 0x0501
    1182:	09040303          	lb	t1,144(s0)
    1186:	0000                	.insn	2, 0x
    1188:	0501                	.insn	2, 0x0501
    118a:	0612                	.insn	2, 0x0612
    118c:	00097c03          	.insn	4, 0x00097c03
    1190:	0100                	.insn	2, 0x0100
    1192:	1b05                	.insn	2, 0x1b05
    1194:	14097c03          	.insn	4, 0x14097c03
    1198:	0100                	.insn	2, 0x0100
    119a:	2605                	.insn	2, 0x2605
    119c:	08094d03          	lbu	s10,128(s2)
    11a0:	0100                	.insn	2, 0x0100
    11a2:	0705                	.insn	2, 0x0705
    11a4:	0306                	.insn	2, 0x0306
    11a6:	0934                	.insn	2, 0x0934
    11a8:	0008                	.insn	2, 0x0008
    11aa:	0501                	.insn	2, 0x0501
    11ac:	0612                	.insn	2, 0x0612
    11ae:	00090003          	lb	zero,0(s2)
    11b2:	0100                	.insn	2, 0x0100
    11b4:	0705                	.insn	2, 0x0705
    11b6:	0306                	.insn	2, 0x0306
    11b8:	00140967          	jalr	s2,1(s0)
    11bc:	0501                	.insn	2, 0x0501
    11be:	060c                	.insn	2, 0x060c
    11c0:	00090003          	lb	zero,0(s2)
    11c4:	0100                	.insn	2, 0x0100
    11c6:	0305                	.insn	2, 0x0305
    11c8:	0306                	.insn	2, 0x0306
    11ca:	0008090b          	.insn	4, 0x0008090b
    11ce:	0501                	.insn	2, 0x0501
    11d0:	0606                	.insn	2, 0x0606
    11d2:	00090003          	lb	zero,0(s2)
    11d6:	0100                	.insn	2, 0x0100
    11d8:	0505                	.insn	2, 0x0505
    11da:	0306                	.insn	2, 0x0306
    11dc:	0901                	.insn	2, 0x0901
    11de:	0004                	.insn	2, 0x0004
    11e0:	0501                	.insn	2, 0x0501
    11e2:	0608                	.insn	2, 0x0608
    11e4:	00090003          	lb	zero,0(s2)
    11e8:	0100                	.insn	2, 0x0100
    11ea:	2205                	.insn	2, 0x2205
    11ec:	10090603          	lb	a2,256(s2)
    11f0:	0100                	.insn	2, 0x0100
    11f2:	1705                	.insn	2, 0x1705
    11f4:	04090003          	lb	zero,64(s2)
    11f8:	0100                	.insn	2, 0x0100
    11fa:	0a05                	.insn	2, 0x0a05
    11fc:	0306                	.insn	2, 0x0306
    11fe:	00040903          	lb	s2,0(s0)
    1202:	0501                	.insn	2, 0x0501
    1204:	0639                	.insn	2, 0x0639
    1206:	00090003          	lb	zero,0(s2)
    120a:	0100                	.insn	2, 0x0100
    120c:	0705                	.insn	2, 0x0705
    120e:	0306                	.insn	2, 0x0306
    1210:	0901                	.insn	2, 0x0901
    1212:	0008                	.insn	2, 0x0008
    1214:	0501                	.insn	2, 0x0501
    1216:	0612                	.insn	2, 0x0612
    1218:	00090003          	lb	zero,0(s2)
    121c:	0100                	.insn	2, 0x0100
    121e:	0a05                	.insn	2, 0x0a05
    1220:	0306                	.insn	2, 0x0306
    1222:	0911                	.insn	2, 0x0911
    1224:	0018                	.insn	2, 0x0018
    1226:	0501                	.insn	2, 0x0501
    1228:	0614                	.insn	2, 0x0614
    122a:	00090003          	lb	zero,0(s2)
    122e:	0100                	.insn	2, 0x0100
    1230:	0d05                	.insn	2, 0x0d05
    1232:	04090003          	lb	zero,64(s2)
    1236:	0100                	.insn	2, 0x0100
    1238:	0305                	.insn	2, 0x0305
    123a:	0306                	.insn	2, 0x0306
    123c:	0905                	.insn	2, 0x0905
    123e:	0004                	.insn	2, 0x0004
    1240:	0301                	.insn	2, 0x0301
    1242:	7fb5                	.insn	2, 0x7fb5
    1244:	0009                	.insn	2, 0x0009
    1246:	0100                	.insn	2, 0x0100
    1248:	00090303          	lb	t1,0(s2)
    124c:	0100                	.insn	2, 0x0100
    124e:	1c05                	.insn	2, 0x1c05
    1250:	0306                	.insn	2, 0x0306
    1252:	0901                	.insn	2, 0x0901
    1254:	0000                	.insn	2, 0x
    1256:	0501                	.insn	2, 0x0501
    1258:	0306                	.insn	2, 0x0306
    125a:	097f 0004 0501 061c 	.insn	10, 0x0103061c05010004097f
    1262:	0103 
    1264:	0409                	.insn	2, 0x0409
    1266:	0100                	.insn	2, 0x0100
    1268:	0a05                	.insn	2, 0x0a05
    126a:	08090603          	lb	a2,128(s2)
    126e:	0100                	.insn	2, 0x0100
    1270:	0605                	.insn	2, 0x0605
    1272:	0306                	.insn	2, 0x0306
    1274:	0920                	.insn	2, 0x0920
    1276:	0008                	.insn	2, 0x0008
    1278:	0501                	.insn	2, 0x0501
    127a:	0335                	.insn	2, 0x0335
    127c:	00180907          	.insn	4, 0x00180907
    1280:	0501                	.insn	2, 0x0501
    1282:	01030607          	.insn	4, 0x01030607
    1286:	0809                	.insn	2, 0x0809
    1288:	0100                	.insn	2, 0x0100
    128a:	1205                	.insn	2, 0x1205
    128c:	0306                	.insn	2, 0x0306
    128e:	0900                	.insn	2, 0x0900
    1290:	0000                	.insn	2, 0x
    1292:	0501                	.insn	2, 0x0501
    1294:	15030607          	.insn	4, 0x15030607
    1298:	1809                	.insn	2, 0x1809
    129a:	0100                	.insn	2, 0x0100
    129c:	1205                	.insn	2, 0x1205
    129e:	0306                	.insn	2, 0x0306
    12a0:	0900                	.insn	2, 0x0900
    12a2:	0000                	.insn	2, 0x
    12a4:	0501                	.insn	2, 0x0501
    12a6:	030e                	.insn	2, 0x030e
    12a8:	0900                	.insn	2, 0x0900
    12aa:	0008                	.insn	2, 0x0008
    12ac:	0501                	.insn	2, 0x0501
    12ae:	0312                	.insn	2, 0x0312
    12b0:	0900                	.insn	2, 0x0900
    12b2:	0004                	.insn	2, 0x0004
    12b4:	0501                	.insn	2, 0x0501
    12b6:	0308                	.insn	2, 0x0308
    12b8:	0964                	.insn	2, 0x0964
    12ba:	000c                	.insn	2, 0x000c
    12bc:	0501                	.insn	2, 0x0501
    12be:	0900032b          	.insn	4, 0x0900032b
    12c2:	0008                	.insn	2, 0x0008
    12c4:	0501                	.insn	2, 0x0501
    12c6:	0609                	.insn	2, 0x0609
    12c8:	08090303          	lb	t1,128(s2)
    12cc:	0100                	.insn	2, 0x0100
    12ce:	2205                	.insn	2, 0x2205
    12d0:	0306                	.insn	2, 0x0306
    12d2:	00000903          	lb	s2,0(zero) # 0 <_vector_table_start>
    12d6:	0501                	.insn	2, 0x0501
    12d8:	030c                	.insn	2, 0x030c
    12da:	097d                	.insn	2, 0x097d
    12dc:	0004                	.insn	2, 0x0004
    12de:	0501                	.insn	2, 0x0501
    12e0:	0605                	.insn	2, 0x0605
    12e2:	04090303          	lb	t1,64(s2)
    12e6:	0100                	.insn	2, 0x0100
    12e8:	1705                	.insn	2, 0x1705
    12ea:	0306                	.insn	2, 0x0306
    12ec:	0900                	.insn	2, 0x0900
    12ee:	0000                	.insn	2, 0x
    12f0:	0501                	.insn	2, 0x0501
    12f2:	01030607          	.insn	4, 0x01030607
    12f6:	0409                	.insn	2, 0x0409
    12f8:	0100                	.insn	2, 0x0100
    12fa:	1205                	.insn	2, 0x1205
    12fc:	0306                	.insn	2, 0x0306
    12fe:	0900                	.insn	2, 0x0900
    1300:	0000                	.insn	2, 0x
    1302:	0501                	.insn	2, 0x0501
    1304:	0605                	.insn	2, 0x0605
    1306:	10090803          	lb	a6,256(s2)
    130a:	0100                	.insn	2, 0x0100
    130c:	1205                	.insn	2, 0x1205
    130e:	0306                	.insn	2, 0x0306
    1310:	0978                	.insn	2, 0x0978
    1312:	0000                	.insn	2, 0x
    1314:	0501                	.insn	2, 0x0501
    1316:	0326                	.insn	2, 0x0326
    1318:	0952                	.insn	2, 0x0952
    131a:	0004                	.insn	2, 0x0004
    131c:	0501                	.insn	2, 0x0501
    131e:	0322                	.insn	2, 0x0322
    1320:	092d                	.insn	2, 0x092d
    1322:	000c                	.insn	2, 0x000c
    1324:	0501                	.insn	2, 0x0501
    1326:	09000317          	auipc	t1,0x9000
    132a:	0004                	.insn	2, 0x0004
    132c:	0501                	.insn	2, 0x0501
    132e:	04030607          	.insn	4, 0x04030607
    1332:	0409                	.insn	2, 0x0409
    1334:	0100                	.insn	2, 0x0100
    1336:	1205                	.insn	2, 0x1205
    1338:	0306                	.insn	2, 0x0306
    133a:	0900                	.insn	2, 0x0900
    133c:	0000                	.insn	2, 0x
    133e:	0501                	.insn	2, 0x0501
    1340:	0605                	.insn	2, 0x0605
    1342:	08090503          	lb	a0,128(s2)
    1346:	0100                	.insn	2, 0x0100
    1348:	0705                	.insn	2, 0x0705
    134a:	00090103          	lb	sp,0(s2)
    134e:	0100                	.insn	2, 0x0100
    1350:	0305                	.insn	2, 0x0305
    1352:	00090403          	lb	s0,0(s2)
    1356:	0100                	.insn	2, 0x0100
    1358:	0d05                	.insn	2, 0x0d05
    135a:	0306                	.insn	2, 0x0306
    135c:	0978                	.insn	2, 0x0978
    135e:	0004                	.insn	2, 0x0004
    1360:	0501                	.insn	2, 0x0501
    1362:	097a0317          	auipc	t1,0x97a0
    1366:	0008                	.insn	2, 0x0008
    1368:	0501                	.insn	2, 0x0501
    136a:	0635                	.insn	2, 0x0635
    136c:	08097303          	.insn	4, 0x08097303
    1370:	0100                	.insn	2, 0x0100
    1372:	0705                	.insn	2, 0x0705
    1374:	10091103          	lh	sp,256(s2)
    1378:	0100                	.insn	2, 0x0100
    137a:	1205                	.insn	2, 0x1205
    137c:	0306                	.insn	2, 0x0306
    137e:	0900                	.insn	2, 0x0900
    1380:	0000                	.insn	2, 0x
    1382:	0501                	.insn	2, 0x0501
    1384:	0605                	.insn	2, 0x0605
    1386:	10090503          	lb	a0,256(s2)
    138a:	0100                	.insn	2, 0x0100
    138c:	1205                	.insn	2, 0x1205
    138e:	0306                	.insn	2, 0x0306
    1390:	0000097b          	.insn	4, 0x097b
    1394:	0501                	.insn	2, 0x0501
    1396:	75030603          	lb	a2,1872(t1) # 97a1ab2 <_peripheral_PLIC_end+0x17a1ab2>
    139a:	0809                	.insn	2, 0x0809
    139c:	0100                	.insn	2, 0x0100
    139e:	0605                	.insn	2, 0x0605
    13a0:	0306                	.insn	2, 0x0306
    13a2:	0900                	.insn	2, 0x0900
    13a4:	0000                	.insn	2, 0x
    13a6:	0501                	.insn	2, 0x0501
    13a8:	0605                	.insn	2, 0x0605
    13aa:	04090103          	lb	sp,64(s2)
    13ae:	0100                	.insn	2, 0x0100
    13b0:	0805                	.insn	2, 0x0805
    13b2:	0306                	.insn	2, 0x0306
    13b4:	0900                	.insn	2, 0x0900
    13b6:	0000                	.insn	2, 0x
    13b8:	0501                	.insn	2, 0x0501
    13ba:	033d                	.insn	2, 0x033d
    13bc:	0900                	.insn	2, 0x0900
    13be:	0004                	.insn	2, 0x0004
    13c0:	0501                	.insn	2, 0x0501
    13c2:	0306                	.insn	2, 0x0306
    13c4:	097f 0008 0501 0601 	.insn	10, 0xa303060105010008097f
    13cc:	a303 
    13ce:	097f 0008 0501 0303 	.insn	10, 0x0901030305010008097f
    13d6:	0901 
    13d8:	0000                	.insn	2, 0x
    13da:	0501                	.insn	2, 0x0501
    13dc:	0311                	.insn	2, 0x0311
    13de:	0900                	.insn	2, 0x0900
    13e0:	0000                	.insn	2, 0x
    13e2:	0501                	.insn	2, 0x0501
    13e4:	031c                	.insn	2, 0x031c
    13e6:	0900                	.insn	2, 0x0900
    13e8:	0000                	.insn	2, 0x
    13ea:	0501                	.insn	2, 0x0501
    13ec:	09010303          	lb	t1,144(sp)
    13f0:	0000                	.insn	2, 0x
    13f2:	0501                	.insn	2, 0x0501
    13f4:	0606                	.insn	2, 0x0606
    13f6:	00090003          	lb	zero,0(s2)
    13fa:	0100                	.insn	2, 0x0100
    13fc:	0105                	.insn	2, 0x0105
    13fe:	04090303          	lb	t1,64(s2)
    1402:	0100                	.insn	2, 0x0100
    1404:	0505                	.insn	2, 0x0505
    1406:	0306                	.insn	2, 0x0306
    1408:	097e                	.insn	2, 0x097e
    140a:	0004                	.insn	2, 0x0004
    140c:	0301                	.insn	2, 0x0301
    140e:	0976                	.insn	2, 0x0976
    1410:	0000                	.insn	2, 0x
    1412:	0501                	.insn	2, 0x0501
    1414:	0301                	.insn	2, 0x0301
    1416:	0911                	.insn	2, 0x0911
    1418:	0004                	.insn	2, 0x0004
    141a:	0501                	.insn	2, 0x0501
    141c:	09010303          	lb	t1,144(sp)
    1420:	0000                	.insn	2, 0x
    1422:	0501                	.insn	2, 0x0501
    1424:	030e                	.insn	2, 0x030e
    1426:	0900                	.insn	2, 0x0900
    1428:	0000                	.insn	2, 0x
    142a:	0501                	.insn	2, 0x0501
    142c:	09010303          	lb	t1,144(sp)
    1430:	0000                	.insn	2, 0x
    1432:	0501                	.insn	2, 0x0501
    1434:	0606                	.insn	2, 0x0606
    1436:	00090003          	lb	zero,0(s2)
    143a:	0100                	.insn	2, 0x0100
    143c:	0505                	.insn	2, 0x0505
    143e:	0306                	.insn	2, 0x0306
    1440:	0902                	.insn	2, 0x0902
    1442:	0004                	.insn	2, 0x0004
    1444:	0501                	.insn	2, 0x0501
    1446:	0606                	.insn	2, 0x0606
    1448:	00090003          	lb	zero,0(s2)
    144c:	0100                	.insn	2, 0x0100
    144e:	0105                	.insn	2, 0x0105
    1450:	0c090203          	lb	tp,192(s2)
    1454:	0100                	.insn	2, 0x0100
    1456:	0306                	.insn	2, 0x0306
    1458:	0409039b          	.insn	4, 0x0409039b
    145c:	0100                	.insn	2, 0x0100
    145e:	0306                	.insn	2, 0x0306
    1460:	0900                	.insn	2, 0x0900
    1462:	0038                	.insn	2, 0x0038
    1464:	0501                	.insn	2, 0x0501
    1466:	01030603          	lb	a2,16(t1)
    146a:	0809                	.insn	2, 0x0809
    146c:	0100                	.insn	2, 0x0100
    146e:	00090103          	lb	sp,0(s2)
    1472:	0100                	.insn	2, 0x0100
    1474:	00090203          	lb	tp,0(s2)
    1478:	0100                	.insn	2, 0x0100
    147a:	0105                	.insn	2, 0x0105
    147c:	0306                	.insn	2, 0x0306
    147e:	097c                	.insn	2, 0x097c
    1480:	0000                	.insn	2, 0x
    1482:	0501                	.insn	2, 0x0501
    1484:	0306                	.insn	2, 0x0306
    1486:	0904                	.insn	2, 0x0904
    1488:	000c                	.insn	2, 0x000c
    148a:	0501                	.insn	2, 0x0501
    148c:	060a                	.insn	2, 0x060a
    148e:	04090503          	lb	a0,64(s2)
    1492:	0100                	.insn	2, 0x0100
    1494:	0505                	.insn	2, 0x0505
    1496:	0306                	.insn	2, 0x0306
    1498:	00e0                	.insn	2, 0x00e0
    149a:	0c09                	.insn	2, 0x0c09
    149c:	0100                	.insn	2, 0x0100
    149e:	0705                	.insn	2, 0x0705
    14a0:	097fb103          	.insn	4, 0x097fb103
    14a4:	0004                	.insn	2, 0x0004
    14a6:	0501                	.insn	2, 0x0501
    14a8:	0305                	.insn	2, 0x0305
    14aa:	040900cf          	.insn	4, 0x040900cf
    14ae:	0100                	.insn	2, 0x0100
    14b0:	0705                	.insn	2, 0x0705
    14b2:	097fb103          	.insn	4, 0x097fb103
    14b6:	0004                	.insn	2, 0x0004
    14b8:	0501                	.insn	2, 0x0501
    14ba:	0305                	.insn	2, 0x0305
    14bc:	080900cf          	.insn	4, 0x080900cf
    14c0:	0100                	.insn	2, 0x0100
    14c2:	0905                	.insn	2, 0x0905
    14c4:	0306                	.insn	2, 0x0306
    14c6:	080901a3          	sb	zero,131(s2)
    14ca:	0100                	.insn	2, 0x0100
    14cc:	14090103          	lb	sp,320(s2)
    14d0:	0100                	.insn	2, 0x0100
    14d2:	00090103          	lb	sp,0(s2)
    14d6:	0100                	.insn	2, 0x0100
    14d8:	0a05                	.insn	2, 0x0a05
    14da:	097dfb03          	.insn	4, 0x097dfb03
    14de:	0000                	.insn	2, 0x
    14e0:	0501                	.insn	2, 0x0501
    14e2:	0305                	.insn	2, 0x0305
    14e4:	00080903          	lb	s2,0(a6)
    14e8:	0501                	.insn	2, 0x0501
    14ea:	0608                	.insn	2, 0x0608
    14ec:	00090003          	lb	zero,0(s2)
    14f0:	0100                	.insn	2, 0x0100
    14f2:	0d05                	.insn	2, 0x0d05
    14f4:	04090303          	lb	t1,64(s2)
    14f8:	0100                	.insn	2, 0x0100
    14fa:	0805                	.insn	2, 0x0805
    14fc:	04097d03          	.insn	4, 0x04097d03
    1500:	0100                	.insn	2, 0x0100
    1502:	0b05                	.insn	2, 0x0b05
    1504:	04090c03          	lb	s8,64(s2)
    1508:	0100                	.insn	2, 0x0100
    150a:	0505                	.insn	2, 0x0505
    150c:	0306                	.insn	2, 0x0306
    150e:	0901                	.insn	2, 0x0901
    1510:	0004                	.insn	2, 0x0004
    1512:	0501                	.insn	2, 0x0501
    1514:	09010307          	.insn	4, 0x09010307
    1518:	0000                	.insn	2, 0x
    151a:	0501                	.insn	2, 0x0501
    151c:	0003060f          	.insn	4, 0x0003060f
    1520:	0009                	.insn	2, 0x0009
    1522:	0100                	.insn	2, 0x0100
    1524:	0d05                	.insn	2, 0x0d05
    1526:	04091803          	lh	a6,64(s2)
    152a:	0100                	.insn	2, 0x0100
    152c:	0705                	.insn	2, 0x0705
    152e:	04096803          	.insn	4, 0x04096803
    1532:	0100                	.insn	2, 0x0100
    1534:	0e05                	.insn	2, 0x0e05
    1536:	0306                	.insn	2, 0x0306
    1538:	0908                	.insn	2, 0x0908
    153a:	001c                	.insn	2, 0x001c
    153c:	0501                	.insn	2, 0x0501
    153e:	0305                	.insn	2, 0x0305
    1540:	00000903          	lb	s2,0(zero) # 0 <_vector_table_start>
    1544:	0301                	.insn	2, 0x0301
    1546:	0901                	.insn	2, 0x0901
    1548:	0000                	.insn	2, 0x
    154a:	0501                	.insn	2, 0x0501
    154c:	7cd00303          	lb	t1,1997(zero) # 7cd <check_values+0x1b3>
    1550:	0009                	.insn	2, 0x0009
    1552:	0100                	.insn	2, 0x0100
    1554:	1605                	.insn	2, 0x1605
    1556:	0306                	.insn	2, 0x0306
    1558:	0900                	.insn	2, 0x0900
    155a:	0000                	.insn	2, 0x
    155c:	0501                	.insn	2, 0x0501
    155e:	0308                	.insn	2, 0x0308
    1560:	03b0                	.insn	2, 0x03b0
    1562:	0409                	.insn	2, 0x0409
    1564:	0100                	.insn	2, 0x0100
    1566:	0a05                	.insn	2, 0x0a05
    1568:	0306                	.insn	2, 0x0306
    156a:	000c0903          	lb	s2,0(s8)
    156e:	0501                	.insn	2, 0x0501
    1570:	060d                	.insn	2, 0x060d
    1572:	00090003          	lb	zero,0(s2)
    1576:	0100                	.insn	2, 0x0100
    1578:	0b05                	.insn	2, 0x0b05
    157a:	04097c03          	.insn	4, 0x04097c03
    157e:	0100                	.insn	2, 0x0100
    1580:	0d05                	.insn	2, 0x0d05
    1582:	04090403          	lb	s0,64(s2)
    1586:	0100                	.insn	2, 0x0100
    1588:	0505                	.insn	2, 0x0505
    158a:	0306                	.insn	2, 0x0306
    158c:	090d                	.insn	2, 0x090d
    158e:	0004                	.insn	2, 0x0004
    1590:	0301                	.insn	2, 0x0301
    1592:	0901                	.insn	2, 0x0901
    1594:	0000                	.insn	2, 0x
    1596:	0501                	.insn	2, 0x0501
    1598:	0608                	.insn	2, 0x0608
    159a:	00090003          	lb	zero,0(s2)
    159e:	0100                	.insn	2, 0x0100
    15a0:	0f05                	.insn	2, 0x0f05
    15a2:	04097f03          	.insn	4, 0x04097f03
    15a6:	0100                	.insn	2, 0x0100
    15a8:	0805                	.insn	2, 0x0805
    15aa:	04090103          	lb	sp,64(s2)
    15ae:	0100                	.insn	2, 0x0100
    15b0:	0505                	.insn	2, 0x0505
    15b2:	0306                	.insn	2, 0x0306
    15b4:	090e                	.insn	2, 0x090e
    15b6:	0004                	.insn	2, 0x0004
    15b8:	0501                	.insn	2, 0x0501
    15ba:	0303060f          	.insn	4, 0x0303060f
    15be:	0409                	.insn	2, 0x0409
    15c0:	0100                	.insn	2, 0x0100
    15c2:	0505                	.insn	2, 0x0505
    15c4:	04097d03          	.insn	4, 0x04097d03
    15c8:	0100                	.insn	2, 0x0100
    15ca:	0905                	.insn	2, 0x0905
    15cc:	0306                	.insn	2, 0x0306
    15ce:	0918                	.insn	2, 0x0918
    15d0:	0018                	.insn	2, 0x0018
    15d2:	0501                	.insn	2, 0x0501
    15d4:	060d                	.insn	2, 0x060d
    15d6:	00096c03          	.insn	4, 0x00096c03
    15da:	0100                	.insn	2, 0x0100
    15dc:	0f05                	.insn	2, 0x0f05
    15de:	04091403          	lh	s0,64(s2)
    15e2:	0100                	.insn	2, 0x0100
    15e4:	0905                	.insn	2, 0x0905
    15e6:	0306                	.insn	2, 0x0306
    15e8:	0901                	.insn	2, 0x0901
    15ea:	0004                	.insn	2, 0x0004
    15ec:	0301                	.insn	2, 0x0301
    15ee:	0901                	.insn	2, 0x0901
    15f0:	0000                	.insn	2, 0x
    15f2:	0501                	.insn	2, 0x0501
    15f4:	0305                	.insn	2, 0x0305
    15f6:	090a                	.insn	2, 0x090a
    15f8:	0000                	.insn	2, 0x
    15fa:	0501                	.insn	2, 0x0501
    15fc:	c703060f          	.insn	4, 0xc703060f
    1600:	0900                	.insn	2, 0x0900
    1602:	0004                	.insn	2, 0x0004
    1604:	0501                	.insn	2, 0x0501
    1606:	0305                	.insn	2, 0x0305
    1608:	7fb9                	.insn	2, 0x7fb9
    160a:	0409                	.insn	2, 0x0409
    160c:	0100                	.insn	2, 0x0100
    160e:	0905                	.insn	2, 0x0905
    1610:	0306                	.insn	2, 0x0306
    1612:	00de                	.insn	2, 0x00de
    1614:	1809                	.insn	2, 0x1809
    1616:	0100                	.insn	2, 0x0100
    1618:	00090203          	lb	tp,0(s2)
    161c:	0100                	.insn	2, 0x0100
    161e:	1505                	.insn	2, 0x1505
    1620:	0306                	.insn	2, 0x0306
    1622:	0900                	.insn	2, 0x0900
    1624:	0000                	.insn	2, 0x
    1626:	0501                	.insn	2, 0x0501
    1628:	0318                	.insn	2, 0x0318
    162a:	0950                	.insn	2, 0x0950
    162c:	0004                	.insn	2, 0x0004
    162e:	0501                	.insn	2, 0x0501
    1630:	7ef50307          	.insn	4, 0x7ef50307
    1634:	0409                	.insn	2, 0x0409
    1636:	0100                	.insn	2, 0x0100
    1638:	0c05                	.insn	2, 0x0c05
    163a:	0901bb03          	.insn	4, 0x0901bb03
    163e:	0004                	.insn	2, 0x0004
    1640:	0501                	.insn	2, 0x0501
    1642:	0609                	.insn	2, 0x0609
    1644:	04090603          	lb	a2,64(s2)
    1648:	0100                	.insn	2, 0x0100
    164a:	14090203          	lb	tp,320(s2)
    164e:	0100                	.insn	2, 0x0100
    1650:	1605                	.insn	2, 0x1605
    1652:	00090103          	lb	sp,0(s2)
    1656:	0100                	.insn	2, 0x0100
    1658:	0d05                	.insn	2, 0x0d05
    165a:	0c090103          	lb	sp,192(s2)
    165e:	0100                	.insn	2, 0x0100
    1660:	1605                	.insn	2, 0x1605
    1662:	18097f03          	.insn	4, 0x18097f03
    1666:	0100                	.insn	2, 0x0100
    1668:	0905                	.insn	2, 0x0905
    166a:	04090403          	lb	s0,64(s2)
    166e:	0100                	.insn	2, 0x0100
    1670:	00090103          	lb	sp,0(s2)
    1674:	0100                	.insn	2, 0x0100
    1676:	0a05                	.insn	2, 0x0a05
    1678:	097eb203          	.insn	4, 0x097eb203
    167c:	0004                	.insn	2, 0x0004
    167e:	0601                	.insn	2, 0x0601
    1680:	09028d03          	lb	s10,144(t0)
    1684:	0008                	.insn	2, 0x0008
    1686:	0501                	.insn	2, 0x0501
    1688:	7d030603          	lb	a2,2000(t1)
    168c:	0409                	.insn	2, 0x0409
    168e:	0100                	.insn	2, 0x0100
    1690:	0200                	.insn	2, 0x0200
    1692:	0104                	.insn	2, 0x0104
    1694:	0306                	.insn	2, 0x0306
    1696:	0900                	.insn	2, 0x0900
    1698:	0004                	.insn	2, 0x0004
    169a:	0001                	.insn	2, 0x0001
    169c:	0402                	.insn	2, 0x0402
    169e:	0304                	.insn	2, 0x0304
    16a0:	0900                	.insn	2, 0x0900
    16a2:	0004                	.insn	2, 0x0004
    16a4:	0001                	.insn	2, 0x0001
    16a6:	0402                	.insn	2, 0x0402
    16a8:	0604                	.insn	2, 0x0604
    16aa:	14090303          	lb	t1,320(s2)
    16ae:	0100                	.insn	2, 0x0100
    16b0:	0105                	.insn	2, 0x0105
    16b2:	0200                	.insn	2, 0x0200
    16b4:	0404                	.insn	2, 0x0404
    16b6:	0306                	.insn	2, 0x0306
    16b8:	0901                	.insn	2, 0x0901
    16ba:	0000                	.insn	2, 0x
    16bc:	0501                	.insn	2, 0x0501
    16be:	84030613          	addi	a2,t1,-1984
    16c2:	097e                	.insn	2, 0x097e
    16c4:	0040                	.insn	2, 0x0040
    16c6:	0501                	.insn	2, 0x0501
    16c8:	0619                	.insn	2, 0x0619
    16ca:	00090003          	lb	zero,0(s2)
    16ce:	0100                	.insn	2, 0x0100
    16d0:	2b05                	.insn	2, 0x2b05
    16d2:	0306                	.insn	2, 0x0306
    16d4:	0900                	.insn	2, 0x0900
    16d6:	0004                	.insn	2, 0x0004
    16d8:	0501                	.insn	2, 0x0501
    16da:	0335                	.insn	2, 0x0335
    16dc:	0900                	.insn	2, 0x0900
    16de:	0000                	.insn	2, 0x
    16e0:	0501                	.insn	2, 0x0501
    16e2:	033d                	.insn	2, 0x033d
    16e4:	0900                	.insn	2, 0x0900
    16e6:	0000                	.insn	2, 0x
    16e8:	0501                	.insn	2, 0x0501
    16ea:	060d                	.insn	2, 0x060d
    16ec:	00091703          	lh	a4,0(s2)
    16f0:	0100                	.insn	2, 0x0100
    16f2:	1305                	.insn	2, 0x1305
    16f4:	0306                	.insn	2, 0x0306
    16f6:	096a                	.insn	2, 0x096a
    16f8:	0008                	.insn	2, 0x0008
    16fa:	0501                	.insn	2, 0x0501
    16fc:	0619                	.insn	2, 0x0619
    16fe:	00090003          	lb	zero,0(s2)
    1702:	0100                	.insn	2, 0x0100
    1704:	2b05                	.insn	2, 0x2b05
    1706:	0306                	.insn	2, 0x0306
    1708:	0900                	.insn	2, 0x0900
    170a:	0004                	.insn	2, 0x0004
    170c:	0501                	.insn	2, 0x0501
    170e:	0335                	.insn	2, 0x0335
    1710:	0900                	.insn	2, 0x0900
    1712:	0000                	.insn	2, 0x
    1714:	0501                	.insn	2, 0x0501
    1716:	033d                	.insn	2, 0x033d
    1718:	0900                	.insn	2, 0x0900
    171a:	0000                	.insn	2, 0x
    171c:	0501                	.insn	2, 0x0501
    171e:	060d                	.insn	2, 0x060d
    1720:	00091603          	lh	a2,0(s2)
    1724:	0100                	.insn	2, 0x0100
    1726:	1305                	.insn	2, 0x1305
    1728:	0306                	.insn	2, 0x0306
    172a:	0008096b          	.insn	4, 0x0008096b
    172e:	0501                	.insn	2, 0x0501
    1730:	0619                	.insn	2, 0x0619
    1732:	00090003          	lb	zero,0(s2)
    1736:	0100                	.insn	2, 0x0100
    1738:	2b05                	.insn	2, 0x2b05
    173a:	0306                	.insn	2, 0x0306
    173c:	0900                	.insn	2, 0x0900
    173e:	0004                	.insn	2, 0x0004
    1740:	0501                	.insn	2, 0x0501
    1742:	0335                	.insn	2, 0x0335
    1744:	0900                	.insn	2, 0x0900
    1746:	0000                	.insn	2, 0x
    1748:	0501                	.insn	2, 0x0501
    174a:	033d                	.insn	2, 0x033d
    174c:	0900                	.insn	2, 0x0900
    174e:	0000                	.insn	2, 0x
    1750:	0501                	.insn	2, 0x0501
    1752:	060d                	.insn	2, 0x060d
    1754:	00091503          	lh	a0,0(s2)
    1758:	0100                	.insn	2, 0x0100
    175a:	1305                	.insn	2, 0x1305
    175c:	0306                	.insn	2, 0x0306
    175e:	096d                	.insn	2, 0x096d
    1760:	0008                	.insn	2, 0x0008
    1762:	0501                	.insn	2, 0x0501
    1764:	0619                	.insn	2, 0x0619
    1766:	00090003          	lb	zero,0(s2)
    176a:	0100                	.insn	2, 0x0100
    176c:	2b05                	.insn	2, 0x2b05
    176e:	0306                	.insn	2, 0x0306
    1770:	0900                	.insn	2, 0x0900
    1772:	0004                	.insn	2, 0x0004
    1774:	0501                	.insn	2, 0x0501
    1776:	0335                	.insn	2, 0x0335
    1778:	0900                	.insn	2, 0x0900
    177a:	0000                	.insn	2, 0x
    177c:	0501                	.insn	2, 0x0501
    177e:	033d                	.insn	2, 0x033d
    1780:	0900                	.insn	2, 0x0900
    1782:	0000                	.insn	2, 0x
    1784:	0501                	.insn	2, 0x0501
    1786:	060d                	.insn	2, 0x060d
    1788:	00091303          	lh	t1,0(s2)
    178c:	0100                	.insn	2, 0x0100
    178e:	1305                	.insn	2, 0x1305
    1790:	0306                	.insn	2, 0x0306
    1792:	096c                	.insn	2, 0x096c
    1794:	0008                	.insn	2, 0x0008
    1796:	0501                	.insn	2, 0x0501
    1798:	0619                	.insn	2, 0x0619
    179a:	00090003          	lb	zero,0(s2)
    179e:	0100                	.insn	2, 0x0100
    17a0:	2b05                	.insn	2, 0x2b05
    17a2:	0306                	.insn	2, 0x0306
    17a4:	0900                	.insn	2, 0x0900
    17a6:	0004                	.insn	2, 0x0004
    17a8:	0501                	.insn	2, 0x0501
    17aa:	0335                	.insn	2, 0x0335
    17ac:	0900                	.insn	2, 0x0900
    17ae:	0000                	.insn	2, 0x
    17b0:	0501                	.insn	2, 0x0501
    17b2:	033d                	.insn	2, 0x033d
    17b4:	0900                	.insn	2, 0x0900
    17b6:	0000                	.insn	2, 0x
    17b8:	0501                	.insn	2, 0x0501
    17ba:	060d                	.insn	2, 0x060d
    17bc:	00091403          	lh	s0,0(s2)
    17c0:	0100                	.insn	2, 0x0100
    17c2:	0505                	.insn	2, 0x0505
    17c4:	0306                	.insn	2, 0x0306
    17c6:	00080937          	lui	s2,0x80
    17ca:	0501                	.insn	2, 0x0501
    17cc:	c703060f          	.insn	4, 0xc703060f
    17d0:	0900                	.insn	2, 0x0900
    17d2:	0004                	.insn	2, 0x0004
    17d4:	0501                	.insn	2, 0x0501
    17d6:	0305                	.insn	2, 0x0305
    17d8:	7fb9                	.insn	2, 0x7fb9
    17da:	0409                	.insn	2, 0x0409
    17dc:	0100                	.insn	2, 0x0100
    17de:	0905                	.insn	2, 0x0905
    17e0:	0306                	.insn	2, 0x0306
    17e2:	018c                	.insn	2, 0x018c
    17e4:	2c09                	.insn	2, 0x2c09
    17e6:	0100                	.insn	2, 0x0100
    17e8:	00090103          	lb	sp,0(s2) # 80000 <_peripheral_HLS_CONTROL_end+0x40000>
    17ec:	0100                	.insn	2, 0x0100
    17ee:	0b05                	.insn	2, 0x0b05
    17f0:	00090803          	lb	a6,0(s2)
    17f4:	0100                	.insn	2, 0x0100
    17f6:	1105                	.insn	2, 0x1105
    17f8:	0306                	.insn	2, 0x0306
    17fa:	0900                	.insn	2, 0x0900
    17fc:	0000                	.insn	2, 0x
    17fe:	0501                	.insn	2, 0x0501
    1800:	0978030f          	.insn	4, 0x0978030f
    1804:	0008                	.insn	2, 0x0008
    1806:	0501                	.insn	2, 0x0501
    1808:	0311                	.insn	2, 0x0311
    180a:	0908                	.insn	2, 0x0908
    180c:	0004                	.insn	2, 0x0004
    180e:	0501                	.insn	2, 0x0501
    1810:	0351                	.insn	2, 0x0351
    1812:	0900                	.insn	2, 0x0900
    1814:	0028                	.insn	2, 0x0028
    1816:	0501                	.insn	2, 0x0501
    1818:	0311                	.insn	2, 0x0311
    181a:	0900                	.insn	2, 0x0900
    181c:	0004                	.insn	2, 0x0004
    181e:	0501                	.insn	2, 0x0501
    1820:	0609                	.insn	2, 0x0609
    1822:	04090403          	lb	s0,64(s2)
    1826:	0100                	.insn	2, 0x0100
    1828:	00090103          	lb	sp,0(s2)
    182c:	0100                	.insn	2, 0x0100
    182e:	0505                	.insn	2, 0x0505
    1830:	0306                	.insn	2, 0x0306
    1832:	7ee6                	.insn	2, 0x7ee6
    1834:	0409                	.insn	2, 0x0409
    1836:	0100                	.insn	2, 0x0100
    1838:	0905                	.insn	2, 0x0905
    183a:	0306                	.insn	2, 0x0306
    183c:	019e                	.insn	2, 0x019e
    183e:	0809                	.insn	2, 0x0809
    1840:	0100                	.insn	2, 0x0100
    1842:	18090103          	lb	sp,384(s2)
    1846:	0100                	.insn	2, 0x0100
    1848:	00090103          	lb	sp,0(s2)
    184c:	0100                	.insn	2, 0x0100
    184e:	0505                	.insn	2, 0x0505
    1850:	0306                	.insn	2, 0x0306
    1852:	7ee0                	.insn	2, 0x7ee0
    1854:	0409                	.insn	2, 0x0409
    1856:	0100                	.insn	2, 0x0100
    1858:	0905                	.insn	2, 0x0905
    185a:	0306                	.insn	2, 0x0306
    185c:	0918                	.insn	2, 0x0918
    185e:	0008                	.insn	2, 0x0008
    1860:	0501                	.insn	2, 0x0501
    1862:	0901030b          	.insn	4, 0x0901030b
    1866:	0000                	.insn	2, 0x
    1868:	0501                	.insn	2, 0x0501
    186a:	0309                	.insn	2, 0x0309
    186c:	0904                	.insn	2, 0x0904
    186e:	0000                	.insn	2, 0x
    1870:	0501                	.insn	2, 0x0501
    1872:	0901030b          	.insn	4, 0x0901030b
    1876:	0000                	.insn	2, 0x
    1878:	0501                	.insn	2, 0x0501
    187a:	0309                	.insn	2, 0x0309
    187c:	0904                	.insn	2, 0x0904
    187e:	0000                	.insn	2, 0x
    1880:	0501                	.insn	2, 0x0501
    1882:	060c                	.insn	2, 0x060c
    1884:	00090003          	lb	zero,0(s2)
    1888:	0100                	.insn	2, 0x0100
    188a:	0b05                	.insn	2, 0x0b05
    188c:	0306                	.insn	2, 0x0306
    188e:	0901                	.insn	2, 0x0901
    1890:	0008                	.insn	2, 0x0008
    1892:	0501                	.insn	2, 0x0501
    1894:	0611                	.insn	2, 0x0611
    1896:	04090003          	lb	zero,64(s2)
    189a:	0100                	.insn	2, 0x0100
    189c:	0905                	.insn	2, 0x0905
    189e:	0306                	.insn	2, 0x0306
    18a0:	0904                	.insn	2, 0x0904
    18a2:	0004                	.insn	2, 0x0004
    18a4:	0501                	.insn	2, 0x0501
    18a6:	0611                	.insn	2, 0x0611
    18a8:	00097c03          	.insn	4, 0x00097c03
    18ac:	0100                	.insn	2, 0x0100
    18ae:	0b05                	.insn	2, 0x0b05
    18b0:	0306                	.insn	2, 0x0306
    18b2:	00040917          	auipc	s2,0x40
    18b6:	0501                	.insn	2, 0x0501
    18b8:	0615                	.insn	2, 0x0615
    18ba:	00090003          	lb	zero,0(s2) # 418b2 <_peripheral_HLS_CONTROL_end+0x18b2>
    18be:	0100                	.insn	2, 0x0100
    18c0:	0e05                	.insn	2, 0x0e05
    18c2:	04090003          	lb	zero,64(s2)
    18c6:	0100                	.insn	2, 0x0100
    18c8:	1005                	.insn	2, 0x1005
    18ca:	0306                	.insn	2, 0x0306
    18cc:	0905                	.insn	2, 0x0905
    18ce:	0004                	.insn	2, 0x0004
    18d0:	0501                	.insn	2, 0x0501
    18d2:	061a                	.insn	2, 0x061a
    18d4:	00090003          	lb	zero,0(s2)
    18d8:	0100                	.insn	2, 0x0100
    18da:	1805                	.insn	2, 0x1805
    18dc:	04097103          	.insn	4, 0x04097103
    18e0:	0100                	.insn	2, 0x0100
    18e2:	1305                	.insn	2, 0x1305
    18e4:	04090f03          	lb	t5,64(s2)
    18e8:	0100                	.insn	2, 0x0100
    18ea:	0d05                	.insn	2, 0x0d05
    18ec:	0306                	.insn	2, 0x0306
    18ee:	0904                	.insn	2, 0x0904
    18f0:	0004                	.insn	2, 0x0004
    18f2:	0501                	.insn	2, 0x0501
    18f4:	0003062f          	.insn	4, 0x0003062f
    18f8:	0009                	.insn	2, 0x0009
    18fa:	0100                	.insn	2, 0x0100
    18fc:	6705                	.insn	2, 0x6705
    18fe:	04090003          	lb	zero,64(s2)
    1902:	0100                	.insn	2, 0x0100
    1904:	0d05                	.insn	2, 0x0d05
    1906:	0200                	.insn	2, 0x0200
    1908:	0804                	.insn	2, 0x0804
    190a:	0306                	.insn	2, 0x0306
    190c:	0901                	.insn	2, 0x0901
    190e:	0008                	.insn	2, 0x0008
    1910:	0501                	.insn	2, 0x0501
    1912:	04020013          	addi	zero,tp,64 # 40 <_vector_table_start+0x40>
    1916:	0608                	.insn	2, 0x0608
    1918:	00090003          	lb	zero,0(s2)
    191c:	0100                	.insn	2, 0x0100
    191e:	0905                	.insn	2, 0x0905
    1920:	0200                	.insn	2, 0x0200
    1922:	0804                	.insn	2, 0x0804
    1924:	0306                	.insn	2, 0x0306
    1926:	002c0903          	lb	s2,2(s8)
    192a:	0001                	.insn	2, 0x0001
    192c:	0402                	.insn	2, 0x0402
    192e:	0308                	.insn	2, 0x0308
    1930:	0901                	.insn	2, 0x0901
    1932:	0000                	.insn	2, 0x
    1934:	0501                	.insn	2, 0x0501
    1936:	0610                	.insn	2, 0x0610
    1938:	097bcc03          	lbu	s8,151(s7)
    193c:	0004                	.insn	2, 0x0004
    193e:	0501                	.insn	2, 0x0501
    1940:	0605                	.insn	2, 0x0605
    1942:	04090203          	lb	tp,64(s2)
    1946:	0100                	.insn	2, 0x0100
    1948:	0b05                	.insn	2, 0x0b05
    194a:	0306                	.insn	2, 0x0306
    194c:	0900                	.insn	2, 0x0900
    194e:	0000                	.insn	2, 0x
    1950:	0501                	.insn	2, 0x0501
    1952:	0311                	.insn	2, 0x0311
    1954:	0900                	.insn	2, 0x0900
    1956:	000c                	.insn	2, 0x000c
    1958:	0501                	.insn	2, 0x0501
    195a:	030a                	.insn	2, 0x030a
    195c:	097f 0004 0501 0307 	.insn	10, 0x0901030705010004097f
    1964:	0901 
    1966:	0004                	.insn	2, 0x0004
    1968:	0501                	.insn	2, 0x0501
    196a:	030a                	.insn	2, 0x030a
    196c:	097f 0004 0501 0316 	.insn	10, 0x0978031605010004097f
    1974:	0978 
    1976:	0004                	.insn	2, 0x0004
    1978:	0501                	.insn	2, 0x0501
    197a:	030a                	.insn	2, 0x030a
    197c:	0908                	.insn	2, 0x0908
    197e:	0004                	.insn	2, 0x0004
    1980:	0501                	.insn	2, 0x0501
    1982:	032a                	.insn	2, 0x032a
    1984:	0901                	.insn	2, 0x0901
    1986:	0004                	.insn	2, 0x0004
    1988:	0501                	.insn	2, 0x0501
    198a:	060a                	.insn	2, 0x060a
    198c:	04097f03          	.insn	4, 0x04097f03
    1990:	0100                	.insn	2, 0x0100
    1992:	0305                	.insn	2, 0x0305
    1994:	00097803          	.insn	4, 0x00097803
    1998:	0100                	.insn	2, 0x0100
    199a:	0a05                	.insn	2, 0x0a05
    199c:	0306                	.insn	2, 0x0306
    199e:	0908                	.insn	2, 0x0908
    19a0:	0004                	.insn	2, 0x0004
    19a2:	0501                	.insn	2, 0x0501
    19a4:	0605                	.insn	2, 0x0605
    19a6:	0903b803          	.insn	4, 0x0903b803
    19aa:	0004                	.insn	2, 0x0004
    19ac:	0301                	.insn	2, 0x0301
    19ae:	0901                	.insn	2, 0x0901
    19b0:	0000                	.insn	2, 0x
    19b2:	0501                	.insn	2, 0x0501
    19b4:	0608                	.insn	2, 0x0608
    19b6:	00090003          	lb	zero,0(s2)
    19ba:	0100                	.insn	2, 0x0100
    19bc:	0f05                	.insn	2, 0x0f05
    19be:	04097f03          	.insn	4, 0x04097f03
    19c2:	0100                	.insn	2, 0x0100
    19c4:	0805                	.insn	2, 0x0805
    19c6:	04090103          	lb	sp,64(s2)
    19ca:	0100                	.insn	2, 0x0100
    19cc:	0b05                	.insn	2, 0x0b05
    19ce:	04090303          	lb	t1,64(s2)
    19d2:	0100                	.insn	2, 0x0100
    19d4:	0a05                	.insn	2, 0x0a05
    19d6:	04090003          	lb	zero,64(s2)
    19da:	0100                	.insn	2, 0x0100
    19dc:	0d05                	.insn	2, 0x0d05
    19de:	04097f03          	.insn	4, 0x04097f03
    19e2:	0100                	.insn	2, 0x0100
    19e4:	0705                	.insn	2, 0x0705
    19e6:	0306                	.insn	2, 0x0306
    19e8:	097f 0004 0501 0616 	.insn	10, 0xbe03061605010004097f
    19f0:	be03 
    19f2:	097c                	.insn	2, 0x097c
    19f4:	0000                	.insn	2, 0x
    19f6:	0501                	.insn	2, 0x0501
    19f8:	030a                	.insn	2, 0x030a
    19fa:	03c4                	.insn	2, 0x03c4
    19fc:	0409                	.insn	2, 0x0409
    19fe:	0100                	.insn	2, 0x0100
    1a00:	0d05                	.insn	2, 0x0d05
    1a02:	04097e03          	.insn	4, 0x04097e03
    1a06:	0100                	.insn	2, 0x0100
    1a08:	0705                	.insn	2, 0x0705
    1a0a:	0306                	.insn	2, 0x0306
    1a0c:	0901                	.insn	2, 0x0901
    1a0e:	0004                	.insn	2, 0x0004
    1a10:	0301                	.insn	2, 0x0301
    1a12:	0901                	.insn	2, 0x0901
    1a14:	0000                	.insn	2, 0x
    1a16:	0501                	.insn	2, 0x0501
    1a18:	7cbc0303          	lb	t1,1995(s8)
    1a1c:	0009                	.insn	2, 0x0009
    1a1e:	0100                	.insn	2, 0x0100
    1a20:	0a05                	.insn	2, 0x0a05
    1a22:	0306                	.insn	2, 0x0306
    1a24:	03c4                	.insn	2, 0x03c4
    1a26:	0009                	.insn	2, 0x0009
    1a28:	0100                	.insn	2, 0x0100
    1a2a:	0c05                	.insn	2, 0x0c05
    1a2c:	0306                	.insn	2, 0x0306
    1a2e:	00040903          	lb	s2,0(s0)
    1a32:	0501                	.insn	2, 0x0501
    1a34:	0003060f          	.insn	4, 0x0003060f
    1a38:	0009                	.insn	2, 0x0009
    1a3a:	0100                	.insn	2, 0x0100
    1a3c:	0d05                	.insn	2, 0x0d05
    1a3e:	08097c03          	.insn	4, 0x08097c03
    1a42:	0100                	.insn	2, 0x0100
    1a44:	0505                	.insn	2, 0x0505
    1a46:	04090c03          	lb	s8,64(s2)
    1a4a:	0100                	.insn	2, 0x0100
    1a4c:	0306                	.insn	2, 0x0306
    1a4e:	0900                	.insn	2, 0x0900
    1a50:	0008                	.insn	2, 0x0008
    1a52:	0501                	.insn	2, 0x0501
    1a54:	0303060f          	.insn	4, 0x0303060f
    1a58:	0009                	.insn	2, 0x0009
    1a5a:	0100                	.insn	2, 0x0100
    1a5c:	0505                	.insn	2, 0x0505
    1a5e:	04097d03          	.insn	4, 0x04097d03
    1a62:	0100                	.insn	2, 0x0100
    1a64:	0905                	.insn	2, 0x0905
    1a66:	0306                	.insn	2, 0x0306
    1a68:	0902                	.insn	2, 0x0902
    1a6a:	0004                	.insn	2, 0x0004
    1a6c:	0301                	.insn	2, 0x0301
    1a6e:	0901                	.insn	2, 0x0901
    1a70:	0000                	.insn	2, 0x
    1a72:	0301                	.insn	2, 0x0301
    1a74:	0901                	.insn	2, 0x0901
    1a76:	0000                	.insn	2, 0x
    1a78:	0501                	.insn	2, 0x0501
    1a7a:	060d                	.insn	2, 0x060d
    1a7c:	00090003          	lb	zero,0(s2)
    1a80:	0100                	.insn	2, 0x0100
    1a82:	0c05                	.insn	2, 0x0c05
    1a84:	04090003          	lb	zero,64(s2)
    1a88:	0100                	.insn	2, 0x0100
    1a8a:	0f05                	.insn	2, 0x0f05
    1a8c:	04091803          	lh	a6,64(s2)
    1a90:	0100                	.insn	2, 0x0100
    1a92:	0905                	.insn	2, 0x0905
    1a94:	0306                	.insn	2, 0x0306
    1a96:	0901                	.insn	2, 0x0901
    1a98:	0004                	.insn	2, 0x0004
    1a9a:	0301                	.insn	2, 0x0301
    1a9c:	0901                	.insn	2, 0x0901
    1a9e:	0000                	.insn	2, 0x
    1aa0:	0501                	.insn	2, 0x0501
    1aa2:	0605                	.insn	2, 0x0605
    1aa4:	04096203          	.insn	4, 0x04096203
    1aa8:	0100                	.insn	2, 0x0100
    1aaa:	0905                	.insn	2, 0x0905
    1aac:	0306                	.insn	2, 0x0306
    1aae:	091c                	.insn	2, 0x091c
    1ab0:	0008                	.insn	2, 0x0008
    1ab2:	0501                	.insn	2, 0x0501
    1ab4:	060d                	.insn	2, 0x060d
    1ab6:	00096803          	.insn	4, 0x00096803
    1aba:	0100                	.insn	2, 0x0100
    1abc:	0f05                	.insn	2, 0x0f05
    1abe:	04091803          	lh	a6,64(s2)
    1ac2:	0100                	.insn	2, 0x0100
    1ac4:	0905                	.insn	2, 0x0905
    1ac6:	0306                	.insn	2, 0x0306
    1ac8:	0901                	.insn	2, 0x0901
    1aca:	0004                	.insn	2, 0x0004
    1acc:	0301                	.insn	2, 0x0301
    1ace:	0901                	.insn	2, 0x0901
    1ad0:	0000                	.insn	2, 0x
    1ad2:	0501                	.insn	2, 0x0501
    1ad4:	09470307          	.insn	4, 0x09470307
    1ad8:	0004                	.insn	2, 0x0004
    1ada:	0501                	.insn	2, 0x0501
    1adc:	0611                	.insn	2, 0x0611
    1ade:	00090003          	lb	zero,0(s2)
    1ae2:	0100                	.insn	2, 0x0100
    1ae4:	0705                	.insn	2, 0x0705
    1ae6:	0306                	.insn	2, 0x0306
    1ae8:	0901                	.insn	2, 0x0901
    1aea:	0008                	.insn	2, 0x0008
    1aec:	0501                	.insn	2, 0x0501
    1aee:	060a                	.insn	2, 0x060a
    1af0:	00090003          	lb	zero,0(s2)
    1af4:	0100                	.insn	2, 0x0100
    1af6:	0705                	.insn	2, 0x0705
    1af8:	0306                	.insn	2, 0x0306
    1afa:	00040907          	.insn	4, 0x00040907
    1afe:	0501                	.insn	2, 0x0501
    1b00:	0609                	.insn	2, 0x0609
    1b02:	00090503          	lb	a0,0(s2)
    1b06:	0100                	.insn	2, 0x0100
    1b08:	0d05                	.insn	2, 0x0d05
    1b0a:	04097b03          	.insn	4, 0x04097b03
    1b0e:	0100                	.insn	2, 0x0100
    1b10:	0905                	.insn	2, 0x0905
    1b12:	0306                	.insn	2, 0x0306
    1b14:	097a                	.insn	2, 0x097a
    1b16:	000c                	.insn	2, 0x000c
    1b18:	0601                	.insn	2, 0x0601
    1b1a:	00090b03          	lb	s6,0(s2)
    1b1e:	0100                	.insn	2, 0x0100
    1b20:	0f05                	.insn	2, 0x0f05
    1b22:	04097503          	.insn	4, 0x04097503
    1b26:	0100                	.insn	2, 0x0100
    1b28:	0905                	.insn	2, 0x0905
    1b2a:	0306                	.insn	2, 0x0306
    1b2c:	0901                	.insn	2, 0x0901
    1b2e:	0004                	.insn	2, 0x0004
    1b30:	0501                	.insn	2, 0x0501
    1b32:	060d                	.insn	2, 0x060d
    1b34:	00090503          	lb	a0,0(s2)
    1b38:	0100                	.insn	2, 0x0100
    1b3a:	1f05                	.insn	2, 0x1f05
    1b3c:	04097b03          	.insn	4, 0x04097b03
    1b40:	0100                	.insn	2, 0x0100
    1b42:	0705                	.insn	2, 0x0705
    1b44:	0306                	.insn	2, 0x0306
    1b46:	0905                	.insn	2, 0x0905
    1b48:	0004                	.insn	2, 0x0004
    1b4a:	0501                	.insn	2, 0x0501
    1b4c:	0309                	.insn	2, 0x0309
    1b4e:	091d                	.insn	2, 0x091d
    1b50:	0008                	.insn	2, 0x0008
    1b52:	0301                	.insn	2, 0x0301
    1b54:	0901                	.insn	2, 0x0901
    1b56:	0000                	.insn	2, 0x
    1b58:	0301                	.insn	2, 0x0301
    1b5a:	0901                	.insn	2, 0x0901
    1b5c:	0000                	.insn	2, 0x
    1b5e:	0501                	.insn	2, 0x0501
    1b60:	060d                	.insn	2, 0x060d
    1b62:	00090003          	lb	zero,0(s2)
    1b66:	0100                	.insn	2, 0x0100
    1b68:	0c05                	.insn	2, 0x0c05
    1b6a:	04090003          	lb	zero,64(s2)
    1b6e:	0100                	.insn	2, 0x0100
    1b70:	0f05                	.insn	2, 0x0f05
    1b72:	04097e03          	.insn	4, 0x04097e03
    1b76:	0100                	.insn	2, 0x0100
    1b78:	0905                	.insn	2, 0x0905
    1b7a:	0306                	.insn	2, 0x0306
    1b7c:	018c                	.insn	2, 0x018c
    1b7e:	0809                	.insn	2, 0x0809
    1b80:	0100                	.insn	2, 0x0100
    1b82:	1505                	.insn	2, 0x1505
    1b84:	0306                	.insn	2, 0x0306
    1b86:	0900                	.insn	2, 0x0900
    1b88:	0000                	.insn	2, 0x
    1b8a:	0501                	.insn	2, 0x0501
    1b8c:	0609                	.insn	2, 0x0609
    1b8e:	0c090103          	lb	sp,192(s2)
    1b92:	0100                	.insn	2, 0x0100
    1b94:	1105                	.insn	2, 0x1105
    1b96:	0306                	.insn	2, 0x0306
    1b98:	7b91                	.insn	2, 0x7b91
    1b9a:	0009                	.insn	2, 0x0009
    1b9c:	0100                	.insn	2, 0x0100
    1b9e:	1505                	.insn	2, 0x1505
    1ba0:	0904ee03          	.insn	4, 0x0904ee03
    1ba4:	0004                	.insn	2, 0x0004
    1ba6:	0501                	.insn	2, 0x0501
    1ba8:	0311                	.insn	2, 0x0311
    1baa:	7b92                	.insn	2, 0x7b92
    1bac:	0409                	.insn	2, 0x0409
    1bae:	0100                	.insn	2, 0x0100
    1bb0:	1a05                	.insn	2, 0x1a05
    1bb2:	0904ef03          	.insn	4, 0x0904ef03
    1bb6:	0004                	.insn	2, 0x0004
    1bb8:	0501                	.insn	2, 0x0501
    1bba:	0614                	.insn	2, 0x0614
    1bbc:	097b9103          	lh	sp,151(s7)
    1bc0:	0004                	.insn	2, 0x0004
    1bc2:	0501                	.insn	2, 0x0501
    1bc4:	061e                	.insn	2, 0x061e
    1bc6:	00090003          	lb	zero,0(s2)
    1bca:	0100                	.insn	2, 0x0100
    1bcc:	1405                	.insn	2, 0x1405
    1bce:	04090003          	lb	zero,64(s2)
    1bd2:	0100                	.insn	2, 0x0100
    1bd4:	2205                	.insn	2, 0x2205
    1bd6:	0306                	.insn	2, 0x0306
    1bd8:	0900                	.insn	2, 0x0900
    1bda:	0018                	.insn	2, 0x0018
    1bdc:	0501                	.insn	2, 0x0501
    1bde:	0614                	.insn	2, 0x0614
    1be0:	00090003          	lb	zero,0(s2)
    1be4:	0100                	.insn	2, 0x0100
    1be6:	2205                	.insn	2, 0x2205
    1be8:	04090003          	lb	zero,64(s2)
    1bec:	0100                	.insn	2, 0x0100
    1bee:	1405                	.insn	2, 0x1405
    1bf0:	0306                	.insn	2, 0x0306
    1bf2:	0900                	.insn	2, 0x0900
    1bf4:	0004                	.insn	2, 0x0004
    1bf6:	0501                	.insn	2, 0x0501
    1bf8:	0103061b          	.insn	4, 0x0103061b
    1bfc:	0409                	.insn	2, 0x0409
    1bfe:	0100                	.insn	2, 0x0100
    1c00:	0305                	.insn	2, 0x0305
    1c02:	0306                	.insn	2, 0x0306
    1c04:	0900                	.insn	2, 0x0900
    1c06:	0008                	.insn	2, 0x0008
    1c08:	0501                	.insn	2, 0x0501
    1c0a:	0309                	.insn	2, 0x0309
    1c0c:	04f0                	.insn	2, 0x04f0
    1c0e:	0009                	.insn	2, 0x0009
    1c10:	0100                	.insn	2, 0x0100
    1c12:	1305                	.insn	2, 0x1305
    1c14:	0306                	.insn	2, 0x0306
    1c16:	0900                	.insn	2, 0x0900
    1c18:	0000                	.insn	2, 0x
    1c1a:	0501                	.insn	2, 0x0501
    1c1c:	030c                	.insn	2, 0x030c
    1c1e:	0900                	.insn	2, 0x0900
    1c20:	0004                	.insn	2, 0x0004
    1c22:	0501                	.insn	2, 0x0501
    1c24:	0103060b          	.insn	4, 0x0103060b
    1c28:	0409                	.insn	2, 0x0409
    1c2a:	0100                	.insn	2, 0x0100
    1c2c:	0d05                	.insn	2, 0x0d05
    1c2e:	0306                	.insn	2, 0x0306
    1c30:	0900                	.insn	2, 0x0900
    1c32:	0000                	.insn	2, 0x
    1c34:	0501                	.insn	2, 0x0501
    1c36:	0609                	.insn	2, 0x0609
    1c38:	08090203          	lb	tp,128(s2)
    1c3c:	0100                	.insn	2, 0x0100
    1c3e:	1505                	.insn	2, 0x1505
    1c40:	0306                	.insn	2, 0x0306
    1c42:	0900                	.insn	2, 0x0900
    1c44:	0000                	.insn	2, 0x
    1c46:	0501                	.insn	2, 0x0501
    1c48:	030c                	.insn	2, 0x030c
    1c4a:	0900                	.insn	2, 0x0900
    1c4c:	0008                	.insn	2, 0x0008
    1c4e:	0501                	.insn	2, 0x0501
    1c50:	061a                	.insn	2, 0x061a
    1c52:	04090603          	lb	a2,64(s2)
    1c56:	0100                	.insn	2, 0x0100
    1c58:	0b05                	.insn	2, 0x0b05
    1c5a:	0306                	.insn	2, 0x0306
    1c5c:	0901                	.insn	2, 0x0901
    1c5e:	0004                	.insn	2, 0x0004
    1c60:	0501                	.insn	2, 0x0501
    1c62:	001a                	.insn	2, 0x001a
    1c64:	0402                	.insn	2, 0x0402
    1c66:	0301                	.insn	2, 0x0301
    1c68:	097f 0004 0501 0045 	.insn	10, 0x0402004505010004097f
    1c70:	0402 
    1c72:	0302                	.insn	2, 0x0302
    1c74:	0900                	.insn	2, 0x0900
    1c76:	0004                	.insn	2, 0x0004
    1c78:	0501                	.insn	2, 0x0501
    1c7a:	0039                	.insn	2, 0x0039
    1c7c:	0402                	.insn	2, 0x0402
    1c7e:	0302                	.insn	2, 0x0302
    1c80:	0900                	.insn	2, 0x0900
    1c82:	0004                	.insn	2, 0x0004
    1c84:	0501                	.insn	2, 0x0501
    1c86:	0103060b          	.insn	4, 0x0103060b
    1c8a:	0809                	.insn	2, 0x0809
    1c8c:	0100                	.insn	2, 0x0100
    1c8e:	1a05                	.insn	2, 0x1a05
    1c90:	10097f03          	.insn	4, 0x10097f03
    1c94:	0100                	.insn	2, 0x0100
    1c96:	1105                	.insn	2, 0x1105
    1c98:	0306                	.insn	2, 0x0306
    1c9a:	0900                	.insn	2, 0x0900
    1c9c:	0000                	.insn	2, 0x
    1c9e:	0501                	.insn	2, 0x0501
    1ca0:	031a                	.insn	2, 0x031a
    1ca2:	0900                	.insn	2, 0x0900
    1ca4:	0010                	.insn	2, 0x0010
    1ca6:	0501                	.insn	2, 0x0501
    1ca8:	0901030b          	.insn	4, 0x0901030b
    1cac:	0004                	.insn	2, 0x0004
    1cae:	0501                	.insn	2, 0x0501
    1cb0:	030a                	.insn	2, 0x030a
    1cb2:	7ea1                	.insn	2, 0x7ea1
    1cb4:	0809                	.insn	2, 0x0809
    1cb6:	0100                	.insn	2, 0x0100
    1cb8:	0905                	.insn	2, 0x0905
    1cba:	04097d03          	.insn	4, 0x04097d03
    1cbe:	0100                	.insn	2, 0x0100
    1cc0:	0a05                	.insn	2, 0x0a05
    1cc2:	0306                	.insn	2, 0x0306
    1cc4:	00080903          	lb	s2,0(a6)
    1cc8:	0501                	.insn	2, 0x0501
    1cca:	028a0303          	lb	t1,40(s4)
    1cce:	0c09                	.insn	2, 0x0c09
    1cd0:	0100                	.insn	2, 0x0100
    1cd2:	0a05                	.insn	2, 0x0a05
    1cd4:	0306                	.insn	2, 0x0306
    1cd6:	08097aeb          	.insn	4, 0x08097aeb
    1cda:	0100                	.insn	2, 0x0100
    1cdc:	0505                	.insn	2, 0x0505
    1cde:	0306                	.insn	2, 0x0306
    1ce0:	0901                	.insn	2, 0x0901
    1ce2:	0004                	.insn	2, 0x0004
    1ce4:	0501                	.insn	2, 0x0501
    1ce6:	0003060b          	.insn	4, 0x0003060b
    1cea:	0009                	.insn	2, 0x0009
    1cec:	0100                	.insn	2, 0x0100
    1cee:	2a05                	.insn	2, 0x2a05
    1cf0:	08090003          	lb	zero,128(s2)
    1cf4:	0100                	.insn	2, 0x0100
    1cf6:	0b05                	.insn	2, 0x0b05
    1cf8:	04090003          	lb	zero,64(s2)
    1cfc:	0100                	.insn	2, 0x0100
    1cfe:	1105                	.insn	2, 0x1105
    1d00:	04090003          	lb	zero,64(s2)
    1d04:	0100                	.insn	2, 0x0100
    1d06:	0a05                	.insn	2, 0x0a05
    1d08:	04097f03          	.insn	4, 0x04097f03
    1d0c:	0100                	.insn	2, 0x0100
    1d0e:	0705                	.insn	2, 0x0705
    1d10:	04090103          	lb	sp,64(s2)
    1d14:	0100                	.insn	2, 0x0100
    1d16:	0a05                	.insn	2, 0x0a05
    1d18:	0306                	.insn	2, 0x0306
    1d1a:	097f 0004 0501 0303 	.insn	10, 0x0978030305010004097f
    1d22:	0978 
    1d24:	0000                	.insn	2, 0x
    1d26:	0501                	.insn	2, 0x0501
    1d28:	0616                	.insn	2, 0x0616
    1d2a:	00090003          	lb	zero,0(s2)
    1d2e:	0100                	.insn	2, 0x0100
    1d30:	0a05                	.insn	2, 0x0a05
    1d32:	04090803          	lb	a6,64(s2)
    1d36:	0100                	.insn	2, 0x0100
    1d38:	2a05                	.insn	2, 0x2a05
    1d3a:	08090103          	lb	sp,128(s2)
    1d3e:	0100                	.insn	2, 0x0100
    1d40:	1405                	.insn	2, 0x1405
    1d42:	0306                	.insn	2, 0x0306
    1d44:	096e                	.insn	2, 0x096e
    1d46:	000c                	.insn	2, 0x000c
    1d48:	0501                	.insn	2, 0x0501
    1d4a:	061e                	.insn	2, 0x061e
    1d4c:	04090003          	lb	zero,64(s2)
    1d50:	0100                	.insn	2, 0x0100
    1d52:	0905                	.insn	2, 0x0905
    1d54:	0306                	.insn	2, 0x0306
    1d56:	03d1                	.insn	2, 0x03d1
    1d58:	0809                	.insn	2, 0x0809
    1d5a:	0100                	.insn	2, 0x0100
    1d5c:	00090103          	lb	sp,0(s2)
    1d60:	0100                	.insn	2, 0x0100
    1d62:	3305                	.insn	2, 0x3305
    1d64:	0306                	.insn	2, 0x0306
    1d66:	0900                	.insn	2, 0x0900
    1d68:	0000                	.insn	2, 0x
    1d6a:	0501                	.insn	2, 0x0501
    1d6c:	030d                	.insn	2, 0x030d
    1d6e:	0906                	.insn	2, 0x0906
    1d70:	0004                	.insn	2, 0x0004
    1d72:	0501                	.insn	2, 0x0501
    1d74:	097b030f          	.insn	4, 0x097b030f
    1d78:	0004                	.insn	2, 0x0004
    1d7a:	0501                	.insn	2, 0x0501
    1d7c:	097f0333          	.insn	4, 0x097f0333
    1d80:	0004                	.insn	2, 0x0004
    1d82:	0501                	.insn	2, 0x0501
    1d84:	0609                	.insn	2, 0x0609
    1d86:	0c090103          	lb	sp,192(s2)
    1d8a:	0100                	.insn	2, 0x0100
    1d8c:	1305                	.insn	2, 0x1305
    1d8e:	0306                	.insn	2, 0x0306
    1d90:	097e                	.insn	2, 0x097e
    1d92:	0000                	.insn	2, 0x
    1d94:	0501                	.insn	2, 0x0501
    1d96:	0c03060b          	.insn	4, 0x0c03060b
    1d9a:	0c09                	.insn	2, 0x0c09
    1d9c:	0100                	.insn	2, 0x0100
    1d9e:	0d05                	.insn	2, 0x0d05
    1da0:	0306                	.insn	2, 0x0306
    1da2:	091f 0000 0501      	.insn	6, 0x05010000091f
    1da8:	0311                	.insn	2, 0x0311
    1daa:	0961                	.insn	2, 0x0961
    1dac:	0004                	.insn	2, 0x0004
    1dae:	0501                	.insn	2, 0x0501
    1db0:	0103060b          	.insn	4, 0x0103060b
    1db4:	0409                	.insn	2, 0x0409
    1db6:	0100                	.insn	2, 0x0100
    1db8:	1105                	.insn	2, 0x1105
    1dba:	0306                	.insn	2, 0x0306
    1dbc:	0900                	.insn	2, 0x0900
    1dbe:	0000                	.insn	2, 0x
    1dc0:	0501                	.insn	2, 0x0501
    1dc2:	0616                	.insn	2, 0x0616
    1dc4:	0900ff03          	.insn	4, 0x0900ff03
    1dc8:	0008                	.insn	2, 0x0008
    1dca:	0501                	.insn	2, 0x0501
    1dcc:	030d                	.insn	2, 0x030d
    1dce:	0901                	.insn	2, 0x0901
    1dd0:	0014                	.insn	2, 0x0014
    1dd2:	0501                	.insn	2, 0x0501
    1dd4:	0316                	.insn	2, 0x0316
    1dd6:	097f 0018 0501 0309 	.insn	10, 0x0905030905010018097f
    1dde:	0905 
    1de0:	0004                	.insn	2, 0x0004
    1de2:	0301                	.insn	2, 0x0301
    1de4:	0902                	.insn	2, 0x0902
    1de6:	0018                	.insn	2, 0x0018
    1de8:	0301                	.insn	2, 0x0301
    1dea:	0905                	.insn	2, 0x0905
    1dec:	0000                	.insn	2, 0x
    1dee:	0301                	.insn	2, 0x0301
    1df0:	0901                	.insn	2, 0x0901
    1df2:	0000                	.insn	2, 0x
    1df4:	0301                	.insn	2, 0x0301
    1df6:	0914                	.insn	2, 0x0914
    1df8:	000c                	.insn	2, 0x000c
    1dfa:	0501                	.insn	2, 0x0501
    1dfc:	060c                	.insn	2, 0x060c
    1dfe:	00090003          	lb	zero,0(s2)
    1e02:	0100                	.insn	2, 0x0100
    1e04:	1605                	.insn	2, 0x1605
    1e06:	0306                	.insn	2, 0x0306
    1e08:	0901                	.insn	2, 0x0901
    1e0a:	000c                	.insn	2, 0x000c
    1e0c:	0501                	.insn	2, 0x0501
    1e0e:	030d                	.insn	2, 0x030d
    1e10:	0901                	.insn	2, 0x0901
    1e12:	000c                	.insn	2, 0x000c
    1e14:	0501                	.insn	2, 0x0501
    1e16:	0316                	.insn	2, 0x0316
    1e18:	097f 0018 0501 0309 	.insn	10, 0x0904030905010018097f
    1e20:	0904 
    1e22:	0004                	.insn	2, 0x0004
    1e24:	0301                	.insn	2, 0x0301
    1e26:	0901                	.insn	2, 0x0901
    1e28:	0000                	.insn	2, 0x
    1e2a:	0501                	.insn	2, 0x0501
    1e2c:	0615                	.insn	2, 0x0615
    1e2e:	00096a03          	.insn	4, 0x00096a03
    1e32:	0100                	.insn	2, 0x0100
    1e34:	0905                	.insn	2, 0x0905
    1e36:	04091603          	lh	a2,64(s2)
    1e3a:	0100                	.insn	2, 0x0100
    1e3c:	1b05                	.insn	2, 0x1b05
    1e3e:	097afd03          	.insn	4, 0x097afd03
    1e42:	0008                	.insn	2, 0x0008
    1e44:	0501                	.insn	2, 0x0501
    1e46:	e403060b          	.insn	4, 0xe403060b
    1e4a:	000c0903          	lb	s2,0(s8)
    1e4e:	0501                	.insn	2, 0x0501
    1e50:	060d                	.insn	2, 0x060d
    1e52:	00091703          	lh	a4,0(s2)
    1e56:	0100                	.insn	2, 0x0100
    1e58:	1105                	.insn	2, 0x1105
    1e5a:	04096903          	.insn	4, 0x04096903
    1e5e:	0100                	.insn	2, 0x0100
    1e60:	0b05                	.insn	2, 0x0b05
    1e62:	0306                	.insn	2, 0x0306
    1e64:	0901                	.insn	2, 0x0901
    1e66:	0004                	.insn	2, 0x0004
    1e68:	0501                	.insn	2, 0x0501
    1e6a:	0611                	.insn	2, 0x0611
    1e6c:	00090003          	lb	zero,0(s2)
    1e70:	0100                	.insn	2, 0x0100
    1e72:	1605                	.insn	2, 0x1605
    1e74:	0306                	.insn	2, 0x0306
    1e76:	0809018f          	.insn	4, 0x0809018f
    1e7a:	0100                	.insn	2, 0x0100
    1e7c:	0d05                	.insn	2, 0x0d05
    1e7e:	0c090103          	lb	sp,192(s2)
    1e82:	0100                	.insn	2, 0x0100
    1e84:	1605                	.insn	2, 0x1605
    1e86:	18097f03          	.insn	4, 0x18097f03
    1e8a:	0100                	.insn	2, 0x0100
    1e8c:	1305                	.insn	2, 0x1305
    1e8e:	0306                	.insn	2, 0x0306
    1e90:	0900                	.insn	2, 0x0900
    1e92:	0008                	.insn	2, 0x0008
    1e94:	0501                	.insn	2, 0x0501
    1e96:	061a                	.insn	2, 0x061a
    1e98:	08090503          	lb	a0,128(s2)
    1e9c:	0100                	.insn	2, 0x0100
    1e9e:	1105                	.insn	2, 0x1105
    1ea0:	0306                	.insn	2, 0x0306
    1ea2:	0900                	.insn	2, 0x0900
    1ea4:	0000                	.insn	2, 0x
    1ea6:	0501                	.insn	2, 0x0501
    1ea8:	031a                	.insn	2, 0x031a
    1eaa:	0900                	.insn	2, 0x0900
    1eac:	0004                	.insn	2, 0x0004
    1eae:	0501                	.insn	2, 0x0501
    1eb0:	0316                	.insn	2, 0x0316
    1eb2:	0905                	.insn	2, 0x0905
    1eb4:	0004                	.insn	2, 0x0004
    1eb6:	0501                	.insn	2, 0x0501
    1eb8:	9b03060b          	.insn	4, 0x9b03060b
    1ebc:	097f 0008 0501 0309 	.insn	10, 0x0904030905010008097f
    1ec4:	0904 
    1ec6:	0000                	.insn	2, 0x
    1ec8:	0501                	.insn	2, 0x0501
    1eca:	00030613          	mv	a2,t1
    1ece:	0009                	.insn	2, 0x0009
    1ed0:	0100                	.insn	2, 0x0100
    1ed2:	0c05                	.insn	2, 0x0c05
    1ed4:	04090003          	lb	zero,64(s2)
    1ed8:	0100                	.insn	2, 0x0100
    1eda:	0b05                	.insn	2, 0x0b05
    1edc:	0306                	.insn	2, 0x0306
    1ede:	0901                	.insn	2, 0x0901
    1ee0:	0004                	.insn	2, 0x0004
    1ee2:	0501                	.insn	2, 0x0501
    1ee4:	0611                	.insn	2, 0x0611
    1ee6:	00090003          	lb	zero,0(s2)
    1eea:	0100                	.insn	2, 0x0100
    1eec:	0905                	.insn	2, 0x0905
    1eee:	0306                	.insn	2, 0x0306
    1ef0:	0904                	.insn	2, 0x0904
    1ef2:	0004                	.insn	2, 0x0004
    1ef4:	0501                	.insn	2, 0x0501
    1ef6:	0611                	.insn	2, 0x0611
    1ef8:	00097c03          	.insn	4, 0x00097c03
    1efc:	0100                	.insn	2, 0x0100
    1efe:	08097b03          	.insn	4, 0x08097b03
    1f02:	0100                	.insn	2, 0x0100
    1f04:	0c097b03          	.insn	4, 0x0c097b03
    1f08:	0100                	.insn	2, 0x0100
    1f0a:	04090503          	lb	a0,64(s2)
    1f0e:	0100                	.insn	2, 0x0100
    1f10:	ae05                	.insn	2, 0xae05
    1f12:	0301                	.insn	2, 0x0301
    1f14:	0925                	.insn	2, 0x0925
    1f16:	000c                	.insn	2, 0x000c
    1f18:	0501                	.insn	2, 0x0501
    1f1a:	0070                	.insn	2, 0x0070
    1f1c:	0402                	.insn	2, 0x0402
    1f1e:	0302                	.insn	2, 0x0302
    1f20:	0900                	.insn	2, 0x0900
    1f22:	0008                	.insn	2, 0x0008
    1f24:	0501                	.insn	2, 0x0501
    1f26:	01ae                	.insn	2, 0x01ae
    1f28:	0200                	.insn	2, 0x0200
    1f2a:	0204                	.insn	2, 0x0204
    1f2c:	04090003          	lb	zero,64(s2)
    1f30:	0100                	.insn	2, 0x0100
    1f32:	1305                	.insn	2, 0x1305
    1f34:	0c093603          	.insn	4, 0x0c093603
    1f38:	0100                	.insn	2, 0x0100
    1f3a:	0905                	.insn	2, 0x0905
    1f3c:	0306                	.insn	2, 0x0306
    1f3e:	096d                	.insn	2, 0x096d
    1f40:	0008                	.insn	2, 0x0008
    1f42:	0301                	.insn	2, 0x0301
    1f44:	0902                	.insn	2, 0x0902
    1f46:	0014                	.insn	2, 0x0014
    1f48:	0501                	.insn	2, 0x0501
    1f4a:	0616                	.insn	2, 0x0616
    1f4c:	00097903          	.insn	4, 0x00097903
    1f50:	0100                	.insn	2, 0x0100
    1f52:	0905                	.insn	2, 0x0905
    1f54:	0306                	.insn	2, 0x0306
    1f56:	090c                	.insn	2, 0x090c
    1f58:	0004                	.insn	2, 0x0004
    1f5a:	0301                	.insn	2, 0x0301
    1f5c:	0901                	.insn	2, 0x0901
    1f5e:	0000                	.insn	2, 0x
    1f60:	0301                	.insn	2, 0x0301
    1f62:	08097f9b          	.insn	4, 0x08097f9b
    1f66:	0100                	.insn	2, 0x0100
    1f68:	00090103          	lb	sp,0(s2)
    1f6c:	0100                	.insn	2, 0x0100
    1f6e:	0c05                	.insn	2, 0x0c05
    1f70:	0306                	.insn	2, 0x0306
    1f72:	0900                	.insn	2, 0x0900
    1f74:	0000                	.insn	2, 0x
    1f76:	0501                	.insn	2, 0x0501
    1f78:	0a03060b          	.insn	4, 0x0a03060b
    1f7c:	1009                	.insn	2, 0x1009
    1f7e:	0100                	.insn	2, 0x0100
    1f80:	00090103          	lb	sp,0(s2)
    1f84:	0100                	.insn	2, 0x0100
    1f86:	0c05                	.insn	2, 0x0c05
    1f88:	0306                	.insn	2, 0x0306
    1f8a:	0908                	.insn	2, 0x0908
    1f8c:	0000                	.insn	2, 0x
    1f8e:	0501                	.insn	2, 0x0501
    1f90:	0311                	.insn	2, 0x0311
    1f92:	0978                	.insn	2, 0x0978
    1f94:	0004                	.insn	2, 0x0004
    1f96:	0501                	.insn	2, 0x0501
    1f98:	0609                	.insn	2, 0x0609
    1f9a:	04090303          	lb	t1,64(s2)
    1f9e:	0100                	.insn	2, 0x0100
    1fa0:	00090503          	lb	a0,0(s2)
    1fa4:	0100                	.insn	2, 0x0100
    1fa6:	0c05                	.insn	2, 0x0c05
    1fa8:	0306                	.insn	2, 0x0306
    1faa:	0900                	.insn	2, 0x0900
    1fac:	0000                	.insn	2, 0x
    1fae:	0501                	.insn	2, 0x0501
    1fb0:	0609                	.insn	2, 0x0609
    1fb2:	04090503          	lb	a0,64(s2)
    1fb6:	0100                	.insn	2, 0x0100
    1fb8:	1305                	.insn	2, 0x1305
    1fba:	0306                	.insn	2, 0x0306
    1fbc:	0900                	.insn	2, 0x0900
    1fbe:	0000                	.insn	2, 0x
    1fc0:	0501                	.insn	2, 0x0501
    1fc2:	030c                	.insn	2, 0x030c
    1fc4:	0900                	.insn	2, 0x0900
    1fc6:	0004                	.insn	2, 0x0004
    1fc8:	0501                	.insn	2, 0x0501
    1fca:	0103060b          	.insn	4, 0x0103060b
    1fce:	0409                	.insn	2, 0x0409
    1fd0:	0100                	.insn	2, 0x0100
    1fd2:	1105                	.insn	2, 0x1105
    1fd4:	0306                	.insn	2, 0x0306
    1fd6:	0900                	.insn	2, 0x0900
    1fd8:	0000                	.insn	2, 0x
    1fda:	0501                	.insn	2, 0x0501
    1fdc:	0609                	.insn	2, 0x0609
    1fde:	04090403          	lb	s0,64(s2)
    1fe2:	0100                	.insn	2, 0x0100
    1fe4:	0b05                	.insn	2, 0x0b05
    1fe6:	00090203          	lb	tp,0(s2)
    1fea:	0100                	.insn	2, 0x0100
    1fec:	1505                	.insn	2, 0x1505
    1fee:	0306                	.insn	2, 0x0306
    1ff0:	0900                	.insn	2, 0x0900
    1ff2:	0000                	.insn	2, 0x
    1ff4:	0501                	.insn	2, 0x0501
    1ff6:	030e                	.insn	2, 0x030e
    1ff8:	0900                	.insn	2, 0x0900
    1ffa:	0004                	.insn	2, 0x0004
    1ffc:	0501                	.insn	2, 0x0501
    1ffe:	0610                	.insn	2, 0x0610
    2000:	04090603          	lb	a2,64(s2)
    2004:	0100                	.insn	2, 0x0100
    2006:	1a05                	.insn	2, 0x1a05
    2008:	0306                	.insn	2, 0x0306
    200a:	0900                	.insn	2, 0x0900
    200c:	0000                	.insn	2, 0x
    200e:	0501                	.insn	2, 0x0501
    2010:	0318                	.insn	2, 0x0318
    2012:	0901                	.insn	2, 0x0901
    2014:	0004                	.insn	2, 0x0004
    2016:	0501                	.insn	2, 0x0501
    2018:	097f0313          	addi	t1,t5,151
    201c:	0004                	.insn	2, 0x0004
    201e:	0501                	.insn	2, 0x0501
    2020:	060d                	.insn	2, 0x060d
    2022:	04090503          	lb	a0,64(s2)
    2026:	0100                	.insn	2, 0x0100
    2028:	2605                	.insn	2, 0x2605
    202a:	0306                	.insn	2, 0x0306
    202c:	0900                	.insn	2, 0x0900
    202e:	0000                	.insn	2, 0x
    2030:	0501                	.insn	2, 0x0501
    2032:	034c                	.insn	2, 0x034c
    2034:	0900                	.insn	2, 0x0900
    2036:	0004                	.insn	2, 0x0004
    2038:	0501                	.insn	2, 0x0501
    203a:	000d                	.insn	2, 0x000d
    203c:	0402                	.insn	2, 0x0402
    203e:	0608                	.insn	2, 0x0608
    2040:	0c090103          	lb	sp,192(s2)
    2044:	0100                	.insn	2, 0x0100
    2046:	1305                	.insn	2, 0x1305
    2048:	0200                	.insn	2, 0x0200
    204a:	0804                	.insn	2, 0x0804
    204c:	0306                	.insn	2, 0x0306
    204e:	0900                	.insn	2, 0x0900
    2050:	0000                	.insn	2, 0x
    2052:	0501                	.insn	2, 0x0501
    2054:	6903060b          	.insn	4, 0x6903060b
    2058:	3409                	.insn	2, 0x3409
    205a:	0100                	.insn	2, 0x0100
    205c:	0905                	.insn	2, 0x0905
    205e:	00090403          	lb	s0,0(s2)
    2062:	0100                	.insn	2, 0x0100
    2064:	1305                	.insn	2, 0x1305
    2066:	0306                	.insn	2, 0x0306
    2068:	0900                	.insn	2, 0x0900
    206a:	0000                	.insn	2, 0x
    206c:	0501                	.insn	2, 0x0501
    206e:	030c                	.insn	2, 0x030c
    2070:	0900                	.insn	2, 0x0900
    2072:	0004                	.insn	2, 0x0004
    2074:	0501                	.insn	2, 0x0501
    2076:	0103060b          	.insn	4, 0x0103060b
    207a:	0809                	.insn	2, 0x0809
    207c:	0100                	.insn	2, 0x0100
    207e:	1105                	.insn	2, 0x1105
    2080:	0306                	.insn	2, 0x0306
    2082:	0900                	.insn	2, 0x0900
    2084:	0000                	.insn	2, 0x
    2086:	0501                	.insn	2, 0x0501
    2088:	0609                	.insn	2, 0x0609
    208a:	04090403          	lb	s0,64(s2)
    208e:	0100                	.insn	2, 0x0100
    2090:	1105                	.insn	2, 0x1105
    2092:	0306                	.insn	2, 0x0306
    2094:	00040977          	.insn	4, 0x00040977
    2098:	0501                	.insn	2, 0x0501
    209a:	0609                	.insn	2, 0x0609
    209c:	04090903          	lb	s2,64(s2)
    20a0:	0100                	.insn	2, 0x0100
    20a2:	5505                	.insn	2, 0x5505
    20a4:	0200                	.insn	2, 0x0200
    20a6:	0204                	.insn	2, 0x0204
    20a8:	0306                	.insn	2, 0x0306
    20aa:	090d                	.insn	2, 0x090d
    20ac:	0004                	.insn	2, 0x0004
    20ae:	0501                	.insn	2, 0x0501
    20b0:	0181                	.insn	2, 0x0181
    20b2:	0200                	.insn	2, 0x0200
    20b4:	0204                	.insn	2, 0x0204
    20b6:	04090003          	lb	zero,64(s2)
    20ba:	0100                	.insn	2, 0x0100
    20bc:	6605                	.insn	2, 0x6605
    20be:	04090003          	lb	zero,64(s2)
    20c2:	0100                	.insn	2, 0x0100
    20c4:	3805                	.insn	2, 0x3805
    20c6:	04090103          	lb	sp,64(s2)
    20ca:	0100                	.insn	2, 0x0100
    20cc:	0d05                	.insn	2, 0x0d05
    20ce:	0306                	.insn	2, 0x0306
    20d0:	0018097b          	.insn	4, 0x0018097b
    20d4:	0501                	.insn	2, 0x0501
    20d6:	0618                	.insn	2, 0x0618
    20d8:	00090003          	lb	zero,0(s2)
    20dc:	0100                	.insn	2, 0x0100
    20de:	0d05                	.insn	2, 0x0d05
    20e0:	0306                	.insn	2, 0x0306
    20e2:	0901                	.insn	2, 0x0901
    20e4:	0004                	.insn	2, 0x0004
    20e6:	0501                	.insn	2, 0x0501
    20e8:	00030613          	mv	a2,t1
    20ec:	0009                	.insn	2, 0x0009
    20ee:	0100                	.insn	2, 0x0100
    20f0:	3805                	.insn	2, 0x3805
    20f2:	08090003          	lb	zero,128(s2)
    20f6:	0100                	.insn	2, 0x0100
    20f8:	1305                	.insn	2, 0x1305
    20fa:	08090003          	lb	zero,128(s2)
    20fe:	0100                	.insn	2, 0x0100
    2100:	8105                	.insn	2, 0x8105
    2102:	0301                	.insn	2, 0x0301
    2104:	00180903          	lb	s2,1(a6)
    2108:	0501                	.insn	2, 0x0501
    210a:	0338                	.insn	2, 0x0338
    210c:	0901                	.insn	2, 0x0901
    210e:	0004                	.insn	2, 0x0004
    2110:	0501                	.insn	2, 0x0501
    2112:	001e                	.insn	2, 0x001e
    2114:	0402                	.insn	2, 0x0402
    2116:	0301                	.insn	2, 0x0301
    2118:	0968                	.insn	2, 0x0968
    211a:	0010                	.insn	2, 0x0010
    211c:	0501                	.insn	2, 0x0501
    211e:	0103060b          	.insn	4, 0x0103060b
    2122:	0809                	.insn	2, 0x0809
    2124:	0100                	.insn	2, 0x0100
    2126:	0905                	.insn	2, 0x0905
    2128:	00090403          	lb	s0,0(s2)
    212c:	0100                	.insn	2, 0x0100
    212e:	1305                	.insn	2, 0x1305
    2130:	0306                	.insn	2, 0x0306
    2132:	0900                	.insn	2, 0x0900
    2134:	0000                	.insn	2, 0x
    2136:	0501                	.insn	2, 0x0501
    2138:	030c                	.insn	2, 0x030c
    213a:	0900                	.insn	2, 0x0900
    213c:	0004                	.insn	2, 0x0004
    213e:	0501                	.insn	2, 0x0501
    2140:	0311                	.insn	2, 0x0311
    2142:	00040973          	.insn	4, 0x00040973
    2146:	0501                	.insn	2, 0x0501
    2148:	0310                	.insn	2, 0x0310
    214a:	097f 0004 0501 060b 	.insn	10, 0x0f03060b05010004097f
    2152:	0f03 
    2154:	0409                	.insn	2, 0x0409
    2156:	0100                	.insn	2, 0x0100
    2158:	1105                	.insn	2, 0x1105
    215a:	0306                	.insn	2, 0x0306
    215c:	0900                	.insn	2, 0x0900
    215e:	0000                	.insn	2, 0x
    2160:	0501                	.insn	2, 0x0501
    2162:	0609                	.insn	2, 0x0609
    2164:	04090403          	lb	s0,64(s2)
    2168:	0100                	.insn	2, 0x0100
    216a:	1105                	.insn	2, 0x1105
    216c:	0306                	.insn	2, 0x0306
    216e:	00040977          	.insn	4, 0x00040977
    2172:	0501                	.insn	2, 0x0501
    2174:	0609                	.insn	2, 0x0609
    2176:	04090903          	lb	s2,64(s2)
    217a:	0100                	.insn	2, 0x0100
    217c:	1005                	.insn	2, 0x1005
    217e:	0306                	.insn	2, 0x0306
    2180:	096d                	.insn	2, 0x096d
    2182:	0000                	.insn	2, 0x
    2184:	0501                	.insn	2, 0x0501
    2186:	0a03060b          	.insn	4, 0x0a03060b
    218a:	0809                	.insn	2, 0x0809
    218c:	0100                	.insn	2, 0x0100
    218e:	0905                	.insn	2, 0x0905
    2190:	00090403          	lb	s0,0(s2)
    2194:	0100                	.insn	2, 0x0100
    2196:	1305                	.insn	2, 0x1305
    2198:	0306                	.insn	2, 0x0306
    219a:	0900                	.insn	2, 0x0900
    219c:	0000                	.insn	2, 0x
    219e:	0501                	.insn	2, 0x0501
    21a0:	030c                	.insn	2, 0x030c
    21a2:	0900                	.insn	2, 0x0900
    21a4:	0004                	.insn	2, 0x0004
    21a6:	0501                	.insn	2, 0x0501
    21a8:	0103060b          	.insn	4, 0x0103060b
    21ac:	0409                	.insn	2, 0x0409
    21ae:	0100                	.insn	2, 0x0100
    21b0:	1105                	.insn	2, 0x1105
    21b2:	0306                	.insn	2, 0x0306
    21b4:	0900                	.insn	2, 0x0900
    21b6:	0000                	.insn	2, 0x
    21b8:	0501                	.insn	2, 0x0501
    21ba:	0609                	.insn	2, 0x0609
    21bc:	04090403          	lb	s0,64(s2)
    21c0:	0100                	.insn	2, 0x0100
    21c2:	1105                	.insn	2, 0x1105
    21c4:	0306                	.insn	2, 0x0306
    21c6:	097c                	.insn	2, 0x097c
    21c8:	0000                	.insn	2, 0x
    21ca:	0501                	.insn	2, 0x0501
    21cc:	0924030f          	.insn	4, 0x0924030f
    21d0:	0008                	.insn	2, 0x0008
    21d2:	0501                	.insn	2, 0x0501
    21d4:	0622                	.insn	2, 0x0622
    21d6:	097b9c03          	lh	s8,151(s7)
    21da:	0008                	.insn	2, 0x0008
    21dc:	0501                	.insn	2, 0x0501
    21de:	0305                	.insn	2, 0x0305
    21e0:	0902                	.insn	2, 0x0902
    21e2:	0000                	.insn	2, 0x
    21e4:	0501                	.insn	2, 0x0501
    21e6:	0622                	.insn	2, 0x0622
    21e8:	00097e03          	.insn	4, 0x00097e03
    21ec:	0100                	.insn	2, 0x0100
    21ee:	0505                	.insn	2, 0x0505
    21f0:	08090203          	lb	tp,128(s2)
    21f4:	0100                	.insn	2, 0x0100
    21f6:	0306                	.insn	2, 0x0306
    21f8:	0901                	.insn	2, 0x0901
    21fa:	0004                	.insn	2, 0x0004
    21fc:	0501                	.insn	2, 0x0501
    21fe:	0601                	.insn	2, 0x0601
    2200:	00090203          	lb	tp,0(s2)
    2204:	0100                	.insn	2, 0x0100
    2206:	0306                	.insn	2, 0x0306
    2208:	05cc                	.insn	2, 0x05cc
    220a:	1009                	.insn	2, 0x1009
    220c:	0100                	.insn	2, 0x0100
    220e:	0305                	.insn	2, 0x0305
    2210:	00090103          	lb	sp,0(s2)
    2214:	0100                	.insn	2, 0x0100
    2216:	00090103          	lb	sp,0(s2)
    221a:	0100                	.insn	2, 0x0100
    221c:	0105                	.insn	2, 0x0105
    221e:	0306                	.insn	2, 0x0306
    2220:	097e                	.insn	2, 0x097e
    2222:	0000                	.insn	2, 0x
    2224:	0501                	.insn	2, 0x0501
    2226:	09020303          	lb	t1,144(tp) # 90 <_reset_handler+0x10>
    222a:	0004                	.insn	2, 0x0004
    222c:	0501                	.insn	2, 0x0501
    222e:	0301                	.insn	2, 0x0301
    2230:	097e                	.insn	2, 0x097e
    2232:	0004                	.insn	2, 0x0004
    2234:	0501                	.insn	2, 0x0501
    2236:	09040313          	addi	t1,s0,144
    223a:	0004                	.insn	2, 0x0004
    223c:	0501                	.insn	2, 0x0501
    223e:	0301                	.insn	2, 0x0301
    2240:	097c                	.insn	2, 0x097c
    2242:	0008                	.insn	2, 0x0008
    2244:	0501                	.insn	2, 0x0501
    2246:	09040313          	addi	t1,s0,144
    224a:	000c                	.insn	2, 0x000c
    224c:	0501                	.insn	2, 0x0501
    224e:	0301                	.insn	2, 0x0301
    2250:	097c                	.insn	2, 0x097c
    2252:	0010                	.insn	2, 0x0010
    2254:	0301                	.insn	2, 0x0301
    2256:	0900                	.insn	2, 0x0900
    2258:	0004                	.insn	2, 0x0004
    225a:	0501                	.insn	2, 0x0501
    225c:	09020303          	lb	t1,144(tp) # 90 <_reset_handler+0x10>
    2260:	000c                	.insn	2, 0x000c
    2262:	0601                	.insn	2, 0x0601
    2264:	04090103          	lb	sp,64(s2)
    2268:	0100                	.insn	2, 0x0100
    226a:	00090103          	lb	sp,0(s2)
    226e:	0100                	.insn	2, 0x0100
    2270:	1305                	.insn	2, 0x1305
    2272:	0306                	.insn	2, 0x0306
    2274:	0900                	.insn	2, 0x0900
    2276:	0000                	.insn	2, 0x
    2278:	0501                	.insn	2, 0x0501
    227a:	01030603          	lb	a2,16(t1)
    227e:	0409                	.insn	2, 0x0409
    2280:	0100                	.insn	2, 0x0100
    2282:	00090103          	lb	sp,0(s2)
    2286:	0100                	.insn	2, 0x0100
    2288:	0105                	.insn	2, 0x0105
    228a:	0306                	.insn	2, 0x0306
    228c:	0901                	.insn	2, 0x0901
    228e:	0000                	.insn	2, 0x
    2290:	0601                	.insn	2, 0x0601
    2292:	0c090403          	lb	s0,192(s2)
    2296:	0100                	.insn	2, 0x0100
    2298:	0305                	.insn	2, 0x0305
    229a:	00090103          	lb	sp,0(s2)
    229e:	0100                	.insn	2, 0x0100
    22a0:	00090103          	lb	sp,0(s2)
    22a4:	0100                	.insn	2, 0x0100
    22a6:	0105                	.insn	2, 0x0105
    22a8:	0306                	.insn	2, 0x0306
    22aa:	097e                	.insn	2, 0x097e
    22ac:	0000                	.insn	2, 0x
    22ae:	0501                	.insn	2, 0x0501
    22b0:	09020303          	lb	t1,144(tp) # 90 <_reset_handler+0x10>
    22b4:	0004                	.insn	2, 0x0004
    22b6:	0501                	.insn	2, 0x0501
    22b8:	0301                	.insn	2, 0x0301
    22ba:	097e                	.insn	2, 0x097e
    22bc:	0004                	.insn	2, 0x0004
    22be:	0501                	.insn	2, 0x0501
    22c0:	09030313          	addi	t1,t1,144
    22c4:	0004                	.insn	2, 0x0004
    22c6:	0501                	.insn	2, 0x0501
    22c8:	0301                	.insn	2, 0x0301
    22ca:	097d                	.insn	2, 0x097d
    22cc:	000c                	.insn	2, 0x000c
    22ce:	0501                	.insn	2, 0x0501
    22d0:	09030313          	addi	t1,t1,144
    22d4:	0008                	.insn	2, 0x0008
    22d6:	0501                	.insn	2, 0x0501
    22d8:	0301                	.insn	2, 0x0301
    22da:	097d                	.insn	2, 0x097d
    22dc:	000c                	.insn	2, 0x000c
    22de:	0301                	.insn	2, 0x0301
    22e0:	0900                	.insn	2, 0x0900
    22e2:	0004                	.insn	2, 0x0004
    22e4:	0501                	.insn	2, 0x0501
    22e6:	09020303          	lb	t1,144(tp) # 90 <_reset_handler+0x10>
    22ea:	000c                	.insn	2, 0x000c
    22ec:	0601                	.insn	2, 0x0601
    22ee:	04090103          	lb	sp,64(s2)
    22f2:	0100                	.insn	2, 0x0100
    22f4:	1305                	.insn	2, 0x1305
    22f6:	0306                	.insn	2, 0x0306
    22f8:	0900                	.insn	2, 0x0900
    22fa:	0000                	.insn	2, 0x
    22fc:	0501                	.insn	2, 0x0501
    22fe:	01030603          	lb	a2,16(t1)
    2302:	0409                	.insn	2, 0x0409
    2304:	0100                	.insn	2, 0x0100
    2306:	00090103          	lb	sp,0(s2)
    230a:	0100                	.insn	2, 0x0100
    230c:	0105                	.insn	2, 0x0105
    230e:	0306                	.insn	2, 0x0306
    2310:	0901                	.insn	2, 0x0901
    2312:	0000                	.insn	2, 0x
    2314:	0601                	.insn	2, 0x0601
    2316:	0c090403          	lb	s0,192(s2)
    231a:	0100                	.insn	2, 0x0100
    231c:	0305                	.insn	2, 0x0305
    231e:	00090103          	lb	sp,0(s2)
    2322:	0100                	.insn	2, 0x0100
    2324:	00090103          	lb	sp,0(s2)
    2328:	0100                	.insn	2, 0x0100
    232a:	0105                	.insn	2, 0x0105
    232c:	0306                	.insn	2, 0x0306
    232e:	097e                	.insn	2, 0x097e
    2330:	0000                	.insn	2, 0x
    2332:	0501                	.insn	2, 0x0501
    2334:	09020303          	lb	t1,144(tp) # 90 <_reset_handler+0x10>
    2338:	0004                	.insn	2, 0x0004
    233a:	0501                	.insn	2, 0x0501
    233c:	0301                	.insn	2, 0x0301
    233e:	097e                	.insn	2, 0x097e
    2340:	0004                	.insn	2, 0x0004
    2342:	0501                	.insn	2, 0x0501
    2344:	09030313          	addi	t1,t1,144
    2348:	0004                	.insn	2, 0x0004
    234a:	0501                	.insn	2, 0x0501
    234c:	0301                	.insn	2, 0x0301
    234e:	097d                	.insn	2, 0x097d
    2350:	0010                	.insn	2, 0x0010
    2352:	0501                	.insn	2, 0x0501
    2354:	09030313          	addi	t1,t1,144
    2358:	0004                	.insn	2, 0x0004
    235a:	0501                	.insn	2, 0x0501
    235c:	0301                	.insn	2, 0x0301
    235e:	097d                	.insn	2, 0x097d
    2360:	0008                	.insn	2, 0x0008
    2362:	0301                	.insn	2, 0x0301
    2364:	0900                	.insn	2, 0x0900
    2366:	0004                	.insn	2, 0x0004
    2368:	0501                	.insn	2, 0x0501
    236a:	09020303          	lb	t1,144(tp) # 90 <_reset_handler+0x10>
    236e:	000c                	.insn	2, 0x000c
    2370:	0601                	.insn	2, 0x0601
    2372:	04090103          	lb	sp,64(s2)
    2376:	0100                	.insn	2, 0x0100
    2378:	1305                	.insn	2, 0x1305
    237a:	0306                	.insn	2, 0x0306
    237c:	0900                	.insn	2, 0x0900
    237e:	0000                	.insn	2, 0x
    2380:	0501                	.insn	2, 0x0501
    2382:	01030603          	lb	a2,16(t1)
    2386:	0409                	.insn	2, 0x0409
    2388:	0100                	.insn	2, 0x0100
    238a:	00090103          	lb	sp,0(s2)
    238e:	0100                	.insn	2, 0x0100
    2390:	0105                	.insn	2, 0x0105
    2392:	0306                	.insn	2, 0x0306
    2394:	0901                	.insn	2, 0x0901
    2396:	0000                	.insn	2, 0x
    2398:	0601                	.insn	2, 0x0601
    239a:	0c090403          	lb	s0,192(s2)
    239e:	0100                	.insn	2, 0x0100
    23a0:	0305                	.insn	2, 0x0305
    23a2:	00090103          	lb	sp,0(s2)
    23a6:	0100                	.insn	2, 0x0100
    23a8:	00090103          	lb	sp,0(s2)
    23ac:	0100                	.insn	2, 0x0100
    23ae:	0105                	.insn	2, 0x0105
    23b0:	0306                	.insn	2, 0x0306
    23b2:	097e                	.insn	2, 0x097e
    23b4:	0000                	.insn	2, 0x
    23b6:	0501                	.insn	2, 0x0501
    23b8:	030a                	.insn	2, 0x030a
    23ba:	0902                	.insn	2, 0x0902
    23bc:	0008                	.insn	2, 0x0008
    23be:	0501                	.insn	2, 0x0501
    23c0:	0301                	.insn	2, 0x0301
    23c2:	097e                	.insn	2, 0x097e
    23c4:	0004                	.insn	2, 0x0004
    23c6:	0501                	.insn	2, 0x0501
    23c8:	030a                	.insn	2, 0x030a
    23ca:	0902                	.insn	2, 0x0902
    23cc:	0004                	.insn	2, 0x0004
    23ce:	0501                	.insn	2, 0x0501
    23d0:	0301                	.insn	2, 0x0301
    23d2:	097e                	.insn	2, 0x097e
    23d4:	000c                	.insn	2, 0x000c
    23d6:	0501                	.insn	2, 0x0501
    23d8:	030a                	.insn	2, 0x030a
    23da:	0902                	.insn	2, 0x0902
    23dc:	0004                	.insn	2, 0x0004
    23de:	0501                	.insn	2, 0x0501
    23e0:	0301                	.insn	2, 0x0301
    23e2:	0901                	.insn	2, 0x0901
    23e4:	0004                	.insn	2, 0x0004
    23e6:	0601                	.insn	2, 0x0601
    23e8:	0c090403          	lb	s0,192(s2)
    23ec:	0100                	.insn	2, 0x0100
    23ee:	0305                	.insn	2, 0x0305
    23f0:	00090103          	lb	sp,0(s2)
    23f4:	0100                	.insn	2, 0x0100
    23f6:	0105                	.insn	2, 0x0105
    23f8:	0306                	.insn	2, 0x0306
    23fa:	097f 0000 0501 030a 	.insn	10, 0x0901030a05010000097f
    2402:	0901 
    2404:	0004                	.insn	2, 0x0004
    2406:	0501                	.insn	2, 0x0501
    2408:	0601                	.insn	2, 0x0601
    240a:	18090503          	lb	a0,384(s2)
    240e:	0100                	.insn	2, 0x0100
    2410:	0305                	.insn	2, 0x0305
    2412:	00090103          	lb	sp,0(s2)
    2416:	0100                	.insn	2, 0x0100
    2418:	00090103          	lb	sp,0(s2)
    241c:	0100                	.insn	2, 0x0100
    241e:	0105                	.insn	2, 0x0105
    2420:	0306                	.insn	2, 0x0306
    2422:	097e                	.insn	2, 0x097e
    2424:	0000                	.insn	2, 0x
    2426:	0501                	.insn	2, 0x0501
    2428:	09020303          	lb	t1,144(tp) # 90 <_reset_handler+0x10>
    242c:	0004                	.insn	2, 0x0004
    242e:	0501                	.insn	2, 0x0501
    2430:	0301                	.insn	2, 0x0301
    2432:	097e                	.insn	2, 0x097e
    2434:	0004                	.insn	2, 0x0004
    2436:	0501                	.insn	2, 0x0501
    2438:	09040313          	addi	t1,s0,144
    243c:	0004                	.insn	2, 0x0004
    243e:	0501                	.insn	2, 0x0501
    2440:	0301                	.insn	2, 0x0301
    2442:	097c                	.insn	2, 0x097c
    2444:	0004                	.insn	2, 0x0004
    2446:	0501                	.insn	2, 0x0501
    2448:	09040313          	addi	t1,s0,144
    244c:	000c                	.insn	2, 0x000c
    244e:	0501                	.insn	2, 0x0501
    2450:	0301                	.insn	2, 0x0301
    2452:	097c                	.insn	2, 0x097c
    2454:	0014                	.insn	2, 0x0014
    2456:	0301                	.insn	2, 0x0301
    2458:	0900                	.insn	2, 0x0900
    245a:	0004                	.insn	2, 0x0004
    245c:	0501                	.insn	2, 0x0501
    245e:	09020303          	lb	t1,144(tp) # 90 <_reset_handler+0x10>
    2462:	000c                	.insn	2, 0x000c
    2464:	0601                	.insn	2, 0x0601
    2466:	04090103          	lb	sp,64(s2)
    246a:	0100                	.insn	2, 0x0100
    246c:	1b05                	.insn	2, 0x1b05
    246e:	0306                	.insn	2, 0x0306
    2470:	0900                	.insn	2, 0x0900
    2472:	0000                	.insn	2, 0x
    2474:	0501                	.insn	2, 0x0501
    2476:	01030603          	lb	a2,16(t1)
    247a:	0809                	.insn	2, 0x0809
    247c:	0100                	.insn	2, 0x0100
    247e:	1305                	.insn	2, 0x1305
    2480:	0306                	.insn	2, 0x0306
    2482:	0900                	.insn	2, 0x0900
    2484:	0000                	.insn	2, 0x
    2486:	0501                	.insn	2, 0x0501
    2488:	01030603          	lb	a2,16(t1)
    248c:	0409                	.insn	2, 0x0409
    248e:	0100                	.insn	2, 0x0100
    2490:	00090103          	lb	sp,0(s2)
    2494:	0100                	.insn	2, 0x0100
    2496:	0105                	.insn	2, 0x0105
    2498:	0306                	.insn	2, 0x0306
    249a:	0901                	.insn	2, 0x0901
    249c:	0000                	.insn	2, 0x
    249e:	0901                	.insn	2, 0x0901
    24a0:	000c                	.insn	2, 0x000c
    24a2:	0100                	.insn	2, 0x0100
    24a4:	6901                	.insn	2, 0x6901
    24a6:	0000                	.insn	2, 0x
    24a8:	0500                	.insn	2, 0x0500
    24aa:	0400                	.insn	2, 0x0400
    24ac:	4900                	.insn	2, 0x4900
    24ae:	0000                	.insn	2, 0x
    24b0:	0100                	.insn	2, 0x0100
    24b2:	0101                	.insn	2, 0x0101
    24b4:	000d0efb          	.insn	4, 0x000d0efb
    24b8:	0101                	.insn	2, 0x0101
    24ba:	0101                	.insn	2, 0x0101
    24bc:	0000                	.insn	2, 0x
    24be:	0100                	.insn	2, 0x0100
    24c0:	0000                	.insn	2, 0x
    24c2:	0101                	.insn	2, 0x0101
    24c4:	1f01                	.insn	2, 0x1f01
    24c6:	d105                	.insn	2, 0xd105
    24c8:	0002                	.insn	2, 0x0002
    24ca:	7200                	.insn	2, 0x7200
    24cc:	0000                	.insn	2, 0x
    24ce:	4600                	.insn	2, 0x4600
    24d0:	74000003          	lb	zero,1856(zero) # 740 <check_values+0x126>
    24d4:	4d000003          	lb	zero,1232(zero) # 4d0 <compute_expected+0x7e>
    24d8:	0002                	.insn	2, 0x0002
    24da:	0200                	.insn	2, 0x0200
    24dc:	1f01                	.insn	2, 0x1f01
    24de:	0f02                	.insn	2, 0x0f02
    24e0:	b205                	.insn	2, 0xb205
    24e2:	01000003          	lb	zero,16(zero) # 10 <_vector_table_start+0x10>
    24e6:	03b2                	.insn	2, 0x03b2
    24e8:	0000                	.insn	2, 0x
    24ea:	6b01                	.insn	2, 0x6b01
    24ec:	0002                	.insn	2, 0x0002
    24ee:	0200                	.insn	2, 0x0200
    24f0:	027c                	.insn	2, 0x027c
    24f2:	0000                	.insn	2, 0x
    24f4:	0003a703          	lw	a4,0(t2)
    24f8:	0400                	.insn	2, 0x0400
    24fa:	2b05                	.insn	2, 0x2b05
    24fc:	0500                	.insn	2, 0x0500
    24fe:	8802                	.insn	2, 0x8802
    2500:	1600001b          	.insn	4, 0x1600001b
    2504:	0505                	.insn	2, 0x0505
    2506:	00090203          	lb	tp,0(s2)
    250a:	0100                	.insn	2, 0x0100
    250c:	0409                	.insn	2, 0x0409
    250e:	0000                	.insn	2, 0x
    2510:	0101                	.insn	2, 0x0101
    2512:	01d0                	.insn	2, 0x01d0
    2514:	0000                	.insn	2, 0x
    2516:	0005                	.insn	2, 0x0005
    2518:	0004                	.insn	2, 0x0004
    251a:	0049                	.insn	2, 0x0049
    251c:	0000                	.insn	2, 0x
    251e:	0101                	.insn	2, 0x0101
    2520:	fb01                	.insn	2, 0xfb01
    2522:	0d0e                	.insn	2, 0x0d0e
    2524:	0100                	.insn	2, 0x0100
    2526:	0101                	.insn	2, 0x0101
    2528:	0001                	.insn	2, 0x0001
    252a:	0000                	.insn	2, 0x
    252c:	0001                	.insn	2, 0x0001
    252e:	0100                	.insn	2, 0x0100
    2530:	0101                	.insn	2, 0x0101
    2532:	051f 02d1 0000      	.insn	6, 0x02d1051f
    2538:	0072                	.insn	2, 0x0072
    253a:	0000                	.insn	2, 0x
    253c:	0346                	.insn	2, 0x0346
    253e:	0000                	.insn	2, 0x
    2540:	0374                	.insn	2, 0x0374
    2542:	0000                	.insn	2, 0x
    2544:	024d                	.insn	2, 0x024d
    2546:	0000                	.insn	2, 0x
    2548:	0102                	.insn	2, 0x0102
    254a:	021f 050f 03bf      	.insn	6, 0x03bf050f021f
    2550:	0000                	.insn	2, 0x
    2552:	bf01                	.insn	2, 0xbf01
    2554:	01000003          	lb	zero,16(zero) # 10 <_vector_table_start+0x10>
    2558:	0000026b          	.insn	4, 0x026b
    255c:	7c02                	.insn	2, 0x7c02
    255e:	0002                	.insn	2, 0x0002
    2560:	0300                	.insn	2, 0x0300
    2562:	000003a7          	.insn	4, 0x03a7
    2566:	0504                	.insn	2, 0x0504
    2568:	02050023          	sb	zero,32(a0) # 300036a <_peripheral_HLS_CONTROL_end+0x2fc036a>
    256c:	1b8c                	.insn	2, 0x1b8c
    256e:	0000                	.insn	2, 0x
    2570:	03020517          	auipc	a0,0x3020
    2574:	0902                	.insn	2, 0x0902
    2576:	0000                	.insn	2, 0x
    2578:	0501                	.insn	2, 0x0501
    257a:	060e                	.insn	2, 0x060e
    257c:	00090003          	lb	zero,0(s2)
    2580:	0100                	.insn	2, 0x0100
    2582:	0205                	.insn	2, 0x0205
    2584:	0306                	.insn	2, 0x0306
    2586:	0901                	.insn	2, 0x0901
    2588:	0008                	.insn	2, 0x0008
    258a:	0501                	.insn	2, 0x0501
    258c:	0618                	.insn	2, 0x0618
    258e:	00090003          	lb	zero,0(s2)
    2592:	0100                	.insn	2, 0x0100
    2594:	0105                	.insn	2, 0x0105
    2596:	08090203          	lb	tp,128(s2)
    259a:	0100                	.insn	2, 0x0100
    259c:	4205                	.insn	2, 0x4205
    259e:	0306                	.insn	2, 0x0306
    25a0:	00040903          	lb	s2,0(s0)
    25a4:	0501                	.insn	2, 0x0501
    25a6:	0302                	.insn	2, 0x0302
    25a8:	0901                	.insn	2, 0x0901
    25aa:	0000                	.insn	2, 0x
    25ac:	0501                	.insn	2, 0x0501
    25ae:	0615                	.insn	2, 0x0615
    25b0:	00090003          	lb	zero,0(s2)
    25b4:	0100                	.insn	2, 0x0100
    25b6:	3f05                	.insn	2, 0x3f05
    25b8:	0c090003          	lb	zero,192(s2)
    25bc:	0100                	.insn	2, 0x0100
    25be:	0105                	.insn	2, 0x0105
    25c0:	04090103          	lb	sp,64(s2)
    25c4:	0100                	.insn	2, 0x0100
    25c6:	4205                	.insn	2, 0x4205
    25c8:	0306                	.insn	2, 0x0306
    25ca:	00080903          	lb	s2,0(a6)
    25ce:	0501                	.insn	2, 0x0501
    25d0:	0302                	.insn	2, 0x0302
    25d2:	0901                	.insn	2, 0x0901
    25d4:	0000                	.insn	2, 0x
    25d6:	0501                	.insn	2, 0x0501
    25d8:	0615                	.insn	2, 0x0615
    25da:	00090003          	lb	zero,0(s2)
    25de:	0100                	.insn	2, 0x0100
    25e0:	3605                	.insn	2, 0x3605
    25e2:	0c090003          	lb	zero,192(s2)
    25e6:	0100                	.insn	2, 0x0100
    25e8:	0105                	.insn	2, 0x0105
    25ea:	04090103          	lb	sp,64(s2)
    25ee:	0100                	.insn	2, 0x0100
    25f0:	2105                	.insn	2, 0x2105
    25f2:	0306                	.insn	2, 0x0306
    25f4:	0904                	.insn	2, 0x0904
    25f6:	0008                	.insn	2, 0x0008
    25f8:	0501                	.insn	2, 0x0501
    25fa:	0305                	.insn	2, 0x0305
    25fc:	0902                	.insn	2, 0x0902
    25fe:	0000                	.insn	2, 0x
    2600:	0501                	.insn	2, 0x0501
    2602:	060d                	.insn	2, 0x060d
    2604:	00090003          	lb	zero,0(s2)
    2608:	0100                	.insn	2, 0x0100
    260a:	0505                	.insn	2, 0x0505
    260c:	0200                	.insn	2, 0x0200
    260e:	0104                	.insn	2, 0x0104
    2610:	0306                	.insn	2, 0x0306
    2612:	0902                	.insn	2, 0x0902
    2614:	0008                	.insn	2, 0x0008
    2616:	0501                	.insn	2, 0x0501
    2618:	000c                	.insn	2, 0x000c
    261a:	0402                	.insn	2, 0x0402
    261c:	0301                	.insn	2, 0x0301
    261e:	097e                	.insn	2, 0x097e
    2620:	0000                	.insn	2, 0x
    2622:	0501                	.insn	2, 0x0501
    2624:	0002                	.insn	2, 0x0002
    2626:	0402                	.insn	2, 0x0402
    2628:	0301                	.insn	2, 0x0301
    262a:	0979                	.insn	2, 0x0979
    262c:	0000                	.insn	2, 0x
    262e:	0501                	.insn	2, 0x0501
    2630:	0015                	.insn	2, 0x0015
    2632:	0402                	.insn	2, 0x0402
    2634:	0601                	.insn	2, 0x0601
    2636:	00090003          	lb	zero,0(s2)
    263a:	0100                	.insn	2, 0x0100
    263c:	2105                	.insn	2, 0x2105
    263e:	0200                	.insn	2, 0x0200
    2640:	0104                	.insn	2, 0x0104
    2642:	04090003          	lb	zero,64(s2)
    2646:	0100                	.insn	2, 0x0100
    2648:	0c05                	.insn	2, 0x0c05
    264a:	0200                	.insn	2, 0x0200
    264c:	0104                	.insn	2, 0x0104
    264e:	04090703          	lb	a4,64(s2)
    2652:	0100                	.insn	2, 0x0100
    2654:	0505                	.insn	2, 0x0505
    2656:	0306                	.insn	2, 0x0306
    2658:	0905                	.insn	2, 0x0905
    265a:	0004                	.insn	2, 0x0004
    265c:	0501                	.insn	2, 0x0501
    265e:	0615                	.insn	2, 0x0615
    2660:	00090003          	lb	zero,0(s2)
    2664:	0100                	.insn	2, 0x0100
    2666:	0105                	.insn	2, 0x0105
    2668:	04090303          	lb	t1,64(s2)
    266c:	0100                	.insn	2, 0x0100
    266e:	1905                	.insn	2, 0x1905
    2670:	0306                	.insn	2, 0x0306
    2672:	0902                	.insn	2, 0x0902
    2674:	0004                	.insn	2, 0x0004
    2676:	0501                	.insn	2, 0x0501
    2678:	0305                	.insn	2, 0x0305
    267a:	0902                	.insn	2, 0x0902
    267c:	0000                	.insn	2, 0x
    267e:	0501                	.insn	2, 0x0501
    2680:	0003060b          	.insn	4, 0x0003060b
    2684:	0009                	.insn	2, 0x0009
    2686:	0100                	.insn	2, 0x0100
    2688:	0505                	.insn	2, 0x0505
    268a:	0200                	.insn	2, 0x0200
    268c:	0104                	.insn	2, 0x0104
    268e:	0306                	.insn	2, 0x0306
    2690:	0902                	.insn	2, 0x0902
    2692:	0008                	.insn	2, 0x0008
    2694:	0501                	.insn	2, 0x0501
    2696:	0402000b          	.insn	4, 0x0402000b
    269a:	0301                	.insn	2, 0x0301
    269c:	097e                	.insn	2, 0x097e
    269e:	0000                	.insn	2, 0x
    26a0:	0501                	.insn	2, 0x0501
    26a2:	0002                	.insn	2, 0x0002
    26a4:	0402                	.insn	2, 0x0402
    26a6:	0301                	.insn	2, 0x0301
    26a8:	0968                	.insn	2, 0x0968
    26aa:	0000                	.insn	2, 0x
    26ac:	0501                	.insn	2, 0x0501
    26ae:	0015                	.insn	2, 0x0015
    26b0:	0402                	.insn	2, 0x0402
    26b2:	0601                	.insn	2, 0x0601
    26b4:	00090003          	lb	zero,0(s2)
    26b8:	0100                	.insn	2, 0x0100
    26ba:	0b05                	.insn	2, 0x0b05
    26bc:	0200                	.insn	2, 0x0200
    26be:	0104                	.insn	2, 0x0104
    26c0:	04091803          	lh	a6,64(s2)
    26c4:	0100                	.insn	2, 0x0100
    26c6:	0505                	.insn	2, 0x0505
    26c8:	0306                	.insn	2, 0x0306
    26ca:	00080903          	lb	s2,0(a6)
    26ce:	0501                	.insn	2, 0x0501
    26d0:	00030617          	auipc	a2,0x30
    26d4:	0009                	.insn	2, 0x0009
    26d6:	0100                	.insn	2, 0x0100
    26d8:	0105                	.insn	2, 0x0105
    26da:	04090203          	lb	tp,64(s2)
    26de:	0100                	.insn	2, 0x0100
    26e0:	0409                	.insn	2, 0x0409
    26e2:	0000                	.insn	2, 0x
    26e4:	0101                	.insn	2, 0x0101

Disassembly of section .debug_str:

00000000 <.debug_str>:
   0:	706d6f63          	bltu	s10,t1,71e <check_values+0x104>
   4:	7475                	.insn	2, 0x7475
   6:	5f65                	.insn	2, 0x5f65
   8:	7865                	.insn	2, 0x7865
   a:	6570                	.insn	2, 0x6570
   c:	64657463          	bgeu	a0,t1,654 <check_values+0x3a>
  10:	7400                	.insn	2, 0x7400
  12:	6e69                	.insn	2, 0x6e69
  14:	4979                	.insn	2, 0x4979
  16:	6e695f4f          	.insn	4, 0x6e695f4f
  1a:	7469                	.insn	2, 0x7469
  1c:	7200                	.insn	2, 0x7200
  1e:	7365                	.insn	2, 0x7365
  20:	6c75                	.insn	2, 0x6c75
  22:	0074                	.insn	2, 0x0074
  24:	6564                	.insn	2, 0x6564
  26:	58007473          	csrrci	s0,0x580,0
  2a:	6c69                	.insn	2, 0x6c69
  2c:	495f 336e 0032      	.insn	6, 0x0032336e495f
  32:	5f727363          	bgeu	tp,s7,618 <compute_expected+0x1c6>
  36:	6572                	.insn	2, 0x6572
  38:	6461                	.insn	2, 0x6461
  3a:	695f 006e 6873      	.insn	6, 0x6873006e695f
  40:	2074726f          	jal	tp,47a46 <_peripheral_HLS_CONTROL_end+0x7a46>
  44:	6e69                	.insn	2, 0x6e69
  46:	0074                	.insn	2, 0x0074
  48:	657a6973          	csrrsi	s2,hviprio2h,20
  4c:	745f 6d00 6961      	.insn	6, 0x69616d00745f
  52:	006e                	.insn	2, 0x006e
  54:	5f5f 6975 746e      	.insn	6, 0x746e69755f5f
  5a:	745f3233          	.insn	4, 0x745f3233
  5e:	5f00                	.insn	2, 0x5f00
  60:	6570                	.insn	2, 0x6570
  62:	6972                	.insn	2, 0x6972
  64:	6870                	.insn	2, 0x6870
  66:	7265                	.insn	2, 0x7265
  68:	6c61                	.insn	2, 0x6c61
  6a:	555f 5241 5f54      	.insn	6, 0x5f545241555f
  70:	72617473          	csrrci	s0,mhpmevent6h,2
  74:	0074                	.insn	2, 0x0074
  76:	656d                	.insn	2, 0x656d
  78:	636d                	.insn	2, 0x636d
  7a:	7970                	.insn	2, 0x7970
  7c:	6c00                	.insn	2, 0x6c00
  7e:	20676e6f          	jal	t3,76284 <_peripheral_HLS_CONTROL_end+0x36284>
  82:	6f6c                	.insn	2, 0x6f6c
  84:	676e                	.insn	2, 0x676e
  86:	6920                	.insn	2, 0x6920
  88:	746e                	.insn	2, 0x746e
  8a:	6d00                	.insn	2, 0x6d00
  8c:	6d65                	.insn	2, 0x6d65
  8e:	00746573          	csrrsi	a0,0x7,8
  92:	6f6c                	.insn	2, 0x6f6c
  94:	676e                	.insn	2, 0x676e
  96:	6420                	.insn	2, 0x6420
  98:	6c62756f          	jal	a0,2775e <_peripheral_TIM1_end+0x711e>
  9c:	0065                	.insn	2, 0x0065
  9e:	6e75                	.insn	2, 0x6e75
  a0:	6e676973          	csrrsi	s2,0x6e6,14
  a4:	6465                	.insn	2, 0x6465
  a6:	6320                	.insn	2, 0x6320
  a8:	6168                	.insn	2, 0x6168
  aa:	0072                	.insn	2, 0x0072
  ac:	705f 7265 7069      	.insn	6, 0x70697265705f
  b2:	6568                	.insn	2, 0x6568
  b4:	6172                	.insn	2, 0x6172
  b6:	5f6c                	.insn	2, 0x5f6c
  b8:	4c48                	.insn	2, 0x4c48
  ba:	4f435f53          	.insn	4, 0x4f435f53
  be:	544e                	.insn	2, 0x544e
  c0:	4f52                	.insn	2, 0x4f52
  c2:	5f4c                	.insn	2, 0x5f4c
  c4:	72617473          	csrrci	s0,mhpmevent6h,2
  c8:	0074                	.insn	2, 0x0074
  ca:	6f6c                	.insn	2, 0x6f6c
  cc:	676e                	.insn	2, 0x676e
  ce:	6c20                	.insn	2, 0x6c20
  d0:	20676e6f          	jal	t3,762d6 <_peripheral_HLS_CONTROL_end+0x362d6>
  d4:	6e75                	.insn	2, 0x6e75
  d6:	6e676973          	csrrsi	s2,0x6e6,14
  da:	6465                	.insn	2, 0x6465
  dc:	6920                	.insn	2, 0x6920
  de:	746e                	.insn	2, 0x746e
  e0:	5600                	.insn	2, 0x5600
  e2:	6c61                	.insn	2, 0x6c61
  e4:	6575                	.insn	2, 0x6575
  e6:	4c00                	.insn	2, 0x4c00
  e8:	6c61636f          	jal	t1,167ae <_peripheral_DM_mem_start+0x67ae>
  ec:	6441                	.insn	2, 0x6441
  ee:	7264                	.insn	2, 0x7264
  f0:	7300                	.insn	2, 0x7300
  f2:	6f68                	.insn	2, 0x6f68
  f4:	7472                	.insn	2, 0x7472
  f6:	7520                	.insn	2, 0x7520
  f8:	736e                	.insn	2, 0x736e
  fa:	6769                	.insn	2, 0x6769
  fc:	656e                	.insn	2, 0x656e
  fe:	2064                	.insn	2, 0x2064
 100:	6e69                	.insn	2, 0x6e69
 102:	0074                	.insn	2, 0x0074
 104:	425f 6f6f 006c      	.insn	6, 0x006c6f6f425f
 10a:	6958                	.insn	2, 0x6958
 10c:	5f6c                	.insn	2, 0x5f6c
 10e:	3374754f          	.insn	4, 0x3374754f
 112:	0032                	.insn	2, 0x0032
 114:	6e69                	.insn	2, 0x6e69
 116:	7469                	.insn	2, 0x7469
 118:	645f 7461 0061      	.insn	6, 0x00617461645f
 11e:	4955                	.insn	2, 0x4955
 120:	544e                	.insn	2, 0x544e
 122:	5450                	.insn	2, 0x5450
 124:	0052                	.insn	2, 0x0052
 126:	5f5f 6975 746e      	.insn	6, 0x746e69755f5f
 12c:	7470                	.insn	2, 0x7470
 12e:	5f72                	.insn	2, 0x5f72
 130:	0074                	.insn	2, 0x0074
 132:	5f727363          	bgeu	tp,s7,718 <check_values+0xfe>
 136:	6572                	.insn	2, 0x6572
 138:	6461                	.insn	2, 0x6461
 13a:	6300                	.insn	2, 0x6300
 13c:	6568                	.insn	2, 0x6568
 13e:	765f6b63          	bltu	t5,t0,8b4 <dump_csrs+0x52>
 142:	6c61                	.insn	2, 0x6c61
 144:	6575                	.insn	2, 0x6575
 146:	4e470073          	.insn	4, 0x4e470073
 14a:	2055                	.insn	2, 0x2055
 14c:	20373143          	.insn	4, 0x20373143
 150:	3331                	.insn	2, 0x3331
 152:	322e                	.insn	2, 0x322e
 154:	302e                	.insn	2, 0x302e
 156:	2d20                	.insn	2, 0x2d20
 158:	616d                	.insn	2, 0x616d
 15a:	6962                	.insn	2, 0x6962
 15c:	693d                	.insn	2, 0x693d
 15e:	706c                	.insn	2, 0x706c
 160:	2d203233          	.insn	4, 0x2d203233
 164:	746d                	.insn	2, 0x746d
 166:	6e75                	.insn	2, 0x6e75
 168:	3d65                	.insn	2, 0x3d65
 16a:	6f72                	.insn	2, 0x6f72
 16c:	74656b63          	bltu	a0,t1,8c2 <dump_csrs+0x60>
 170:	2d20                	.insn	2, 0x2d20
 172:	696d                	.insn	2, 0x696d
 174:	732d6173          	csrrsi	sp,mhpmevent18h,26
 178:	6570                	.insn	2, 0x6570
 17a:	30323d63          	.insn	4, 0x30323d63
 17e:	3931                	.insn	2, 0x3931
 180:	3231                	.insn	2, 0x3231
 182:	3331                	.insn	2, 0x3331
 184:	2d20                	.insn	2, 0x2d20
 186:	616d                	.insn	2, 0x616d
 188:	6372                	.insn	2, 0x6372
 18a:	3d68                	.insn	2, 0x3d68
 18c:	7672                	.insn	2, 0x7672
 18e:	6d693233          	.insn	4, 0x6d693233
 192:	6361                	.insn	2, 0x6361
 194:	7a5f 6369 7273      	.insn	6, 0x727363697a5f
 19a:	7a5f 6669 6e65      	.insn	6, 0x6e6566697a5f
 1a0:	20696563          	bltu	s2,t1,3aa <init_data+0x17e>
 1a4:	672d                	.insn	2, 0x672d
 1a6:	2d20                	.insn	2, 0x2d20
 1a8:	6400304f          	.insn	4, 0x6400304f
 1ac:	6d75                	.insn	2, 0x6d75
 1ae:	5f70                	.insn	2, 0x5f70
 1b0:	73727363          	bgeu	tp,s7,8d6 <dump_csrs+0x74>
 1b4:	7400                	.insn	2, 0x7400
 1b6:	7261                	.insn	2, 0x7261
 1b8:	5f746567          	.insn	4, 0x5f746567
 1bc:	7974                	.insn	2, 0x7974
 1be:	6570                	.insn	2, 0x6570
 1c0:	745f 7000 6972      	.insn	6, 0x69727000745f
 1c6:	746e                	.insn	2, 0x746e
 1c8:	635f 6e6f 7274      	.insn	6, 0x72746e6f635f
 1ce:	635f6c6f          	jal	s8,f7002 <_peripheral_HLS_CONTROL_end+0xb7002>
 1d2:	2f007273          	csrrci	tp,0x2f0,0
 1d6:	6f68                	.insn	2, 0x6f68
 1d8:	656d                	.insn	2, 0x656d
 1da:	6e69762f          	.insn	4, 0x6e69762f
 1de:	7a6e6563          	bltu	t3,t1,988 <print_control_csr+0x40>
 1e2:	49522f6f          	jal	t5,22e76 <_peripheral_TIM1_end+0x2836>
 1e6:	562d4353          	.insn	4, 0x562d4353
 1ea:	6a72702f          	.insn	4, 0x6a72702f
 1ee:	6e552f73          	csrrs	t5,0x6e5,a0
 1f2:	6e69                	.insn	2, 0x6e69
 1f4:	5361                	.insn	2, 0x5361
 1f6:	442f436f          	jal	t1,f4638 <_peripheral_HLS_CONTROL_end+0xb4638>
 1fa:	30324453          	.insn	4, 0x30324453
 1fe:	3532                	.insn	2, 0x3532
 200:	436f532f          	.insn	4, 0x436f532f
 204:	4453442f          	.insn	4, 0x4453442f
 208:	3032                	.insn	2, 0x3032
 20a:	3532                	.insn	2, 0x3532
 20c:	685f 736c 675f      	.insn	6, 0x675f736c685f
 212:	6d65                	.insn	2, 0x6d65
 214:	2f6d                	.insn	2, 0x2f6d
 216:	532f7773          	csrrci	a4,0x532,30
 21a:	632f436f          	jal	t1,f484c <_peripheral_HLS_CONTROL_end+0xb484c>
 21e:	6f6d6d6f          	jal	s10,d6914 <_peripheral_HLS_CONTROL_end+0x96914>
 222:	2f6e                	.insn	2, 0x2f6e
 224:	72617473          	csrrci	s0,mhpmevent6h,2
 228:	7574                	.insn	2, 0x7574
 22a:	2e70                	.insn	2, 0x2e70
 22c:	682f0073          	.insn	4, 0x682f0073
 230:	2f656d6f          	jal	s10,56526 <_peripheral_HLS_CONTROL_end+0x16526>
 234:	6976                	.insn	2, 0x6976
 236:	636e                	.insn	2, 0x636e
 238:	6e65                	.insn	2, 0x6e65
 23a:	6f7a                	.insn	2, 0x6f7a
 23c:	5349522f          	.insn	4, 0x5349522f
 240:	2f562d43          	.insn	4, 0x2f562d43
 244:	7270                	.insn	2, 0x7270
 246:	736a                	.insn	2, 0x736a
 248:	696e552f          	.insn	4, 0x696e552f
 24c:	616e                	.insn	2, 0x616e
 24e:	2f436f53          	.insn	4, 0x2f436f53
 252:	5344                	.insn	2, 0x5344
 254:	3244                	.insn	2, 0x3244
 256:	3230                	.insn	2, 0x3230
 258:	2f35                	.insn	2, 0x2f35
 25a:	2f436f53          	.insn	4, 0x2f436f53
 25e:	5344                	.insn	2, 0x5344
 260:	3244                	.insn	2, 0x3244
 262:	3230                	.insn	2, 0x3230
 264:	5f35                	.insn	2, 0x5f35
 266:	6c68                	.insn	2, 0x6c68
 268:	65675f73          	csrrwi	t5,hviprio1h,14
 26c:	6d6d                	.insn	2, 0x6d6d
 26e:	2f77732f          	.insn	4, 0x2f77732f
 272:	2f436f53          	.insn	4, 0x2f436f53
 276:	7865                	.insn	2, 0x7865
 278:	6d61                	.insn	2, 0x6d61
 27a:	6c70                	.insn	2, 0x6c70
 27c:	7365                	.insn	2, 0x7365
 27e:	7375632f          	.insn	4, 0x7375632f
 282:	6f74                	.insn	2, 0x6f74
 284:	5f6d                	.insn	2, 0x5f6d
 286:	6c68                	.insn	2, 0x6c68
 288:	6f635f73          	csrrwi	t5,0x6f6,6
 28c:	766e                	.insn	2, 0x766e
 28e:	6e5f 6961 6576      	.insn	6, 0x657669616e5f
 294:	4700                	.insn	2, 0x4700
 296:	554e                	.insn	2, 0x554e
 298:	4120                	.insn	2, 0x4120
 29a:	2e322053          	.insn	4, 0x2e322053
 29e:	3234                	.insn	2, 0x3234
 2a0:	6f00                	.insn	2, 0x6f00
 2a2:	7475                	.insn	2, 0x7475
 2a4:	665f 7463 775f      	.insn	6, 0x775f7463665f
 2aa:	6172                	.insn	2, 0x6172
 2ac:	0070                	.insn	2, 0x0070
 2ae:	6f5f 7475 625f      	.insn	6, 0x625f74756f5f
 2b4:	6675                	.insn	2, 0x6675
 2b6:	6566                	.insn	2, 0x6566
 2b8:	0072                	.insn	2, 0x0072
 2ba:	6f5f 7475 6e5f      	.insn	6, 0x6e5f74756f5f
 2c0:	6c75                	.insn	2, 0x6c75
 2c2:	006c                	.insn	2, 0x006c
 2c4:	6f5f 7475 635f      	.insn	6, 0x635f74756f5f
 2ca:	6168                	.insn	2, 0x6168
 2cc:	0072                	.insn	2, 0x0072
 2ce:	616d                	.insn	2, 0x616d
 2d0:	7378                	.insn	2, 0x7378
 2d2:	7a69                	.insn	2, 0x7a69
 2d4:	0065                	.insn	2, 0x0065
 2d6:	6176                	.insn	2, 0x6176
 2d8:	756c                	.insn	2, 0x756c
 2da:	0065                	.insn	2, 0x0065
 2dc:	6f5f 7475 665f      	.insn	6, 0x665f74756f5f
 2e2:	73007463          	bgeu	zero,a6,a0a <main+0x14>
 2e6:	6174                	.insn	2, 0x6174
 2e8:	7472                	.insn	2, 0x7472
 2ea:	695f 7864 7700      	.insn	6, 0x77007864695f
 2f0:	6469                	.insn	2, 0x6469
 2f2:	6874                	.insn	2, 0x6874
 2f4:	6600                	.insn	2, 0x6600
 2f6:	72707463          	bgeu	zero,t2,a1e <main+0x28>
 2fa:	6e69                	.insn	2, 0x6e69
 2fc:	6674                	.insn	2, 0x6674
 2fe:	6e00                	.insn	2, 0x6e00
 300:	6765                	.insn	2, 0x6765
 302:	7461                	.insn	2, 0x7461
 304:	7669                	.insn	2, 0x7669
 306:	0065                	.insn	2, 0x0065
 308:	6e5f 6f74 5f61      	.insn	6, 0x5f616f746e5f
 30e:	6f66                	.insn	2, 0x6f66
 310:	6d72                	.insn	2, 0x6d72
 312:	7461                	.insn	2, 0x7461
 314:	5f00                	.insn	2, 0x5f00
 316:	7376                	.insn	2, 0x7376
 318:	706e                	.insn	2, 0x706e
 31a:	6972                	.insn	2, 0x6972
 31c:	746e                	.insn	2, 0x746e
 31e:	0066                	.insn	2, 0x0066
 320:	5f5f 6975 746e      	.insn	6, 0x746e69755f5f
 326:	5f38                	.insn	2, 0x5f38
 328:	0074                	.insn	2, 0x0074
 32a:	5f74756f          	jal	a0,48120 <_peripheral_HLS_CONTROL_end+0x8120>
 32e:	6366                	.insn	2, 0x6366
 330:	5f74                	.insn	2, 0x5f74
 332:	7974                	.insn	2, 0x7974
 334:	6570                	.insn	2, 0x6570
 336:	5f00                	.insn	2, 0x5f00
 338:	746e                	.insn	2, 0x746e
 33a:	6c5f616f          	jal	sp,f71fe <_peripheral_HLS_CONTROL_end+0xb71fe>
 33e:	00676e6f          	jal	t3,76344 <_peripheral_HLS_CONTROL_end+0x36344>
 342:	6c66                	.insn	2, 0x6c66
 344:	6761                	.insn	2, 0x6761
 346:	73760073          	.insn	4, 0x73760073
 34a:	706e                	.insn	2, 0x706e
 34c:	6972                	.insn	2, 0x6972
 34e:	746e                	.insn	2, 0x746e
 350:	5f66                	.insn	2, 0x5f66
 352:	6d00                	.insn	2, 0x6d00
 354:	7861                	.insn	2, 0x7861
 356:	656c                	.insn	2, 0x656c
 358:	006e                	.insn	2, 0x006e
 35a:	615f 6f74 0069      	.insn	6, 0x00696f74615f
 360:	735f 7274 6c6e      	.insn	6, 0x6c6e7274735f
 366:	6e65                	.insn	2, 0x6e65
 368:	735f 7300 7270      	.insn	6, 0x72707300735f
 36e:	6e69                	.insn	2, 0x6e69
 370:	6674                	.insn	2, 0x6674
 372:	005f 695f 5f73      	.insn	6, 0x5f73695f005f
 378:	6964                	.insn	2, 0x6964
 37a:	00746967          	.insn	4, 0x00746967
 37e:	20554e47          	.insn	4, 0x20554e47
 382:	20373143          	.insn	4, 0x20373143
 386:	3231                	.insn	2, 0x3231
 388:	322e                	.insn	2, 0x322e
 38a:	302e                	.insn	2, 0x302e
 38c:	2d20                	.insn	2, 0x2d20
 38e:	616d                	.insn	2, 0x616d
 390:	6962                	.insn	2, 0x6962
 392:	693d                	.insn	2, 0x693d
 394:	706c                	.insn	2, 0x706c
 396:	2d203233          	.insn	4, 0x2d203233
 39a:	746d                	.insn	2, 0x746d
 39c:	6e75                	.insn	2, 0x6e75
 39e:	3d65                	.insn	2, 0x3d65
 3a0:	6f72                	.insn	2, 0x6f72
 3a2:	74656b63          	bltu	a0,t1,af8 <main+0x102>
 3a6:	2d20                	.insn	2, 0x2d20
 3a8:	696d                	.insn	2, 0x696d
 3aa:	732d6173          	csrrsi	sp,mhpmevent18h,26
 3ae:	6570                	.insn	2, 0x6570
 3b0:	30323d63          	.insn	4, 0x30323d63
 3b4:	3931                	.insn	2, 0x3931
 3b6:	3231                	.insn	2, 0x3231
 3b8:	3331                	.insn	2, 0x3331
 3ba:	2d20                	.insn	2, 0x2d20
 3bc:	616d                	.insn	2, 0x616d
 3be:	6372                	.insn	2, 0x6372
 3c0:	3d68                	.insn	2, 0x3d68
 3c2:	7672                	.insn	2, 0x7672
 3c4:	6d693233          	.insn	4, 0x6d693233
 3c8:	7a5f 6369 7273      	.insn	6, 0x727363697a5f
 3ce:	7a5f 6669 6e65      	.insn	6, 0x6e6566697a5f
 3d4:	20696563          	bltu	s2,t1,5de <compute_expected+0x18c>
 3d8:	672d                	.insn	2, 0x672d
 3da:	2d20                	.insn	2, 0x2d20
 3dc:	5f00324f          	.insn	4, 0x5f00324f
 3e0:	625f 6975 746c      	.insn	6, 0x746c6975625f
 3e6:	6e69                	.insn	2, 0x6e69
 3e8:	765f 5f61 696c      	.insn	6, 0x696c5f61765f
 3ee:	63007473          	csrrci	s0,0x630,0
 3f2:	6168                	.insn	2, 0x6168
 3f4:	6172                	.insn	2, 0x6172
 3f6:	72657463          	bgeu	a0,t1,b1e <main+0x128>
 3fa:	5f00                	.insn	2, 0x5f00
 3fc:	5f74756f          	jal	a0,481f2 <_peripheral_HLS_CONTROL_end+0x81f2>
 400:	6572                	.insn	2, 0x6572
 402:	0076                	.insn	2, 0x0076
 404:	6e756f63          	bltu	a0,t2,b02 <main+0x10c>
 408:	0074                	.insn	2, 0x0074
 40a:	705f 7475 6863      	.insn	6, 0x68637475705f
 410:	7261                	.insn	2, 0x7261
 412:	6f00                	.insn	2, 0x6f00
 414:	7475                	.insn	2, 0x7475
 416:	665f 7463 775f      	.insn	6, 0x775f7463665f
 41c:	6172                	.insn	2, 0x6172
 41e:	5f70                	.insn	2, 0x5f70
 420:	7974                	.insn	2, 0x7974
 422:	6570                	.insn	2, 0x6570
 424:	7000                	.insn	2, 0x7000
 426:	6572                	.insn	2, 0x6572
 428:	5f5f0063          	beq	t5,s5,a08 <main+0x12>
 42c:	63756e67          	.insn	4, 0x63756e67
 430:	765f 5f61 696c      	.insn	6, 0x696c5f61765f
 436:	75007473          	csrrci	s0,0x750,0
 43a:	7261                	.insn	2, 0x7261
 43c:	5f74                	.insn	2, 0x5f74
 43e:	646e6573          	csrrsi	a0,hviprio1,28
 442:	635f 6168 0072      	.insn	6, 0x00726168635f
 448:	6162                	.insn	2, 0x6162
 44a:	70006573          	csrrsi	a0,0x700,0
 44e:	6572                	.insn	2, 0x6572
 450:	69736963          	bltu	t1,s7,ae2 <main+0xec>
 454:	76006e6f          	jal	t3,6bb4 <global_uart+0x4c64>
 458:	7270                	.insn	2, 0x7270
 45a:	6e69                	.insn	2, 0x6e69
 45c:	6674                	.insn	2, 0x6674
 45e:	005f 6175 7472      	.insn	6, 0x74726175005f
 464:	695f 696e 0074      	.insn	6, 0x0074696e695f
 46a:	6175                	.insn	2, 0x6175
 46c:	7472                	.insn	2, 0x7472
 46e:	625f 7361 5f65      	.insn	6, 0x5f657361625f
 474:	6461                	.insn	2, 0x6461
 476:	7264                	.insn	2, 0x7264
 478:	5f00                	.insn	2, 0x5f00
 47a:	695f 746e 7470      	.insn	6, 0x7470746e695f
 480:	5f72                	.insn	2, 0x5f72
 482:	0074                	.insn	2, 0x0074
 484:	6175                	.insn	2, 0x6175
 486:	7472                	.insn	2, 0x7472
 488:	745f 6200 7361      	.insn	6, 0x73616200745f
 48e:	6165                	.insn	2, 0x6165
 490:	6464                	.insn	2, 0x6464
 492:	0072                	.insn	2, 0x0072
 494:	6c727463          	bgeu	tp,t2,b5c <main+0x166>
 498:	725f 6765 6700      	.insn	6, 0x67006765725f
 49e:	6f6c                	.insn	2, 0x6f6c
 4a0:	6162                	.insn	2, 0x6162
 4a2:	5f6c                	.insn	2, 0x5f6c
 4a4:	6175                	.insn	2, 0x6175
 4a6:	7472                	.insn	2, 0x7472
 4a8:	7500                	.insn	2, 0x7500
 4aa:	7261                	.insn	2, 0x7261
 4ac:	5f74                	.insn	2, 0x5f74
 4ae:	7369                	.insn	2, 0x7369
 4b0:	745f 5f78 6d65      	.insn	6, 0x6d655f78745f
 4b6:	7470                	.insn	2, 0x7470
 4b8:	0079                	.insn	2, 0x0079
 4ba:	6175                	.insn	2, 0x6175
 4bc:	7472                	.insn	2, 0x7472
 4be:	675f 7465 635f      	.insn	6, 0x635f7465675f
 4c4:	6168                	.insn	2, 0x6168
 4c6:	0072                	.insn	2, 0x0072
 4c8:	74617473          	csrrci	s0,0x746,2
 4cc:	5f65                	.insn	2, 0x5f65
 4ce:	6572                	.insn	2, 0x6572
 4d0:	61750067          	jr	1559(a0) # 3022b87 <_peripheral_HLS_CONTROL_end+0x2fe2b87>
 4d4:	7472                	.insn	2, 0x7472
 4d6:	695f 5f73 7872      	.insn	6, 0x78725f73695f
 4dc:	655f 706d 7974      	.insn	6, 0x7974706d655f
	...

Disassembly of section .debug_line_str:

00000000 <.debug_line_str>:
   0:	2f637273          	csrrci	tp,0x2f6,6
   4:	6f68                	.insn	2, 0x6f68
   6:	632e7473          	csrrci	s0,0x632,28
   a:	2f00                	.insn	2, 0x2f00
   c:	6f68                	.insn	2, 0x6f68
   e:	656d                	.insn	2, 0x656d
  10:	6e69762f          	.insn	4, 0x6e69762f
  14:	7a6e6563          	bltu	t3,t1,7be <check_values+0x1a4>
  18:	49522f6f          	jal	t5,22cac <_peripheral_TIM1_end+0x266c>
  1c:	562d4353          	.insn	4, 0x562d4353
  20:	6a72702f          	.insn	4, 0x6a72702f
  24:	6e552f73          	csrrs	t5,0x6e5,a0
  28:	6e69                	.insn	2, 0x6e69
  2a:	5361                	.insn	2, 0x5361
  2c:	442f436f          	jal	t1,f446e <_peripheral_HLS_CONTROL_end+0xb446e>
  30:	30324453          	.insn	4, 0x30324453
  34:	3532                	.insn	2, 0x3532
  36:	436f532f          	.insn	4, 0x436f532f
  3a:	4453442f          	.insn	4, 0x4453442f
  3e:	3032                	.insn	2, 0x3032
  40:	3532                	.insn	2, 0x3532
  42:	685f 736c 675f      	.insn	6, 0x675f736c685f
  48:	6d65                	.insn	2, 0x6d65
  4a:	2f6d                	.insn	2, 0x2f6d
  4c:	532f7773          	csrrci	a4,0x532,30
  50:	652f436f          	jal	t1,f46a2 <_peripheral_HLS_CONTROL_end+0xb46a2>
  54:	6178                	.insn	2, 0x6178
  56:	706d                	.insn	2, 0x706d
  58:	656c                	.insn	2, 0x656c
  5a:	75632f73          	csrrs	t5,0x756,t1
  5e:	6d6f7473          	csrrci	s0,0x6d6,30
  62:	685f 736c 635f      	.insn	6, 0x635f736c685f
  68:	5f766e6f          	jal	t3,66e5e <_peripheral_HLS_CONTROL_end+0x26e5e>
  6c:	616e                	.insn	2, 0x616e
  6e:	7669                	.insn	2, 0x7669
  70:	0065                	.insn	2, 0x0065
  72:	00637273          	csrrci	tp,0x6,6
  76:	6d6f682f          	.insn	4, 0x6d6f682f
  7a:	2f65                	.insn	2, 0x2f65
  7c:	6976                	.insn	2, 0x6976
  7e:	636e                	.insn	2, 0x636e
  80:	6e65                	.insn	2, 0x6e65
  82:	6f7a                	.insn	2, 0x6f7a
  84:	5349522f          	.insn	4, 0x5349522f
  88:	2f562d43          	.insn	4, 0x2f562d43
  8c:	7270                	.insn	2, 0x7270
  8e:	736a                	.insn	2, 0x736a
  90:	696e552f          	.insn	4, 0x696e552f
  94:	616e                	.insn	2, 0x616e
  96:	2f436f53          	.insn	4, 0x2f436f53
  9a:	5344                	.insn	2, 0x5344
  9c:	3244                	.insn	2, 0x3244
  9e:	3230                	.insn	2, 0x3230
  a0:	2f35                	.insn	2, 0x2f35
  a2:	2f436f53          	.insn	4, 0x2f436f53
  a6:	5344                	.insn	2, 0x5344
  a8:	3244                	.insn	2, 0x3244
  aa:	3230                	.insn	2, 0x3230
  ac:	5f35                	.insn	2, 0x5f35
  ae:	6c68                	.insn	2, 0x6c68
  b0:	65675f73          	csrrwi	t5,hviprio1h,14
  b4:	6d6d                	.insn	2, 0x6d6d
  b6:	2f77732f          	.insn	4, 0x2f77732f
  ba:	2f436f53          	.insn	4, 0x2f436f53
  be:	6d6d6f63          	bltu	s10,s6,79c <check_values+0x182>
  c2:	2f006e6f          	jal	t3,63b2 <global_uart+0x4462>
  c6:	6f68                	.insn	2, 0x6f68
  c8:	656d                	.insn	2, 0x656d
  ca:	6e69762f          	.insn	4, 0x6e69762f
  ce:	7a6e6563          	bltu	t3,t1,878 <dump_csrs+0x16>
  d2:	49522f6f          	jal	t5,22d66 <_peripheral_TIM1_end+0x2726>
  d6:	562d4353          	.insn	4, 0x562d4353
  da:	6a72702f          	.insn	4, 0x6a72702f
  de:	6e552f73          	csrrs	t5,0x6e5,a0
  e2:	6e69                	.insn	2, 0x6e69
  e4:	5361                	.insn	2, 0x5361
  e6:	442f436f          	jal	t1,f4528 <_peripheral_HLS_CONTROL_end+0xb4528>
  ea:	30324453          	.insn	4, 0x30324453
  ee:	3532                	.insn	2, 0x3532
  f0:	436f532f          	.insn	4, 0x436f532f
  f4:	4453442f          	.insn	4, 0x4453442f
  f8:	3032                	.insn	2, 0x3032
  fa:	3532                	.insn	2, 0x3532
  fc:	685f 736c 675f      	.insn	6, 0x675f736c685f
 102:	6d65                	.insn	2, 0x6d65
 104:	2f6d                	.insn	2, 0x2f6d
 106:	532f7773          	csrrci	a4,0x532,30
 10a:	632f436f          	jal	t1,f473c <_peripheral_HLS_CONTROL_end+0xb473c>
 10e:	6f6d6d6f          	jal	s10,d6804 <_peripheral_HLS_CONTROL_end+0x96804>
 112:	2f6e                	.insn	2, 0x2f6e
 114:	6c78                	.insn	2, 0x6c78
 116:	786e                	.insn	2, 0x786e
 118:	2f00                	.insn	2, 0x2f00
 11a:	6f68                	.insn	2, 0x6f68
 11c:	656d                	.insn	2, 0x656d
 11e:	6e69762f          	.insn	4, 0x6e69762f
 122:	7a6e6563          	bltu	t3,t1,8cc <dump_csrs+0x6a>
 126:	49522f6f          	jal	t5,22dba <_peripheral_TIM1_end+0x277a>
 12a:	562d4353          	.insn	4, 0x562d4353
 12e:	756e672f          	.insn	4, 0x756e672f
 132:	742d                	.insn	2, 0x742d
 134:	636c6f6f          	jal	t5,c676a <_peripheral_HLS_CONTROL_end+0x8676a>
 138:	6168                	.insn	2, 0x6168
 13a:	6e69                	.insn	2, 0x6e69
 13c:	722f3233          	.insn	4, 0x722f3233
 140:	7369                	.insn	2, 0x7369
 142:	32337663          	bgeu	t1,gp,46e <compute_expected+0x1c>
 146:	752d                	.insn	2, 0x752d
 148:	6b6e                	.insn	2, 0x6b6e
 14a:	6f6e                	.insn	2, 0x6f6e
 14c:	652d6e77          	.insn	4, 0x652d6e77
 150:	666c                	.insn	2, 0x666c
 152:	636e692f          	.insn	4, 0x636e692f
 156:	756c                	.insn	2, 0x756c
 158:	6564                	.insn	2, 0x6564
 15a:	63616d2f          	.insn	4, 0x63616d2f
 15e:	6968                	.insn	2, 0x6968
 160:	656e                	.insn	2, 0x656e
 162:	2f00                	.insn	2, 0x2f00
 164:	6f68                	.insn	2, 0x6f68
 166:	656d                	.insn	2, 0x656d
 168:	6e69762f          	.insn	4, 0x6e69762f
 16c:	7a6e6563          	bltu	t3,t1,916 <dump_csrs+0xb4>
 170:	49522f6f          	jal	t5,22e04 <_peripheral_TIM1_end+0x27c4>
 174:	562d4353          	.insn	4, 0x562d4353
 178:	756e672f          	.insn	4, 0x756e672f
 17c:	742d                	.insn	2, 0x742d
 17e:	636c6f6f          	jal	t5,c67b4 <_peripheral_HLS_CONTROL_end+0x867b4>
 182:	6168                	.insn	2, 0x6168
 184:	6e69                	.insn	2, 0x6e69
 186:	722f3233          	.insn	4, 0x722f3233
 18a:	7369                	.insn	2, 0x7369
 18c:	32337663          	bgeu	t1,gp,4b8 <compute_expected+0x66>
 190:	752d                	.insn	2, 0x752d
 192:	6b6e                	.insn	2, 0x6b6e
 194:	6f6e                	.insn	2, 0x6f6e
 196:	652d6e77          	.insn	4, 0x652d6e77
 19a:	666c                	.insn	2, 0x666c
 19c:	636e692f          	.insn	4, 0x636e692f
 1a0:	756c                	.insn	2, 0x756c
 1a2:	6564                	.insn	2, 0x6564
 1a4:	7379732f          	.insn	4, 0x7379732f
 1a8:	2f00                	.insn	2, 0x2f00
 1aa:	6f68                	.insn	2, 0x6f68
 1ac:	656d                	.insn	2, 0x656d
 1ae:	6e69762f          	.insn	4, 0x6e69762f
 1b2:	7a6e6563          	bltu	t3,t1,95c <print_control_csr+0x14>
 1b6:	49522f6f          	jal	t5,22e4a <_peripheral_TIM1_end+0x280a>
 1ba:	562d4353          	.insn	4, 0x562d4353
 1be:	756e672f          	.insn	4, 0x756e672f
 1c2:	742d                	.insn	2, 0x742d
 1c4:	636c6f6f          	jal	t5,c67fa <_peripheral_HLS_CONTROL_end+0x867fa>
 1c8:	6168                	.insn	2, 0x6168
 1ca:	6e69                	.insn	2, 0x6e69
 1cc:	6c2f3233          	.insn	4, 0x6c2f3233
 1d0:	6269                	.insn	2, 0x6269
 1d2:	6363672f          	.insn	4, 0x6363672f
 1d6:	7369722f          	.insn	4, 0x7369722f
 1da:	32337663          	bgeu	t1,gp,506 <compute_expected+0xb4>
 1de:	752d                	.insn	2, 0x752d
 1e0:	6b6e                	.insn	2, 0x6b6e
 1e2:	6f6e                	.insn	2, 0x6f6e
 1e4:	652d6e77          	.insn	4, 0x652d6e77
 1e8:	666c                	.insn	2, 0x666c
 1ea:	2e33312f          	.insn	4, 0x2e33312f
 1ee:	2e32                	.insn	2, 0x2e32
 1f0:	2f30                	.insn	2, 0x2f30
 1f2:	6e69                	.insn	2, 0x6e69
 1f4:	64756c63          	bltu	a0,t2,84c <check_values+0x232>
 1f8:	0065                	.insn	2, 0x0065
 1fa:	6d6f682f          	.insn	4, 0x6d6f682f
 1fe:	2f65                	.insn	2, 0x2f65
 200:	6976                	.insn	2, 0x6976
 202:	636e                	.insn	2, 0x636e
 204:	6e65                	.insn	2, 0x6e65
 206:	6f7a                	.insn	2, 0x6f7a
 208:	5349522f          	.insn	4, 0x5349522f
 20c:	2f562d43          	.insn	4, 0x2f562d43
 210:	7270                	.insn	2, 0x7270
 212:	736a                	.insn	2, 0x736a
 214:	696e552f          	.insn	4, 0x696e552f
 218:	616e                	.insn	2, 0x616e
 21a:	2f436f53          	.insn	4, 0x2f436f53
 21e:	5344                	.insn	2, 0x5344
 220:	3244                	.insn	2, 0x3244
 222:	3230                	.insn	2, 0x3230
 224:	2f35                	.insn	2, 0x2f35
 226:	2f436f53          	.insn	4, 0x2f436f53
 22a:	5344                	.insn	2, 0x5344
 22c:	3244                	.insn	2, 0x3244
 22e:	3230                	.insn	2, 0x3230
 230:	5f35                	.insn	2, 0x5f35
 232:	6c68                	.insn	2, 0x6c68
 234:	65675f73          	csrrwi	t5,hviprio1h,14
 238:	6d6d                	.insn	2, 0x6d6d
 23a:	2f77732f          	.insn	4, 0x2f77732f
 23e:	2f436f53          	.insn	4, 0x2f436f53
 242:	696c                	.insn	2, 0x696c
 244:	2f62                	.insn	2, 0x2f62
 246:	6974                	.insn	2, 0x6974
 248:	796e                	.insn	2, 0x796e
 24a:	6f69                	.insn	2, 0x6f69
 24c:	636e692f          	.insn	4, 0x636e692f
 250:	7300                	.insn	2, 0x7300
 252:	6474                	.insn	2, 0x6474
 254:	696c                	.insn	2, 0x696c
 256:	2e62                	.insn	2, 0x2e62
 258:	0068                	.insn	2, 0x0068
 25a:	6978                	.insn	2, 0x6978
 25c:	5f6c                	.insn	2, 0x5f6c
 25e:	6f69                	.insn	2, 0x6f69
 260:	682e                	.insn	2, 0x682e
 262:	7500                	.insn	2, 0x7500
 264:	6974                	.insn	2, 0x6974
 266:	736c                	.insn	2, 0x736c
 268:	682e                	.insn	2, 0x682e
 26a:	5f00                	.insn	2, 0x5f00
 26c:	6564                	.insn	2, 0x6564
 26e:	6166                	.insn	2, 0x6166
 270:	6c75                	.insn	2, 0x6c75
 272:	5f74                	.insn	2, 0x5f74
 274:	7974                	.insn	2, 0x7974
 276:	6570                	.insn	2, 0x6570
 278:	00682e73          	csrrs	t3,0x6,a6
 27c:	735f 6474 6e69      	.insn	6, 0x6e696474735f
 282:	2e74                	.insn	2, 0x2e74
 284:	0068                	.insn	2, 0x0068
 286:	64647473          	csrrci	s0,hviprio1,8
 28a:	6665                	.insn	2, 0x6665
 28c:	682e                	.insn	2, 0x682e
 28e:	7800                	.insn	2, 0x7800
 290:	6c69                	.insn	2, 0x6c69
 292:	745f 7079 7365      	.insn	6, 0x73657079745f
 298:	682e                	.insn	2, 0x682e
 29a:	6b00                	.insn	2, 0x6b00
 29c:	6e72                	.insn	2, 0x6e72
 29e:	5f6c                	.insn	2, 0x5f6c
 2a0:	766e6f63          	bltu	t3,t1,a1e <main+0x28>
 2a4:	6e5f 6961 6576      	.insn	6, 0x657669616e5f
 2aa:	682e                	.insn	2, 0x682e
 2ac:	6400                	.insn	2, 0x6400
 2ae:	6972                	.insn	2, 0x6972
 2b0:	6576                	.insn	2, 0x6576
 2b2:	2e72                	.insn	2, 0x2e72
 2b4:	0068                	.insn	2, 0x0068
 2b6:	6974                	.insn	2, 0x6974
 2b8:	796e                	.insn	2, 0x796e
 2ba:	4f49                	.insn	2, 0x4f49
 2bc:	682e                	.insn	2, 0x682e
 2be:	7000                	.insn	2, 0x7000
 2c0:	6972                	.insn	2, 0x6972
 2c2:	746e                	.insn	2, 0x746e
 2c4:	682e                	.insn	2, 0x682e
 2c6:	7300                	.insn	2, 0x7300
 2c8:	6174                	.insn	2, 0x6174
 2ca:	7472                	.insn	2, 0x7472
 2cc:	7075                	.insn	2, 0x7075
 2ce:	732e                	.insn	2, 0x732e
 2d0:	2f00                	.insn	2, 0x2f00
 2d2:	6f68                	.insn	2, 0x6f68
 2d4:	656d                	.insn	2, 0x656d
 2d6:	6574732f          	.insn	4, 0x6574732f
 2da:	6166                	.insn	2, 0x6166
 2dc:	6f6e                	.insn	2, 0x6f6e
 2de:	7365442f          	.insn	4, 0x7365442f
 2e2:	706f746b          	.insn	4, 0x706f746b
 2e6:	726f572f          	.insn	4, 0x726f572f
 2ea:	72502f6b          	.insn	4, 0x72502f6b
 2ee:	63656a6f          	jal	s4,56924 <_peripheral_HLS_CONTROL_end+0x16924>
 2f2:	7374                	.insn	2, 0x7374
 2f4:	7365762f          	.insn	4, 0x7365762f
 2f8:	7675                	.insn	2, 0x7675
 2fa:	7569                	.insn	2, 0x7569
 2fc:	69742f73          	csrrs	t5,0x697,s0
 300:	796e                	.insn	2, 0x796e
 302:	6f69                	.insn	2, 0x6f69
 304:	7300                	.insn	2, 0x7300
 306:	6372                	.insn	2, 0x6372
 308:	6972702f          	.insn	4, 0x6972702f
 30c:	746e                	.insn	2, 0x746e
 30e:	632e                	.insn	2, 0x632e
 310:	2f00                	.insn	2, 0x2f00
 312:	2f74706f          	j	47e08 <_peripheral_HLS_CONTROL_end+0x7e08>
 316:	7672                	.insn	2, 0x7672
 318:	6c2f3233          	.insn	4, 0x6c2f3233
 31c:	6269                	.insn	2, 0x6269
 31e:	6363672f          	.insn	4, 0x6363672f
 322:	7369722f          	.insn	4, 0x7369722f
 326:	32337663          	bgeu	t1,gp,652 <check_values+0x38>
 32a:	752d                	.insn	2, 0x752d
 32c:	6b6e                	.insn	2, 0x6b6e
 32e:	6f6e                	.insn	2, 0x6f6e
 330:	652d6e77          	.insn	4, 0x652d6e77
 334:	666c                	.insn	2, 0x666c
 336:	2e32312f          	.insn	4, 0x2e32312f
 33a:	2e32                	.insn	2, 0x2e32
 33c:	2f30                	.insn	2, 0x2f30
 33e:	6e69                	.insn	2, 0x6e69
 340:	64756c63          	bltu	a0,t2,998 <print_control_csr+0x50>
 344:	0065                	.insn	2, 0x0065
 346:	74706f2f          	.insn	4, 0x74706f2f
 34a:	3376722f          	.insn	4, 0x3376722f
 34e:	2f32                	.insn	2, 0x2f32
 350:	6972                	.insn	2, 0x6972
 352:	33766373          	csrrsi	t1,mhpmevent23,12
 356:	2d32                	.insn	2, 0x2d32
 358:	6e75                	.insn	2, 0x6e75
 35a:	776f6e6b          	.insn	4, 0x776f6e6b
 35e:	2d6e                	.insn	2, 0x2d6e
 360:	6c65                	.insn	2, 0x6c65
 362:	2f66                	.insn	2, 0x2f66
 364:	6e69                	.insn	2, 0x6e69
 366:	64756c63          	bltu	a0,t2,9be <print_control_csr+0x76>
 36a:	2f65                	.insn	2, 0x2f65
 36c:	616d                	.insn	2, 0x616d
 36e:	6e696863          	bltu	s2,t1,a5e <main+0x68>
 372:	0065                	.insn	2, 0x0065
 374:	74706f2f          	.insn	4, 0x74706f2f
 378:	3376722f          	.insn	4, 0x3376722f
 37c:	2f32                	.insn	2, 0x2f32
 37e:	6972                	.insn	2, 0x6972
 380:	33766373          	csrrsi	t1,mhpmevent23,12
 384:	2d32                	.insn	2, 0x2d32
 386:	6e75                	.insn	2, 0x6e75
 388:	776f6e6b          	.insn	4, 0x776f6e6b
 38c:	2d6e                	.insn	2, 0x2d6e
 38e:	6c65                	.insn	2, 0x6c65
 390:	2f66                	.insn	2, 0x2f66
 392:	6e69                	.insn	2, 0x6e69
 394:	64756c63          	bltu	a0,t2,9ec <print_control_csr+0xa4>
 398:	2f65                	.insn	2, 0x2f65
 39a:	00737973          	csrrci	s2,0x7,6
 39e:	61647473          	csrrci	s0,0x616,8
 3a2:	6772                	.insn	2, 0x6772
 3a4:	682e                	.insn	2, 0x682e
 3a6:	7500                	.insn	2, 0x7500
 3a8:	7261                	.insn	2, 0x7261
 3aa:	2e74                	.insn	2, 0x2e74
 3ac:	0068                	.insn	2, 0x0068
 3ae:	2f637273          	csrrci	tp,0x2f6,6
 3b2:	6974                	.insn	2, 0x6974
 3b4:	796e                	.insn	2, 0x796e
 3b6:	4f49                	.insn	2, 0x4f49
 3b8:	632e                	.insn	2, 0x632e
 3ba:	7300                	.insn	2, 0x7300
 3bc:	6372                	.insn	2, 0x6372
 3be:	7261752f          	.insn	4, 0x7261752f
 3c2:	2e74                	.insn	2, 0x2e74
 3c4:	Address 0x3c4 is out of bounds.


Disassembly of section .comment:

00000000 <.comment>:
   0:	3a434347          	.insn	4, 0x3a434347
   4:	2820                	.insn	2, 0x2820
   6:	39386367          	.insn	4, 0x39386367
   a:	6431                	.insn	2, 0x6431
   c:	6438                	.insn	2, 0x6438
   e:	20293263          	.insn	4, 0x20293263
  12:	3331                	.insn	2, 0x3331
  14:	322e                	.insn	2, 0x322e
  16:	302e                	.insn	2, 0x302e
  18:	4700                	.insn	2, 0x4700
  1a:	203a4343          	.insn	4, 0x203a4343
  1e:	6728                	.insn	2, 0x6728
  20:	6532                	.insn	2, 0x6532
  22:	3565                	.insn	2, 0x3565
  24:	3465                	.insn	2, 0x3465
  26:	31303033          	.insn	4, 0x31303033
  2a:	2938                	.insn	2, 0x2938
  2c:	3120                	.insn	2, 0x3120
  2e:	2e32                	.insn	2, 0x2e32
  30:	2e32                	.insn	2, 0x2e32
  32:	0030                	.insn	2, 0x0030

Disassembly of section .riscv.attributes:

00000000 <.riscv.attributes>:
   0:	4c41                	.insn	2, 0x4c41
   2:	0000                	.insn	2, 0x
   4:	7200                	.insn	2, 0x7200
   6:	7369                	.insn	2, 0x7369
   8:	01007663          	bgeu	zero,a6,14 <_vector_table_start+0x14>
   c:	0042                	.insn	2, 0x0042
   e:	0000                	.insn	2, 0x
  10:	1004                	.insn	2, 0x1004
  12:	7205                	.insn	2, 0x7205
  14:	3376                	.insn	2, 0x3376
  16:	6932                	.insn	2, 0x6932
  18:	7032                	.insn	2, 0x7032
  1a:	5f31                	.insn	2, 0x5f31
  1c:	326d                	.insn	2, 0x326d
  1e:	3070                	.insn	2, 0x3070
  20:	615f 7032 5f31      	.insn	6, 0x5f317032615f
  26:	30703263          	.insn	4, 0x30703263
  2a:	7a5f 6369 7273      	.insn	6, 0x727363697a5f
  30:	7032                	.insn	2, 0x7032
  32:	5f30                	.insn	2, 0x5f30
  34:	697a                	.insn	2, 0x697a
  36:	6566                	.insn	2, 0x6566
  38:	636e                	.insn	2, 0x636e
  3a:	6965                	.insn	2, 0x6965
  3c:	7032                	.insn	2, 0x7032
  3e:	5f30                	.insn	2, 0x5f30
  40:	6d7a                	.insn	2, 0x6d7a
  42:	756d                	.insn	2, 0x756d
  44:	316c                	.insn	2, 0x316c
  46:	3070                	.insn	2, 0x3070
  48:	0800                	.insn	2, 0x0800
  4a:	0a01                	.insn	2, 0x0a01
  4c:	Address 0x4c is out of bounds.


Disassembly of section .debug_frame:

00000000 <.debug_frame>:
   0:	000c                	.insn	2, 0x000c
   2:	0000                	.insn	2, 0x
   4:	ffff                	.insn	2, 0xffff
   6:	ffff                	.insn	2, 0xffff
   8:	7c010003          	lb	zero,1984(sp)
   c:	0d01                	.insn	2, 0x0d01
   e:	0002                	.insn	2, 0x0002
  10:	0020                	.insn	2, 0x0020
  12:	0000                	.insn	2, 0x
  14:	0000                	.insn	2, 0x
  16:	0000                	.insn	2, 0x
  18:	0160                	.insn	2, 0x0160
  1a:	0000                	.insn	2, 0x
  1c:	0054                	.insn	2, 0x0054
  1e:	0000                	.insn	2, 0x
  20:	0e42                	.insn	2, 0x0e42
  22:	4230                	.insn	2, 0x4230
  24:	0188                	.insn	2, 0x0188
  26:	0c42                	.insn	2, 0x0c42
  28:	0008                	.insn	2, 0x0008
  2a:	4a02                	.insn	2, 0x4a02
  2c:	0cc8                	.insn	2, 0x0cc8
  2e:	3002                	.insn	2, 0x3002
  30:	0e42                	.insn	2, 0x0e42
  32:	0000                	.insn	2, 0x
  34:	0024                	.insn	2, 0x0024
  36:	0000                	.insn	2, 0x
  38:	0000                	.insn	2, 0x
  3a:	0000                	.insn	2, 0x
  3c:	01b4                	.insn	2, 0x01b4
  3e:	0000                	.insn	2, 0x
  40:	0038                	.insn	2, 0x0038
  42:	0000                	.insn	2, 0x
  44:	0e42                	.insn	2, 0x0e42
  46:	4420                	.insn	2, 0x4420
  48:	0188                	.insn	2, 0x0188
  4a:	0289                	.insn	2, 0x0289
  4c:	0c42                	.insn	2, 0x0c42
  4e:	0008                	.insn	2, 0x0008
  50:	c86a                	.insn	2, 0xc86a
  52:	020c                	.insn	2, 0x020c
  54:	4220                	.insn	2, 0x4220
  56:	42c9                	.insn	2, 0x42c9
  58:	000e                	.insn	2, 0x000e
  5a:	0000                	.insn	2, 0x
  5c:	0020                	.insn	2, 0x0020
  5e:	0000                	.insn	2, 0x
  60:	0000                	.insn	2, 0x
  62:	0000                	.insn	2, 0x
  64:	01ec                	.insn	2, 0x01ec
  66:	0000                	.insn	2, 0x
  68:	0018                	.insn	2, 0x0018
  6a:	0000                	.insn	2, 0x
  6c:	0e42                	.insn	2, 0x0e42
  6e:	4220                	.insn	2, 0x4220
  70:	0188                	.insn	2, 0x0188
  72:	0c42                	.insn	2, 0x0c42
  74:	0008                	.insn	2, 0x0008
  76:	c84e                	.insn	2, 0xc84e
  78:	020c                	.insn	2, 0x020c
  7a:	4220                	.insn	2, 0x4220
  7c:	000e                	.insn	2, 0x000e
  7e:	0000                	.insn	2, 0x
  80:	0020                	.insn	2, 0x0020
  82:	0000                	.insn	2, 0x
  84:	0000                	.insn	2, 0x
  86:	0000                	.insn	2, 0x
  88:	0204                	.insn	2, 0x0204
  8a:	0000                	.insn	2, 0x
  8c:	0028                	.insn	2, 0x0028
  8e:	0000                	.insn	2, 0x
  90:	0e42                	.insn	2, 0x0e42
  92:	4230                	.insn	2, 0x4230
  94:	0188                	.insn	2, 0x0188
  96:	0c42                	.insn	2, 0x0c42
  98:	0008                	.insn	2, 0x0008
  9a:	c85e                	.insn	2, 0xc85e
  9c:	020c                	.insn	2, 0x020c
  9e:	4230                	.insn	2, 0x4230
  a0:	000e                	.insn	2, 0x000e
  a2:	0000                	.insn	2, 0x
  a4:	0020                	.insn	2, 0x0020
  a6:	0000                	.insn	2, 0x
  a8:	0000                	.insn	2, 0x
  aa:	0000                	.insn	2, 0x
  ac:	022c                	.insn	2, 0x022c
  ae:	0000                	.insn	2, 0x
  b0:	0226                	.insn	2, 0x0226
  b2:	0000                	.insn	2, 0x
  b4:	0e42                	.insn	2, 0x0e42
  b6:	4250                	.insn	2, 0x4250
  b8:	0188                	.insn	2, 0x0188
  ba:	0c42                	.insn	2, 0x0c42
  bc:	0008                	.insn	2, 0x0008
  be:	c8021c03          	lh	s8,-896(tp) # fffffc80 <_peripheral_PLIC_end+0xf7fffc80>
  c2:	020c                	.insn	2, 0x020c
  c4:	4250                	.insn	2, 0x4250
  c6:	000e                	.insn	2, 0x000e
  c8:	0020                	.insn	2, 0x0020
  ca:	0000                	.insn	2, 0x
  cc:	0000                	.insn	2, 0x
  ce:	0000                	.insn	2, 0x
  d0:	0452                	.insn	2, 0x0452
  d2:	0000                	.insn	2, 0x
  d4:	01c8                	.insn	2, 0x01c8
  d6:	0000                	.insn	2, 0x
  d8:	0e42                	.insn	2, 0x0e42
  da:	4240                	.insn	2, 0x4240
  dc:	0188                	.insn	2, 0x0188
  de:	0c42                	.insn	2, 0x0c42
  e0:	0008                	.insn	2, 0x0008
  e2:	c801be03          	.insn	4, 0xc801be03
  e6:	020c                	.insn	2, 0x020c
  e8:	4240                	.insn	2, 0x4240
  ea:	000e                	.insn	2, 0x000e
  ec:	0024                	.insn	2, 0x0024
  ee:	0000                	.insn	2, 0x
  f0:	0000                	.insn	2, 0x
  f2:	0000                	.insn	2, 0x
  f4:	061a                	.insn	2, 0x061a
  f6:	0000                	.insn	2, 0x
  f8:	0248                	.insn	2, 0x0248
  fa:	0000                	.insn	2, 0x
  fc:	0e42                	.insn	2, 0x0e42
  fe:	4430                	.insn	2, 0x4430
 100:	0181                	.insn	2, 0x0181
 102:	0288                	.insn	2, 0x0288
 104:	0c42                	.insn	2, 0x0c42
 106:	0008                	.insn	2, 0x0008
 108:	c1023a03          	.insn	4, 0xc1023a03
 10c:	c842                	.insn	2, 0xc842
 10e:	020c                	.insn	2, 0x020c
 110:	4230                	.insn	2, 0x4230
 112:	000e                	.insn	2, 0x000e
 114:	0024                	.insn	2, 0x0024
 116:	0000                	.insn	2, 0x
 118:	0000                	.insn	2, 0x
 11a:	0000                	.insn	2, 0x
 11c:	0862                	.insn	2, 0x0862
 11e:	0000                	.insn	2, 0x
 120:	00e6                	.insn	2, 0x00e6
 122:	0000                	.insn	2, 0x
 124:	0e42                	.insn	2, 0x0e42
 126:	4420                	.insn	2, 0x4420
 128:	0181                	.insn	2, 0x0181
 12a:	0288                	.insn	2, 0x0288
 12c:	0c42                	.insn	2, 0x0c42
 12e:	0008                	.insn	2, 0x0008
 130:	c100d803          	lhu	a6,-1008(ra)
 134:	c842                	.insn	2, 0xc842
 136:	020c                	.insn	2, 0x020c
 138:	4220                	.insn	2, 0x4220
 13a:	000e                	.insn	2, 0x000e
 13c:	0024                	.insn	2, 0x0024
 13e:	0000                	.insn	2, 0x
 140:	0000                	.insn	2, 0x
 142:	0000                	.insn	2, 0x
 144:	0948                	.insn	2, 0x0948
 146:	0000                	.insn	2, 0x
 148:	00ae                	.insn	2, 0x00ae
 14a:	0000                	.insn	2, 0x
 14c:	0e42                	.insn	2, 0x0e42
 14e:	4420                	.insn	2, 0x4420
 150:	0181                	.insn	2, 0x0181
 152:	0288                	.insn	2, 0x0288
 154:	0c42                	.insn	2, 0x0c42
 156:	0008                	.insn	2, 0x0008
 158:	a002                	.insn	2, 0xa002
 15a:	42c1                	.insn	2, 0x42c1
 15c:	0cc8                	.insn	2, 0x0cc8
 15e:	2002                	.insn	2, 0x2002
 160:	0e42                	.insn	2, 0x0e42
 162:	0000                	.insn	2, 0x
 164:	0030                	.insn	2, 0x0030
 166:	0000                	.insn	2, 0x
 168:	0000                	.insn	2, 0x
 16a:	0000                	.insn	2, 0x
 16c:	09f6                	.insn	2, 0x09f6
 16e:	0000                	.insn	2, 0x
 170:	0282                	.insn	2, 0x0282
 172:	0000                	.insn	2, 0x
 174:	0e44                	.insn	2, 0x0e44
 176:	0890                	.insn	2, 0x0890
 178:	8150                	.insn	2, 0x8150
 17a:	8801                	.insn	2, 0x8801
 17c:	8902                	.insn	2, 0x8902
 17e:	44049203          	lh	tp,1088(s1)
 182:	080c                	.insn	2, 0x080c
 184:	0300                	.insn	2, 0x0300
 186:	0254                	.insn	2, 0x0254
 188:	020c                	.insn	2, 0x020c
 18a:	0890                	.insn	2, 0x0890
 18c:	c144                	.insn	2, 0xc144
 18e:	c844                	.insn	2, 0xc844
 190:	c944                	.insn	2, 0xc944
 192:	d244                	.insn	2, 0xd244
 194:	0e44                	.insn	2, 0x0e44
 196:	0000                	.insn	2, 0x
 198:	000c                	.insn	2, 0x000c
 19a:	0000                	.insn	2, 0x
 19c:	ffff                	.insn	2, 0xffff
 19e:	ffff                	.insn	2, 0xffff
 1a0:	7c010003          	lb	zero,1984(sp)
 1a4:	0d01                	.insn	2, 0x0d01
 1a6:	0002                	.insn	2, 0x0002
 1a8:	000c                	.insn	2, 0x000c
 1aa:	0000                	.insn	2, 0x
 1ac:	0198                	.insn	2, 0x0198
 1ae:	0000                	.insn	2, 0x
 1b0:	0c78                	.insn	2, 0x0c78
 1b2:	0000                	.insn	2, 0x
 1b4:	0010                	.insn	2, 0x0010
 1b6:	0000                	.insn	2, 0x
 1b8:	000c                	.insn	2, 0x000c
 1ba:	0000                	.insn	2, 0x
 1bc:	0198                	.insn	2, 0x0198
 1be:	0000                	.insn	2, 0x
 1c0:	0c88                	.insn	2, 0x0c88
 1c2:	0000                	.insn	2, 0x
 1c4:	0004                	.insn	2, 0x0004
 1c6:	0000                	.insn	2, 0x
 1c8:	0044                	.insn	2, 0x0044
 1ca:	0000                	.insn	2, 0x
 1cc:	0198                	.insn	2, 0x0198
 1ce:	0000                	.insn	2, 0x
 1d0:	0c8c                	.insn	2, 0x0c8c
 1d2:	0000                	.insn	2, 0x
 1d4:	0528                	.insn	2, 0x0528
 1d6:	0000                	.insn	2, 0x
 1d8:	0e44                	.insn	2, 0x0e44
 1da:	7050                	.insn	2, 0x7050
 1dc:	0389                	.insn	2, 0x0389
 1de:	0492                	.insn	2, 0x0492
 1e0:	06940593          	addi	a1,s0,105
 1e4:	0795                	.insn	2, 0x0795
 1e6:	0181                	.insn	2, 0x0181
 1e8:	0288                	.insn	2, 0x0288
 1ea:	0896                	.insn	2, 0x0896
 1ec:	0a980997          	auipc	s3,0xa980
 1f0:	0b99                	.insn	2, 0x0b99
 1f2:	0a025803          	lhu	a6,160(tp) # a0 <_reset_handler+0x20>
 1f6:	44c1                	.insn	2, 0x44c1
 1f8:	44c8                	.insn	2, 0x44c8
 1fa:	44c9                	.insn	2, 0x44c9
 1fc:	44d2                	.insn	2, 0x44d2
 1fe:	44d444d3          	.insn	4, 0x44d444d3
 202:	44d5                	.insn	2, 0x44d5
 204:	44d6                	.insn	2, 0x44d6
 206:	44d8                	.insn	2, 0x44d8
 208:	48d9                	.insn	2, 0x48d9
 20a:	000e44d7          	.insn	4, 0x000e44d7
 20e:	0b44                	.insn	2, 0x0b44
 210:	000c                	.insn	2, 0x000c
 212:	0000                	.insn	2, 0x
 214:	0198                	.insn	2, 0x0198
 216:	0000                	.insn	2, 0x
 218:	11b4                	.insn	2, 0x11b4
 21a:	0000                	.insn	2, 0x
 21c:	000c                	.insn	2, 0x000c
 21e:	0000                	.insn	2, 0x
 220:	000c                	.insn	2, 0x000c
 222:	0000                	.insn	2, 0x
 224:	0198                	.insn	2, 0x0198
 226:	0000                	.insn	2, 0x
 228:	11c0                	.insn	2, 0x11c0
 22a:	0000                	.insn	2, 0x
 22c:	0014                	.insn	2, 0x0014
 22e:	0000                	.insn	2, 0x
 230:	004c                	.insn	2, 0x004c
 232:	0000                	.insn	2, 0x
 234:	0198                	.insn	2, 0x0198
 236:	0000                	.insn	2, 0x
 238:	11d4                	.insn	2, 0x11d4
 23a:	0000                	.insn	2, 0x
 23c:	0800                	.insn	2, 0x0800
 23e:	0000                	.insn	2, 0x
 240:	0e44                	.insn	2, 0x0e44
 242:	7460                	.insn	2, 0x7460
 244:	06940593          	addi	a1,s0,105
 248:	0795                	.insn	2, 0x0795
 24a:	0a98                	.insn	2, 0x0a98
 24c:	0c9a                	.insn	2, 0x0c9a
 24e:	0181                	.insn	2, 0x0181
 250:	0288                	.insn	2, 0x0288
 252:	0389                	.insn	2, 0x0389
 254:	0492                	.insn	2, 0x0492
 256:	0896                	.insn	2, 0x0896
 258:	0b990997          	auipc	s3,0xb990
 25c:	7c030d9b          	.insn	4, 0x7c030d9b
 260:	0a01                	.insn	2, 0x0a01
 262:	48c1                	.insn	2, 0x48c1
 264:	44c8                	.insn	2, 0x44c8
 266:	44c9                	.insn	2, 0x44c9
 268:	44d2                	.insn	2, 0x44d2
 26a:	44d444d3          	.insn	4, 0x44d444d3
 26e:	44d5                	.insn	2, 0x44d5
 270:	44d6                	.insn	2, 0x44d6
 272:	44d844d7          	.insn	4, 0x44d844d7
 276:	44d9                	.insn	2, 0x44d9
 278:	44da                	.insn	2, 0x44da
 27a:	000e44db          	.insn	4, 0x000e44db
 27e:	0b44                	.insn	2, 0x0b44
 280:	0018                	.insn	2, 0x0018
 282:	0000                	.insn	2, 0x
 284:	0198                	.insn	2, 0x0198
 286:	0000                	.insn	2, 0x
 288:	19d4                	.insn	2, 0x19d4
 28a:	0000                	.insn	2, 0x
 28c:	001c                	.insn	2, 0x001c
 28e:	0000                	.insn	2, 0x
 290:	0e44                	.insn	2, 0x0e44
 292:	4410                	.insn	2, 0x4410
 294:	0181                	.insn	2, 0x0181
 296:	c148                	.insn	2, 0xc148
 298:	0e48                	.insn	2, 0x0e48
 29a:	0000                	.insn	2, 0x
 29c:	0018                	.insn	2, 0x0018
 29e:	0000                	.insn	2, 0x
 2a0:	0198                	.insn	2, 0x0198
 2a2:	0000                	.insn	2, 0x
 2a4:	19f0                	.insn	2, 0x19f0
 2a6:	0000                	.insn	2, 0x
 2a8:	0054                	.insn	2, 0x0054
 2aa:	0000                	.insn	2, 0x
 2ac:	0e44                	.insn	2, 0x0e44
 2ae:	7040                	.insn	2, 0x7040
 2b0:	0981                	.insn	2, 0x0981
 2b2:	c158                	.insn	2, 0xc158
 2b4:	0e44                	.insn	2, 0x0e44
 2b6:	0000                	.insn	2, 0x
 2b8:	0018                	.insn	2, 0x0018
 2ba:	0000                	.insn	2, 0x
 2bc:	0198                	.insn	2, 0x0198
 2be:	0000                	.insn	2, 0x
 2c0:	1a44                	.insn	2, 0x1a44
 2c2:	0000                	.insn	2, 0x
 2c4:	0050                	.insn	2, 0x0050
 2c6:	0000                	.insn	2, 0x
 2c8:	0e44                	.insn	2, 0x0e44
 2ca:	6c40                	.insn	2, 0x6c40
 2cc:	0981                	.insn	2, 0x0981
 2ce:	c158                	.insn	2, 0xc158
 2d0:	0e44                	.insn	2, 0x0e44
 2d2:	0000                	.insn	2, 0x
 2d4:	0018                	.insn	2, 0x0018
 2d6:	0000                	.insn	2, 0x
 2d8:	0198                	.insn	2, 0x0198
 2da:	0000                	.insn	2, 0x
 2dc:	1a94                	.insn	2, 0x1a94
 2de:	0000                	.insn	2, 0x
 2e0:	004c                	.insn	2, 0x004c
 2e2:	0000                	.insn	2, 0x
 2e4:	0e44                	.insn	2, 0x0e44
 2e6:	6840                	.insn	2, 0x6840
 2e8:	0981                	.insn	2, 0x0981
 2ea:	c158                	.insn	2, 0xc158
 2ec:	0e44                	.insn	2, 0x0e44
 2ee:	0000                	.insn	2, 0x
 2f0:	0018                	.insn	2, 0x0018
 2f2:	0000                	.insn	2, 0x
 2f4:	0198                	.insn	2, 0x0198
 2f6:	0000                	.insn	2, 0x
 2f8:	1ae0                	.insn	2, 0x1ae0
 2fa:	0000                	.insn	2, 0x
 2fc:	0030                	.insn	2, 0x0030
 2fe:	0000                	.insn	2, 0x
 300:	0e44                	.insn	2, 0x0e44
 302:	5c20                	.insn	2, 0x5c20
 304:	0181                	.insn	2, 0x0181
 306:	c148                	.insn	2, 0xc148
 308:	0e44                	.insn	2, 0x0e44
 30a:	0000                	.insn	2, 0x
 30c:	000c                	.insn	2, 0x000c
 30e:	0000                	.insn	2, 0x
 310:	0198                	.insn	2, 0x0198
 312:	0000                	.insn	2, 0x
 314:	1b10                	.insn	2, 0x1b10
 316:	0000                	.insn	2, 0x
 318:	001c                	.insn	2, 0x001c
 31a:	0000                	.insn	2, 0x
 31c:	0018                	.insn	2, 0x0018
 31e:	0000                	.insn	2, 0x
 320:	0198                	.insn	2, 0x0198
 322:	0000                	.insn	2, 0x
 324:	1b2c                	.insn	2, 0x1b2c
 326:	0000                	.insn	2, 0x
 328:	005c                	.insn	2, 0x005c
 32a:	0000                	.insn	2, 0x
 32c:	0e44                	.insn	2, 0x0e44
 32e:	7040                	.insn	2, 0x7040
 330:	0981                	.insn	2, 0x0981
 332:	c160                	.insn	2, 0xc160
 334:	0e44                	.insn	2, 0x0e44
 336:	0000                	.insn	2, 0x
 338:	000c                	.insn	2, 0x000c
 33a:	0000                	.insn	2, 0x
 33c:	ffff                	.insn	2, 0xffff
 33e:	ffff                	.insn	2, 0xffff
 340:	7c010003          	lb	zero,1984(sp)
 344:	0d01                	.insn	2, 0x0d01
 346:	0002                	.insn	2, 0x0002
 348:	000c                	.insn	2, 0x000c
 34a:	0000                	.insn	2, 0x
 34c:	0338                	.insn	2, 0x0338
 34e:	0000                	.insn	2, 0x
 350:	1b88                	.insn	2, 0x1b88
 352:	0000                	.insn	2, 0x
 354:	0004                	.insn	2, 0x0004
 356:	0000                	.insn	2, 0x
 358:	000c                	.insn	2, 0x000c
 35a:	0000                	.insn	2, 0x
 35c:	ffff                	.insn	2, 0xffff
 35e:	ffff                	.insn	2, 0xffff
 360:	7c010003          	lb	zero,1984(sp)
 364:	0d01                	.insn	2, 0x0d01
 366:	0002                	.insn	2, 0x0002
 368:	000c                	.insn	2, 0x000c
 36a:	0000                	.insn	2, 0x
 36c:	0358                	.insn	2, 0x0358
 36e:	0000                	.insn	2, 0x
 370:	1b8c                	.insn	2, 0x1b8c
 372:	0000                	.insn	2, 0x
 374:	0014                	.insn	2, 0x0014
 376:	0000                	.insn	2, 0x
 378:	000c                	.insn	2, 0x000c
 37a:	0000                	.insn	2, 0x
 37c:	0358                	.insn	2, 0x0358
 37e:	0000                	.insn	2, 0x
 380:	1ba0                	.insn	2, 0x1ba0
 382:	0000                	.insn	2, 0x
 384:	0018                	.insn	2, 0x0018
 386:	0000                	.insn	2, 0x
 388:	000c                	.insn	2, 0x000c
 38a:	0000                	.insn	2, 0x
 38c:	0358                	.insn	2, 0x0358
 38e:	0000                	.insn	2, 0x
 390:	1bb8                	.insn	2, 0x1bb8
 392:	0000                	.insn	2, 0x
 394:	0018                	.insn	2, 0x0018
 396:	0000                	.insn	2, 0x
 398:	000c                	.insn	2, 0x000c
 39a:	0000                	.insn	2, 0x
 39c:	0358                	.insn	2, 0x0358
 39e:	0000                	.insn	2, 0x
 3a0:	1bd0                	.insn	2, 0x1bd0
 3a2:	0000                	.insn	2, 0x
 3a4:	001c                	.insn	2, 0x001c
 3a6:	0000                	.insn	2, 0x
 3a8:	000c                	.insn	2, 0x000c
 3aa:	0000                	.insn	2, 0x
 3ac:	0358                	.insn	2, 0x0358
 3ae:	0000                	.insn	2, 0x
 3b0:	1bec                	.insn	2, 0x1bec
 3b2:	0000                	.insn	2, 0x
 3b4:	001c                	.insn	2, 0x001c
	...

Disassembly of section .debug_rnglists:

00000000 <.debug_rnglists>:
   0:	001d                	.insn	2, 0x001d
   2:	0000                	.insn	2, 0x
   4:	0005                	.insn	2, 0x0005
   6:	0004                	.insn	2, 0x0004
   8:	0000                	.insn	2, 0x
   a:	0000                	.insn	2, 0x
   c:	00000007          	.insn	4, 0x0007
  10:	8000                	.insn	2, 0x8000
  12:	0701                	.insn	2, 0x0701
  14:	0080                	.insn	2, 0x0080
  16:	0000                	.insn	2, 0x
  18:	01b0                	.insn	2, 0x01b0
  1a:	00012c07          	.insn	4, 0x00012c07
  1e:	3400                	.insn	2, 0x3400
  20:	6900                	.insn	2, 0x6900
  22:	0002                	.insn	2, 0x0002
  24:	0500                	.insn	2, 0x0500
  26:	0400                	.insn	2, 0x0400
  28:	0000                	.insn	2, 0x
  2a:	0000                	.insn	2, 0x
  2c:	0600                	.insn	2, 0x0600
  2e:	0cd8                	.insn	2, 0x0cd8
  30:	0000                	.insn	2, 0x
  32:	0cdc                	.insn	2, 0x0cdc
  34:	0000                	.insn	2, 0x
  36:	4c06                	.insn	2, 0x4c06
  38:	000d                	.insn	2, 0x000d
  3a:	b400                	.insn	2, 0xb400
  3c:	000d                	.insn	2, 0x000d
  3e:	0600                	.insn	2, 0x0600
  40:	0db4                	.insn	2, 0x0db4
  42:	0000                	.insn	2, 0x
  44:	0dc4                	.insn	2, 0x0dc4
  46:	0000                	.insn	2, 0x
  48:	c806                	.insn	2, 0xc806
  4a:	000d                	.insn	2, 0x000d
  4c:	1400                	.insn	2, 0x1400
  4e:	0600000f          	fence	or,unknown
  52:	0f4c                	.insn	2, 0x0f4c
  54:	0000                	.insn	2, 0x
  56:	11b4                	.insn	2, 0x11b4
  58:	0000                	.insn	2, 0x
  5a:	0600                	.insn	2, 0x0600
  5c:	0d80                	.insn	2, 0x0d80
  5e:	0000                	.insn	2, 0x
  60:	0d84                	.insn	2, 0x0d84
  62:	0000                	.insn	2, 0x
  64:	a406                	.insn	2, 0xa406
  66:	000d                	.insn	2, 0x000d
  68:	b400                	.insn	2, 0xb400
  6a:	000d                	.insn	2, 0x000d
  6c:	0600                	.insn	2, 0x0600
  6e:	0e94                	.insn	2, 0x0e94
  70:	0000                	.insn	2, 0x
  72:	0f14                	.insn	2, 0x0f14
  74:	0000                	.insn	2, 0x
  76:	8006                	.insn	2, 0x8006
  78:	8400000f          	.insn	4, 0x8400000f
  7c:	0600000f          	fence	or,unknown
  80:	0f98                	.insn	2, 0x0f98
  82:	0000                	.insn	2, 0x
  84:	0fd0                	.insn	2, 0x0fd0
  86:	0000                	.insn	2, 0x
  88:	4406                	.insn	2, 0x4406
  8a:	0010                	.insn	2, 0x0010
  8c:	4c00                	.insn	2, 0x4c00
  8e:	0010                	.insn	2, 0x0010
  90:	0600                	.insn	2, 0x0600
  92:	10ac                	.insn	2, 0x10ac
  94:	0000                	.insn	2, 0x
  96:	10c4                	.insn	2, 0x10c4
  98:	0000                	.insn	2, 0x
  9a:	4406                	.insn	2, 0x4406
  9c:	0011                	.insn	2, 0x0011
  9e:	5000                	.insn	2, 0x5000
  a0:	0011                	.insn	2, 0x0011
  a2:	0000                	.insn	2, 0x
  a4:	ac06                	.insn	2, 0xac06
  a6:	000d                	.insn	2, 0x000d
  a8:	b400                	.insn	2, 0xb400
  aa:	000d                	.insn	2, 0x000d
  ac:	0600                	.insn	2, 0x0600
  ae:	0e9c                	.insn	2, 0x0e9c
  b0:	0000                	.insn	2, 0x
  b2:	0ee4                	.insn	2, 0x0ee4
  b4:	0000                	.insn	2, 0x
  b6:	4406                	.insn	2, 0x4406
  b8:	0010                	.insn	2, 0x0010
  ba:	4c00                	.insn	2, 0x4c00
  bc:	0010                	.insn	2, 0x0010
  be:	0600                	.insn	2, 0x0600
  c0:	10ac                	.insn	2, 0x10ac
  c2:	0000                	.insn	2, 0x
  c4:	10b0                	.insn	2, 0x10b0
  c6:	0000                	.insn	2, 0x
  c8:	b406                	.insn	2, 0xb406
  ca:	0010                	.insn	2, 0x0010
  cc:	bc00                	.insn	2, 0xbc00
  ce:	0010                	.insn	2, 0x0010
  d0:	0600                	.insn	2, 0x0600
  d2:	1144                	.insn	2, 0x1144
  d4:	0000                	.insn	2, 0x
  d6:	1150                	.insn	2, 0x1150
  d8:	0000                	.insn	2, 0x
  da:	0600                	.insn	2, 0x0600
  dc:	0cf0                	.insn	2, 0x0cf0
  de:	0000                	.insn	2, 0x
  e0:	0d0c                	.insn	2, 0x0d0c
  e2:	0000                	.insn	2, 0x
  e4:	1806                	.insn	2, 0x1806
  e6:	000d                	.insn	2, 0x000d
  e8:	1c00                	.insn	2, 0x1c00
  ea:	000d                	.insn	2, 0x000d
  ec:	0600                	.insn	2, 0x0600
  ee:	0d1c                	.insn	2, 0x0d1c
  f0:	0000                	.insn	2, 0x
  f2:	0d48                	.insn	2, 0x0d48
  f4:	0000                	.insn	2, 0x
  f6:	0600                	.insn	2, 0x0600
  f8:	127c                	.insn	2, 0x127c
  fa:	0000                	.insn	2, 0x
  fc:	1280                	.insn	2, 0x1280
  fe:	0000                	.insn	2, 0x
 100:	c806                	.insn	2, 0xc806
 102:	d0000013          	li	zero,-768
 106:	06000013          	li	zero,96
 10a:	13d4                	.insn	2, 0x13d4
 10c:	0000                	.insn	2, 0x
 10e:	13dc                	.insn	2, 0x13dc
 110:	0000                	.insn	2, 0x
 112:	e006                	.insn	2, 0xe006
 114:	e8000013          	li	zero,-384
 118:	06000013          	li	zero,96
 11c:	13ec                	.insn	2, 0x13ec
 11e:	0000                	.insn	2, 0x
 120:	13f4                	.insn	2, 0x13f4
 122:	0000                	.insn	2, 0x
 124:	f806                	.insn	2, 0xf806
 126:	00000013          	nop
 12a:	0014                	.insn	2, 0x0014
 12c:	0600                	.insn	2, 0x0600
 12e:	15a0                	.insn	2, 0x15a0
 130:	0000                	.insn	2, 0x
 132:	15ac                	.insn	2, 0x15ac
 134:	0000                	.insn	2, 0x
 136:	b006                	.insn	2, 0xb006
 138:	0015                	.insn	2, 0x0015
 13a:	bc00                	.insn	2, 0xbc00
 13c:	0015                	.insn	2, 0x0015
 13e:	0600                	.insn	2, 0x0600
 140:	15c0                	.insn	2, 0x15c0
 142:	0000                	.insn	2, 0x
 144:	15d4                	.insn	2, 0x15d4
 146:	0000                	.insn	2, 0x
 148:	0600                	.insn	2, 0x0600
 14a:	12f0                	.insn	2, 0x12f0
 14c:	0000                	.insn	2, 0x
 14e:	12f4                	.insn	2, 0x12f4
 150:	0000                	.insn	2, 0x
 152:	1006                	.insn	2, 0x1006
 154:	14000013          	li	zero,320
 158:	06000013          	li	zero,96
 15c:	1404                	.insn	2, 0x1404
 15e:	0000                	.insn	2, 0x
 160:	1408                	.insn	2, 0x1408
 162:	0000                	.insn	2, 0x
 164:	a006                	.insn	2, 0xa006
 166:	0014                	.insn	2, 0x0014
 168:	0400                	.insn	2, 0x0400
 16a:	0015                	.insn	2, 0x0015
 16c:	0600                	.insn	2, 0x0600
 16e:	181c                	.insn	2, 0x181c
 170:	0000                	.insn	2, 0x
 172:	1864                	.insn	2, 0x1864
 174:	0000                	.insn	2, 0x
 176:	8c06                	.insn	2, 0x8c06
 178:	0018                	.insn	2, 0x0018
 17a:	d400                	.insn	2, 0xd400
 17c:	0019                	.insn	2, 0x0019
 17e:	0000                	.insn	2, 0x
 180:	1006                	.insn	2, 0x1006
 182:	14000013          	li	zero,320
 186:	06000013          	li	zero,96
 18a:	14c0                	.insn	2, 0x14c0
 18c:	0000                	.insn	2, 0x
 18e:	14c4                	.insn	2, 0x14c4
 190:	0000                	.insn	2, 0x
 192:	c006                	.insn	2, 0xc006
 194:	0018                	.insn	2, 0x0018
 196:	c400                	.insn	2, 0xc400
 198:	0018                	.insn	2, 0x0018
 19a:	0600                	.insn	2, 0x0600
 19c:	194c                	.insn	2, 0x194c
 19e:	0000                	.insn	2, 0x
 1a0:	1978                	.insn	2, 0x1978
 1a2:	0000                	.insn	2, 0x
 1a4:	0600                	.insn	2, 0x0600
 1a6:	14c8                	.insn	2, 0x14c8
 1a8:	0000                	.insn	2, 0x
 1aa:	1500                	.insn	2, 0x1500
 1ac:	0000                	.insn	2, 0x
 1ae:	4c06                	.insn	2, 0x4c06
 1b0:	0018                	.insn	2, 0x0018
 1b2:	6400                	.insn	2, 0x6400
 1b4:	0018                	.insn	2, 0x0018
 1b6:	0000                	.insn	2, 0x
 1b8:	c806                	.insn	2, 0xc806
 1ba:	0018                	.insn	2, 0x0018
 1bc:	0c00                	.insn	2, 0x0c00
 1be:	0019                	.insn	2, 0x0019
 1c0:	0600                	.insn	2, 0x0600
 1c2:	1928                	.insn	2, 0x1928
 1c4:	0000                	.insn	2, 0x
 1c6:	194c                	.insn	2, 0x194c
 1c8:	0000                	.insn	2, 0x
 1ca:	7806                	.insn	2, 0x7806
 1cc:	0019                	.insn	2, 0x0019
 1ce:	8c00                	.insn	2, 0x8c00
 1d0:	0019                	.insn	2, 0x0019
 1d2:	0000                	.insn	2, 0x
 1d4:	0c06                	.insn	2, 0x0c06
 1d6:	10000013          	li	zero,256
 1da:	06000013          	li	zero,96
 1de:	1318                	.insn	2, 0x1318
 1e0:	0000                	.insn	2, 0x
 1e2:	135c                	.insn	2, 0x135c
 1e4:	0000                	.insn	2, 0x
 1e6:	2806                	.insn	2, 0x2806
 1e8:	78000017          	auipc	zero,0x78000
 1ec:	06000017          	auipc	zero,0x6000
 1f0:	186c                	.insn	2, 0x186c
 1f2:	0000                	.insn	2, 0x
 1f4:	188c                	.insn	2, 0x188c
 1f6:	0000                	.insn	2, 0x
 1f8:	0600                	.insn	2, 0x0600
 1fa:	1524                	.insn	2, 0x1524
 1fc:	0000                	.insn	2, 0x
 1fe:	1528                	.insn	2, 0x1528
 200:	0000                	.insn	2, 0x
 202:	3006                	.insn	2, 0x3006
 204:	0015                	.insn	2, 0x0015
 206:	3400                	.insn	2, 0x3400
 208:	0015                	.insn	2, 0x0015
 20a:	0000                	.insn	2, 0x
 20c:	5006                	.insn	2, 0x5006
 20e:	0015                	.insn	2, 0x0015
 210:	5400                	.insn	2, 0x5400
 212:	0015                	.insn	2, 0x0015
 214:	0600                	.insn	2, 0x0600
 216:	155c                	.insn	2, 0x155c
 218:	0000                	.insn	2, 0x
 21a:	155c                	.insn	2, 0x155c
 21c:	0000                	.insn	2, 0x
 21e:	0600                	.insn	2, 0x0600
 220:	15e4                	.insn	2, 0x15e4
 222:	0000                	.insn	2, 0x
 224:	1690                	.insn	2, 0x1690
 226:	0000                	.insn	2, 0x
 228:	e806                	.insn	2, 0xe806
 22a:	0016                	.insn	2, 0x0016
 22c:	f400                	.insn	2, 0xf400
 22e:	0016                	.insn	2, 0x0016
 230:	0600                	.insn	2, 0x0600
 232:	1778                	.insn	2, 0x1778
 234:	0000                	.insn	2, 0x
 236:	17c8                	.insn	2, 0x17c8
 238:	0000                	.insn	2, 0x
 23a:	d806                	.insn	2, 0xd806
 23c:	1c000017          	auipc	zero,0x1c000
 240:	0018                	.insn	2, 0x0018
 242:	0600                	.insn	2, 0x0600
 244:	1864                	.insn	2, 0x1864
 246:	0000                	.insn	2, 0x
 248:	186c                	.insn	2, 0x186c
 24a:	0000                	.insn	2, 0x
 24c:	0600                	.insn	2, 0x0600
 24e:	15f0                	.insn	2, 0x15f0
 250:	0000                	.insn	2, 0x
 252:	15f4                	.insn	2, 0x15f4
 254:	0000                	.insn	2, 0x
 256:	f806                	.insn	2, 0xf806
 258:	0015                	.insn	2, 0x0015
 25a:	fc00                	.insn	2, 0xfc00
 25c:	0015                	.insn	2, 0x0015
 25e:	0600                	.insn	2, 0x0600
 260:	1600                	.insn	2, 0x1600
 262:	0000                	.insn	2, 0x
 264:	1630                	.insn	2, 0x1630
 266:	0000                	.insn	2, 0x
 268:	e806                	.insn	2, 0xe806
 26a:	0016                	.insn	2, 0x0016
 26c:	f400                	.insn	2, 0xf400
 26e:	0016                	.insn	2, 0x0016
 270:	0600                	.insn	2, 0x0600
 272:	17bc                	.insn	2, 0x17bc
 274:	0000                	.insn	2, 0x
 276:	17c8                	.insn	2, 0x17c8
 278:	0000                	.insn	2, 0x
 27a:	0600                	.insn	2, 0x0600
 27c:	16f4                	.insn	2, 0x16f4
 27e:	0000                	.insn	2, 0x
 280:	16f8                	.insn	2, 0x16f8
 282:	0000                	.insn	2, 0x
 284:	fc06                	.insn	2, 0xfc06
 286:	0016                	.insn	2, 0x0016
 288:	1800                	.insn	2, 0x1800
 28a:	00000017          	auipc	zero,0x0

Disassembly of section .debug_loclists:

00000000 <.debug_loclists>:
       0:	18bc                	.insn	2, 0x18bc
       2:	0000                	.insn	2, 0x
       4:	0005                	.insn	2, 0x0005
       6:	0004                	.insn	2, 0x0004
       8:	0000                	.insn	2, 0x
       a:	0000                	.insn	2, 0x
       c:	001b2c07          	.insn	4, 0x001b2c07
      10:	3c00                	.insn	2, 0x3c00
      12:	0100001b          	.insn	4, 0x0100001b
      16:	075a                	.insn	2, 0x075a
      18:	1b3c                	.insn	2, 0x1b3c
      1a:	0000                	.insn	2, 0x
      1c:	00001b7b          	.insn	4, 0x1b7b
      20:	6d01                	.insn	2, 0x6d01
      22:	001b7b07          	.insn	4, 0x001b7b07
      26:	8800                	.insn	2, 0x8800
      28:	0400001b          	.insn	4, 0x0400001b
      2c:	9f5a01a3          	sb	s5,-1565(s4)
      30:	0700                	.insn	2, 0x0700
      32:	1b2c                	.insn	2, 0x1b2c
      34:	0000                	.insn	2, 0x
      36:	1b50                	.insn	2, 0x1b50
      38:	0000                	.insn	2, 0x
      3a:	5b01                	.insn	2, 0x5b01
      3c:	001b5007          	.insn	4, 0x001b5007
      40:	7b00                	.insn	2, 0x7b00
      42:	0100001b          	.insn	4, 0x0100001b
      46:	076c                	.insn	2, 0x076c
      48:	00001b7b          	.insn	4, 0x1b7b
      4c:	1b88                	.insn	2, 0x1b88
      4e:	0000                	.insn	2, 0x
      50:	a304                	.insn	2, 0xa304
      52:	5b01                	.insn	2, 0x5b01
      54:	009f 2c07 001b      	.insn	6, 0x001b2c07009f
      5a:	5800                	.insn	2, 0x5800
      5c:	0100001b          	.insn	4, 0x0100001b
      60:	075c                	.insn	2, 0x075c
      62:	1b58                	.insn	2, 0x1b58
      64:	0000                	.insn	2, 0x
      66:	00001b7b          	.insn	4, 0x1b7b
      6a:	5d01                	.insn	2, 0x5d01
      6c:	001b7b07          	.insn	4, 0x001b7b07
      70:	8800                	.insn	2, 0x8800
      72:	0400001b          	.insn	4, 0x0400001b
      76:	9f5c01a3          	sb	s5,-1565(s8)
      7a:	0700                	.insn	2, 0x0700
      7c:	1b10                	.insn	2, 0x1b10
      7e:	0000                	.insn	2, 0x
      80:	1b24                	.insn	2, 0x1b24
      82:	0000                	.insn	2, 0x
      84:	5a01                	.insn	2, 0x5a01
      86:	001b2407          	.insn	4, 0x001b2407
      8a:	2b00                	.insn	2, 0x2b00
      8c:	0100001b          	.insn	4, 0x0100001b
      90:	1b2b075b          	.insn	4, 0x1b2b075b
      94:	0000                	.insn	2, 0x
      96:	1b2c                	.insn	2, 0x1b2c
      98:	0000                	.insn	2, 0x
      9a:	a304                	.insn	2, 0xa304
      9c:	5a01                	.insn	2, 0x5a01
      9e:	009f 1007 001b      	.insn	6, 0x001b1007009f
      a4:	2000                	.insn	2, 0x2000
      a6:	0100001b          	.insn	4, 0x0100001b
      aa:	1b20075b          	.insn	4, 0x1b20075b
      ae:	0000                	.insn	2, 0x
      b0:	00001b2b          	.insn	4, 0x1b2b
      b4:	5c01                	.insn	2, 0x5c01
      b6:	001b2b07          	.insn	4, 0x001b2b07
      ba:	2c00                	.insn	2, 0x2c00
      bc:	0400001b          	.insn	4, 0x0400001b
      c0:	9f5b01a3          	sb	s5,-1565(s6)
      c4:	0700                	.insn	2, 0x0700
      c6:	1b10                	.insn	2, 0x1b10
      c8:	0000                	.insn	2, 0x
      ca:	1b1c                	.insn	2, 0x1b1c
      cc:	0000                	.insn	2, 0x
      ce:	5c01                	.insn	2, 0x5c01
      d0:	001b1c07          	.insn	4, 0x001b1c07
      d4:	2b00                	.insn	2, 0x2b00
      d6:	0100001b          	.insn	4, 0x0100001b
      da:	075d                	.insn	2, 0x075d
      dc:	00001b2b          	.insn	4, 0x1b2b
      e0:	1b2c                	.insn	2, 0x1b2c
      e2:	0000                	.insn	2, 0x
      e4:	a304                	.insn	2, 0xa304
      e6:	5c01                	.insn	2, 0x5c01
      e8:	009f 1007 001b      	.insn	6, 0x001b1007009f
      ee:	1800                	.insn	2, 0x1800
      f0:	0100001b          	.insn	4, 0x0100001b
      f4:	075d                	.insn	2, 0x075d
      f6:	1b18                	.insn	2, 0x1b18
      f8:	0000                	.insn	2, 0x
      fa:	00001b2b          	.insn	4, 0x1b2b
      fe:	5e01                	.insn	2, 0x5e01
     100:	001b2b07          	.insn	4, 0x001b2b07
     104:	2c00                	.insn	2, 0x2c00
     106:	0400001b          	.insn	4, 0x0400001b
     10a:	9f5d01a3          	sb	s5,-1565(s10)
     10e:	0700                	.insn	2, 0x0700
     110:	1ae0                	.insn	2, 0x1ae0
     112:	0000                	.insn	2, 0x
     114:	1aec                	.insn	2, 0x1aec
     116:	0000                	.insn	2, 0x
     118:	5a01                	.insn	2, 0x5a01
     11a:	001aec07          	.insn	4, 0x001aec07
     11e:	0300                	.insn	2, 0x0300
     120:	0100001b          	.insn	4, 0x0100001b
     124:	075d                	.insn	2, 0x075d
     126:	00001b03          	lh	s6,0(zero) # 0 <_vector_table_start>
     12a:	1b10                	.insn	2, 0x1b10
     12c:	0000                	.insn	2, 0x
     12e:	a304                	.insn	2, 0xa304
     130:	5a01                	.insn	2, 0x5a01
     132:	009f e007 001a      	.insn	6, 0x001ae007009f
     138:	f800                	.insn	2, 0xf800
     13a:	001a                	.insn	2, 0x001a
     13c:	0100                	.insn	2, 0x0100
     13e:	1af8075b          	.insn	4, 0x1af8075b
     142:	0000                	.insn	2, 0x
     144:	00001b03          	lh	s6,0(zero) # 0 <_vector_table_start>
     148:	5e01                	.insn	2, 0x5e01
     14a:	001b0307          	.insn	4, 0x001b0307
     14e:	1000                	.insn	2, 0x1000
     150:	0400001b          	.insn	4, 0x0400001b
     154:	9f5b01a3          	sb	s5,-1565(s6)
     158:	0700                	.insn	2, 0x0700
     15a:	1a94                	.insn	2, 0x1a94
     15c:	0000                	.insn	2, 0x
     15e:	1ab0                	.insn	2, 0x1ab0
     160:	0000                	.insn	2, 0x
     162:	5a01                	.insn	2, 0x5a01
     164:	001ab007          	.insn	4, 0x001ab007
     168:	d300                	.insn	2, 0xd300
     16a:	001a                	.insn	2, 0x001a
     16c:	0100                	.insn	2, 0x0100
     16e:	1ad3075b          	.insn	4, 0x1ad3075b
     172:	0000                	.insn	2, 0x
     174:	1ae0                	.insn	2, 0x1ae0
     176:	0000                	.insn	2, 0x
     178:	a304                	.insn	2, 0xa304
     17a:	5a01                	.insn	2, 0x5a01
     17c:	009f 9407 001a      	.insn	6, 0x001a9407009f
     182:	ac00                	.insn	2, 0xac00
     184:	001a                	.insn	2, 0x001a
     186:	0100                	.insn	2, 0x0100
     188:	1aac075b          	.insn	4, 0x1aac075b
     18c:	0000                	.insn	2, 0x
     18e:	00001ad3          	.insn	4, 0x1ad3
     192:	5c01                	.insn	2, 0x5c01
     194:	001ad307          	.insn	4, 0x001ad307
     198:	e000                	.insn	2, 0xe000
     19a:	001a                	.insn	2, 0x001a
     19c:	0400                	.insn	2, 0x0400
     19e:	9f5b01a3          	sb	s5,-1565(s6)
     1a2:	0700                	.insn	2, 0x0700
     1a4:	1a94                	.insn	2, 0x1a94
     1a6:	0000                	.insn	2, 0x
     1a8:	1aa8                	.insn	2, 0x1aa8
     1aa:	0000                	.insn	2, 0x
     1ac:	5c01                	.insn	2, 0x5c01
     1ae:	001aa807          	.insn	4, 0x001aa807
     1b2:	d300                	.insn	2, 0xd300
     1b4:	001a                	.insn	2, 0x001a
     1b6:	0100                	.insn	2, 0x0100
     1b8:	075d                	.insn	2, 0x075d
     1ba:	00001ad3          	.insn	4, 0x1ad3
     1be:	1ae0                	.insn	2, 0x1ae0
     1c0:	0000                	.insn	2, 0x
     1c2:	a304                	.insn	2, 0xa304
     1c4:	5c01                	.insn	2, 0x5c01
     1c6:	009f 4407 001a      	.insn	6, 0x001a4407009f
     1cc:	5c00                	.insn	2, 0x5c00
     1ce:	001a                	.insn	2, 0x001a
     1d0:	0100                	.insn	2, 0x0100
     1d2:	075a                	.insn	2, 0x075a
     1d4:	1a5c                	.insn	2, 0x1a5c
     1d6:	0000                	.insn	2, 0x
     1d8:	00001a87          	.insn	4, 0x1a87
     1dc:	5b01                	.insn	2, 0x5b01
     1de:	001a8707          	.insn	4, 0x001a8707
     1e2:	9400                	.insn	2, 0x9400
     1e4:	001a                	.insn	2, 0x001a
     1e6:	0400                	.insn	2, 0x0400
     1e8:	9f5a01a3          	sb	s5,-1565(s4)
     1ec:	0700                	.insn	2, 0x0700
     1ee:	1a44                	.insn	2, 0x1a44
     1f0:	0000                	.insn	2, 0x
     1f2:	1a58                	.insn	2, 0x1a58
     1f4:	0000                	.insn	2, 0x
     1f6:	5b01                	.insn	2, 0x5b01
     1f8:	001a5807          	.insn	4, 0x001a5807
     1fc:	8700                	.insn	2, 0x8700
     1fe:	001a                	.insn	2, 0x001a
     200:	0100                	.insn	2, 0x0100
     202:	075d                	.insn	2, 0x075d
     204:	00001a87          	.insn	4, 0x1a87
     208:	1a94                	.insn	2, 0x1a94
     20a:	0000                	.insn	2, 0x
     20c:	a304                	.insn	2, 0xa304
     20e:	5b01                	.insn	2, 0x5b01
     210:	009f f007 0019      	.insn	6, 0x0019f007009f
     216:	0400                	.insn	2, 0x0400
     218:	001a                	.insn	2, 0x001a
     21a:	0100                	.insn	2, 0x0100
     21c:	075a                	.insn	2, 0x075a
     21e:	1a04                	.insn	2, 0x1a04
     220:	0000                	.insn	2, 0x
     222:	00001a37          	lui	s4,0x1
     226:	5d01                	.insn	2, 0x5d01
     228:	001a3707          	.insn	4, 0x001a3707
     22c:	4400                	.insn	2, 0x4400
     22e:	001a                	.insn	2, 0x001a
     230:	0400                	.insn	2, 0x0400
     232:	9f5a01a3          	sb	s5,-1565(s4) # 9e3 <print_control_csr+0x9b>
     236:	0700                	.insn	2, 0x0700
     238:	11d4                	.insn	2, 0x11d4
     23a:	0000                	.insn	2, 0x
     23c:	1228                	.insn	2, 0x1228
     23e:	0000                	.insn	2, 0x
     240:	5a01                	.insn	2, 0x5a01
     242:	00122807          	.insn	4, 0x00122807
     246:	a400                	.insn	2, 0xa400
     248:	01000013          	li	zero,16
     24c:	0765                	.insn	2, 0x0765
     24e:	13c4                	.insn	2, 0x13c4
     250:	0000                	.insn	2, 0x
     252:	1690                	.insn	2, 0x1690
     254:	0000                	.insn	2, 0x
     256:	6501                	.insn	2, 0x6501
     258:	00169007          	.insn	4, 0x00169007
     25c:	9400                	.insn	2, 0x9400
     25e:	0016                	.insn	2, 0x0016
     260:	0100                	.insn	2, 0x0100
     262:	075a                	.insn	2, 0x075a
     264:	1694                	.insn	2, 0x1694
     266:	0000                	.insn	2, 0x
     268:	1698                	.insn	2, 0x1698
     26a:	0000                	.insn	2, 0x
     26c:	6501                	.insn	2, 0x6501
     26e:	00169807          	.insn	4, 0x00169807
     272:	9c00                	.insn	2, 0x9c00
     274:	0016                	.insn	2, 0x0016
     276:	0400                	.insn	2, 0x0400
     278:	9f5a01a3          	sb	s5,-1565(s4)
     27c:	00169c07          	.insn	4, 0x00169c07
     280:	d400                	.insn	2, 0xd400
     282:	0019                	.insn	2, 0x0019
     284:	0100                	.insn	2, 0x0100
     286:	0065                	.insn	2, 0x0065
     288:	0011d407          	.insn	4, 0x0011d407
     28c:	4c00                	.insn	2, 0x4c00
     28e:	0012                	.insn	2, 0x0012
     290:	0100                	.insn	2, 0x0100
     292:	124c075b          	.insn	4, 0x124c075b
     296:	0000                	.insn	2, 0x
     298:	13a0                	.insn	2, 0x13a0
     29a:	0000                	.insn	2, 0x
     29c:	6401                	.insn	2, 0x6401
     29e:	0013a007          	.insn	4, 0x0013a007
     2a2:	c400                	.insn	2, 0xc400
     2a4:	04000013          	li	zero,64
     2a8:	9f5b01a3          	sb	s5,-1565(s6)
     2ac:	0013c407          	.insn	4, 0x0013c407
     2b0:	9000                	.insn	2, 0x9000
     2b2:	0016                	.insn	2, 0x0016
     2b4:	0100                	.insn	2, 0x0100
     2b6:	0764                	.insn	2, 0x0764
     2b8:	1690                	.insn	2, 0x1690
     2ba:	0000                	.insn	2, 0x
     2bc:	16b0                	.insn	2, 0x16b0
     2be:	0000                	.insn	2, 0x
     2c0:	5b01                	.insn	2, 0x5b01
     2c2:	0016b007          	.insn	4, 0x0016b007
     2c6:	d400                	.insn	2, 0xd400
     2c8:	0019                	.insn	2, 0x0019
     2ca:	0100                	.insn	2, 0x0100
     2cc:	0064                	.insn	2, 0x0064
     2ce:	0011d407          	.insn	4, 0x0011d407
     2d2:	4c00                	.insn	2, 0x4c00
     2d4:	0012                	.insn	2, 0x0012
     2d6:	0100                	.insn	2, 0x0100
     2d8:	075c                	.insn	2, 0x075c
     2da:	124c                	.insn	2, 0x124c
     2dc:	0000                	.insn	2, 0x
     2de:	139c                	.insn	2, 0x139c
     2e0:	0000                	.insn	2, 0x
     2e2:	6301                	.insn	2, 0x6301
     2e4:	00139c07          	.insn	4, 0x00139c07
     2e8:	c400                	.insn	2, 0xc400
     2ea:	04000013          	li	zero,64
     2ee:	9f5c01a3          	sb	s5,-1565(s8)
     2f2:	0013c407          	.insn	4, 0x0013c407
     2f6:	9000                	.insn	2, 0x9000
     2f8:	0016                	.insn	2, 0x0016
     2fa:	0100                	.insn	2, 0x0100
     2fc:	16900763          	beq	zero,s1,46a <compute_expected+0x18>
     300:	0000                	.insn	2, 0x
     302:	16b0                	.insn	2, 0x16b0
     304:	0000                	.insn	2, 0x
     306:	5c01                	.insn	2, 0x5c01
     308:	0016b007          	.insn	4, 0x0016b007
     30c:	d400                	.insn	2, 0xd400
     30e:	0019                	.insn	2, 0x0019
     310:	0100                	.insn	2, 0x0100
     312:	d4070063          	beqz	a4,fffff852 <_peripheral_PLIC_end+0xf7fff852>
     316:	0011                	.insn	2, 0x0011
     318:	4c00                	.insn	2, 0x4c00
     31a:	0012                	.insn	2, 0x0012
     31c:	0100                	.insn	2, 0x0100
     31e:	075d                	.insn	2, 0x075d
     320:	1268                	.insn	2, 0x1268
     322:	0000                	.insn	2, 0x
     324:	1270                	.insn	2, 0x1270
     326:	0000                	.insn	2, 0x
     328:	9f028803          	lb	a6,-1552(t0)
     32c:	00127007          	.insn	4, 0x00127007
     330:	7800                	.insn	2, 0x7800
     332:	0012                	.insn	2, 0x0012
     334:	0300                	.insn	2, 0x0300
     336:	0188                	.insn	2, 0x0188
     338:	079f 12ec 0000      	.insn	6, 0x12ec079f
     33e:	12f8                	.insn	2, 0x12f8
     340:	0000                	.insn	2, 0x
     342:	5d01                	.insn	2, 0x5d01
     344:	00135c07          	.insn	4, 0x00135c07
     348:	6400                	.insn	2, 0x6400
     34a:	01000013          	li	zero,16
     34e:	0768                	.insn	2, 0x0768
     350:	13c8                	.insn	2, 0x13c8
     352:	0000                	.insn	2, 0x
     354:	13d0                	.insn	2, 0x13d0
     356:	0000                	.insn	2, 0x
     358:	9f017e03          	.insn	4, 0x9f017e03
     35c:	0013d407          	.insn	4, 0x0013d407
     360:	dc00                	.insn	2, 0xdc00
     362:	03000013          	li	zero,48
     366:	017e                	.insn	2, 0x017e
     368:	079f 13e0 0000      	.insn	6, 0x13e0079f
     36e:	13e8                	.insn	2, 0x13e8
     370:	0000                	.insn	2, 0x
     372:	9f017e03          	.insn	4, 0x9f017e03
     376:	0013ec07          	.insn	4, 0x0013ec07
     37a:	f400                	.insn	2, 0xf400
     37c:	03000013          	li	zero,48
     380:	017e                	.insn	2, 0x017e
     382:	079f 13f8 0000      	.insn	6, 0x13f8079f
     388:	1400                	.insn	2, 0x1400
     38a:	0000                	.insn	2, 0x
     38c:	9f017e03          	.insn	4, 0x9f017e03
     390:	00150807          	.insn	4, 0x00150807
     394:	3400                	.insn	2, 0x3400
     396:	0015                	.insn	2, 0x0015
     398:	0300                	.insn	2, 0x0300
     39a:	017e                	.insn	2, 0x017e
     39c:	079f 1534 0000      	.insn	6, 0x1534079f
     3a2:	1544                	.insn	2, 0x1544
     3a4:	0000                	.insn	2, 0x
     3a6:	9f018803          	lb	a6,-1552(gp)
     3aa:	00156807          	.insn	4, 0x00156807
     3ae:	7400                	.insn	2, 0x7400
     3b0:	0015                	.insn	2, 0x0015
     3b2:	0300                	.insn	2, 0x0300
     3b4:	017d                	.insn	2, 0x017d
     3b6:	079f 1574 0000      	.insn	6, 0x1574079f
     3bc:	1578                	.insn	2, 0x1578
     3be:	0000                	.insn	2, 0x
     3c0:	5d01                	.insn	2, 0x5d01
     3c2:	00157807          	.insn	4, 0x00157807
     3c6:	7c00                	.insn	2, 0x7c00
     3c8:	0015                	.insn	2, 0x0015
     3ca:	0100                	.insn	2, 0x0100
     3cc:	0768                	.insn	2, 0x0768
     3ce:	15b0                	.insn	2, 0x15b0
     3d0:	0000                	.insn	2, 0x
     3d2:	15b8                	.insn	2, 0x15b8
     3d4:	0000                	.insn	2, 0x
     3d6:	9f017e03          	.insn	4, 0x9f017e03
     3da:	0015b807          	.insn	4, 0x0015b807
     3de:	bc00                	.insn	2, 0xbc00
     3e0:	0015                	.insn	2, 0x0015
     3e2:	0300                	.insn	2, 0x0300
     3e4:	0188                	.insn	2, 0x0188
     3e6:	079f 15cc 0000      	.insn	6, 0x15cc079f
     3ec:	15d4                	.insn	2, 0x15d4
     3ee:	0000                	.insn	2, 0x
     3f0:	9f018803          	lb	a6,-1552(gp)
     3f4:	00169007          	.insn	4, 0x00169007
     3f8:	b000                	.insn	2, 0xb000
     3fa:	0016                	.insn	2, 0x0016
     3fc:	0100                	.insn	2, 0x0100
     3fe:	075d                	.insn	2, 0x075d
     400:	16b4                	.insn	2, 0x16b4
     402:	0000                	.insn	2, 0x
     404:	16e8                	.insn	2, 0x16e8
     406:	0000                	.insn	2, 0x
     408:	5d01                	.insn	2, 0x5d01
     40a:	00172407          	.insn	4, 0x00172407
     40e:	2800                	.insn	2, 0x2800
     410:	01000017          	auipc	zero,0x1000
     414:	075d                	.insn	2, 0x075d
     416:	17d4                	.insn	2, 0x17d4
     418:	0000                	.insn	2, 0x
     41a:	17d8                	.insn	2, 0x17d8
     41c:	0000                	.insn	2, 0x
     41e:	5d01                	.insn	2, 0x5d01
     420:	0019cc07          	.insn	4, 0x0019cc07
     424:	d400                	.insn	2, 0xd400
     426:	0019                	.insn	2, 0x0019
     428:	0100                	.insn	2, 0x0100
     42a:	005e                	.insn	2, 0x005e
     42c:	0011d407          	.insn	4, 0x0011d407
     430:	4c00                	.insn	2, 0x4c00
     432:	0012                	.insn	2, 0x0012
     434:	0100                	.insn	2, 0x0100
     436:	075e                	.insn	2, 0x075e
     438:	124c                	.insn	2, 0x124c
     43a:	0000                	.insn	2, 0x
     43c:	131c                	.insn	2, 0x131c
     43e:	0000                	.insn	2, 0x
     440:	6a01                	.insn	2, 0x6a01
     442:	00131c07          	.insn	4, 0x00131c07
     446:	3000                	.insn	2, 0x3000
     448:	01000013          	li	zero,16
     44c:	0759                	.insn	2, 0x0759
     44e:	135c                	.insn	2, 0x135c
     450:	0000                	.insn	2, 0x
     452:	1364                	.insn	2, 0x1364
     454:	0000                	.insn	2, 0x
     456:	5901                	.insn	2, 0x5901
     458:	00136407          	.insn	4, 0x00136407
     45c:	b800                	.insn	2, 0xb800
     45e:	01000013          	li	zero,16
     462:	076a                	.insn	2, 0x076a
     464:	13c4                	.insn	2, 0x13c4
     466:	0000                	.insn	2, 0x
     468:	14d0                	.insn	2, 0x14d0
     46a:	0000                	.insn	2, 0x
     46c:	6a01                	.insn	2, 0x6a01
     46e:	0014d007          	.insn	4, 0x0014d007
     472:	0400                	.insn	2, 0x0400
     474:	0015                	.insn	2, 0x0015
     476:	0100                	.insn	2, 0x0100
     478:	0759                	.insn	2, 0x0759
     47a:	1504                	.insn	2, 0x1504
     47c:	0000                	.insn	2, 0x
     47e:	15f0                	.insn	2, 0x15f0
     480:	0000                	.insn	2, 0x
     482:	6a01                	.insn	2, 0x6a01
     484:	0015f007          	.insn	4, 0x0015f007
     488:	0400                	.insn	2, 0x0400
     48a:	0016                	.insn	2, 0x0016
     48c:	0100                	.insn	2, 0x0100
     48e:	075e                	.insn	2, 0x075e
     490:	1604                	.insn	2, 0x1604
     492:	0000                	.insn	2, 0x
     494:	1690                	.insn	2, 0x1690
     496:	0000                	.insn	2, 0x
     498:	7fb89103          	lh	sp,2043(a7)
     49c:	00169007          	.insn	4, 0x00169007
     4a0:	b000                	.insn	2, 0xb000
     4a2:	0016                	.insn	2, 0x0016
     4a4:	0100                	.insn	2, 0x0100
     4a6:	075e                	.insn	2, 0x075e
     4a8:	16b0                	.insn	2, 0x16b0
     4aa:	0000                	.insn	2, 0x
     4ac:	16e8                	.insn	2, 0x16e8
     4ae:	0000                	.insn	2, 0x
     4b0:	6a01                	.insn	2, 0x6a01
     4b2:	0016e807          	.insn	4, 0x0016e807
     4b6:	f000                	.insn	2, 0xf000
     4b8:	0016                	.insn	2, 0x0016
     4ba:	0100                	.insn	2, 0x0100
     4bc:	075e                	.insn	2, 0x075e
     4be:	16f0                	.insn	2, 0x16f0
     4c0:	0000                	.insn	2, 0x
     4c2:	16f4                	.insn	2, 0x16f4
     4c4:	0000                	.insn	2, 0x
     4c6:	7fb89103          	lh	sp,2043(a7)
     4ca:	0016f407          	.insn	4, 0x0016f407
     4ce:	1000                	.insn	2, 0x1000
     4d0:	03000017          	auipc	zero,0x3000
     4d4:	048a                	.insn	2, 0x048a
     4d6:	079f 1710 0000      	.insn	6, 0x1710079f
     4dc:	1758                	.insn	2, 0x1758
     4de:	0000                	.insn	2, 0x
     4e0:	6a01                	.insn	2, 0x6a01
     4e2:	00175807          	.insn	4, 0x00175807
     4e6:	7400                	.insn	2, 0x7400
     4e8:	03000017          	auipc	zero,0x3000
     4ec:	048a                	.insn	2, 0x048a
     4ee:	079f 1774 0000      	.insn	6, 0x1774079f
     4f4:	1778                	.insn	2, 0x1778
     4f6:	0000                	.insn	2, 0x
     4f8:	5901                	.insn	2, 0x5901
     4fa:	00177807          	.insn	4, 0x00177807
     4fe:	c800                	.insn	2, 0xc800
     500:	03000017          	auipc	zero,0x3000
     504:	b891                	.insn	2, 0xb891
     506:	077f 17c8 0000 17d8 	.insn	10, 0x17d8000017c8077f
     50e:	0000 
     510:	6a01                	.insn	2, 0x6a01
     512:	0017d807          	.insn	4, 0x0017d807
     516:	1c00                	.insn	2, 0x1c00
     518:	0018                	.insn	2, 0x0018
     51a:	0300                	.insn	2, 0x0300
     51c:	b891                	.insn	2, 0xb891
     51e:	077f 181c 0000 184c 	.insn	10, 0x184c0000181c077f
     526:	0000 
     528:	6a01                	.insn	2, 0x6a01
     52a:	00184c07          	.insn	4, 0x00184c07
     52e:	5400                	.insn	2, 0x5400
     530:	0018                	.insn	2, 0x0018
     532:	0300                	.insn	2, 0x0300
     534:	048a                	.insn	2, 0x048a
     536:	079f 1854 0000      	.insn	6, 0x1854079f
     53c:	185c                	.insn	2, 0x185c
     53e:	0000                	.insn	2, 0x
     540:	6a01                	.insn	2, 0x6a01
     542:	00185c07          	.insn	4, 0x00185c07
     546:	6400                	.insn	2, 0x6400
     548:	0018                	.insn	2, 0x0018
     54a:	0300                	.insn	2, 0x0300
     54c:	048a                	.insn	2, 0x048a
     54e:	079f 1864 0000      	.insn	6, 0x1864079f
     554:	186c                	.insn	2, 0x186c
     556:	0000                	.insn	2, 0x
     558:	7fb89103          	lh	sp,2043(a7)
     55c:	00186c07          	.insn	4, 0x00186c07
     560:	8000                	.insn	2, 0x8000
     562:	0018                	.insn	2, 0x0018
     564:	0300                	.insn	2, 0x0300
     566:	048a                	.insn	2, 0x048a
     568:	079f 188c 0000      	.insn	6, 0x188c079f
     56e:	18d0                	.insn	2, 0x18d0
     570:	0000                	.insn	2, 0x
     572:	6a01                	.insn	2, 0x6a01
     574:	0018d007          	.insn	4, 0x0018d007
     578:	f000                	.insn	2, 0xf000
     57a:	0018                	.insn	2, 0x0018
     57c:	0100                	.insn	2, 0x0100
     57e:	0758                	.insn	2, 0x0758
     580:	190c                	.insn	2, 0x190c
     582:	0000                	.insn	2, 0x
     584:	1930                	.insn	2, 0x1930
     586:	0000                	.insn	2, 0x
     588:	6a01                	.insn	2, 0x6a01
     58a:	00193007          	.insn	4, 0x00193007
     58e:	8c00                	.insn	2, 0x8c00
     590:	0019                	.insn	2, 0x0019
     592:	0300                	.insn	2, 0x0300
     594:	048a                	.insn	2, 0x048a
     596:	079f 198c 0000      	.insn	6, 0x198c079f
     59c:	19d4                	.insn	2, 0x19d4
     59e:	0000                	.insn	2, 0x
     5a0:	6a01                	.insn	2, 0x6a01
     5a2:	0700                	.insn	2, 0x0700
     5a4:	1278                	.insn	2, 0x1278
     5a6:	0000                	.insn	2, 0x
     5a8:	12f8                	.insn	2, 0x12f8
     5aa:	0000                	.insn	2, 0x
     5ac:	5801                	.insn	2, 0x5801
     5ae:	0013c407          	.insn	4, 0x0013c407
     5b2:	0c00                	.insn	2, 0x0c00
     5b4:	0014                	.insn	2, 0x0014
     5b6:	0100                	.insn	2, 0x0100
     5b8:	0758                	.insn	2, 0x0758
     5ba:	1434                	.insn	2, 0x1434
     5bc:	0000                	.insn	2, 0x
     5be:	1440                	.insn	2, 0x1440
     5c0:	0000                	.insn	2, 0x
     5c2:	7806                	.insn	2, 0x7806
     5c4:	0800                	.insn	2, 0x0800
     5c6:	2121                	.insn	2, 0x2121
     5c8:	079f 1440 0000      	.insn	6, 0x1440079f
     5ce:	1474                	.insn	2, 0x1474
     5d0:	0000                	.insn	2, 0x
     5d2:	5801                	.insn	2, 0x5801
     5d4:	0014a007          	.insn	4, 0x0014a007
     5d8:	ac00                	.insn	2, 0xac00
     5da:	0014                	.insn	2, 0x0014
     5dc:	0900                	.insn	2, 0x0900
     5de:	0078                	.insn	2, 0x0078
     5e0:	f309                	.insn	2, 0xf309
     5e2:	081a                	.insn	2, 0x081a
     5e4:	2120                	.insn	2, 0x2120
     5e6:	079f 14b0 0000      	.insn	6, 0x14b0079f
     5ec:	14b4                	.insn	2, 0x14b4
     5ee:	0000                	.insn	2, 0x
     5f0:	5801                	.insn	2, 0x5801
     5f2:	00150407          	.insn	4, 0x00150407
     5f6:	7c00                	.insn	2, 0x7c00
     5f8:	0015                	.insn	2, 0x0015
     5fa:	0100                	.insn	2, 0x0100
     5fc:	0758                	.insn	2, 0x0758
     5fe:	157c                	.insn	2, 0x157c
     600:	0000                	.insn	2, 0x
     602:	1588                	.insn	2, 0x1588
     604:	0000                	.insn	2, 0x
     606:	0a007807          	.insn	4, 0x0a007807
     60a:	0100                	.insn	2, 0x0100
     60c:	9f21                	.insn	2, 0x9f21
     60e:	00158807          	.insn	4, 0x00158807
     612:	d400                	.insn	2, 0xd400
     614:	0015                	.insn	2, 0x0015
     616:	0100                	.insn	2, 0x0100
     618:	0758                	.insn	2, 0x0758
     61a:	15d4                	.insn	2, 0x15d4
     61c:	0000                	.insn	2, 0x
     61e:	15e0                	.insn	2, 0x15e0
     620:	0000                	.insn	2, 0x
     622:	7806                	.insn	2, 0x7806
     624:	0800                	.insn	2, 0x0800
     626:	2180                	.insn	2, 0x2180
     628:	079f 15e0 0000      	.insn	6, 0x15e0079f
     62e:	15e4                	.insn	2, 0x15e4
     630:	0000                	.insn	2, 0x
     632:	5801                	.insn	2, 0x5801
     634:	0016b007          	.insn	4, 0x0016b007
     638:	e800                	.insn	2, 0xe800
     63a:	0016                	.insn	2, 0x0016
     63c:	0100                	.insn	2, 0x0100
     63e:	0758                	.insn	2, 0x0758
     640:	16f4                	.insn	2, 0x16f4
     642:	0000                	.insn	2, 0x
     644:	1718                	.insn	2, 0x1718
     646:	0000                	.insn	2, 0x
     648:	5801                	.insn	2, 0x5801
     64a:	00171807          	.insn	4, 0x00171807
     64e:	2000                	.insn	2, 0x2000
     650:	07000017          	auipc	zero,0x7000
     654:	0078                	.insn	2, 0x0078
     656:	000a                	.insn	2, 0x000a
     658:	2101                	.insn	2, 0x2101
     65a:	079f 1720 0000      	.insn	6, 0x1720079f
     660:	1728                	.insn	2, 0x1728
     662:	0000                	.insn	2, 0x
     664:	5801                	.insn	2, 0x5801
     666:	0017c807          	.insn	4, 0x0017c807
     66a:	d000                	.insn	2, 0xd000
     66c:	06000017          	auipc	zero,0x6000
     670:	0078                	.insn	2, 0x0078
     672:	8008                	.insn	2, 0x8008
     674:	9f21                	.insn	2, 0x9f21
     676:	0017d007          	.insn	4, 0x0017d007
     67a:	d800                	.insn	2, 0xd800
     67c:	01000017          	auipc	zero,0x1000
     680:	0758                	.insn	2, 0x0758
     682:	181c                	.insn	2, 0x181c
     684:	0000                	.insn	2, 0x
     686:	1828                	.insn	2, 0x1828
     688:	0000                	.insn	2, 0x
     68a:	7806                	.insn	2, 0x7806
     68c:	0900                	.insn	2, 0x0900
     68e:	079f1af3          	csrrw	s5,0x79,t5
     692:	1828                	.insn	2, 0x1828
     694:	0000                	.insn	2, 0x
     696:	1830                	.insn	2, 0x1830
     698:	0000                	.insn	2, 0x
     69a:	5801                	.insn	2, 0x5801
     69c:	00183007          	.insn	4, 0x00183007
     6a0:	3400                	.insn	2, 0x3400
     6a2:	0018                	.insn	2, 0x0018
     6a4:	0600                	.insn	2, 0x0600
     6a6:	0078                	.insn	2, 0x0078
     6a8:	f309                	.insn	2, 0xf309
     6aa:	9f1a                	.insn	2, 0x9f1a
     6ac:	00183c07          	.insn	4, 0x00183c07
     6b0:	4000                	.insn	2, 0x4000
     6b2:	0018                	.insn	2, 0x0018
     6b4:	0900                	.insn	2, 0x0900
     6b6:	0078                	.insn	2, 0x0078
     6b8:	f309                	.insn	2, 0xf309
     6ba:	081a                	.insn	2, 0x081a
     6bc:	2120                	.insn	2, 0x2120
     6be:	079f 18a4 0000      	.insn	6, 0x18a4079f
     6c4:	18b4                	.insn	2, 0x18b4
     6c6:	0000                	.insn	2, 0x
     6c8:	5d01                	.insn	2, 0x5d01
     6ca:	00190c07          	.insn	4, 0x00190c07
     6ce:	1c00                	.insn	2, 0x1c00
     6d0:	0019                	.insn	2, 0x0019
     6d2:	0600                	.insn	2, 0x0600
     6d4:	0078                	.insn	2, 0x0078
     6d6:	f309                	.insn	2, 0xf309
     6d8:	9f1a                	.insn	2, 0x9f1a
     6da:	00191c07          	.insn	4, 0x00191c07
     6de:	2000                	.insn	2, 0x2000
     6e0:	0019                	.insn	2, 0x0019
     6e2:	0100                	.insn	2, 0x0100
     6e4:	0758                	.insn	2, 0x0758
     6e6:	1920                	.insn	2, 0x1920
     6e8:	0000                	.insn	2, 0x
     6ea:	1924                	.insn	2, 0x1924
     6ec:	0000                	.insn	2, 0x
     6ee:	7806                	.insn	2, 0x7806
     6f0:	0900                	.insn	2, 0x0900
     6f2:	079f1af3          	csrrw	s5,0x79,t5
     6f6:	1994                	.insn	2, 0x1994
     6f8:	0000                	.insn	2, 0x
     6fa:	19a8                	.insn	2, 0x19a8
     6fc:	0000                	.insn	2, 0x
     6fe:	7d06                	.insn	2, 0x7d06
     700:	0900                	.insn	2, 0x0900
     702:	079f1af3          	csrrw	s5,0x79,t5
     706:	19a8                	.insn	2, 0x19a8
     708:	0000                	.insn	2, 0x
     70a:	19ac                	.insn	2, 0x19ac
     70c:	0000                	.insn	2, 0x
     70e:	5801                	.insn	2, 0x5801
     710:	0019ac07          	.insn	4, 0x0019ac07
     714:	b800                	.insn	2, 0xb800
     716:	0019                	.insn	2, 0x0019
     718:	0600                	.insn	2, 0x0600
     71a:	007d                	.insn	2, 0x007d
     71c:	f309                	.insn	2, 0xf309
     71e:	9f1a                	.insn	2, 0x9f1a
     720:	0019b807          	.insn	4, 0x0019b807
     724:	c400                	.insn	2, 0xc400
     726:	0019                	.insn	2, 0x0019
     728:	0600                	.insn	2, 0x0600
     72a:	0078                	.insn	2, 0x0078
     72c:	f309                	.insn	2, 0xf309
     72e:	9f1a                	.insn	2, 0x9f1a
     730:	0019c407          	.insn	4, 0x0019c407
     734:	d400                	.insn	2, 0xd400
     736:	0019                	.insn	2, 0x0019
     738:	0100                	.insn	2, 0x0100
     73a:	0058                	.insn	2, 0x0058
     73c:	00129c07          	.insn	4, 0x00129c07
     740:	b800                	.insn	2, 0xb800
     742:	0012                	.insn	2, 0x0012
     744:	0200                	.insn	2, 0x0200
     746:	9f30                	.insn	2, 0x9f30
     748:	0012b807          	.insn	4, 0x0012b807
     74c:	6400                	.insn	2, 0x6400
     74e:	01000013          	li	zero,16
     752:	14000767          	jalr	a4,320(zero) # 140 <_start+0x14>
     756:	0000                	.insn	2, 0x
     758:	1434                	.insn	2, 0x1434
     75a:	0000                	.insn	2, 0x
     75c:	6701                	.insn	2, 0x6701
     75e:	00143407          	.insn	4, 0x00143407
     762:	7400                	.insn	2, 0x7400
     764:	0014                	.insn	2, 0x0014
     766:	0200                	.insn	2, 0x0200
     768:	9f38                	.insn	2, 0x9f38
     76a:	00147407          	.insn	4, 0x00147407
     76e:	0400                	.insn	2, 0x0400
     770:	0015                	.insn	2, 0x0015
     772:	0100                	.insn	2, 0x0100
     774:	15040767          	jalr	a4,336(s0)
     778:	0000                	.insn	2, 0x
     77a:	1538                	.insn	2, 0x1538
     77c:	0000                	.insn	2, 0x
     77e:	3002                	.insn	2, 0x3002
     780:	079f 1538 0000      	.insn	6, 0x1538079f
     786:	15a0                	.insn	2, 0x15a0
     788:	0000                	.insn	2, 0x
     78a:	6701                	.insn	2, 0x6701
     78c:	0015a007          	.insn	4, 0x0015a007
     790:	ac00                	.insn	2, 0xac00
     792:	0015                	.insn	2, 0x0015
     794:	0200                	.insn	2, 0x0200
     796:	9f30                	.insn	2, 0x9f30
     798:	0015ac07          	.insn	4, 0x0015ac07
     79c:	bc00                	.insn	2, 0xbc00
     79e:	0015                	.insn	2, 0x0015
     7a0:	0100                	.insn	2, 0x0100
     7a2:	15bc0767          	jalr	a4,347(s8)
     7a6:	0000                	.insn	2, 0x
     7a8:	15cc                	.insn	2, 0x15cc
     7aa:	0000                	.insn	2, 0x
     7ac:	3002                	.insn	2, 0x3002
     7ae:	079f 15cc 0000      	.insn	6, 0x15cc079f
     7b4:	1690                	.insn	2, 0x1690
     7b6:	0000                	.insn	2, 0x
     7b8:	6701                	.insn	2, 0x6701
     7ba:	0016b007          	.insn	4, 0x0016b007
     7be:	d400                	.insn	2, 0xd400
     7c0:	0019                	.insn	2, 0x0019
     7c2:	0100                	.insn	2, 0x0100
     7c4:	b8070067          	jr	-1152(a4)
     7c8:	0012                	.insn	2, 0x0012
     7ca:	c400                	.insn	2, 0xc400
     7cc:	0012                	.insn	2, 0x0012
     7ce:	0200                	.insn	2, 0x0200
     7d0:	9f30                	.insn	2, 0x9f30
     7d2:	0012c407          	.insn	4, 0x0012c407
     7d6:	1800                	.insn	2, 0x1800
     7d8:	01000013          	li	zero,16
     7dc:	0769                	.insn	2, 0x0769
     7de:	1400                	.insn	2, 0x1400
     7e0:	0000                	.insn	2, 0x
     7e2:	1504                	.insn	2, 0x1504
     7e4:	0000                	.insn	2, 0x
     7e6:	6901                	.insn	2, 0x6901
     7e8:	00153807          	.insn	4, 0x00153807
     7ec:	7400                	.insn	2, 0x7400
     7ee:	0015                	.insn	2, 0x0015
     7f0:	0200                	.insn	2, 0x0200
     7f2:	9f30                	.insn	2, 0x9f30
     7f4:	00157407          	.insn	4, 0x00157407
     7f8:	a000                	.insn	2, 0xa000
     7fa:	0015                	.insn	2, 0x0015
     7fc:	0100                	.insn	2, 0x0100
     7fe:	0769                	.insn	2, 0x0769
     800:	15d4                	.insn	2, 0x15d4
     802:	0000                	.insn	2, 0x
     804:	165c                	.insn	2, 0x165c
     806:	0000                	.insn	2, 0x
     808:	6901                	.insn	2, 0x6901
     80a:	00165c07          	.insn	4, 0x00165c07
     80e:	6400                	.insn	2, 0x6400
     810:	0016                	.insn	2, 0x0016
     812:	0100                	.insn	2, 0x0100
     814:	075f 1664 0000      	.insn	6, 0x1664075f
     81a:	1690                	.insn	2, 0x1690
     81c:	0000                	.insn	2, 0x
     81e:	6901                	.insn	2, 0x6901
     820:	0016b007          	.insn	4, 0x0016b007
     824:	e800                	.insn	2, 0xe800
     826:	0016                	.insn	2, 0x0016
     828:	0200                	.insn	2, 0x0200
     82a:	9f30                	.insn	2, 0x9f30
     82c:	0016e807          	.insn	4, 0x0016e807
     830:	f400                	.insn	2, 0xf400
     832:	0016                	.insn	2, 0x0016
     834:	0100                	.insn	2, 0x0100
     836:	0769                	.insn	2, 0x0769
     838:	16f4                	.insn	2, 0x16f4
     83a:	0000                	.insn	2, 0x
     83c:	170c                	.insn	2, 0x170c
     83e:	0000                	.insn	2, 0x
     840:	3002                	.insn	2, 0x3002
     842:	079f 170c 0000      	.insn	6, 0x170c079f
     848:	1728                	.insn	2, 0x1728
     84a:	0000                	.insn	2, 0x
     84c:	6901                	.insn	2, 0x6901
     84e:	00177807          	.insn	4, 0x00177807
     852:	7c00                	.insn	2, 0x7c00
     854:	01000017          	auipc	zero,0x1000
     858:	075f 17bc 0000      	.insn	6, 0x17bc075f
     85e:	1814                	.insn	2, 0x1814
     860:	0000                	.insn	2, 0x
     862:	6901                	.insn	2, 0x6901
     864:	00181c07          	.insn	4, 0x00181c07
     868:	6c00                	.insn	2, 0x6c00
     86a:	0018                	.insn	2, 0x0018
     86c:	0100                	.insn	2, 0x0100
     86e:	0769                	.insn	2, 0x0769
     870:	188c                	.insn	2, 0x188c
     872:	0000                	.insn	2, 0x
     874:	18f0                	.insn	2, 0x18f0
     876:	0000                	.insn	2, 0x
     878:	6901                	.insn	2, 0x6901
     87a:	0018f007          	.insn	4, 0x0018f007
     87e:	ff00                	.insn	2, 0xff00
     880:	0018                	.insn	2, 0x0018
     882:	0100                	.insn	2, 0x0100
     884:	0761                	.insn	2, 0x0761
     886:	000018ff 000019d4 	.insn	12, 0x07006901000019d4000018ff
     88e:	07006901 
     892:	129c                	.insn	2, 0x129c
     894:	0000                	.insn	2, 0x
     896:	1364                	.insn	2, 0x1364
     898:	0000                	.insn	2, 0x
     89a:	3002                	.insn	2, 0x3002
     89c:	079f 13c8 0000      	.insn	6, 0x13c8079f
     8a2:	13d0                	.insn	2, 0x13d0
     8a4:	0000                	.insn	2, 0x
     8a6:	3102                	.insn	2, 0x3102
     8a8:	079f 13d4 0000      	.insn	6, 0x13d4079f
     8ae:	13dc                	.insn	2, 0x13dc
     8b0:	0000                	.insn	2, 0x
     8b2:	3102                	.insn	2, 0x3102
     8b4:	079f 13e0 0000      	.insn	6, 0x13e0079f
     8ba:	13e8                	.insn	2, 0x13e8
     8bc:	0000                	.insn	2, 0x
     8be:	3102                	.insn	2, 0x3102
     8c0:	079f 13ec 0000      	.insn	6, 0x13ec079f
     8c6:	13f4                	.insn	2, 0x13f4
     8c8:	0000                	.insn	2, 0x
     8ca:	3102                	.insn	2, 0x3102
     8cc:	079f 13f8 0000      	.insn	6, 0x13f8079f
     8d2:	1400                	.insn	2, 0x1400
     8d4:	0000                	.insn	2, 0x
     8d6:	3102                	.insn	2, 0x3102
     8d8:	079f 1400 0000      	.insn	6, 0x1400079f
     8de:	1690                	.insn	2, 0x1690
     8e0:	0000                	.insn	2, 0x
     8e2:	3002                	.insn	2, 0x3002
     8e4:	079f 16b0 0000      	.insn	6, 0x16b0079f
     8ea:	19d4                	.insn	2, 0x19d4
     8ec:	0000                	.insn	2, 0x
     8ee:	3002                	.insn	2, 0x3002
     8f0:	009f 1407 0012      	.insn	6, 0x00121407009f
     8f6:	4c00                	.insn	2, 0x4c00
     8f8:	0012                	.insn	2, 0x0012
     8fa:	0200                	.insn	2, 0x0200
     8fc:	9f30                	.insn	2, 0x9f30
     8fe:	00124c07          	.insn	4, 0x00124c07
     902:	1c00                	.insn	2, 0x1c00
     904:	01000013          	li	zero,16
     908:	131c076b          	.insn	4, 0x131c076b
     90c:	0000                	.insn	2, 0x
     90e:	1330                	.insn	2, 0x1330
     910:	0000                	.insn	2, 0x
     912:	6901                	.insn	2, 0x6901
     914:	00133c07          	.insn	4, 0x00133c07
     918:	5800                	.insn	2, 0x5800
     91a:	01000013          	li	zero,16
     91e:	0769                	.insn	2, 0x0769
     920:	1358                	.insn	2, 0x1358
     922:	0000                	.insn	2, 0x
     924:	136c                	.insn	2, 0x136c
     926:	0000                	.insn	2, 0x
     928:	6b01                	.insn	2, 0x6b01
     92a:	0013c407          	.insn	4, 0x0013c407
     92e:	7000                	.insn	2, 0x7000
     930:	0014                	.insn	2, 0x0014
     932:	0100                	.insn	2, 0x0100
     934:	1470076b          	.insn	4, 0x1470076b
     938:	0000                	.insn	2, 0x
     93a:	1474                	.insn	2, 0x1474
     93c:	0000                	.insn	2, 0x
     93e:	5a01                	.insn	2, 0x5a01
     940:	00147407          	.insn	4, 0x00147407
     944:	fc00                	.insn	2, 0xfc00
     946:	0014                	.insn	2, 0x0014
     948:	0100                	.insn	2, 0x0100
     94a:	14fc076b          	.insn	4, 0x14fc076b
     94e:	0000                	.insn	2, 0x
     950:	1504                	.insn	2, 0x1504
     952:	0000                	.insn	2, 0x
     954:	5a01                	.insn	2, 0x5a01
     956:	00150407          	.insn	4, 0x00150407
     95a:	5400                	.insn	2, 0x5400
     95c:	0016                	.insn	2, 0x0016
     95e:	0100                	.insn	2, 0x0100
     960:	1654076b          	.insn	4, 0x1654076b
     964:	0000                	.insn	2, 0x
     966:	1670                	.insn	2, 0x1670
     968:	0000                	.insn	2, 0x
     96a:	5c01                	.insn	2, 0x5c01
     96c:	00167007          	.insn	4, 0x00167007
     970:	9000                	.insn	2, 0x9000
     972:	0016                	.insn	2, 0x0016
     974:	0100                	.insn	2, 0x0100
     976:	0758                	.insn	2, 0x0758
     978:	1690                	.insn	2, 0x1690
     97a:	0000                	.insn	2, 0x
     97c:	16b0                	.insn	2, 0x16b0
     97e:	0000                	.insn	2, 0x
     980:	3002                	.insn	2, 0x3002
     982:	079f 16b0 0000      	.insn	6, 0x16b0079f
     988:	173c                	.insn	2, 0x173c
     98a:	0000                	.insn	2, 0x
     98c:	6b01                	.insn	2, 0x6b01
     98e:	00173c07          	.insn	4, 0x00173c07
     992:	5800                	.insn	2, 0x5800
     994:	01000017          	auipc	zero,0x1000
     998:	0769                	.insn	2, 0x0769
     99a:	1758                	.insn	2, 0x1758
     99c:	0000                	.insn	2, 0x
     99e:	176c                	.insn	2, 0x176c
     9a0:	0000                	.insn	2, 0x
     9a2:	5801                	.insn	2, 0x5801
     9a4:	00176c07          	.insn	4, 0x00176c07
     9a8:	7800                	.insn	2, 0x7800
     9aa:	01000017          	auipc	zero,0x1000
     9ae:	1778076b          	.insn	4, 0x1778076b
     9b2:	0000                	.insn	2, 0x
     9b4:	177c                	.insn	2, 0x177c
     9b6:	0000                	.insn	2, 0x
     9b8:	5c01                	.insn	2, 0x5c01
     9ba:	00177c07          	.insn	4, 0x00177c07
     9be:	8800                	.insn	2, 0x8800
     9c0:	01000017          	auipc	zero,0x1000
     9c4:	0758                	.insn	2, 0x0758
     9c6:	1788                	.insn	2, 0x1788
     9c8:	0000                	.insn	2, 0x
     9ca:	17b0                	.insn	2, 0x17b0
     9cc:	0000                	.insn	2, 0x
     9ce:	6b01                	.insn	2, 0x6b01
     9d0:	0017b007          	.insn	4, 0x0017b007
     9d4:	bc00                	.insn	2, 0xbc00
     9d6:	01000017          	auipc	zero,0x1000
     9da:	0758                	.insn	2, 0x0758
     9dc:	17bc                	.insn	2, 0x17bc
     9de:	0000                	.insn	2, 0x
     9e0:	186c                	.insn	2, 0x186c
     9e2:	0000                	.insn	2, 0x
     9e4:	6b01                	.insn	2, 0x6b01
     9e6:	00186c07          	.insn	4, 0x00186c07
     9ea:	8000                	.insn	2, 0x8000
     9ec:	0018                	.insn	2, 0x0018
     9ee:	0300                	.insn	2, 0x0300
     9f0:	079f018b          	.insn	4, 0x079f018b
     9f4:	1884                	.insn	2, 0x1884
     9f6:	0000                	.insn	2, 0x
     9f8:	18f0                	.insn	2, 0x18f0
     9fa:	0000                	.insn	2, 0x
     9fc:	6b01                	.insn	2, 0x6b01
     9fe:	0018f007          	.insn	4, 0x0018f007
     a02:	ff00                	.insn	2, 0xff00
     a04:	0018                	.insn	2, 0x0018
     a06:	0100                	.insn	2, 0x0100
     a08:	075c                	.insn	2, 0x075c
     a0a:	000018ff 00001904 	.insn	12, 0x04076b0100001904000018ff
     a12:	04076b01 
     a16:	0019                	.insn	2, 0x0019
     a18:	0c00                	.insn	2, 0x0c00
     a1a:	0019                	.insn	2, 0x0019
     a1c:	0100                	.insn	2, 0x0100
     a1e:	075a                	.insn	2, 0x075a
     a20:	190c                	.insn	2, 0x190c
     a22:	0000                	.insn	2, 0x
     a24:	19d4                	.insn	2, 0x19d4
     a26:	0000                	.insn	2, 0x
     a28:	6b01                	.insn	2, 0x6b01
     a2a:	0700                	.insn	2, 0x0700
     a2c:	189c                	.insn	2, 0x189c
     a2e:	0000                	.insn	2, 0x
     a30:	18a8                	.insn	2, 0x18a8
     a32:	0000                	.insn	2, 0x
     a34:	3a02                	.insn	2, 0x3a02
     a36:	009f d807 0018      	.insn	6, 0x0018d807009f
     a3c:	f000                	.insn	2, 0xf000
     a3e:	0018                	.insn	2, 0x0018
     a40:	0100                	.insn	2, 0x0100
     a42:	005f d407 0014      	.insn	6, 0x0014d407005f
     a48:	f700                	.insn	2, 0xf700
     a4a:	0014                	.insn	2, 0x0014
     a4c:	0100                	.insn	2, 0x0100
     a4e:	005e                	.insn	2, 0x005e
     a50:	00130c07          	.insn	4, 0x00130c07
     a54:	3000                	.insn	2, 0x3000
     a56:	02000013          	li	zero,32
     a5a:	9f31                	.insn	2, 0x9f31
     a5c:	00133007          	.insn	4, 0x00133007
     a60:	3c00                	.insn	2, 0x3c00
     a62:	02000013          	li	zero,32
     a66:	9f32                	.insn	2, 0x9f32
     a68:	00133c07          	.insn	4, 0x00133c07
     a6c:	4800                	.insn	2, 0x4800
     a6e:	08000013          	li	zero,128
     a72:	0089                	.insn	2, 0x0089
     a74:	231c008b          	.insn	4, 0x231c008b
     a78:	9f01                	.insn	2, 0x9f01
     a7a:	00134807          	.insn	4, 0x00134807
     a7e:	5300                	.insn	2, 0x5300
     a80:	08000013          	li	zero,128
     a84:	007c                	.insn	2, 0x007c
     a86:	231c008b          	.insn	4, 0x231c008b
     a8a:	9f01                	.insn	2, 0x9f01
     a8c:	00135307          	.insn	4, 0x00135307
     a90:	5400                	.insn	2, 0x5400
     a92:	06000013          	li	zero,96
     a96:	0089                	.insn	2, 0x0089
     a98:	9f1c008b          	.insn	4, 0x9f1c008b
     a9c:	00135407          	.insn	4, 0x00135407
     aa0:	5c00                	.insn	2, 0x5c00
     aa2:	08000013          	li	zero,128
     aa6:	0089                	.insn	2, 0x0089
     aa8:	231c008b          	.insn	4, 0x231c008b
     aac:	9f01                	.insn	2, 0x9f01
     aae:	00172807          	.insn	4, 0x00172807
     ab2:	3c00                	.insn	2, 0x3c00
     ab4:	02000017          	auipc	zero,0x2000
     ab8:	9f32                	.insn	2, 0x9f32
     aba:	00173c07          	.insn	4, 0x00173c07
     abe:	4800                	.insn	2, 0x4800
     ac0:	08000017          	auipc	zero,0x8000
     ac4:	0089                	.insn	2, 0x0089
     ac6:	231c008b          	.insn	4, 0x231c008b
     aca:	9f02                	.insn	2, 0x9f02
     acc:	00174807          	.insn	4, 0x00174807
     ad0:	5300                	.insn	2, 0x5300
     ad2:	08000017          	auipc	zero,0x8000
     ad6:	007c                	.insn	2, 0x007c
     ad8:	231c008b          	.insn	4, 0x231c008b
     adc:	9f02                	.insn	2, 0x9f02
     ade:	00175307          	.insn	4, 0x00175307
     ae2:	5400                	.insn	2, 0x5400
     ae4:	08000017          	auipc	zero,0x8000
     ae8:	0089                	.insn	2, 0x0089
     aea:	231c008b          	.insn	4, 0x231c008b
     aee:	9f01                	.insn	2, 0x9f01
     af0:	00175407          	.insn	4, 0x00175407
     af4:	6c00                	.insn	2, 0x6c00
     af6:	08000017          	auipc	zero,0x8000
     afa:	0089                	.insn	2, 0x0089
     afc:	231c008b          	.insn	4, 0x231c008b
     b00:	9f02                	.insn	2, 0x9f02
     b02:	00186c07          	.insn	4, 0x00186c07
     b06:	8c00                	.insn	2, 0x8c00
     b08:	0018                	.insn	2, 0x0018
     b0a:	0200                	.insn	2, 0x0200
     b0c:	9f32                	.insn	2, 0x9f32
     b0e:	0700                	.insn	2, 0x0700
     b10:	164c                	.insn	2, 0x164c
     b12:	0000                	.insn	2, 0x
     b14:	1654                	.insn	2, 0x1654
     b16:	0000                	.insn	2, 0x
     b18:	7fb09103          	lh	sp,2043(ra)
     b1c:	00165407          	.insn	4, 0x00165407
     b20:	6400                	.insn	2, 0x6400
     b22:	0016                	.insn	2, 0x0016
     b24:	0b00                	.insn	2, 0x0b00
     b26:	b091                	.insn	2, 0xb091
     b28:	067f 007c 8b22 1c00 	.insn	10, 0x079f1c008b22007c067f
     b30:	079f 
     b32:	1664                	.insn	2, 0x1664
     b34:	0000                	.insn	2, 0x
     b36:	00001673          	csrrw	a2,ustatus,zero
     b3a:	910d                	.insn	2, 0x910d
     b3c:	7fb0                	.insn	2, 0x7fb0
     b3e:	7c06                	.insn	2, 0x7c06
     b40:	2200                	.insn	2, 0x2200
     b42:	231c008b          	.insn	4, 0x231c008b
     b46:	9f01                	.insn	2, 0x9f01
     b48:	00167307          	.insn	4, 0x00167307
     b4c:	9000                	.insn	2, 0x9000
     b4e:	0016                	.insn	2, 0x0016
     b50:	0b00                	.insn	2, 0x0b00
     b52:	b091                	.insn	2, 0xb091
     b54:	067f 008b 781c 2200 	.insn	10, 0x079f2200781c008b067f
     b5c:	079f 
     b5e:	1778                	.insn	2, 0x1778
     b60:	0000                	.insn	2, 0x
     b62:	177c                	.insn	2, 0x177c
     b64:	0000                	.insn	2, 0x
     b66:	7fb0910b          	.insn	4, 0x7fb0910b
     b6a:	7c06                	.insn	2, 0x7c06
     b6c:	2200                	.insn	2, 0x2200
     b6e:	9f1c008b          	.insn	4, 0x9f1c008b
     b72:	00180c07          	.insn	4, 0x00180c07
     b76:	1400                	.insn	2, 0x1400
     b78:	0018                	.insn	2, 0x0018
     b7a:	0300                	.insn	2, 0x0300
     b7c:	b091                	.insn	2, 0xb091
     b7e:	007f 0007 0018 0800 	.insn	10, 0x0018080000180007007f
     b86:	0018 
     b88:	0300                	.insn	2, 0x0300
     b8a:	079f0287          	.insn	4, 0x079f0287
     b8e:	1808                	.insn	2, 0x1808
     b90:	0000                	.insn	2, 0x
     b92:	180c                	.insn	2, 0x180c
     b94:	0000                	.insn	2, 0x
     b96:	9f017903          	.insn	4, 0x9f017903
     b9a:	00180c07          	.insn	4, 0x00180c07
     b9e:	1400                	.insn	2, 0x1400
     ba0:	0018                	.insn	2, 0x0018
     ba2:	0100                	.insn	2, 0x0100
     ba4:	0759                	.insn	2, 0x0759
     ba6:	1864                	.insn	2, 0x1864
     ba8:	0000                	.insn	2, 0x
     baa:	1868                	.insn	2, 0x1868
     bac:	0000                	.insn	2, 0x
     bae:	9f027903          	.insn	4, 0x9f027903
     bb2:	00186807          	.insn	4, 0x00186807
     bb6:	6c00                	.insn	2, 0x6c00
     bb8:	0018                	.insn	2, 0x0018
     bba:	0300                	.insn	2, 0x0300
     bbc:	0179                	.insn	2, 0x0179
     bbe:	009f 0007 0016      	.insn	6, 0x00160007009f
     bc4:	0800                	.insn	2, 0x0800
     bc6:	0016                	.insn	2, 0x0016
     bc8:	0300                	.insn	2, 0x0300
     bca:	ff09                	.insn	2, 0xff09
     bcc:	079f 16e8 0000      	.insn	6, 0x16e8079f
     bd2:	16f0                	.insn	2, 0x16f0
     bd4:	0000                	.insn	2, 0x
     bd6:	6901                	.insn	2, 0x6901
     bd8:	0016f007          	.insn	4, 0x0016f007
     bdc:	f400                	.insn	2, 0xf400
     bde:	0016                	.insn	2, 0x0016
     be0:	0100                	.insn	2, 0x0100
     be2:	005e                	.insn	2, 0x005e
     be4:	00160007          	.insn	4, 0x00160007
     be8:	0800                	.insn	2, 0x0800
     bea:	0016                	.insn	2, 0x0016
     bec:	0100                	.insn	2, 0x0100
     bee:	075f 1608 0000      	.insn	6, 0x1608075f
     bf4:	1618                	.insn	2, 0x1618
     bf6:	0000                	.insn	2, 0x
     bf8:	7fb09103          	lh	sp,2043(ra)
     bfc:	00161807          	.insn	4, 0x00161807
     c00:	3000                	.insn	2, 0x3000
     c02:	0016                	.insn	2, 0x0016
     c04:	0100                	.insn	2, 0x0100
     c06:	0759                	.insn	2, 0x0759
     c08:	16e8                	.insn	2, 0x16e8
     c0a:	0000                	.insn	2, 0x
     c0c:	16f4                	.insn	2, 0x16f4
     c0e:	0000                	.insn	2, 0x
     c10:	7fb09103          	lh	sp,2043(ra)
     c14:	0017bc07          	.insn	4, 0x0017bc07
     c18:	c400                	.insn	2, 0xc400
     c1a:	01000017          	auipc	zero,0x1000
     c1e:	0059                	.insn	2, 0x0059
     c20:	00150807          	.insn	4, 0x00150807
     c24:	2000                	.insn	2, 0x2000
     c26:	0015                	.insn	2, 0x0015
     c28:	0100                	.insn	2, 0x0100
     c2a:	15300767          	jalr	a4,339(zero) # 153 <_start+0x27>
     c2e:	0000                	.insn	2, 0x
     c30:	1538                	.insn	2, 0x1538
     c32:	0000                	.insn	2, 0x
     c34:	6701                	.insn	2, 0x6701
     c36:	0700                	.insn	2, 0x0700
     c38:	16b4                	.insn	2, 0x16b4
     c3a:	0000                	.insn	2, 0x
     c3c:	16e8                	.insn	2, 0x16e8
     c3e:	0000                	.insn	2, 0x
     c40:	6901                	.insn	2, 0x6901
     c42:	0700                	.insn	2, 0x0700
     c44:	0c8c                	.insn	2, 0x0c8c
     c46:	0000                	.insn	2, 0x
     c48:	0d08                	.insn	2, 0x0d08
     c4a:	0000                	.insn	2, 0x
     c4c:	5a01                	.insn	2, 0x5a01
     c4e:	000d0807          	.insn	4, 0x000d0807
     c52:	2000                	.insn	2, 0x2000
     c54:	0100000f          	fence	w,unknown
     c58:	0759                	.insn	2, 0x0759
     c5a:	0f20                	.insn	2, 0x0f20
     c5c:	0000                	.insn	2, 0x
     c5e:	0f4c                	.insn	2, 0x0f4c
     c60:	0000                	.insn	2, 0x
     c62:	a304                	.insn	2, 0xa304
     c64:	5a01                	.insn	2, 0x5a01
     c66:	079f 0f4c 0000      	.insn	6, 0x0f4c079f
     c6c:	11b4                	.insn	2, 0x11b4
     c6e:	0000                	.insn	2, 0x
     c70:	5901                	.insn	2, 0x5901
     c72:	0700                	.insn	2, 0x0700
     c74:	0c8c                	.insn	2, 0x0c8c
     c76:	0000                	.insn	2, 0x
     c78:	0cf8                	.insn	2, 0x0cf8
     c7a:	0000                	.insn	2, 0x
     c7c:	5b01                	.insn	2, 0x5b01
     c7e:	000cf807          	.insn	4, 0x000cf807
     c82:	b400                	.insn	2, 0xb400
     c84:	000d                	.insn	2, 0x000d
     c86:	0100                	.insn	2, 0x0100
     c88:	0762                	.insn	2, 0x0762
     c8a:	0db4                	.insn	2, 0x0db4
     c8c:	0000                	.insn	2, 0x
     c8e:	0dc8                	.insn	2, 0x0dc8
     c90:	0000                	.insn	2, 0x
     c92:	5b01                	.insn	2, 0x5b01
     c94:	000dc807          	.insn	4, 0x000dc807
     c98:	2400                	.insn	2, 0x2400
     c9a:	0100000f          	fence	w,unknown
     c9e:	0762                	.insn	2, 0x0762
     ca0:	0f24                	.insn	2, 0x0f24
     ca2:	0000                	.insn	2, 0x
     ca4:	0f4c                	.insn	2, 0x0f4c
     ca6:	0000                	.insn	2, 0x
     ca8:	a304                	.insn	2, 0xa304
     caa:	5b01                	.insn	2, 0x5b01
     cac:	079f 0f4c 0000      	.insn	6, 0x0f4c079f
     cb2:	11b4                	.insn	2, 0x11b4
     cb4:	0000                	.insn	2, 0x
     cb6:	6201                	.insn	2, 0x6201
     cb8:	0700                	.insn	2, 0x0700
     cba:	0c8c                	.insn	2, 0x0c8c
     cbc:	0000                	.insn	2, 0x
     cbe:	0d14                	.insn	2, 0x0d14
     cc0:	0000                	.insn	2, 0x
     cc2:	5c01                	.insn	2, 0x5c01
     cc4:	000d1407          	.insn	4, 0x000d1407
     cc8:	b400                	.insn	2, 0xb400
     cca:	000d                	.insn	2, 0x000d
     ccc:	0100                	.insn	2, 0x0100
     cce:	0764                	.insn	2, 0x0764
     cd0:	0db4                	.insn	2, 0x0db4
     cd2:	0000                	.insn	2, 0x
     cd4:	0dc8                	.insn	2, 0x0dc8
     cd6:	0000                	.insn	2, 0x
     cd8:	5c01                	.insn	2, 0x5c01
     cda:	000dc807          	.insn	4, 0x000dc807
     cde:	4000                	.insn	2, 0x4000
     ce0:	000e                	.insn	2, 0x000e
     ce2:	0100                	.insn	2, 0x0100
     ce4:	0764                	.insn	2, 0x0764
     ce6:	0e40                	.insn	2, 0x0e40
     ce8:	0000                	.insn	2, 0x
     cea:	0e48                	.insn	2, 0x0e48
     cec:	0000                	.insn	2, 0x
     cee:	5c01                	.insn	2, 0x5c01
     cf0:	000e4807          	.insn	4, 0x000e4807
     cf4:	f000                	.insn	2, 0xf000
     cf6:	000e                	.insn	2, 0x000e
     cf8:	0100                	.insn	2, 0x0100
     cfa:	0764                	.insn	2, 0x0764
     cfc:	0ef0                	.insn	2, 0x0ef0
     cfe:	0000                	.insn	2, 0x
     d00:	0f4c                	.insn	2, 0x0f4c
     d02:	0000                	.insn	2, 0x
     d04:	a304                	.insn	2, 0xa304
     d06:	5c01                	.insn	2, 0x5c01
     d08:	079f 0f4c 0000      	.insn	6, 0x0f4c079f
     d0e:	11b4                	.insn	2, 0x11b4
     d10:	0000                	.insn	2, 0x
     d12:	6401                	.insn	2, 0x6401
     d14:	0700                	.insn	2, 0x0700
     d16:	0c8c                	.insn	2, 0x0c8c
     d18:	0000                	.insn	2, 0x
     d1a:	0ce4                	.insn	2, 0x0ce4
     d1c:	0000                	.insn	2, 0x
     d1e:	5d01                	.insn	2, 0x5d01
     d20:	000ce407          	.insn	4, 0x000ce407
     d24:	2800                	.insn	2, 0x2800
     d26:	0100000f          	fence	w,unknown
     d2a:	0f280763          	beq	a6,s2,e18 <_ntoa_long+0x18c>
     d2e:	0000                	.insn	2, 0x
     d30:	0f4c                	.insn	2, 0x0f4c
     d32:	0000                	.insn	2, 0x
     d34:	a304                	.insn	2, 0xa304
     d36:	5d01                	.insn	2, 0x5d01
     d38:	079f 0f4c 0000      	.insn	6, 0x0f4c079f
     d3e:	11b4                	.insn	2, 0x11b4
     d40:	0000                	.insn	2, 0x
     d42:	6301                	.insn	2, 0x6301
     d44:	0700                	.insn	2, 0x0700
     d46:	0c8c                	.insn	2, 0x0c8c
     d48:	0000                	.insn	2, 0x
     d4a:	0d14                	.insn	2, 0x0d14
     d4c:	0000                	.insn	2, 0x
     d4e:	5e01                	.insn	2, 0x5e01
     d50:	000d1407          	.insn	4, 0x000d1407
     d54:	1c00                	.insn	2, 0x1c00
     d56:	000d                	.insn	2, 0x000d
     d58:	0100                	.insn	2, 0x0100
     d5a:	075d                	.insn	2, 0x075d
     d5c:	0d1c                	.insn	2, 0x0d1c
     d5e:	0000                	.insn	2, 0x
     d60:	0d48                	.insn	2, 0x0d48
     d62:	0000                	.insn	2, 0x
     d64:	5e01                	.insn	2, 0x5e01
     d66:	000d4807          	.insn	4, 0x000d4807
     d6a:	5400                	.insn	2, 0x5400
     d6c:	000d                	.insn	2, 0x000d
     d6e:	0100                	.insn	2, 0x0100
     d70:	075d                	.insn	2, 0x075d
     d72:	0db4                	.insn	2, 0x0db4
     d74:	0000                	.insn	2, 0x
     d76:	0dc8                	.insn	2, 0x0dc8
     d78:	0000                	.insn	2, 0x
     d7a:	5e01                	.insn	2, 0x5e01
     d7c:	000e4007          	.insn	4, 0x000e4007
     d80:	4800                	.insn	2, 0x4800
     d82:	000e                	.insn	2, 0x000e
     d84:	0100                	.insn	2, 0x0100
     d86:	005e                	.insn	2, 0x005e
     d88:	000c8c07          	.insn	4, 0x000c8c07
     d8c:	8c00                	.insn	2, 0x8c00
     d8e:	000d                	.insn	2, 0x000d
     d90:	0100                	.insn	2, 0x0100
     d92:	075f 0d8c 0000      	.insn	6, 0x0d8c075f
     d98:	0db4                	.insn	2, 0x0db4
     d9a:	0000                	.insn	2, 0x
     d9c:	a304                	.insn	2, 0xa304
     d9e:	5f01                	.insn	2, 0x5f01
     da0:	079f 0db4 0000      	.insn	6, 0x0db4079f
     da6:	0ea0                	.insn	2, 0x0ea0
     da8:	0000                	.insn	2, 0x
     daa:	5f01                	.insn	2, 0x5f01
     dac:	000ea007          	.insn	4, 0x000ea007
     db0:	4c00                	.insn	2, 0x4c00
     db2:	0400000f          	fence	o,unknown
     db6:	9f5f01a3          	sb	s5,-1565(t5)
     dba:	000f4c07          	.insn	4, 0x000f4c07
     dbe:	a000                	.insn	2, 0xa000
     dc0:	0100000f          	fence	w,unknown
     dc4:	075f 0fa0 0000      	.insn	6, 0x0fa0075f
     dca:	0fd0                	.insn	2, 0x0fd0
     dcc:	0000                	.insn	2, 0x
     dce:	a304                	.insn	2, 0xa304
     dd0:	5f01                	.insn	2, 0x5f01
     dd2:	079f 0fd0 0000      	.insn	6, 0x0fd0079f
     dd8:	0fd4                	.insn	2, 0x0fd4
     dda:	0000                	.insn	2, 0x
     ddc:	5f01                	.insn	2, 0x5f01
     dde:	000fd407          	.insn	4, 0x000fd407
     de2:	e800                	.insn	2, 0xe800
     de4:	0400000f          	fence	o,unknown
     de8:	9f5f01a3          	sb	s5,-1565(t5)
     dec:	000fe807          	.insn	4, 0x000fe807
     df0:	a400                	.insn	2, 0xa400
     df2:	0010                	.insn	2, 0x0010
     df4:	0100                	.insn	2, 0x0100
     df6:	075f 10a4 0000      	.insn	6, 0x10a4075f
     dfc:	10c4                	.insn	2, 0x10c4
     dfe:	0000                	.insn	2, 0x
     e00:	a304                	.insn	2, 0xa304
     e02:	5f01                	.insn	2, 0x5f01
     e04:	079f 10c4 0000      	.insn	6, 0x10c4079f
     e0a:	10fc                	.insn	2, 0x10fc
     e0c:	0000                	.insn	2, 0x
     e0e:	5f01                	.insn	2, 0x5f01
     e10:	0010fc07          	.insn	4, 0x0010fc07
     e14:	1400                	.insn	2, 0x1400
     e16:	0011                	.insn	2, 0x0011
     e18:	0400                	.insn	2, 0x0400
     e1a:	9f5f01a3          	sb	s5,-1565(t5)
     e1e:	00111407          	.insn	4, 0x00111407
     e22:	b400                	.insn	2, 0xb400
     e24:	0011                	.insn	2, 0x0011
     e26:	0100                	.insn	2, 0x0100
     e28:	005f 8c07 000c      	.insn	6, 0x000c8c07005f
     e2e:	a800                	.insn	2, 0xa800
     e30:	000e                	.insn	2, 0x000e
     e32:	0100                	.insn	2, 0x0100
     e34:	0760                	.insn	2, 0x0760
     e36:	0ea8                	.insn	2, 0x0ea8
     e38:	0000                	.insn	2, 0x
     e3a:	0f4c                	.insn	2, 0x0f4c
     e3c:	0000                	.insn	2, 0x
     e3e:	a304                	.insn	2, 0xa304
     e40:	6001                	.insn	2, 0x6001
     e42:	079f 0f4c 0000      	.insn	6, 0x0f4c079f
     e48:	0fa0                	.insn	2, 0x0fa0
     e4a:	0000                	.insn	2, 0x
     e4c:	6001                	.insn	2, 0x6001
     e4e:	000fa007          	.insn	4, 0x000fa007
     e52:	d000                	.insn	2, 0xd000
     e54:	0400000f          	fence	o,unknown
     e58:	9f6001a3          	sb	s6,-1565(zero) # fffff9e3 <_peripheral_PLIC_end+0xf7fff9e3>
     e5c:	000fd007          	.insn	4, 0x000fd007
     e60:	b400                	.insn	2, 0xb400
     e62:	0011                	.insn	2, 0x0011
     e64:	0100                	.insn	2, 0x0100
     e66:	0060                	.insn	2, 0x0060
     e68:	000c8c07          	.insn	4, 0x000c8c07
     e6c:	a800                	.insn	2, 0xa800
     e6e:	000e                	.insn	2, 0x000e
     e70:	0100                	.insn	2, 0x0100
     e72:	0761                	.insn	2, 0x0761
     e74:	0ea8                	.insn	2, 0x0ea8
     e76:	0000                	.insn	2, 0x
     e78:	0f4c                	.insn	2, 0x0f4c
     e7a:	0000                	.insn	2, 0x
     e7c:	a304                	.insn	2, 0xa304
     e7e:	6101                	.insn	2, 0x6101
     e80:	079f 0f4c 0000      	.insn	6, 0x0f4c079f
     e86:	0fa0                	.insn	2, 0x0fa0
     e88:	0000                	.insn	2, 0x
     e8a:	6101                	.insn	2, 0x6101
     e8c:	000fa007          	.insn	4, 0x000fa007
     e90:	d000                	.insn	2, 0xd000
     e92:	0400000f          	fence	o,unknown
     e96:	9f6101a3          	sb	s6,-1565(sp)
     e9a:	000fd007          	.insn	4, 0x000fd007
     e9e:	b400                	.insn	2, 0xb400
     ea0:	0011                	.insn	2, 0x0011
     ea2:	0100                	.insn	2, 0x0100
     ea4:	0061                	.insn	2, 0x0061
     ea6:	000c8c07          	.insn	4, 0x000c8c07
     eaa:	8000                	.insn	2, 0x8000
     eac:	000d                	.insn	2, 0x000d
     eae:	0200                	.insn	2, 0x0200
     eb0:	0091                	.insn	2, 0x0091
     eb2:	000db407          	.insn	4, 0x000db407
     eb6:	dc00                	.insn	2, 0xdc00
     eb8:	000d                	.insn	2, 0x000d
     eba:	0100                	.insn	2, 0x0100
     ebc:	0765                	.insn	2, 0x0765
     ebe:	0ddc                	.insn	2, 0x0ddc
     ec0:	0000                	.insn	2, 0x
     ec2:	0e40                	.insn	2, 0x0e40
     ec4:	0000                	.insn	2, 0x
     ec6:	9102                	.insn	2, 0x9102
     ec8:	0700                	.insn	2, 0x0700
     eca:	0e40                	.insn	2, 0x0e40
     ecc:	0000                	.insn	2, 0x
     ece:	0e48                	.insn	2, 0x0e48
     ed0:	0000                	.insn	2, 0x
     ed2:	6501                	.insn	2, 0x6501
     ed4:	000e4807          	.insn	4, 0x000e4807
     ed8:	7c00                	.insn	2, 0x7c00
     eda:	000e                	.insn	2, 0x000e
     edc:	0200                	.insn	2, 0x0200
     ede:	0091                	.insn	2, 0x0091
     ee0:	000f4c07          	.insn	4, 0x000f4c07
     ee4:	6000                	.insn	2, 0x6000
     ee6:	0100000f          	fence	w,unknown
     eea:	0765                	.insn	2, 0x0765
     eec:	0f60                	.insn	2, 0x0f60
     eee:	0000                	.insn	2, 0x
     ef0:	0f90                	.insn	2, 0x0f90
     ef2:	0000                	.insn	2, 0x
     ef4:	9102                	.insn	2, 0x9102
     ef6:	0700                	.insn	2, 0x0700
     ef8:	0fe8                	.insn	2, 0x0fe8
     efa:	0000                	.insn	2, 0x
     efc:	1000                	.insn	2, 0x1000
     efe:	0000                	.insn	2, 0x
     f00:	6501                	.insn	2, 0x6501
     f02:	00100007          	.insn	4, 0x00100007
     f06:	6000                	.insn	2, 0x6000
     f08:	0010                	.insn	2, 0x0010
     f0a:	0200                	.insn	2, 0x0200
     f0c:	0091                	.insn	2, 0x0091
     f0e:	00106007          	.insn	4, 0x00106007
     f12:	6400                	.insn	2, 0x6400
     f14:	0010                	.insn	2, 0x0010
     f16:	0100                	.insn	2, 0x0100
     f18:	0765                	.insn	2, 0x0765
     f1a:	1064                	.insn	2, 0x1064
     f1c:	0000                	.insn	2, 0x
     f1e:	109c                	.insn	2, 0x109c
     f20:	0000                	.insn	2, 0x
     f22:	9102                	.insn	2, 0x9102
     f24:	0700                	.insn	2, 0x0700
     f26:	10c4                	.insn	2, 0x10c4
     f28:	0000                	.insn	2, 0x
     f2a:	10d0                	.insn	2, 0x10d0
     f2c:	0000                	.insn	2, 0x
     f2e:	9102                	.insn	2, 0x9102
     f30:	0700                	.insn	2, 0x0700
     f32:	10dc                	.insn	2, 0x10dc
     f34:	0000                	.insn	2, 0x
     f36:	10f4                	.insn	2, 0x10f4
     f38:	0000                	.insn	2, 0x
     f3a:	9102                	.insn	2, 0x9102
     f3c:	0700                	.insn	2, 0x0700
     f3e:	1114                	.insn	2, 0x1114
     f40:	0000                	.insn	2, 0x
     f42:	1140                	.insn	2, 0x1140
     f44:	0000                	.insn	2, 0x
     f46:	9102                	.insn	2, 0x9102
     f48:	0700                	.insn	2, 0x0700
     f4a:	1150                	.insn	2, 0x1150
     f4c:	0000                	.insn	2, 0x
     f4e:	1174                	.insn	2, 0x1174
     f50:	0000                	.insn	2, 0x
     f52:	9102                	.insn	2, 0x9102
     f54:	0700                	.insn	2, 0x0700
     f56:	1174                	.insn	2, 0x1174
     f58:	0000                	.insn	2, 0x
     f5a:	117c                	.insn	2, 0x117c
     f5c:	0000                	.insn	2, 0x
     f5e:	6501                	.insn	2, 0x6501
     f60:	00117c07          	.insn	4, 0x00117c07
     f64:	9400                	.insn	2, 0x9400
     f66:	0011                	.insn	2, 0x0011
     f68:	0200                	.insn	2, 0x0200
     f6a:	0091                	.insn	2, 0x0091
     f6c:	00119c07          	.insn	4, 0x00119c07
     f70:	b400                	.insn	2, 0xb400
     f72:	0011                	.insn	2, 0x0011
     f74:	0200                	.insn	2, 0x0200
     f76:	0091                	.insn	2, 0x0091
     f78:	0700                	.insn	2, 0x0700
     f7a:	0c8c                	.insn	2, 0x0c8c
     f7c:	0000                	.insn	2, 0x
     f7e:	0ce4                	.insn	2, 0x0ce4
     f80:	0000                	.insn	2, 0x
     f82:	9102                	.insn	2, 0x9102
     f84:	0704                	.insn	2, 0x0704
     f86:	0ce4                	.insn	2, 0x0ce4
     f88:	0000                	.insn	2, 0x
     f8a:	0cec                	.insn	2, 0x0cec
     f8c:	0000                	.insn	2, 0x
     f8e:	06049107          	.insn	4, 0x06049107
     f92:	ef09                	.insn	2, 0xef09
     f94:	9f1a                	.insn	2, 0x9f1a
     f96:	000cec07          	.insn	4, 0x000cec07
     f9a:	f000                	.insn	2, 0xf000
     f9c:	000c                	.insn	2, 0x000c
     f9e:	0600                	.insn	2, 0x0600
     fa0:	007d                	.insn	2, 0x007d
     fa2:	ef09                	.insn	2, 0xef09
     fa4:	9f1a                	.insn	2, 0x9f1a
     fa6:	000db407          	.insn	4, 0x000db407
     faa:	c000                	.insn	2, 0xc000
     fac:	000d                	.insn	2, 0x000d
     fae:	0600                	.insn	2, 0x0600
     fb0:	008c                	.insn	2, 0x008c
     fb2:	ef09                	.insn	2, 0xef09
     fb4:	9f1a                	.insn	2, 0x9f1a
     fb6:	000dc007          	.insn	4, 0x000dc007
     fba:	c800                	.insn	2, 0xc800
     fbc:	000d                	.insn	2, 0x000d
     fbe:	0600                	.insn	2, 0x0600
     fc0:	007d                	.insn	2, 0x007d
     fc2:	ef09                	.insn	2, 0xef09
     fc4:	9f1a                	.insn	2, 0x9f1a
     fc6:	0700                	.insn	2, 0x0700
     fc8:	0cc4                	.insn	2, 0x0cc4
     fca:	0000                	.insn	2, 0x
     fcc:	0d14                	.insn	2, 0x0d14
     fce:	0000                	.insn	2, 0x
     fd0:	3002                	.insn	2, 0x3002
     fd2:	079f 0d14 0000      	.insn	6, 0x0d14079f
     fd8:	0d1c                	.insn	2, 0x0d1c
     fda:	0000                	.insn	2, 0x
     fdc:	5801                	.insn	2, 0x5801
     fde:	000d3807          	.insn	4, 0x000d3807
     fe2:	3c00                	.insn	2, 0x3c00
     fe4:	000d                	.insn	2, 0x000d
     fe6:	0300                	.insn	2, 0x0300
     fe8:	0178                	.insn	2, 0x0178
     fea:	079f 0d3c 0000      	.insn	6, 0x0d3c079f
     ff0:	0d54                	.insn	2, 0x0d54
     ff2:	0000                	.insn	2, 0x
     ff4:	5801                	.insn	2, 0x5801
     ff6:	000db407          	.insn	4, 0x000db407
     ffa:	c800                	.insn	2, 0xc800
     ffc:	000d                	.insn	2, 0x000d
     ffe:	0200                	.insn	2, 0x0200
    1000:	9f30                	.insn	2, 0x9f30
    1002:	000e4007          	.insn	4, 0x000e4007
    1006:	4800                	.insn	2, 0x4800
    1008:	000e                	.insn	2, 0x000e
    100a:	0200                	.insn	2, 0x0200
    100c:	9f30                	.insn	2, 0x9f30
    100e:	0700                	.insn	2, 0x0700
    1010:	0d14                	.insn	2, 0x0d14
    1012:	0000                	.insn	2, 0x
    1014:	0d1c                	.insn	2, 0x0d1c
    1016:	0000                	.insn	2, 0x
    1018:	9f507c03          	.insn	4, 0x9f507c03
    101c:	000d2407          	.insn	4, 0x000d2407
    1020:	2c00                	.insn	2, 0x2c00
    1022:	000d                	.insn	2, 0x000d
    1024:	0100                	.insn	2, 0x0100
    1026:	0756                	.insn	2, 0x0756
    1028:	0d2c                	.insn	2, 0x0d2c
    102a:	0000                	.insn	2, 0x
    102c:	0d54                	.insn	2, 0x0d54
    102e:	0000                	.insn	2, 0x
    1030:	9f507c03          	.insn	4, 0x9f507c03
    1034:	0700                	.insn	2, 0x0700
    1036:	0d4c                	.insn	2, 0x0d4c
    1038:	0000                	.insn	2, 0x
    103a:	0d54                	.insn	2, 0x0d54
    103c:	0000                	.insn	2, 0x
    103e:	6c01                	.insn	2, 0x6c01
    1040:	000db407          	.insn	4, 0x000db407
    1044:	c000                	.insn	2, 0xc000
    1046:	000d                	.insn	2, 0x000d
    1048:	0600                	.insn	2, 0x0600
    104a:	008c                	.insn	2, 0x008c
    104c:	ef09                	.insn	2, 0xef09
    104e:	9f1a                	.insn	2, 0x9f1a
    1050:	000dc007          	.insn	4, 0x000dc007
    1054:	c800                	.insn	2, 0xc800
    1056:	000d                	.insn	2, 0x000d
    1058:	0600                	.insn	2, 0x0600
    105a:	007d                	.insn	2, 0x007d
    105c:	ef09                	.insn	2, 0xef09
    105e:	9f1a                	.insn	2, 0x9f1a
    1060:	0700                	.insn	2, 0x0700
    1062:	0d4c                	.insn	2, 0x0d4c
    1064:	0000                	.insn	2, 0x
    1066:	0d54                	.insn	2, 0x0d54
    1068:	0000                	.insn	2, 0x
    106a:	9102                	.insn	2, 0x9102
    106c:	0700                	.insn	2, 0x0700
    106e:	0d54                	.insn	2, 0x0d54
    1070:	0000                	.insn	2, 0x
    1072:	0d80                	.insn	2, 0x0d80
    1074:	0000                	.insn	2, 0x
    1076:	6501                	.insn	2, 0x6501
    1078:	000db407          	.insn	4, 0x000db407
    107c:	cc00                	.insn	2, 0xcc00
    107e:	000d                	.insn	2, 0x000d
    1080:	0100                	.insn	2, 0x0100
    1082:	0765                	.insn	2, 0x0765
    1084:	0dcc                	.insn	2, 0x0dcc
    1086:	0000                	.insn	2, 0x
    1088:	0ddc                	.insn	2, 0x0ddc
    108a:	0000                	.insn	2, 0x
    108c:	3002                	.insn	2, 0x3002
    108e:	079f 0dec 0000      	.insn	6, 0x0dec079f
    1094:	0e34                	.insn	2, 0x0e34
    1096:	0000                	.insn	2, 0x
    1098:	6501                	.insn	2, 0x6501
    109a:	000e3807          	.insn	4, 0x000e3807
    109e:	4000                	.insn	2, 0x4000
    10a0:	000e                	.insn	2, 0x000e
    10a2:	0100                	.insn	2, 0x0100
    10a4:	0765                	.insn	2, 0x0765
    10a6:	0e48                	.insn	2, 0x0e48
    10a8:	0000                	.insn	2, 0x
    10aa:	0ea0                	.insn	2, 0x0ea0
    10ac:	0000                	.insn	2, 0x
    10ae:	6501                	.insn	2, 0x6501
    10b0:	000f4c07          	.insn	4, 0x000f4c07
    10b4:	a000                	.insn	2, 0xa000
    10b6:	0100000f          	fence	w,unknown
    10ba:	0765                	.insn	2, 0x0765
    10bc:	0fe8                	.insn	2, 0x0fe8
    10be:	0000                	.insn	2, 0x
    10c0:	10a4                	.insn	2, 0x10a4
    10c2:	0000                	.insn	2, 0x
    10c4:	6501                	.insn	2, 0x6501
    10c6:	0010c407          	.insn	4, 0x0010c407
    10ca:	fc00                	.insn	2, 0xfc00
    10cc:	0010                	.insn	2, 0x0010
    10ce:	0100                	.insn	2, 0x0100
    10d0:	0765                	.insn	2, 0x0765
    10d2:	1114                	.insn	2, 0x1114
    10d4:	0000                	.insn	2, 0x
    10d6:	1174                	.insn	2, 0x1174
    10d8:	0000                	.insn	2, 0x
    10da:	6501                	.insn	2, 0x6501
    10dc:	00117407          	.insn	4, 0x00117407
    10e0:	7c00                	.insn	2, 0x7c00
    10e2:	0011                	.insn	2, 0x0011
    10e4:	0200                	.insn	2, 0x0200
    10e6:	9f30                	.insn	2, 0x9f30
    10e8:	00117c07          	.insn	4, 0x00117c07
    10ec:	b400                	.insn	2, 0xb400
    10ee:	0011                	.insn	2, 0x0011
    10f0:	0100                	.insn	2, 0x0100
    10f2:	0065                	.insn	2, 0x0065
    10f4:	000d4c07          	.insn	4, 0x000d4c07
    10f8:	4000                	.insn	2, 0x4000
    10fa:	000e                	.insn	2, 0x000e
    10fc:	0100                	.insn	2, 0x0100
    10fe:	0761                	.insn	2, 0x0761
    1100:	0e48                	.insn	2, 0x0e48
    1102:	0000                	.insn	2, 0x
    1104:	0ea8                	.insn	2, 0x0ea8
    1106:	0000                	.insn	2, 0x
    1108:	6101                	.insn	2, 0x6101
    110a:	000ea807          	.insn	4, 0x000ea807
    110e:	4c00                	.insn	2, 0x4c00
    1110:	0400000f          	fence	o,unknown
    1114:	9f6101a3          	sb	s6,-1565(sp)
    1118:	000f4c07          	.insn	4, 0x000f4c07
    111c:	a000                	.insn	2, 0xa000
    111e:	0100000f          	fence	w,unknown
    1122:	0761                	.insn	2, 0x0761
    1124:	0fa0                	.insn	2, 0x0fa0
    1126:	0000                	.insn	2, 0x
    1128:	0fd0                	.insn	2, 0x0fd0
    112a:	0000                	.insn	2, 0x
    112c:	a304                	.insn	2, 0xa304
    112e:	6101                	.insn	2, 0x6101
    1130:	079f 0fd0 0000      	.insn	6, 0x0fd0079f
    1136:	11b4                	.insn	2, 0x11b4
    1138:	0000                	.insn	2, 0x
    113a:	6101                	.insn	2, 0x6101
    113c:	0700                	.insn	2, 0x0700
    113e:	0d4c                	.insn	2, 0x0d4c
    1140:	0000                	.insn	2, 0x
    1142:	0e40                	.insn	2, 0x0e40
    1144:	0000                	.insn	2, 0x
    1146:	6001                	.insn	2, 0x6001
    1148:	000e4807          	.insn	4, 0x000e4807
    114c:	a800                	.insn	2, 0xa800
    114e:	000e                	.insn	2, 0x000e
    1150:	0100                	.insn	2, 0x0100
    1152:	0760                	.insn	2, 0x0760
    1154:	0ea8                	.insn	2, 0x0ea8
    1156:	0000                	.insn	2, 0x
    1158:	0f4c                	.insn	2, 0x0f4c
    115a:	0000                	.insn	2, 0x
    115c:	a304                	.insn	2, 0xa304
    115e:	6001                	.insn	2, 0x6001
    1160:	079f 0f4c 0000      	.insn	6, 0x0f4c079f
    1166:	0fa0                	.insn	2, 0x0fa0
    1168:	0000                	.insn	2, 0x
    116a:	6001                	.insn	2, 0x6001
    116c:	000fa007          	.insn	4, 0x000fa007
    1170:	d000                	.insn	2, 0xd000
    1172:	0400000f          	fence	o,unknown
    1176:	9f6001a3          	sb	s6,-1565(zero) # fffff9e3 <_peripheral_PLIC_end+0xf7fff9e3>
    117a:	000fd007          	.insn	4, 0x000fd007
    117e:	b400                	.insn	2, 0xb400
    1180:	0011                	.insn	2, 0x0011
    1182:	0100                	.insn	2, 0x0100
    1184:	0060                	.insn	2, 0x0060
    1186:	000d4c07          	.insn	4, 0x000d4c07
    118a:	8c00                	.insn	2, 0x8c00
    118c:	000d                	.insn	2, 0x000d
    118e:	0100                	.insn	2, 0x0100
    1190:	075f 0d8c 0000      	.insn	6, 0x0d8c075f
    1196:	0db4                	.insn	2, 0x0db4
    1198:	0000                	.insn	2, 0x
    119a:	a304                	.insn	2, 0xa304
    119c:	5f01                	.insn	2, 0x5f01
    119e:	079f 0db4 0000      	.insn	6, 0x0db4079f
    11a4:	0e40                	.insn	2, 0x0e40
    11a6:	0000                	.insn	2, 0x
    11a8:	5f01                	.insn	2, 0x5f01
    11aa:	000e4807          	.insn	4, 0x000e4807
    11ae:	a000                	.insn	2, 0xa000
    11b0:	000e                	.insn	2, 0x000e
    11b2:	0100                	.insn	2, 0x0100
    11b4:	075f 0ea0 0000      	.insn	6, 0x0ea0075f
    11ba:	0f4c                	.insn	2, 0x0f4c
    11bc:	0000                	.insn	2, 0x
    11be:	a304                	.insn	2, 0xa304
    11c0:	5f01                	.insn	2, 0x5f01
    11c2:	079f 0f4c 0000      	.insn	6, 0x0f4c079f
    11c8:	0fa0                	.insn	2, 0x0fa0
    11ca:	0000                	.insn	2, 0x
    11cc:	5f01                	.insn	2, 0x5f01
    11ce:	000fa007          	.insn	4, 0x000fa007
    11d2:	d000                	.insn	2, 0xd000
    11d4:	0400000f          	fence	o,unknown
    11d8:	9f5f01a3          	sb	s5,-1565(t5)
    11dc:	000fd007          	.insn	4, 0x000fd007
    11e0:	d400                	.insn	2, 0xd400
    11e2:	0100000f          	fence	w,unknown
    11e6:	075f 0fd4 0000      	.insn	6, 0x0fd4075f
    11ec:	0fe8                	.insn	2, 0x0fe8
    11ee:	0000                	.insn	2, 0x
    11f0:	a304                	.insn	2, 0xa304
    11f2:	5f01                	.insn	2, 0x5f01
    11f4:	079f 0fe8 0000      	.insn	6, 0x0fe8079f
    11fa:	10a4                	.insn	2, 0x10a4
    11fc:	0000                	.insn	2, 0x
    11fe:	5f01                	.insn	2, 0x5f01
    1200:	0010a407          	.insn	4, 0x0010a407
    1204:	c400                	.insn	2, 0xc400
    1206:	0010                	.insn	2, 0x0010
    1208:	0400                	.insn	2, 0x0400
    120a:	9f5f01a3          	sb	s5,-1565(t5)
    120e:	0010c407          	.insn	4, 0x0010c407
    1212:	fc00                	.insn	2, 0xfc00
    1214:	0010                	.insn	2, 0x0010
    1216:	0100                	.insn	2, 0x0100
    1218:	075f 10fc 0000      	.insn	6, 0x10fc075f
    121e:	1114                	.insn	2, 0x1114
    1220:	0000                	.insn	2, 0x
    1222:	a304                	.insn	2, 0xa304
    1224:	5f01                	.insn	2, 0x5f01
    1226:	079f 1114 0000      	.insn	6, 0x1114079f
    122c:	11b4                	.insn	2, 0x11b4
    122e:	0000                	.insn	2, 0x
    1230:	5f01                	.insn	2, 0x5f01
    1232:	0700                	.insn	2, 0x0700
    1234:	0d4c                	.insn	2, 0x0d4c
    1236:	0000                	.insn	2, 0x
    1238:	0d54                	.insn	2, 0x0d54
    123a:	0000                	.insn	2, 0x
    123c:	5801                	.insn	2, 0x5801
    123e:	000d6007          	.insn	4, 0x000d6007
    1242:	7000                	.insn	2, 0x7000
    1244:	000d                	.insn	2, 0x000d
    1246:	0200                	.insn	2, 0x0200
    1248:	9f30                	.insn	2, 0x9f30
    124a:	000d7007          	.insn	4, 0x000d7007
    124e:	8000                	.insn	2, 0x8000
    1250:	000d                	.insn	2, 0x000d
    1252:	0200                	.insn	2, 0x0200
    1254:	9f31                	.insn	2, 0x9f31
    1256:	000d9c07          	.insn	4, 0x000d9c07
    125a:	b400                	.insn	2, 0xb400
    125c:	000d                	.insn	2, 0x000d
    125e:	0100                	.insn	2, 0x0100
    1260:	0758                	.insn	2, 0x0758
    1262:	0db4                	.insn	2, 0x0db4
    1264:	0000                	.insn	2, 0x
    1266:	0dc8                	.insn	2, 0x0dc8
    1268:	0000                	.insn	2, 0x
    126a:	3002                	.insn	2, 0x3002
    126c:	079f 0dec 0000      	.insn	6, 0x0dec079f
    1272:	0df0                	.insn	2, 0x0df0
    1274:	0000                	.insn	2, 0x
    1276:	5801                	.insn	2, 0x5801
    1278:	000df007          	.insn	4, 0x000df007
    127c:	f400                	.insn	2, 0xf400
    127e:	000d                	.insn	2, 0x000d
    1280:	0300                	.insn	2, 0x0300
    1282:	0178                	.insn	2, 0x0178
    1284:	079f 0df4 0000      	.insn	6, 0x0df4079f
    128a:	0e04                	.insn	2, 0x0e04
    128c:	0000                	.insn	2, 0x
    128e:	5801                	.insn	2, 0x5801
    1290:	000e2007          	.insn	4, 0x000e2007
    1294:	2400                	.insn	2, 0x2400
    1296:	000e                	.insn	2, 0x000e
    1298:	0100                	.insn	2, 0x0100
    129a:	0758                	.insn	2, 0x0758
    129c:	0e24                	.insn	2, 0x0e24
    129e:	0000                	.insn	2, 0x
    12a0:	0e28                	.insn	2, 0x0e28
    12a2:	0000                	.insn	2, 0x
    12a4:	9f017803          	.insn	4, 0x9f017803
    12a8:	000e2807          	.insn	4, 0x000e2807
    12ac:	3400                	.insn	2, 0x3400
    12ae:	000e                	.insn	2, 0x000e
    12b0:	0100                	.insn	2, 0x0100
    12b2:	0758                	.insn	2, 0x0758
    12b4:	0e48                	.insn	2, 0x0e48
    12b6:	0000                	.insn	2, 0x
    12b8:	0e6c                	.insn	2, 0x0e6c
    12ba:	0000                	.insn	2, 0x
    12bc:	9f200803          	lb	a6,-1550(zero) # fffff9f2 <_peripheral_PLIC_end+0xf7fff9f2>
    12c0:	000e7c07          	.insn	4, 0x000e7c07
    12c4:	8400                	.insn	2, 0x8400
    12c6:	000e                	.insn	2, 0x000e
    12c8:	0300                	.insn	2, 0x0300
    12ca:	017d                	.insn	2, 0x017d
    12cc:	079f 0e84 0000      	.insn	6, 0x0e84079f
    12d2:	0e88                	.insn	2, 0x0e88
    12d4:	0000                	.insn	2, 0x
    12d6:	9f617e03          	.insn	4, 0x9f617e03
    12da:	000f6c07          	.insn	4, 0x000f6c07
    12de:	7000                	.insn	2, 0x7000
    12e0:	0300000f          	fence	rw,unknown
    12e4:	2008                	.insn	2, 0x2008
    12e6:	079f 0f98 0000      	.insn	6, 0x0f98079f
    12ec:	0f9c                	.insn	2, 0x0f9c
    12ee:	0000                	.insn	2, 0x
    12f0:	9f200803          	lb	a6,-1550(zero) # fffff9f2 <_peripheral_PLIC_end+0xf7fff9f2>
    12f4:	000fdc07          	.insn	4, 0x000fdc07
    12f8:	e800                	.insn	2, 0xe800
    12fa:	0100000f          	fence	w,unknown
    12fe:	0758                	.insn	2, 0x0758
    1300:	100c                	.insn	2, 0x100c
    1302:	0000                	.insn	2, 0x
    1304:	1010                	.insn	2, 0x1010
    1306:	0000                	.insn	2, 0x
    1308:	5d01                	.insn	2, 0x5d01
    130a:	00101007          	.insn	4, 0x00101007
    130e:	2400                	.insn	2, 0x2400
    1310:	0010                	.insn	2, 0x0010
    1312:	0200                	.insn	2, 0x0200
    1314:	9f30                	.insn	2, 0x9f30
    1316:	00102807          	.insn	4, 0x00102807
    131a:	3c00                	.insn	2, 0x3c00
    131c:	0010                	.insn	2, 0x0010
    131e:	0200                	.insn	2, 0x0200
    1320:	9f32                	.insn	2, 0x9f32
    1322:	00104807          	.insn	4, 0x00104807
    1326:	4c00                	.insn	2, 0x4c00
    1328:	0010                	.insn	2, 0x0010
    132a:	0300                	.insn	2, 0x0300
    132c:	0178                	.insn	2, 0x0178
    132e:	079f 104c 0000      	.insn	6, 0x104c079f
    1334:	1050                	.insn	2, 0x1050
    1336:	0000                	.insn	2, 0x
    1338:	9f017d03          	.insn	4, 0x9f017d03
    133c:	00105007          	.insn	4, 0x00105007
    1340:	5400                	.insn	2, 0x5400
    1342:	0010                	.insn	2, 0x0010
    1344:	0300                	.insn	2, 0x0300
    1346:	617d                	.insn	2, 0x617d
    1348:	079f 1068 0000      	.insn	6, 0x1068079f
    134e:	107c                	.insn	2, 0x107c
    1350:	0000                	.insn	2, 0x
    1352:	9f200803          	lb	a6,-1550(zero) # fffff9f2 <_peripheral_PLIC_end+0xf7fff9f2>
    1356:	0010ac07          	.insn	4, 0x0010ac07
    135a:	c400                	.insn	2, 0xc400
    135c:	0010                	.insn	2, 0x0010
    135e:	0100                	.insn	2, 0x0100
    1360:	075e                	.insn	2, 0x075e
    1362:	10c4                	.insn	2, 0x10c4
    1364:	0000                	.insn	2, 0x
    1366:	10d0                	.insn	2, 0x10d0
    1368:	0000                	.insn	2, 0x
    136a:	9f200803          	lb	a6,-1550(zero) # fffff9f2 <_peripheral_PLIC_end+0xf7fff9f2>
    136e:	0010f407          	.insn	4, 0x0010f407
    1372:	f800                	.insn	2, 0xf800
    1374:	0010                	.insn	2, 0x0010
    1376:	0300                	.insn	2, 0x0300
    1378:	0278                	.insn	2, 0x0278
    137a:	079f 10f8 0000      	.insn	6, 0x10f8079f
    1380:	10fc                	.insn	2, 0x10fc
    1382:	0000                	.insn	2, 0x
    1384:	9f017803          	.insn	4, 0x9f017803
    1388:	00110807          	.insn	4, 0x00110807
    138c:	1400                	.insn	2, 0x1400
    138e:	0011                	.insn	2, 0x0011
    1390:	0100                	.insn	2, 0x0100
    1392:	0758                	.insn	2, 0x0758
    1394:	1114                	.insn	2, 0x1114
    1396:	0000                	.insn	2, 0x
    1398:	1124                	.insn	2, 0x1124
    139a:	0000                	.insn	2, 0x
    139c:	9f200803          	lb	a6,-1550(zero) # fffff9f2 <_peripheral_PLIC_end+0xf7fff9f2>
    13a0:	00112c07          	.insn	4, 0x00112c07
    13a4:	3000                	.insn	2, 0x3000
    13a6:	0011                	.insn	2, 0x0011
    13a8:	0100                	.insn	2, 0x0100
    13aa:	0758                	.insn	2, 0x0758
    13ac:	1130                	.insn	2, 0x1130
    13ae:	0000                	.insn	2, 0x
    13b0:	1138                	.insn	2, 0x1138
    13b2:	0000                	.insn	2, 0x
    13b4:	9f017803          	.insn	4, 0x9f017803
    13b8:	00113807          	.insn	4, 0x00113807
    13bc:	3c00                	.insn	2, 0x3c00
    13be:	0011                	.insn	2, 0x0011
    13c0:	0300                	.insn	2, 0x0300
    13c2:	617e                	.insn	2, 0x617e
    13c4:	079f 1140 0000      	.insn	6, 0x1140079f
    13ca:	1144                	.insn	2, 0x1144
    13cc:	0000                	.insn	2, 0x
    13ce:	5d01                	.insn	2, 0x5d01
    13d0:	00115007          	.insn	4, 0x00115007
    13d4:	5800                	.insn	2, 0x5800
    13d6:	0011                	.insn	2, 0x0011
    13d8:	0200                	.insn	2, 0x0200
    13da:	9f30                	.insn	2, 0x9f30
    13dc:	00116007          	.insn	4, 0x00116007
    13e0:	6400                	.insn	2, 0x6400
    13e2:	0011                	.insn	2, 0x0011
    13e4:	0200                	.insn	2, 0x0200
    13e6:	9f32                	.insn	2, 0x9f32
    13e8:	00116407          	.insn	4, 0x00116407
    13ec:	7400                	.insn	2, 0x7400
    13ee:	0011                	.insn	2, 0x0011
    13f0:	0200                	.insn	2, 0x0200
    13f2:	9f30                	.insn	2, 0x9f30
    13f4:	00117407          	.insn	4, 0x00117407
    13f8:	7c00                	.insn	2, 0x7c00
    13fa:	0011                	.insn	2, 0x0011
    13fc:	0300                	.insn	2, 0x0300
    13fe:	2008                	.insn	2, 0x2008
    1400:	079f 1194 0000      	.insn	6, 0x1194079f
    1406:	119c                	.insn	2, 0x119c
    1408:	0000                	.insn	2, 0x
    140a:	5d01                	.insn	2, 0x5d01
    140c:	00119c07          	.insn	4, 0x00119c07
    1410:	ac00                	.insn	2, 0xac00
    1412:	0011                	.insn	2, 0x0011
    1414:	0300                	.insn	2, 0x0300
    1416:	2008                	.insn	2, 0x2008
    1418:	009f 4c07 000d      	.insn	6, 0x000d4c07009f
    141e:	4000                	.insn	2, 0x4000
    1420:	000e                	.insn	2, 0x000e
    1422:	0100                	.insn	2, 0x0100
    1424:	0752                	.insn	2, 0x0752
    1426:	0e48                	.insn	2, 0x0e48
    1428:	0000                	.insn	2, 0x
    142a:	0f48                	.insn	2, 0x0f48
    142c:	0000                	.insn	2, 0x
    142e:	5201                	.insn	2, 0x5201
    1430:	000f4807          	.insn	4, 0x000f4807
    1434:	4c00                	.insn	2, 0x4c00
    1436:	0400000f          	fence	o,unknown
    143a:	b072                	.insn	2, 0xb072
    143c:	4c079f7f b400000f 	.insn	12, 0x01000011b400000f4c079f7f
    1444:	01000011 
    1448:	0052                	.insn	2, 0x0052
    144a:	000d4c07          	.insn	4, 0x000d4c07
    144e:	4000                	.insn	2, 0x4000
    1450:	000e                	.insn	2, 0x000e
    1452:	0100                	.insn	2, 0x0100
    1454:	0e480763          	beq	a6,tp,1542 <_vsnprintf+0x36e>
    1458:	0000                	.insn	2, 0x
    145a:	0f28                	.insn	2, 0x0f28
    145c:	0000                	.insn	2, 0x
    145e:	6301                	.insn	2, 0x6301
    1460:	000f2807          	.insn	4, 0x000f2807
    1464:	4c00                	.insn	2, 0x4c00
    1466:	0400000f          	fence	o,unknown
    146a:	9f5d01a3          	sb	s5,-1565(s10)
    146e:	000f4c07          	.insn	4, 0x000f4c07
    1472:	b400                	.insn	2, 0xb400
    1474:	0011                	.insn	2, 0x0011
    1476:	0100                	.insn	2, 0x0100
    1478:	4c070063          	beqz	a4,1938 <_vsnprintf+0x764>
    147c:	000d                	.insn	2, 0x000d
    147e:	b400                	.insn	2, 0xb400
    1480:	000d                	.insn	2, 0x000d
    1482:	0100                	.insn	2, 0x0100
    1484:	0764                	.insn	2, 0x0764
    1486:	0db4                	.insn	2, 0x0db4
    1488:	0000                	.insn	2, 0x
    148a:	0dc8                	.insn	2, 0x0dc8
    148c:	0000                	.insn	2, 0x
    148e:	5c01                	.insn	2, 0x5c01
    1490:	000dc807          	.insn	4, 0x000dc807
    1494:	4000                	.insn	2, 0x4000
    1496:	000e                	.insn	2, 0x000e
    1498:	0100                	.insn	2, 0x0100
    149a:	0764                	.insn	2, 0x0764
    149c:	0e48                	.insn	2, 0x0e48
    149e:	0000                	.insn	2, 0x
    14a0:	0ef0                	.insn	2, 0x0ef0
    14a2:	0000                	.insn	2, 0x
    14a4:	6401                	.insn	2, 0x6401
    14a6:	000ef007          	.insn	4, 0x000ef007
    14aa:	4c00                	.insn	2, 0x4c00
    14ac:	0400000f          	fence	o,unknown
    14b0:	9f5c01a3          	sb	s5,-1565(s8)
    14b4:	000f4c07          	.insn	4, 0x000f4c07
    14b8:	b400                	.insn	2, 0xb400
    14ba:	0011                	.insn	2, 0x0011
    14bc:	0100                	.insn	2, 0x0100
    14be:	0064                	.insn	2, 0x0064
    14c0:	000d4c07          	.insn	4, 0x000d4c07
    14c4:	b400                	.insn	2, 0xb400
    14c6:	000d                	.insn	2, 0x000d
    14c8:	0100                	.insn	2, 0x0100
    14ca:	0762                	.insn	2, 0x0762
    14cc:	0db4                	.insn	2, 0x0db4
    14ce:	0000                	.insn	2, 0x
    14d0:	0dc8                	.insn	2, 0x0dc8
    14d2:	0000                	.insn	2, 0x
    14d4:	5b01                	.insn	2, 0x5b01
    14d6:	000dc807          	.insn	4, 0x000dc807
    14da:	4000                	.insn	2, 0x4000
    14dc:	000e                	.insn	2, 0x000e
    14de:	0100                	.insn	2, 0x0100
    14e0:	0762                	.insn	2, 0x0762
    14e2:	0e48                	.insn	2, 0x0e48
    14e4:	0000                	.insn	2, 0x
    14e6:	0f24                	.insn	2, 0x0f24
    14e8:	0000                	.insn	2, 0x
    14ea:	6201                	.insn	2, 0x6201
    14ec:	000f2407          	.insn	4, 0x000f2407
    14f0:	4c00                	.insn	2, 0x4c00
    14f2:	0400000f          	fence	o,unknown
    14f6:	9f5b01a3          	sb	s5,-1565(s6)
    14fa:	000f4c07          	.insn	4, 0x000f4c07
    14fe:	b400                	.insn	2, 0xb400
    1500:	0011                	.insn	2, 0x0011
    1502:	0100                	.insn	2, 0x0100
    1504:	0062                	.insn	2, 0x0062
    1506:	000d4c07          	.insn	4, 0x000d4c07
    150a:	4000                	.insn	2, 0x4000
    150c:	000e                	.insn	2, 0x000e
    150e:	0100                	.insn	2, 0x0100
    1510:	0759                	.insn	2, 0x0759
    1512:	0e48                	.insn	2, 0x0e48
    1514:	0000                	.insn	2, 0x
    1516:	0f20                	.insn	2, 0x0f20
    1518:	0000                	.insn	2, 0x
    151a:	5901                	.insn	2, 0x5901
    151c:	000f2007          	.insn	4, 0x000f2007
    1520:	4c00                	.insn	2, 0x4c00
    1522:	0400000f          	fence	o,unknown
    1526:	9f5a01a3          	sb	s5,-1565(s4)
    152a:	000f4c07          	.insn	4, 0x000f4c07
    152e:	b400                	.insn	2, 0xb400
    1530:	0011                	.insn	2, 0x0011
    1532:	0100                	.insn	2, 0x0100
    1534:	0059                	.insn	2, 0x0059
    1536:	000e9407          	.insn	4, 0x000e9407
    153a:	9800                	.insn	2, 0x9800
    153c:	000e                	.insn	2, 0x000e
    153e:	0100                	.insn	2, 0x0100
    1540:	076c                	.insn	2, 0x076c
    1542:	0f98                	.insn	2, 0x0f98
    1544:	0000                	.insn	2, 0x
    1546:	0f9c                	.insn	2, 0x0f9c
    1548:	0000                	.insn	2, 0x
    154a:	6c01                	.insn	2, 0x6c01
    154c:	0700                	.insn	2, 0x0700
    154e:	0da4                	.insn	2, 0x0da4
    1550:	0000                	.insn	2, 0x
    1552:	0db4                	.insn	2, 0x0db4
    1554:	0000                	.insn	2, 0x
    1556:	6501                	.insn	2, 0x6501
    1558:	000e9407          	.insn	4, 0x000e9407
    155c:	3000                	.insn	2, 0x3000
    155e:	0100000f          	fence	w,unknown
    1562:	0765                	.insn	2, 0x0765
    1564:	0f98                	.insn	2, 0x0f98
    1566:	0000                	.insn	2, 0x
    1568:	0fd0                	.insn	2, 0x0fd0
    156a:	0000                	.insn	2, 0x
    156c:	6501                	.insn	2, 0x6501
    156e:	0010ac07          	.insn	4, 0x0010ac07
    1572:	c400                	.insn	2, 0xc400
    1574:	0010                	.insn	2, 0x0010
    1576:	0100                	.insn	2, 0x0100
    1578:	0065                	.insn	2, 0x0065
    157a:	000da407          	.insn	4, 0x000da407
    157e:	b400                	.insn	2, 0xb400
    1580:	000d                	.insn	2, 0x000d
    1582:	0100                	.insn	2, 0x0100
    1584:	0758                	.insn	2, 0x0758
    1586:	0f98                	.insn	2, 0x0f98
    1588:	0000                	.insn	2, 0x
    158a:	0f9c                	.insn	2, 0x0f9c
    158c:	0000                	.insn	2, 0x
    158e:	9f200803          	lb	a6,-1550(zero) # fffff9f2 <_peripheral_PLIC_end+0xf7fff9f2>
    1592:	0010ac07          	.insn	4, 0x0010ac07
    1596:	bc00                	.insn	2, 0xbc00
    1598:	0010                	.insn	2, 0x0010
    159a:	0100                	.insn	2, 0x0100
    159c:	005e                	.insn	2, 0x005e
    159e:	000da407          	.insn	4, 0x000da407
    15a2:	b400                	.insn	2, 0xb400
    15a4:	000d                	.insn	2, 0x000d
    15a6:	0100                	.insn	2, 0x0100
    15a8:	0752                	.insn	2, 0x0752
    15aa:	0e94                	.insn	2, 0x0e94
    15ac:	0000                	.insn	2, 0x
    15ae:	0f48                	.insn	2, 0x0f48
    15b0:	0000                	.insn	2, 0x
    15b2:	5201                	.insn	2, 0x5201
    15b4:	000f4807          	.insn	4, 0x000f4807
    15b8:	4c00                	.insn	2, 0x4c00
    15ba:	0400000f          	fence	o,unknown
    15be:	b072                	.insn	2, 0xb072
    15c0:	98079f7f d000000f 	.insn	12, 0x0100000fd000000f98079f7f
    15c8:	0100000f 
    15cc:	0752                	.insn	2, 0x0752
    15ce:	10ac                	.insn	2, 0x10ac
    15d0:	0000                	.insn	2, 0x
    15d2:	10c4                	.insn	2, 0x10c4
    15d4:	0000                	.insn	2, 0x
    15d6:	5201                	.insn	2, 0x5201
    15d8:	0700                	.insn	2, 0x0700
    15da:	0da4                	.insn	2, 0x0da4
    15dc:	0000                	.insn	2, 0x
    15de:	0db4                	.insn	2, 0x0db4
    15e0:	0000                	.insn	2, 0x
    15e2:	6301                	.insn	2, 0x6301
    15e4:	000e9407          	.insn	4, 0x000e9407
    15e8:	2800                	.insn	2, 0x2800
    15ea:	0100000f          	fence	w,unknown
    15ee:	0f280763          	beq	a6,s2,16dc <_vsnprintf+0x508>
    15f2:	0000                	.insn	2, 0x
    15f4:	0f4c                	.insn	2, 0x0f4c
    15f6:	0000                	.insn	2, 0x
    15f8:	a304                	.insn	2, 0xa304
    15fa:	5d01                	.insn	2, 0x5d01
    15fc:	079f 0f98 0000      	.insn	6, 0x0f98079f
    1602:	0fd0                	.insn	2, 0x0fd0
    1604:	0000                	.insn	2, 0x
    1606:	6301                	.insn	2, 0x6301
    1608:	0010ac07          	.insn	4, 0x0010ac07
    160c:	c400                	.insn	2, 0xc400
    160e:	0010                	.insn	2, 0x0010
    1610:	0100                	.insn	2, 0x0100
    1612:	a4070063          	beqz	a4,852 <check_values+0x238>
    1616:	000d                	.insn	2, 0x000d
    1618:	b400                	.insn	2, 0xb400
    161a:	000d                	.insn	2, 0x000d
    161c:	0100                	.insn	2, 0x0100
    161e:	0764                	.insn	2, 0x0764
    1620:	0e94                	.insn	2, 0x0e94
    1622:	0000                	.insn	2, 0x
    1624:	0ea8                	.insn	2, 0x0ea8
    1626:	0000                	.insn	2, 0x
    1628:	6401                	.insn	2, 0x6401
    162a:	000ea807          	.insn	4, 0x000ea807
    162e:	e400                	.insn	2, 0xe400
    1630:	000e                	.insn	2, 0x000e
    1632:	0100                	.insn	2, 0x0100
    1634:	0766                	.insn	2, 0x0766
    1636:	0ee4                	.insn	2, 0x0ee4
    1638:	0000                	.insn	2, 0x
    163a:	0ee8                	.insn	2, 0x0ee8
    163c:	0000                	.insn	2, 0x
    163e:	6701                	.insn	2, 0x6701
    1640:	000eec07          	.insn	4, 0x000eec07
    1644:	1400                	.insn	2, 0x1400
    1646:	0100000f          	fence	w,unknown
    164a:	0f980767          	jalr	a4,249(a6)
    164e:	0000                	.insn	2, 0x
    1650:	0fa0                	.insn	2, 0x0fa0
    1652:	0000                	.insn	2, 0x
    1654:	6401                	.insn	2, 0x6401
    1656:	0010ac07          	.insn	4, 0x0010ac07
    165a:	bc00                	.insn	2, 0xbc00
    165c:	0010                	.insn	2, 0x0010
    165e:	0100                	.insn	2, 0x0100
    1660:	0764                	.insn	2, 0x0764
    1662:	10bc                	.insn	2, 0x10bc
    1664:	0000                	.insn	2, 0x
    1666:	10c0                	.insn	2, 0x10c0
    1668:	0000                	.insn	2, 0x
    166a:	6701                	.insn	2, 0x6701
    166c:	0010c007          	.insn	4, 0x0010c007
    1670:	c400                	.insn	2, 0xc400
    1672:	0010                	.insn	2, 0x0010
    1674:	0100                	.insn	2, 0x0100
    1676:	0064                	.insn	2, 0x0064
    1678:	000da407          	.insn	4, 0x000da407
    167c:	b400                	.insn	2, 0xb400
    167e:	000d                	.insn	2, 0x000d
    1680:	0100                	.insn	2, 0x0100
    1682:	0762                	.insn	2, 0x0762
    1684:	0e94                	.insn	2, 0x0e94
    1686:	0000                	.insn	2, 0x
    1688:	0f24                	.insn	2, 0x0f24
    168a:	0000                	.insn	2, 0x
    168c:	6201                	.insn	2, 0x6201
    168e:	000f2407          	.insn	4, 0x000f2407
    1692:	4c00                	.insn	2, 0x4c00
    1694:	0400000f          	fence	o,unknown
    1698:	9f5b01a3          	sb	s5,-1565(s6)
    169c:	000f9807          	.insn	4, 0x000f9807
    16a0:	d000                	.insn	2, 0xd000
    16a2:	0100000f          	fence	w,unknown
    16a6:	0762                	.insn	2, 0x0762
    16a8:	10ac                	.insn	2, 0x10ac
    16aa:	0000                	.insn	2, 0x
    16ac:	10c4                	.insn	2, 0x10c4
    16ae:	0000                	.insn	2, 0x
    16b0:	6201                	.insn	2, 0x6201
    16b2:	0700                	.insn	2, 0x0700
    16b4:	0da4                	.insn	2, 0x0da4
    16b6:	0000                	.insn	2, 0x
    16b8:	0db4                	.insn	2, 0x0db4
    16ba:	0000                	.insn	2, 0x
    16bc:	5901                	.insn	2, 0x5901
    16be:	000e9407          	.insn	4, 0x000e9407
    16c2:	2000                	.insn	2, 0x2000
    16c4:	0100000f          	fence	w,unknown
    16c8:	0759                	.insn	2, 0x0759
    16ca:	0f20                	.insn	2, 0x0f20
    16cc:	0000                	.insn	2, 0x
    16ce:	0f4c                	.insn	2, 0x0f4c
    16d0:	0000                	.insn	2, 0x
    16d2:	a304                	.insn	2, 0xa304
    16d4:	5a01                	.insn	2, 0x5a01
    16d6:	079f 0f98 0000      	.insn	6, 0x0f98079f
    16dc:	0fd0                	.insn	2, 0x0fd0
    16de:	0000                	.insn	2, 0x
    16e0:	5901                	.insn	2, 0x5901
    16e2:	0010ac07          	.insn	4, 0x0010ac07
    16e6:	c400                	.insn	2, 0xc400
    16e8:	0010                	.insn	2, 0x0010
    16ea:	0100                	.insn	2, 0x0100
    16ec:	0059                	.insn	2, 0x0059
    16ee:	000da407          	.insn	4, 0x000da407
    16f2:	b400                	.insn	2, 0xb400
    16f4:	000d                	.insn	2, 0x000d
    16f6:	0100                	.insn	2, 0x0100
    16f8:	0764                	.insn	2, 0x0764
    16fa:	0e94                	.insn	2, 0x0e94
    16fc:	0000                	.insn	2, 0x
    16fe:	0ef0                	.insn	2, 0x0ef0
    1700:	0000                	.insn	2, 0x
    1702:	6401                	.insn	2, 0x6401
    1704:	000ef007          	.insn	4, 0x000ef007
    1708:	4c00                	.insn	2, 0x4c00
    170a:	0400000f          	fence	o,unknown
    170e:	9f5c01a3          	sb	s5,-1565(s8)
    1712:	000f9807          	.insn	4, 0x000f9807
    1716:	d000                	.insn	2, 0xd000
    1718:	0100000f          	fence	w,unknown
    171c:	0764                	.insn	2, 0x0764
    171e:	10ac                	.insn	2, 0x10ac
    1720:	0000                	.insn	2, 0x
    1722:	10c4                	.insn	2, 0x10c4
    1724:	0000                	.insn	2, 0x
    1726:	6401                	.insn	2, 0x6401
    1728:	0700                	.insn	2, 0x0700
    172a:	0dac                	.insn	2, 0x0dac
    172c:	0000                	.insn	2, 0x
    172e:	0db4                	.insn	2, 0x0db4
    1730:	0000                	.insn	2, 0x
    1732:	5801                	.insn	2, 0x5801
    1734:	000e9c07          	.insn	4, 0x000e9c07
    1738:	a000                	.insn	2, 0xa000
    173a:	000e                	.insn	2, 0x000e
    173c:	0300                	.insn	2, 0x0300
    173e:	2008                	.insn	2, 0x2008
    1740:	009f b407 0011      	.insn	6, 0x0011b407009f
    1746:	bf00                	.insn	2, 0xbf00
    1748:	0011                	.insn	2, 0x0011
    174a:	0100                	.insn	2, 0x0100
    174c:	075a                	.insn	2, 0x075a
    174e:	000011bf 000011c0 	.insn	8, 0x11c0000011bf
    1756:	a304                	.insn	2, 0xa304
    1758:	5a01                	.insn	2, 0x5a01
    175a:	009f b407 0011      	.insn	6, 0x0011b407009f
    1760:	bf00                	.insn	2, 0xbf00
    1762:	0011                	.insn	2, 0x0011
    1764:	0100                	.insn	2, 0x0100
    1766:	11bf075b          	.insn	4, 0x11bf075b
    176a:	0000                	.insn	2, 0x
    176c:	11c0                	.insn	2, 0x11c0
    176e:	0000                	.insn	2, 0x
    1770:	a304                	.insn	2, 0xa304
    1772:	5b01                	.insn	2, 0x5b01
    1774:	009f b407 0011      	.insn	6, 0x0011b407009f
    177a:	bf00                	.insn	2, 0xbf00
    177c:	0011                	.insn	2, 0x0011
    177e:	0100                	.insn	2, 0x0100
    1780:	075c                	.insn	2, 0x075c
    1782:	000011bf 000011c0 	.insn	8, 0x11c0000011bf
    178a:	a304                	.insn	2, 0xa304
    178c:	5c01                	.insn	2, 0x5c01
    178e:	009f b407 0011      	.insn	6, 0x0011b407009f
    1794:	bf00                	.insn	2, 0xbf00
    1796:	0011                	.insn	2, 0x0011
    1798:	0100                	.insn	2, 0x0100
    179a:	075d                	.insn	2, 0x075d
    179c:	000011bf 000011c0 	.insn	8, 0x11c0000011bf
    17a4:	a304                	.insn	2, 0xa304
    17a6:	5d01                	.insn	2, 0x5d01
    17a8:	009f 7807 000c      	.insn	6, 0x000c7807009f
    17ae:	8000                	.insn	2, 0x8000
    17b0:	000c                	.insn	2, 0x000c
    17b2:	0100                	.insn	2, 0x0100
    17b4:	0c80075b          	.insn	4, 0x0c80075b
    17b8:	0000                	.insn	2, 0x
    17ba:	0c88                	.insn	2, 0x0c88
    17bc:	0000                	.insn	2, 0x
    17be:	a304                	.insn	2, 0xa304
    17c0:	5b01                	.insn	2, 0x5b01
    17c2:	009f c007 0011      	.insn	6, 0x0011c007009f
    17c8:	cf00                	.insn	2, 0xcf00
    17ca:	0011                	.insn	2, 0x0011
    17cc:	0100                	.insn	2, 0x0100
    17ce:	075a                	.insn	2, 0x075a
    17d0:	000011cf          	.insn	4, 0x11cf
    17d4:	11d0                	.insn	2, 0x11d0
    17d6:	0000                	.insn	2, 0x
    17d8:	a304                	.insn	2, 0xa304
    17da:	5a01                	.insn	2, 0x5a01
    17dc:	079f 11d0 0000      	.insn	6, 0x11d0079f
    17e2:	11d4                	.insn	2, 0x11d4
    17e4:	0000                	.insn	2, 0x
    17e6:	5a01                	.insn	2, 0x5a01
    17e8:	0700                	.insn	2, 0x0700
    17ea:	11c0                	.insn	2, 0x11c0
    17ec:	0000                	.insn	2, 0x
    17ee:	11cc                	.insn	2, 0x11cc
    17f0:	0000                	.insn	2, 0x
    17f2:	5b01                	.insn	2, 0x5b01
    17f4:	0011cc07          	.insn	4, 0x0011cc07
    17f8:	d000                	.insn	2, 0xd000
    17fa:	0011                	.insn	2, 0x0011
    17fc:	0400                	.insn	2, 0x0400
    17fe:	9f5b01a3          	sb	s5,-1565(s6)
    1802:	0011d007          	.insn	4, 0x0011d007
    1806:	d400                	.insn	2, 0xd400
    1808:	0011                	.insn	2, 0x0011
    180a:	0100                	.insn	2, 0x0100
    180c:	c007005b          	.insn	4, 0xc007005b
    1810:	0011                	.insn	2, 0x0011
    1812:	cf00                	.insn	2, 0xcf00
    1814:	0011                	.insn	2, 0x0011
    1816:	0100                	.insn	2, 0x0100
    1818:	075c                	.insn	2, 0x075c
    181a:	000011cf          	.insn	4, 0x11cf
    181e:	11d0                	.insn	2, 0x11d0
    1820:	0000                	.insn	2, 0x
    1822:	a304                	.insn	2, 0xa304
    1824:	5c01                	.insn	2, 0x5c01
    1826:	079f 11d0 0000      	.insn	6, 0x11d0079f
    182c:	11d4                	.insn	2, 0x11d4
    182e:	0000                	.insn	2, 0x
    1830:	5c01                	.insn	2, 0x5c01
    1832:	0700                	.insn	2, 0x0700
    1834:	11c0                	.insn	2, 0x11c0
    1836:	0000                	.insn	2, 0x
    1838:	000011cf          	.insn	4, 0x11cf
    183c:	5d01                	.insn	2, 0x5d01
    183e:	0011cf07          	.insn	4, 0x0011cf07
    1842:	d000                	.insn	2, 0xd000
    1844:	0011                	.insn	2, 0x0011
    1846:	0400                	.insn	2, 0x0400
    1848:	9f5d01a3          	sb	s5,-1565(s10)
    184c:	0011d007          	.insn	4, 0x0011d007
    1850:	d400                	.insn	2, 0xd400
    1852:	0011                	.insn	2, 0x0011
    1854:	0100                	.insn	2, 0x0100
    1856:	005d                	.insn	2, 0x005d
    1858:	0011c407          	.insn	4, 0x0011c407
    185c:	cf00                	.insn	2, 0xcf00
    185e:	0011                	.insn	2, 0x0011
    1860:	0100                	.insn	2, 0x0100
    1862:	075c                	.insn	2, 0x075c
    1864:	000011cf          	.insn	4, 0x11cf
    1868:	11d0                	.insn	2, 0x11d0
    186a:	0000                	.insn	2, 0x
    186c:	a304                	.insn	2, 0xa304
    186e:	5c01                	.insn	2, 0x5c01
    1870:	009f c407 0011      	.insn	6, 0x0011c407009f
    1876:	cf00                	.insn	2, 0xcf00
    1878:	0011                	.insn	2, 0x0011
    187a:	0100                	.insn	2, 0x0100
    187c:	075d                	.insn	2, 0x075d
    187e:	000011cf          	.insn	4, 0x11cf
    1882:	11d0                	.insn	2, 0x11d0
    1884:	0000                	.insn	2, 0x
    1886:	a304                	.insn	2, 0xa304
    1888:	5d01                	.insn	2, 0x5d01
    188a:	009f c407 0011      	.insn	6, 0x0011c407009f
    1890:	cc00                	.insn	2, 0xcc00
    1892:	0011                	.insn	2, 0x0011
    1894:	0100                	.insn	2, 0x0100
    1896:	11cc075b          	.insn	4, 0x11cc075b
    189a:	0000                	.insn	2, 0x
    189c:	11d0                	.insn	2, 0x11d0
    189e:	0000                	.insn	2, 0x
    18a0:	a304                	.insn	2, 0xa304
    18a2:	5b01                	.insn	2, 0x5b01
    18a4:	009f d407 0019      	.insn	6, 0x0019d407009f
    18aa:	df00                	.insn	2, 0xdf00
    18ac:	0019                	.insn	2, 0x0019
    18ae:	0100                	.insn	2, 0x0100
    18b0:	075a                	.insn	2, 0x075a
    18b2:	19df 0000 19f0      	.insn	6, 0x19f0000019df
    18b8:	0000                	.insn	2, 0x
    18ba:	a304                	.insn	2, 0xa304
    18bc:	5a01                	.insn	2, 0x5a01
    18be:	009f 0022 0000      	.insn	6, 0x0022009f
    18c4:	0005                	.insn	2, 0x0005
    18c6:	0004                	.insn	2, 0x0004
    18c8:	0000                	.insn	2, 0x
    18ca:	0000                	.insn	2, 0x
    18cc:	001b8807          	.insn	4, 0x001b8807
    18d0:	8b00                	.insn	2, 0x8b00
    18d2:	0100001b          	.insn	4, 0x0100001b
    18d6:	075a                	.insn	2, 0x075a
    18d8:	00001b8b          	.insn	4, 0x1b8b
    18dc:	1b8c                	.insn	2, 0x1b8c
    18de:	0000                	.insn	2, 0x
    18e0:	a304                	.insn	2, 0xa304
    18e2:	5a01                	.insn	2, 0x5a01
    18e4:	Address 0x18e4 is out of bounds.

