
bin/custom_hls_conv_naive.elf:     file format elf32-littleriscv


Disassembly of section .vector_table:

00000000 <.vector_table>:
   0:	0800006f          	j	80 <_reset_handler>
   4:	1240006f          	j	128 <_default_handler>
   8:	1200006f          	j	128 <_default_handler>
   c:	11c0006f          	j	128 <_default_handler>
  10:	1180006f          	j	128 <_default_handler>
  14:	1140006f          	j	128 <_default_handler>
  18:	1100006f          	j	128 <_default_handler>
  1c:	10c0006f          	j	128 <_default_handler>
  20:	1080006f          	j	128 <_default_handler>
  24:	1040006f          	j	128 <_default_handler>
  28:	1000006f          	j	128 <_default_handler>
  2c:	0fc0006f          	j	128 <_default_handler>
  30:	0f80006f          	j	128 <_default_handler>
  34:	0f40006f          	j	128 <_default_handler>
  38:	0f00006f          	j	128 <_default_handler>
  3c:	0ec0006f          	j	128 <_default_handler>
  40:	0e80006f          	j	128 <_default_handler>
  44:	0e40006f          	j	128 <_default_handler>
  48:	0e00006f          	j	128 <_default_handler>
  4c:	0dc0006f          	j	128 <_default_handler>
  50:	0d80006f          	j	128 <_default_handler>
  54:	0d40006f          	j	128 <_default_handler>
  58:	0d00006f          	j	128 <_default_handler>
  5c:	0cc0006f          	j	128 <_default_handler>
  60:	0c80006f          	j	128 <_default_handler>
  64:	0c40006f          	j	128 <_default_handler>
  68:	0c00006f          	j	128 <_default_handler>
  6c:	0bc0006f          	j	128 <_default_handler>
  70:	0b80006f          	j	128 <_default_handler>
  74:	0b40006f          	j	128 <_default_handler>
  78:	0b00006f          	j	128 <_default_handler>
  7c:	0ac0006f          	j	128 <_default_handler>

Disassembly of section .text:

00000080 <_reset_handler>:
      80:	00000093          	li	ra,0
      84:	00000113          	li	sp,0
      88:	00000193          	li	gp,0
      8c:	00000213          	li	tp,0
      90:	00000293          	li	t0,0
      94:	00000313          	li	t1,0
      98:	00000393          	li	t2,0
      9c:	00000413          	li	s0,0
      a0:	00000493          	li	s1,0
      a4:	00000513          	li	a0,0
      a8:	00000593          	li	a1,0
      ac:	00000613          	li	a2,0
      b0:	00000693          	li	a3,0
      b4:	00000713          	li	a4,0
      b8:	00000793          	li	a5,0
      bc:	00000813          	li	a6,0
      c0:	00000893          	li	a7,0
      c4:	00000913          	li	s2,0
      c8:	00000993          	li	s3,0
      cc:	00000a13          	li	s4,0
      d0:	00000a93          	li	s5,0
      d4:	00000b13          	li	s6,0
      d8:	00000b93          	li	s7,0
      dc:	00000c13          	li	s8,0
      e0:	00000c93          	li	s9,0
      e4:	00000d13          	li	s10,0
      e8:	00000d93          	li	s11,0
      ec:	00000e13          	li	t3,0
      f0:	00000e93          	li	t4,0
      f4:	00000f13          	li	t5,0
      f8:	00000f93          	li	t6,0
      fc:	00000513          	li	a0,0
     100:	00100593          	li	a1,1
     104:	00a5e5b3          	or	a1,a1,a0
     108:	30559073          	csrw	mtvec,a1
     10c:	30046073          	csrsi	mstatus,8
     110:	000015b7          	lui	a1,0x1
     114:	88858593          	addi	a1,a1,-1912 # 888 <dump_csrs+0x26>
     118:	3045a073          	csrs	mie,a1
     11c:	00008117          	auipc	sp,0x8
     120:	ee010113          	addi	sp,sp,-288 # 7ffc <_stack_start>
     124:	0080006f          	j	12c <_start>

00000128 <_default_handler>:
     128:	0000006f          	j	128 <_default_handler>

0000012c <_start>:
     12c:	00000293          	li	t0,0
     130:	00020337          	lui	t1,0x20
     134:	20030313          	addi	t1,t1,512 # 20200 <_peripheral_GPIO_out_start>
     138:	00532023          	sw	t0,0(t1)
     13c:	00000513          	li	a0,0
     140:	00000593          	li	a1,0
     144:	0b3000ef          	jal	9f6 <main>
     148:	00100293          	li	t0,1
     14c:	00020337          	lui	t1,0x20
     150:	20030313          	addi	t1,t1,512 # 20200 <_peripheral_GPIO_out_start>
     154:	00532023          	sw	t0,0(t1)

00000158 <_exit_wfi>:
     158:	10500073          	wfi

0000015c <_exit_spin>:
     15c:	0000006f          	j	15c <_exit_spin>

00000160 <memcpy>:
     160:	7179                	addi	sp,sp,-48
     162:	d622                	sw	s0,44(sp)
     164:	1800                	addi	s0,sp,48
     166:	fca42e23          	sw	a0,-36(s0)
     16a:	fcb42c23          	sw	a1,-40(s0)
     16e:	fcc42a23          	sw	a2,-44(s0)
     172:	fe042623          	sw	zero,-20(s0)
     176:	a025                	j	19e <memcpy+0x3e>
     178:	fd842703          	lw	a4,-40(s0)
     17c:	fec42783          	lw	a5,-20(s0)
     180:	973e                	add	a4,a4,a5
     182:	fdc42683          	lw	a3,-36(s0)
     186:	fec42783          	lw	a5,-20(s0)
     18a:	97b6                	add	a5,a5,a3
     18c:	00074703          	lbu	a4,0(a4)
     190:	00e78023          	sb	a4,0(a5)
     194:	fec42783          	lw	a5,-20(s0)
     198:	0785                	addi	a5,a5,1
     19a:	fef42623          	sw	a5,-20(s0)
     19e:	fec42703          	lw	a4,-20(s0)
     1a2:	fd442783          	lw	a5,-44(s0)
     1a6:	fcf769e3          	bltu	a4,a5,178 <memcpy+0x18>
     1aa:	0001                	nop
     1ac:	853e                	mv	a0,a5
     1ae:	5432                	lw	s0,44(sp)
     1b0:	6145                	addi	sp,sp,48
     1b2:	8082                	ret

000001b4 <memset>:
     1b4:	1101                	addi	sp,sp,-32
     1b6:	ce22                	sw	s0,28(sp)
     1b8:	cc26                	sw	s1,24(sp)
     1ba:	1000                	addi	s0,sp,32
     1bc:	fea42623          	sw	a0,-20(s0)
     1c0:	86b2                	mv	a3,a2
     1c2:	fec42483          	lw	s1,-20(s0)
     1c6:	a801                	j	1d6 <memset+0x22>
     1c8:	87a6                	mv	a5,s1
     1ca:	00178493          	addi	s1,a5,1
     1ce:	0ff5f713          	zext.b	a4,a1
     1d2:	00e78023          	sb	a4,0(a5)
     1d6:	87b6                	mv	a5,a3
     1d8:	fff78693          	addi	a3,a5,-1
     1dc:	f7f5                	bnez	a5,1c8 <memset+0x14>
     1de:	fec42783          	lw	a5,-20(s0)
     1e2:	853e                	mv	a0,a5
     1e4:	4472                	lw	s0,28(sp)
     1e6:	44e2                	lw	s1,24(sp)
     1e8:	6105                	addi	sp,sp,32
     1ea:	8082                	ret

000001ec <Xil_In32>:
     1ec:	1101                	addi	sp,sp,-32
     1ee:	ce22                	sw	s0,28(sp)
     1f0:	1000                	addi	s0,sp,32
     1f2:	fea42623          	sw	a0,-20(s0)
     1f6:	fec42783          	lw	a5,-20(s0)
     1fa:	439c                	lw	a5,0(a5)
     1fc:	853e                	mv	a0,a5
     1fe:	4472                	lw	s0,28(sp)
     200:	6105                	addi	sp,sp,32
     202:	8082                	ret

00000204 <Xil_Out32>:
     204:	7179                	addi	sp,sp,-48
     206:	d622                	sw	s0,44(sp)
     208:	1800                	addi	s0,sp,48
     20a:	fca42e23          	sw	a0,-36(s0)
     20e:	fcb42c23          	sw	a1,-40(s0)
     212:	fdc42783          	lw	a5,-36(s0)
     216:	fef42623          	sw	a5,-20(s0)
     21a:	fec42783          	lw	a5,-20(s0)
     21e:	fd842703          	lw	a4,-40(s0)
     222:	c398                	sw	a4,0(a5)
     224:	0001                	nop
     226:	5432                	lw	s0,44(sp)
     228:	6145                	addi	sp,sp,48
     22a:	8082                	ret

0000022c <init_data>:
     22c:	715d                	addi	sp,sp,-80
     22e:	c6a2                	sw	s0,76(sp)
     230:	0880                	addi	s0,sp,80
     232:	faa42e23          	sw	a0,-68(s0)
     236:	fab42c23          	sw	a1,-72(s0)
     23a:	fac42a23          	sw	a2,-76(s0)
     23e:	fe042623          	sw	zero,-20(s0)
     242:	a879                	j	2e0 <init_data+0xb4>
     244:	fe042423          	sw	zero,-24(s0)
     248:	a051                	j	2cc <init_data+0xa0>
     24a:	fe042223          	sw	zero,-28(s0)
     24e:	a0ad                	j	2b8 <init_data+0x8c>
     250:	fe042023          	sw	zero,-32(s0)
     254:	a881                	j	2a4 <init_data+0x78>
     256:	fe442703          	lw	a4,-28(s0)
     25a:	fe042783          	lw	a5,-32(s0)
     25e:	02f70633          	mul	a2,a4,a5
     262:	fec42703          	lw	a4,-20(s0)
     266:	87ba                	mv	a5,a4
     268:	0786                	slli	a5,a5,0x1
     26a:	97ba                	add	a5,a5,a4
     26c:	07a6                	slli	a5,a5,0x9
     26e:	873e                	mv	a4,a5
     270:	fbc42783          	lw	a5,-68(s0)
     274:	00e786b3          	add	a3,a5,a4
     278:	00160713          	addi	a4,a2,1
     27c:	fe842783          	lw	a5,-24(s0)
     280:	00379613          	slli	a2,a5,0x3
     284:	fe442783          	lw	a5,-28(s0)
     288:	97b2                	add	a5,a5,a2
     28a:	00379613          	slli	a2,a5,0x3
     28e:	fe042783          	lw	a5,-32(s0)
     292:	97b2                	add	a5,a5,a2
     294:	078a                	slli	a5,a5,0x2
     296:	97b6                	add	a5,a5,a3
     298:	c398                	sw	a4,0(a5)
     29a:	fe042783          	lw	a5,-32(s0)
     29e:	0785                	addi	a5,a5,1
     2a0:	fef42023          	sw	a5,-32(s0)
     2a4:	fe042703          	lw	a4,-32(s0)
     2a8:	479d                	li	a5,7
     2aa:	fae7f6e3          	bgeu	a5,a4,256 <init_data+0x2a>
     2ae:	fe442783          	lw	a5,-28(s0)
     2b2:	0785                	addi	a5,a5,1
     2b4:	fef42223          	sw	a5,-28(s0)
     2b8:	fe442703          	lw	a4,-28(s0)
     2bc:	479d                	li	a5,7
     2be:	f8e7f9e3          	bgeu	a5,a4,250 <init_data+0x24>
     2c2:	fe842783          	lw	a5,-24(s0)
     2c6:	0785                	addi	a5,a5,1
     2c8:	fef42423          	sw	a5,-24(s0)
     2cc:	fe842703          	lw	a4,-24(s0)
     2d0:	4795                	li	a5,5
     2d2:	f6e7fce3          	bgeu	a5,a4,24a <init_data+0x1e>
     2d6:	fec42783          	lw	a5,-20(s0)
     2da:	0785                	addi	a5,a5,1
     2dc:	fef42623          	sw	a5,-20(s0)
     2e0:	fec42703          	lw	a4,-20(s0)
     2e4:	4785                	li	a5,1
     2e6:	f4e7ffe3          	bgeu	a5,a4,244 <init_data+0x18>
     2ea:	fc042e23          	sw	zero,-36(s0)
     2ee:	a045                	j	38e <init_data+0x162>
     2f0:	fc042c23          	sw	zero,-40(s0)
     2f4:	a059                	j	37a <init_data+0x14e>
     2f6:	fc042a23          	sw	zero,-44(s0)
     2fa:	a0b5                	j	366 <init_data+0x13a>
     2fc:	fc042823          	sw	zero,-48(s0)
     300:	a889                	j	352 <init_data+0x126>
     302:	fd442703          	lw	a4,-44(s0)
     306:	fd042783          	lw	a5,-48(s0)
     30a:	02f707b3          	mul	a5,a4,a5
     30e:	fdc42683          	lw	a3,-36(s0)
     312:	0d800713          	li	a4,216
     316:	02e68733          	mul	a4,a3,a4
     31a:	fb842683          	lw	a3,-72(s0)
     31e:	00e685b3          	add	a1,a3,a4
     322:	00178613          	addi	a2,a5,1
     326:	fd042783          	lw	a5,-48(s0)
     32a:	fd842683          	lw	a3,-40(s0)
     32e:	873e                	mv	a4,a5
     330:	0706                	slli	a4,a4,0x1
     332:	973e                	add	a4,a4,a5
     334:	87b6                	mv	a5,a3
     336:	078e                	slli	a5,a5,0x3
     338:	97b6                	add	a5,a5,a3
     33a:	973e                	add	a4,a4,a5
     33c:	fd442783          	lw	a5,-44(s0)
     340:	97ba                	add	a5,a5,a4
     342:	078a                	slli	a5,a5,0x2
     344:	97ae                	add	a5,a5,a1
     346:	c390                	sw	a2,0(a5)
     348:	fd042783          	lw	a5,-48(s0)
     34c:	0785                	addi	a5,a5,1
     34e:	fcf42823          	sw	a5,-48(s0)
     352:	fd042703          	lw	a4,-48(s0)
     356:	4789                	li	a5,2
     358:	fae7f5e3          	bgeu	a5,a4,302 <init_data+0xd6>
     35c:	fd442783          	lw	a5,-44(s0)
     360:	0785                	addi	a5,a5,1
     362:	fcf42a23          	sw	a5,-44(s0)
     366:	fd442703          	lw	a4,-44(s0)
     36a:	4789                	li	a5,2
     36c:	f8e7f8e3          	bgeu	a5,a4,2fc <init_data+0xd0>
     370:	fd842783          	lw	a5,-40(s0)
     374:	0785                	addi	a5,a5,1
     376:	fcf42c23          	sw	a5,-40(s0)
     37a:	fd842703          	lw	a4,-40(s0)
     37e:	4795                	li	a5,5
     380:	f6e7fbe3          	bgeu	a5,a4,2f6 <init_data+0xca>
     384:	fdc42783          	lw	a5,-36(s0)
     388:	0785                	addi	a5,a5,1
     38a:	fcf42e23          	sw	a5,-36(s0)
     38e:	fdc42703          	lw	a4,-36(s0)
     392:	478d                	li	a5,3
     394:	f4e7fee3          	bgeu	a5,a4,2f0 <init_data+0xc4>
     398:	fc042623          	sw	zero,-52(s0)
     39c:	a04d                	j	43e <init_data+0x212>
     39e:	fc042423          	sw	zero,-56(s0)
     3a2:	a061                	j	42a <init_data+0x1fe>
     3a4:	fc042223          	sw	zero,-60(s0)
     3a8:	a0bd                	j	416 <init_data+0x1ea>
     3aa:	fc042023          	sw	zero,-64(s0)
     3ae:	a891                	j	402 <init_data+0x1d6>
     3b0:	fcc42703          	lw	a4,-52(s0)
     3b4:	87ba                	mv	a5,a4
     3b6:	078e                	slli	a5,a5,0x3
     3b8:	97ba                	add	a5,a5,a4
     3ba:	079a                	slli	a5,a5,0x6
     3bc:	873e                	mv	a4,a5
     3be:	fb442783          	lw	a5,-76(s0)
     3c2:	00e78633          	add	a2,a5,a4
     3c6:	fc442783          	lw	a5,-60(s0)
     3ca:	fc842683          	lw	a3,-56(s0)
     3ce:	873e                	mv	a4,a5
     3d0:	0706                	slli	a4,a4,0x1
     3d2:	973e                	add	a4,a4,a5
     3d4:	00171793          	slli	a5,a4,0x1
     3d8:	873e                	mv	a4,a5
     3da:	87b6                	mv	a5,a3
     3dc:	078e                	slli	a5,a5,0x3
     3de:	97b6                	add	a5,a5,a3
     3e0:	078a                	slli	a5,a5,0x2
     3e2:	973e                	add	a4,a4,a5
     3e4:	fc042783          	lw	a5,-64(s0)
     3e8:	97ba                	add	a5,a5,a4
     3ea:	078a                	slli	a5,a5,0x2
     3ec:	97b2                	add	a5,a5,a2
     3ee:	55555737          	lui	a4,0x55555
     3f2:	55570713          	addi	a4,a4,1365 # 55555555 <_peripheral_PLIC_end+0x4d555555>
     3f6:	c398                	sw	a4,0(a5)
     3f8:	fc042783          	lw	a5,-64(s0)
     3fc:	0785                	addi	a5,a5,1
     3fe:	fcf42023          	sw	a5,-64(s0)
     402:	fc042703          	lw	a4,-64(s0)
     406:	4795                	li	a5,5
     408:	fae7f4e3          	bgeu	a5,a4,3b0 <init_data+0x184>
     40c:	fc442783          	lw	a5,-60(s0)
     410:	0785                	addi	a5,a5,1
     412:	fcf42223          	sw	a5,-60(s0)
     416:	fc442703          	lw	a4,-60(s0)
     41a:	4795                	li	a5,5
     41c:	f8e7f7e3          	bgeu	a5,a4,3aa <init_data+0x17e>
     420:	fc842783          	lw	a5,-56(s0)
     424:	0785                	addi	a5,a5,1
     426:	fcf42423          	sw	a5,-56(s0)
     42a:	fc842703          	lw	a4,-56(s0)
     42e:	478d                	li	a5,3
     430:	f6e7fae3          	bgeu	a5,a4,3a4 <init_data+0x178>
     434:	fcc42783          	lw	a5,-52(s0)
     438:	0785                	addi	a5,a5,1
     43a:	fcf42623          	sw	a5,-52(s0)
     43e:	fcc42703          	lw	a4,-52(s0)
     442:	4785                	li	a5,1
     444:	f4e7fde3          	bgeu	a5,a4,39e <init_data+0x172>
     448:	0001                	nop
     44a:	0001                	nop
     44c:	4436                	lw	s0,76(sp)
     44e:	6161                	addi	sp,sp,80
     450:	8082                	ret

00000452 <compute_expected>:
     452:	7139                	addi	sp,sp,-64
     454:	de22                	sw	s0,60(sp)
     456:	0080                	addi	s0,sp,64
     458:	fca42623          	sw	a0,-52(s0)
     45c:	fcb42423          	sw	a1,-56(s0)
     460:	fcc42223          	sw	a2,-60(s0)
     464:	fe042623          	sw	zero,-20(s0)
     468:	aa79                	j	606 <compute_expected+0x1b4>
     46a:	fe042423          	sw	zero,-24(s0)
     46e:	a251                	j	5f2 <compute_expected+0x1a0>
     470:	fe042223          	sw	zero,-28(s0)
     474:	a2ad                	j	5de <compute_expected+0x18c>
     476:	fe042023          	sw	zero,-32(s0)
     47a:	aa81                	j	5ca <compute_expected+0x178>
     47c:	fc042e23          	sw	zero,-36(s0)
     480:	aa1d                	j	5b6 <compute_expected+0x164>
     482:	fc042c23          	sw	zero,-40(s0)
     486:	aa31                	j	5a2 <compute_expected+0x150>
     488:	fc042a23          	sw	zero,-44(s0)
     48c:	a209                	j	58e <compute_expected+0x13c>
     48e:	fec42703          	lw	a4,-20(s0)
     492:	87ba                	mv	a5,a4
     494:	078e                	slli	a5,a5,0x3
     496:	97ba                	add	a5,a5,a4
     498:	079a                	slli	a5,a5,0x6
     49a:	873e                	mv	a4,a5
     49c:	fc442783          	lw	a5,-60(s0)
     4a0:	00e78633          	add	a2,a5,a4
     4a4:	fe042783          	lw	a5,-32(s0)
     4a8:	fe842683          	lw	a3,-24(s0)
     4ac:	873e                	mv	a4,a5
     4ae:	0706                	slli	a4,a4,0x1
     4b0:	973e                	add	a4,a4,a5
     4b2:	00171793          	slli	a5,a4,0x1
     4b6:	873e                	mv	a4,a5
     4b8:	87b6                	mv	a5,a3
     4ba:	078e                	slli	a5,a5,0x3
     4bc:	97b6                	add	a5,a5,a3
     4be:	078a                	slli	a5,a5,0x2
     4c0:	973e                	add	a4,a4,a5
     4c2:	fdc42783          	lw	a5,-36(s0)
     4c6:	97ba                	add	a5,a5,a4
     4c8:	078a                	slli	a5,a5,0x2
     4ca:	97b2                	add	a5,a5,a2
     4cc:	4390                	lw	a2,0(a5)
     4ce:	fe842703          	lw	a4,-24(s0)
     4d2:	0d800793          	li	a5,216
     4d6:	02f707b3          	mul	a5,a4,a5
     4da:	fc842703          	lw	a4,-56(s0)
     4de:	00f705b3          	add	a1,a4,a5
     4e2:	fd842783          	lw	a5,-40(s0)
     4e6:	fe442683          	lw	a3,-28(s0)
     4ea:	873e                	mv	a4,a5
     4ec:	0706                	slli	a4,a4,0x1
     4ee:	973e                	add	a4,a4,a5
     4f0:	87b6                	mv	a5,a3
     4f2:	078e                	slli	a5,a5,0x3
     4f4:	97b6                	add	a5,a5,a3
     4f6:	973e                	add	a4,a4,a5
     4f8:	fd442783          	lw	a5,-44(s0)
     4fc:	97ba                	add	a5,a5,a4
     4fe:	078a                	slli	a5,a5,0x2
     500:	97ae                	add	a5,a5,a1
     502:	4394                	lw	a3,0(a5)
     504:	fec42703          	lw	a4,-20(s0)
     508:	87ba                	mv	a5,a4
     50a:	0786                	slli	a5,a5,0x1
     50c:	97ba                	add	a5,a5,a4
     50e:	07a6                	slli	a5,a5,0x9
     510:	873e                	mv	a4,a5
     512:	fcc42783          	lw	a5,-52(s0)
     516:	973e                	add	a4,a4,a5
     518:	fe042583          	lw	a1,-32(s0)
     51c:	fd842783          	lw	a5,-40(s0)
     520:	95be                	add	a1,a1,a5
     522:	fdc42503          	lw	a0,-36(s0)
     526:	fd442783          	lw	a5,-44(s0)
     52a:	97aa                	add	a5,a5,a0
     52c:	fe442503          	lw	a0,-28(s0)
     530:	050e                	slli	a0,a0,0x3
     532:	95aa                	add	a1,a1,a0
     534:	058e                	slli	a1,a1,0x3
     536:	97ae                	add	a5,a5,a1
     538:	078a                	slli	a5,a5,0x2
     53a:	97ba                	add	a5,a5,a4
     53c:	439c                	lw	a5,0(a5)
     53e:	02f686b3          	mul	a3,a3,a5
     542:	fec42703          	lw	a4,-20(s0)
     546:	87ba                	mv	a5,a4
     548:	078e                	slli	a5,a5,0x3
     54a:	97ba                	add	a5,a5,a4
     54c:	079a                	slli	a5,a5,0x6
     54e:	873e                	mv	a4,a5
     550:	fc442783          	lw	a5,-60(s0)
     554:	00e785b3          	add	a1,a5,a4
     558:	9636                	add	a2,a2,a3
     55a:	fe042783          	lw	a5,-32(s0)
     55e:	fe842683          	lw	a3,-24(s0)
     562:	873e                	mv	a4,a5
     564:	0706                	slli	a4,a4,0x1
     566:	973e                	add	a4,a4,a5
     568:	00171793          	slli	a5,a4,0x1
     56c:	873e                	mv	a4,a5
     56e:	87b6                	mv	a5,a3
     570:	078e                	slli	a5,a5,0x3
     572:	97b6                	add	a5,a5,a3
     574:	078a                	slli	a5,a5,0x2
     576:	973e                	add	a4,a4,a5
     578:	fdc42783          	lw	a5,-36(s0)
     57c:	97ba                	add	a5,a5,a4
     57e:	078a                	slli	a5,a5,0x2
     580:	97ae                	add	a5,a5,a1
     582:	c390                	sw	a2,0(a5)
     584:	fd442783          	lw	a5,-44(s0)
     588:	0785                	addi	a5,a5,1
     58a:	fcf42a23          	sw	a5,-44(s0)
     58e:	fd442703          	lw	a4,-44(s0)
     592:	4789                	li	a5,2
     594:	eee7fde3          	bgeu	a5,a4,48e <compute_expected+0x3c>
     598:	fd842783          	lw	a5,-40(s0)
     59c:	0785                	addi	a5,a5,1
     59e:	fcf42c23          	sw	a5,-40(s0)
     5a2:	fd842703          	lw	a4,-40(s0)
     5a6:	4789                	li	a5,2
     5a8:	eee7f0e3          	bgeu	a5,a4,488 <compute_expected+0x36>
     5ac:	fdc42783          	lw	a5,-36(s0)
     5b0:	0785                	addi	a5,a5,1
     5b2:	fcf42e23          	sw	a5,-36(s0)
     5b6:	fdc42703          	lw	a4,-36(s0)
     5ba:	4795                	li	a5,5
     5bc:	ece7f3e3          	bgeu	a5,a4,482 <compute_expected+0x30>
     5c0:	fe042783          	lw	a5,-32(s0)
     5c4:	0785                	addi	a5,a5,1
     5c6:	fef42023          	sw	a5,-32(s0)
     5ca:	fe042703          	lw	a4,-32(s0)
     5ce:	4795                	li	a5,5
     5d0:	eae7f6e3          	bgeu	a5,a4,47c <compute_expected+0x2a>
     5d4:	fe442783          	lw	a5,-28(s0)
     5d8:	0785                	addi	a5,a5,1
     5da:	fef42223          	sw	a5,-28(s0)
     5de:	fe442703          	lw	a4,-28(s0)
     5e2:	4795                	li	a5,5
     5e4:	e8e7f9e3          	bgeu	a5,a4,476 <compute_expected+0x24>
     5e8:	fe842783          	lw	a5,-24(s0)
     5ec:	0785                	addi	a5,a5,1
     5ee:	fef42423          	sw	a5,-24(s0)
     5f2:	fe842703          	lw	a4,-24(s0)
     5f6:	478d                	li	a5,3
     5f8:	e6e7fce3          	bgeu	a5,a4,470 <compute_expected+0x1e>
     5fc:	fec42783          	lw	a5,-20(s0)
     600:	0785                	addi	a5,a5,1
     602:	fef42623          	sw	a5,-20(s0)
     606:	fec42703          	lw	a4,-20(s0)
     60a:	4785                	li	a5,1
     60c:	e4e7ffe3          	bgeu	a5,a4,46a <compute_expected+0x18>
     610:	0001                	nop
     612:	0001                	nop
     614:	5472                	lw	s0,60(sp)
     616:	6121                	addi	sp,sp,64
     618:	8082                	ret

0000061a <check_values>:
     61a:	7179                	addi	sp,sp,-48
     61c:	d606                	sw	ra,44(sp)
     61e:	d422                	sw	s0,40(sp)
     620:	1800                	addi	s0,sp,48
     622:	fca42e23          	sw	a0,-36(s0)
     626:	fcb42c23          	sw	a1,-40(s0)
     62a:	fe042623          	sw	zero,-20(s0)
     62e:	ac39                	j	84c <check_values+0x232>
     630:	fe042423          	sw	zero,-24(s0)
     634:	a411                	j	838 <check_values+0x21e>
     636:	fe042223          	sw	zero,-28(s0)
     63a:	a2ed                	j	824 <check_values+0x20a>
     63c:	fe042023          	sw	zero,-32(s0)
     640:	aac1                	j	810 <check_values+0x1f6>
     642:	fec42703          	lw	a4,-20(s0)
     646:	87ba                	mv	a5,a4
     648:	078e                	slli	a5,a5,0x3
     64a:	97ba                	add	a5,a5,a4
     64c:	079a                	slli	a5,a5,0x6
     64e:	873e                	mv	a4,a5
     650:	fdc42783          	lw	a5,-36(s0)
     654:	00e78633          	add	a2,a5,a4
     658:	fe442783          	lw	a5,-28(s0)
     65c:	fe842683          	lw	a3,-24(s0)
     660:	873e                	mv	a4,a5
     662:	0706                	slli	a4,a4,0x1
     664:	973e                	add	a4,a4,a5
     666:	00171793          	slli	a5,a4,0x1
     66a:	873e                	mv	a4,a5
     66c:	87b6                	mv	a5,a3
     66e:	078e                	slli	a5,a5,0x3
     670:	97b6                	add	a5,a5,a3
     672:	078a                	slli	a5,a5,0x2
     674:	973e                	add	a4,a4,a5
     676:	fe042783          	lw	a5,-32(s0)
     67a:	97ba                	add	a5,a5,a4
     67c:	078a                	slli	a5,a5,0x2
     67e:	97b2                	add	a5,a5,a2
     680:	4390                	lw	a2,0(a5)
     682:	fec42703          	lw	a4,-20(s0)
     686:	87ba                	mv	a5,a4
     688:	078e                	slli	a5,a5,0x3
     68a:	97ba                	add	a5,a5,a4
     68c:	079a                	slli	a5,a5,0x6
     68e:	873e                	mv	a4,a5
     690:	fd842783          	lw	a5,-40(s0)
     694:	00e785b3          	add	a1,a5,a4
     698:	fe442783          	lw	a5,-28(s0)
     69c:	fe842683          	lw	a3,-24(s0)
     6a0:	873e                	mv	a4,a5
     6a2:	0706                	slli	a4,a4,0x1
     6a4:	973e                	add	a4,a4,a5
     6a6:	00171793          	slli	a5,a4,0x1
     6aa:	873e                	mv	a4,a5
     6ac:	87b6                	mv	a5,a3
     6ae:	078e                	slli	a5,a5,0x3
     6b0:	97b6                	add	a5,a5,a3
     6b2:	078a                	slli	a5,a5,0x2
     6b4:	973e                	add	a4,a4,a5
     6b6:	fe042783          	lw	a5,-32(s0)
     6ba:	97ba                	add	a5,a5,a4
     6bc:	078a                	slli	a5,a5,0x2
     6be:	97ae                	add	a5,a5,a1
     6c0:	439c                	lw	a5,0(a5)
     6c2:	0af60363          	beq	a2,a5,768 <check_values+0x14e>
     6c6:	fec42703          	lw	a4,-20(s0)
     6ca:	87ba                	mv	a5,a4
     6cc:	078e                	slli	a5,a5,0x3
     6ce:	97ba                	add	a5,a5,a4
     6d0:	079a                	slli	a5,a5,0x6
     6d2:	873e                	mv	a4,a5
     6d4:	fd842783          	lw	a5,-40(s0)
     6d8:	00e78633          	add	a2,a5,a4
     6dc:	fe442783          	lw	a5,-28(s0)
     6e0:	fe842683          	lw	a3,-24(s0)
     6e4:	873e                	mv	a4,a5
     6e6:	0706                	slli	a4,a4,0x1
     6e8:	973e                	add	a4,a4,a5
     6ea:	00171793          	slli	a5,a4,0x1
     6ee:	873e                	mv	a4,a5
     6f0:	87b6                	mv	a5,a3
     6f2:	078e                	slli	a5,a5,0x3
     6f4:	97b6                	add	a5,a5,a3
     6f6:	078a                	slli	a5,a5,0x2
     6f8:	973e                	add	a4,a4,a5
     6fa:	fe042783          	lw	a5,-32(s0)
     6fe:	97ba                	add	a5,a5,a4
     700:	078a                	slli	a5,a5,0x2
     702:	97b2                	add	a5,a5,a2
     704:	438c                	lw	a1,0(a5)
     706:	fec42703          	lw	a4,-20(s0)
     70a:	87ba                	mv	a5,a4
     70c:	078e                	slli	a5,a5,0x3
     70e:	97ba                	add	a5,a5,a4
     710:	079a                	slli	a5,a5,0x6
     712:	873e                	mv	a4,a5
     714:	fdc42783          	lw	a5,-36(s0)
     718:	00e78633          	add	a2,a5,a4
     71c:	fe442783          	lw	a5,-28(s0)
     720:	fe842683          	lw	a3,-24(s0)
     724:	873e                	mv	a4,a5
     726:	0706                	slli	a4,a4,0x1
     728:	973e                	add	a4,a4,a5
     72a:	00171793          	slli	a5,a4,0x1
     72e:	873e                	mv	a4,a5
     730:	87b6                	mv	a5,a3
     732:	078e                	slli	a5,a5,0x3
     734:	97b6                	add	a5,a5,a3
     736:	078a                	slli	a5,a5,0x2
     738:	973e                	add	a4,a4,a5
     73a:	fe042783          	lw	a5,-32(s0)
     73e:	97ba                	add	a5,a5,a4
     740:	078a                	slli	a5,a5,0x2
     742:	97b2                	add	a5,a5,a2
     744:	439c                	lw	a5,0(a5)
     746:	883e                	mv	a6,a5
     748:	87ae                	mv	a5,a1
     74a:	fe042703          	lw	a4,-32(s0)
     74e:	fe442683          	lw	a3,-28(s0)
     752:	fe842603          	lw	a2,-24(s0)
     756:	fec42583          	lw	a1,-20(s0)
     75a:	6509                	lui	a0,0x2
     75c:	c2050513          	addi	a0,a0,-992 # 1c20 <_text_end>
     760:	290010ef          	jal	19f0 <printf_>
     764:	4781                	li	a5,0
     766:	a8cd                	j	858 <check_values+0x23e>
     768:	fec42703          	lw	a4,-20(s0)
     76c:	87ba                	mv	a5,a4
     76e:	078e                	slli	a5,a5,0x3
     770:	97ba                	add	a5,a5,a4
     772:	079a                	slli	a5,a5,0x6
     774:	873e                	mv	a4,a5
     776:	fd842783          	lw	a5,-40(s0)
     77a:	00e78633          	add	a2,a5,a4
     77e:	fe442783          	lw	a5,-28(s0)
     782:	fe842683          	lw	a3,-24(s0)
     786:	873e                	mv	a4,a5
     788:	0706                	slli	a4,a4,0x1
     78a:	973e                	add	a4,a4,a5
     78c:	00171793          	slli	a5,a4,0x1
     790:	873e                	mv	a4,a5
     792:	87b6                	mv	a5,a3
     794:	078e                	slli	a5,a5,0x3
     796:	97b6                	add	a5,a5,a3
     798:	078a                	slli	a5,a5,0x2
     79a:	973e                	add	a4,a4,a5
     79c:	fe042783          	lw	a5,-32(s0)
     7a0:	97ba                	add	a5,a5,a4
     7a2:	078a                	slli	a5,a5,0x2
     7a4:	97b2                	add	a5,a5,a2
     7a6:	438c                	lw	a1,0(a5)
     7a8:	fec42703          	lw	a4,-20(s0)
     7ac:	87ba                	mv	a5,a4
     7ae:	078e                	slli	a5,a5,0x3
     7b0:	97ba                	add	a5,a5,a4
     7b2:	079a                	slli	a5,a5,0x6
     7b4:	873e                	mv	a4,a5
     7b6:	fdc42783          	lw	a5,-36(s0)
     7ba:	00e78633          	add	a2,a5,a4
     7be:	fe442783          	lw	a5,-28(s0)
     7c2:	fe842683          	lw	a3,-24(s0)
     7c6:	873e                	mv	a4,a5
     7c8:	0706                	slli	a4,a4,0x1
     7ca:	973e                	add	a4,a4,a5
     7cc:	00171793          	slli	a5,a4,0x1
     7d0:	873e                	mv	a4,a5
     7d2:	87b6                	mv	a5,a3
     7d4:	078e                	slli	a5,a5,0x3
     7d6:	97b6                	add	a5,a5,a3
     7d8:	078a                	slli	a5,a5,0x2
     7da:	973e                	add	a4,a4,a5
     7dc:	fe042783          	lw	a5,-32(s0)
     7e0:	97ba                	add	a5,a5,a4
     7e2:	078a                	slli	a5,a5,0x2
     7e4:	97b2                	add	a5,a5,a2
     7e6:	439c                	lw	a5,0(a5)
     7e8:	883e                	mv	a6,a5
     7ea:	87ae                	mv	a5,a1
     7ec:	fe042703          	lw	a4,-32(s0)
     7f0:	fe442683          	lw	a3,-28(s0)
     7f4:	fe842603          	lw	a2,-24(s0)
     7f8:	fec42583          	lw	a1,-20(s0)
     7fc:	6509                	lui	a0,0x2
     7fe:	c5c50513          	addi	a0,a0,-932 # 1c5c <_text_end+0x3c>
     802:	1ee010ef          	jal	19f0 <printf_>
     806:	fe042783          	lw	a5,-32(s0)
     80a:	0785                	addi	a5,a5,1
     80c:	fef42023          	sw	a5,-32(s0)
     810:	fe042703          	lw	a4,-32(s0)
     814:	4795                	li	a5,5
     816:	e2e7f6e3          	bgeu	a5,a4,642 <check_values+0x28>
     81a:	fe442783          	lw	a5,-28(s0)
     81e:	0785                	addi	a5,a5,1
     820:	fef42223          	sw	a5,-28(s0)
     824:	fe442703          	lw	a4,-28(s0)
     828:	4795                	li	a5,5
     82a:	e0e7f9e3          	bgeu	a5,a4,63c <check_values+0x22>
     82e:	fe842783          	lw	a5,-24(s0)
     832:	0785                	addi	a5,a5,1
     834:	fef42423          	sw	a5,-24(s0)
     838:	fe842703          	lw	a4,-24(s0)
     83c:	478d                	li	a5,3
     83e:	dee7fce3          	bgeu	a5,a4,636 <check_values+0x1c>
     842:	fec42783          	lw	a5,-20(s0)
     846:	0785                	addi	a5,a5,1
     848:	fef42623          	sw	a5,-20(s0)
     84c:	fec42703          	lw	a4,-20(s0)
     850:	4785                	li	a5,1
     852:	dce7ffe3          	bgeu	a5,a4,630 <check_values+0x16>
     856:	4785                	li	a5,1
     858:	853e                	mv	a0,a5
     85a:	50b2                	lw	ra,44(sp)
     85c:	5422                	lw	s0,40(sp)
     85e:	6145                	addi	sp,sp,48
     860:	8082                	ret

00000862 <dump_csrs>:
     862:	1101                	addi	sp,sp,-32
     864:	ce06                	sw	ra,28(sp)
     866:	cc22                	sw	s0,24(sp)
     868:	1000                	addi	s0,sp,32
     86a:	57fd                	li	a5,-1
     86c:	fef42623          	sw	a5,-20(s0)
     870:	6789                	lui	a5,0x2
     872:	c9478513          	addi	a0,a5,-876 # 1c94 <_text_end+0x74>
     876:	17a010ef          	jal	19f0 <printf_>
     87a:	000307b7          	lui	a5,0x30
     87e:	00078793          	mv	a5,a5
     882:	853e                	mv	a0,a5
     884:	32a5                	jal	1ec <Xil_In32>
     886:	87aa                	mv	a5,a0
     888:	85be                	mv	a1,a5
     88a:	6789                	lui	a5,0x2
     88c:	ca078513          	addi	a0,a5,-864 # 1ca0 <_text_end+0x80>
     890:	160010ef          	jal	19f0 <printf_>
     894:	000307b7          	lui	a5,0x30
     898:	00078793          	mv	a5,a5
     89c:	07c1                	addi	a5,a5,16 # 30010 <_peripheral_HLS_CONTROL_start+0x10>
     89e:	853e                	mv	a0,a5
     8a0:	32b1                	jal	1ec <Xil_In32>
     8a2:	87aa                	mv	a5,a0
     8a4:	85be                	mv	a1,a5
     8a6:	6789                	lui	a5,0x2
     8a8:	cbc78513          	addi	a0,a5,-836 # 1cbc <_text_end+0x9c>
     8ac:	144010ef          	jal	19f0 <printf_>
     8b0:	000307b7          	lui	a5,0x30
     8b4:	00078793          	mv	a5,a5
     8b8:	0791                	addi	a5,a5,4 # 30004 <_peripheral_HLS_CONTROL_start+0x4>
     8ba:	853e                	mv	a0,a5
     8bc:	3a05                	jal	1ec <Xil_In32>
     8be:	87aa                	mv	a5,a0
     8c0:	85be                	mv	a1,a5
     8c2:	6789                	lui	a5,0x2
     8c4:	cd878513          	addi	a0,a5,-808 # 1cd8 <_text_end+0xb8>
     8c8:	128010ef          	jal	19f0 <printf_>
     8cc:	000307b7          	lui	a5,0x30
     8d0:	00078793          	mv	a5,a5
     8d4:	07f1                	addi	a5,a5,28 # 3001c <_peripheral_HLS_CONTROL_start+0x1c>
     8d6:	853e                	mv	a0,a5
     8d8:	3a11                	jal	1ec <Xil_In32>
     8da:	87aa                	mv	a5,a0
     8dc:	85be                	mv	a1,a5
     8de:	6789                	lui	a5,0x2
     8e0:	cf478513          	addi	a0,a5,-780 # 1cf4 <_text_end+0xd4>
     8e4:	10c010ef          	jal	19f0 <printf_>
     8e8:	000307b7          	lui	a5,0x30
     8ec:	00078793          	mv	a5,a5
     8f0:	07a1                	addi	a5,a5,8 # 30008 <_peripheral_HLS_CONTROL_start+0x8>
     8f2:	853e                	mv	a0,a5
     8f4:	38e5                	jal	1ec <Xil_In32>
     8f6:	87aa                	mv	a5,a0
     8f8:	85be                	mv	a1,a5
     8fa:	6789                	lui	a5,0x2
     8fc:	d1078513          	addi	a0,a5,-752 # 1d10 <_text_end+0xf0>
     900:	0f0010ef          	jal	19f0 <printf_>
     904:	000307b7          	lui	a5,0x30
     908:	00078793          	mv	a5,a5
     90c:	02878793          	addi	a5,a5,40 # 30028 <_peripheral_HLS_CONTROL_start+0x28>
     910:	853e                	mv	a0,a5
     912:	38e9                	jal	1ec <Xil_In32>
     914:	87aa                	mv	a5,a0
     916:	85be                	mv	a1,a5
     918:	6789                	lui	a5,0x2
     91a:	d2c78513          	addi	a0,a5,-724 # 1d2c <_text_end+0x10c>
     91e:	0d2010ef          	jal	19f0 <printf_>
     922:	000307b7          	lui	a5,0x30
     926:	00078793          	mv	a5,a5
     92a:	07b1                	addi	a5,a5,12 # 3000c <_peripheral_HLS_CONTROL_start+0xc>
     92c:	853e                	mv	a0,a5
     92e:	387d                	jal	1ec <Xil_In32>
     930:	87aa                	mv	a5,a0
     932:	85be                	mv	a1,a5
     934:	6789                	lui	a5,0x2
     936:	d4878513          	addi	a0,a5,-696 # 1d48 <_text_end+0x128>
     93a:	0b6010ef          	jal	19f0 <printf_>
     93e:	0001                	nop
     940:	40f2                	lw	ra,28(sp)
     942:	4462                	lw	s0,24(sp)
     944:	6105                	addi	sp,sp,32
     946:	8082                	ret

00000948 <print_control_csr>:
     948:	1101                	addi	sp,sp,-32
     94a:	ce06                	sw	ra,28(sp)
     94c:	cc22                	sw	s0,24(sp)
     94e:	1000                	addi	s0,sp,32
     950:	fea42623          	sw	a0,-20(s0)
     954:	fec42583          	lw	a1,-20(s0)
     958:	6789                	lui	a5,0x2
     95a:	d6478513          	addi	a0,a5,-668 # 1d64 <_text_end+0x144>
     95e:	092010ef          	jal	19f0 <printf_>
     962:	fec42783          	lw	a5,-20(s0)
     966:	8b85                	andi	a5,a5,1
     968:	85be                	mv	a1,a5
     96a:	6789                	lui	a5,0x2
     96c:	d7878513          	addi	a0,a5,-648 # 1d78 <_text_end+0x158>
     970:	080010ef          	jal	19f0 <printf_>
     974:	fec42783          	lw	a5,-20(s0)
     978:	8385                	srli	a5,a5,0x1
     97a:	8b85                	andi	a5,a5,1
     97c:	85be                	mv	a1,a5
     97e:	6789                	lui	a5,0x2
     980:	d9478513          	addi	a0,a5,-620 # 1d94 <_text_end+0x174>
     984:	06c010ef          	jal	19f0 <printf_>
     988:	fec42783          	lw	a5,-20(s0)
     98c:	8389                	srli	a5,a5,0x2
     98e:	8b85                	andi	a5,a5,1
     990:	85be                	mv	a1,a5
     992:	6789                	lui	a5,0x2
     994:	db078513          	addi	a0,a5,-592 # 1db0 <_text_end+0x190>
     998:	058010ef          	jal	19f0 <printf_>
     99c:	fec42783          	lw	a5,-20(s0)
     9a0:	838d                	srli	a5,a5,0x3
     9a2:	8b85                	andi	a5,a5,1
     9a4:	85be                	mv	a1,a5
     9a6:	6789                	lui	a5,0x2
     9a8:	dcc78513          	addi	a0,a5,-564 # 1dcc <_text_end+0x1ac>
     9ac:	044010ef          	jal	19f0 <printf_>
     9b0:	fec42783          	lw	a5,-20(s0)
     9b4:	8391                	srli	a5,a5,0x4
     9b6:	8b85                	andi	a5,a5,1
     9b8:	85be                	mv	a1,a5
     9ba:	6789                	lui	a5,0x2
     9bc:	de878513          	addi	a0,a5,-536 # 1de8 <_text_end+0x1c8>
     9c0:	030010ef          	jal	19f0 <printf_>
     9c4:	fec42783          	lw	a5,-20(s0)
     9c8:	839d                	srli	a5,a5,0x7
     9ca:	8b85                	andi	a5,a5,1
     9cc:	85be                	mv	a1,a5
     9ce:	6789                	lui	a5,0x2
     9d0:	e0478513          	addi	a0,a5,-508 # 1e04 <_text_end+0x1e4>
     9d4:	01c010ef          	jal	19f0 <printf_>
     9d8:	fec42783          	lw	a5,-20(s0)
     9dc:	83a5                	srli	a5,a5,0x9
     9de:	8b85                	andi	a5,a5,1
     9e0:	85be                	mv	a1,a5
     9e2:	6789                	lui	a5,0x2
     9e4:	e2078513          	addi	a0,a5,-480 # 1e20 <_text_end+0x200>
     9e8:	008010ef          	jal	19f0 <printf_>
     9ec:	0001                	nop
     9ee:	40f2                	lw	ra,28(sp)
     9f0:	4462                	lw	s0,24(sp)
     9f2:	6105                	addi	sp,sp,32
     9f4:	8082                	ret

000009f6 <main>:
     9f6:	bf010113          	addi	sp,sp,-1040
     9fa:	40112623          	sw	ra,1036(sp)
     9fe:	40812423          	sw	s0,1032(sp)
     a02:	40912223          	sw	s1,1028(sp)
     a06:	41212023          	sw	s2,1024(sp)
     a0a:	41010413          	addi	s0,sp,1040
     a0e:	72f9                	lui	t0,0xffffe
     a10:	9116                	add	sp,sp,t0
     a12:	ff040793          	addi	a5,s0,-16
     a16:	76f9                	lui	a3,0xffffe
     a18:	bfc68713          	addi	a4,a3,-1028 # ffffdbfc <_peripheral_PLIC_end+0xf7ffdbfc>
     a1c:	9722                	add	a4,a4,s0
     a1e:	c31c                	sw	a5,0(a4)
     a20:	77f9                	lui	a5,0xffffe
     a22:	c1078793          	addi	a5,a5,-1008 # ffffdc10 <_peripheral_PLIC_end+0xf7ffdc10>
     a26:	bfc68713          	addi	a4,a3,-1028
     a2a:	9722                	add	a4,a4,s0
     a2c:	4318                	lw	a4,0(a4)
     a2e:	97ba                	add	a5,a5,a4
     a30:	7ff78793          	addi	a5,a5,2047
     a34:	83ad                	srli	a5,a5,0xb
     a36:	00b79493          	slli	s1,a5,0xb
     a3a:	000207b7          	lui	a5,0x20
     a3e:	00078793          	mv	a5,a5
     a42:	853e                	mv	a0,a5
     a44:	144010ef          	jal	1b88 <tinyIO_init>
     a48:	b6440793          	addi	a5,s0,-1180
     a4c:	48000713          	li	a4,1152
     a50:	863a                	mv	a2,a4
     a52:	4581                	li	a1,0
     a54:	853e                	mv	a0,a5
     a56:	f5eff0ef          	jal	1b4 <memset>
     a5a:	6789                	lui	a5,0x2
     a5c:	e3c78513          	addi	a0,a5,-452 # 1e3c <_text_end+0x21c>
     a60:	791000ef          	jal	19f0 <printf_>
     a64:	6789                	lui	a5,0x2
     a66:	e4078513          	addi	a0,a5,-448 # 1e40 <_text_end+0x220>
     a6a:	787000ef          	jal	19f0 <printf_>
     a6e:	6789                	lui	a5,0x2
     a70:	e5478513          	addi	a0,a5,-428 # 1e54 <_text_end+0x234>
     a74:	77d000ef          	jal	19f0 <printf_>
     a78:	6789                	lui	a5,0x2
     a7a:	e4078513          	addi	a0,a5,-448 # 1e40 <_text_end+0x220>
     a7e:	773000ef          	jal	19f0 <printf_>
     a82:	6789                	lui	a5,0x2
     a84:	e3c78513          	addi	a0,a5,-452 # 1e3c <_text_end+0x21c>
     a88:	769000ef          	jal	19f0 <printf_>
     a8c:	6785                	lui	a5,0x1
     a8e:	c0078793          	addi	a5,a5,-1024 # c00 <main+0x20a>
     a92:	00f48733          	add	a4,s1,a5
     a96:	6785                	lui	a5,0x1
     a98:	40078793          	addi	a5,a5,1024 # 1400 <_vsnprintf+0x22c>
     a9c:	97a6                	add	a5,a5,s1
     a9e:	863a                	mv	a2,a4
     aa0:	85be                	mv	a1,a5
     aa2:	8526                	mv	a0,s1
     aa4:	f88ff0ef          	jal	22c <init_data>
     aa8:	6789                	lui	a5,0x2
     aaa:	e6c78513          	addi	a0,a5,-404 # 1e6c <_text_end+0x24c>
     aae:	743000ef          	jal	19f0 <printf_>
     ab2:	b6440713          	addi	a4,s0,-1180
     ab6:	6785                	lui	a5,0x1
     ab8:	40078793          	addi	a5,a5,1024 # 1400 <_vsnprintf+0x22c>
     abc:	97a6                	add	a5,a5,s1
     abe:	863a                	mv	a2,a4
     ac0:	85be                	mv	a1,a5
     ac2:	8526                	mv	a0,s1
     ac4:	3279                	jal	452 <compute_expected>
     ac6:	6789                	lui	a5,0x2
     ac8:	e8878513          	addi	a0,a5,-376 # 1e88 <_text_end+0x268>
     acc:	725000ef          	jal	19f0 <printf_>
     ad0:	fe842503          	lw	a0,-24(s0)
     ad4:	3d95                	jal	948 <print_control_csr>
     ad6:	fe042623          	sw	zero,-20(s0)
     ada:	fec42783          	lw	a5,-20(s0)
     ade:	0785                	addi	a5,a5,1
     ae0:	fef42623          	sw	a5,-20(s0)
     ae4:	fec42703          	lw	a4,-20(s0)
     ae8:	6789                	lui	a5,0x2
     aea:	71078793          	addi	a5,a5,1808 # 2710 <global_uart+0x7c0>
     aee:	02f71363          	bne	a4,a5,b14 <main+0x11e>
     af2:	fe042623          	sw	zero,-20(s0)
     af6:	57fd                	li	a5,-1
     af8:	fef42423          	sw	a5,-24(s0)
     afc:	000307b7          	lui	a5,0x30
     b00:	00078793          	mv	a5,a5
     b04:	853e                	mv	a0,a5
     b06:	ee6ff0ef          	jal	1ec <Xil_In32>
     b0a:	fea42423          	sw	a0,-24(s0)
     b0e:	fe842503          	lw	a0,-24(s0)
     b12:	3d1d                	jal	948 <print_control_csr>
     b14:	000307b7          	lui	a5,0x30
     b18:	00078793          	mv	a5,a5
     b1c:	07b1                	addi	a5,a5,12 # 3000c <_peripheral_HLS_CONTROL_start+0xc>
     b1e:	853e                	mv	a0,a5
     b20:	eccff0ef          	jal	1ec <Xil_In32>
     b24:	87aa                	mv	a5,a0
     b26:	8b89                	andi	a5,a5,2
     b28:	fbcd                	bnez	a5,ada <main+0xe4>
     b2a:	000307b7          	lui	a5,0x30
     b2e:	00078793          	mv	a5,a5
     b32:	07c1                	addi	a5,a5,16 # 30010 <_peripheral_HLS_CONTROL_start+0x10>
     b34:	8726                	mv	a4,s1
     b36:	85ba                	mv	a1,a4
     b38:	853e                	mv	a0,a5
     b3a:	ecaff0ef          	jal	204 <Xil_Out32>
     b3e:	000307b7          	lui	a5,0x30
     b42:	00078793          	mv	a5,a5
     b46:	01c78713          	addi	a4,a5,28 # 3001c <_peripheral_HLS_CONTROL_start+0x1c>
     b4a:	6785                	lui	a5,0x1
     b4c:	40078793          	addi	a5,a5,1024 # 1400 <_vsnprintf+0x22c>
     b50:	97a6                	add	a5,a5,s1
     b52:	85be                	mv	a1,a5
     b54:	853a                	mv	a0,a4
     b56:	eaeff0ef          	jal	204 <Xil_Out32>
     b5a:	000307b7          	lui	a5,0x30
     b5e:	00078793          	mv	a5,a5
     b62:	02878713          	addi	a4,a5,40 # 30028 <_peripheral_HLS_CONTROL_start+0x28>
     b66:	6785                	lui	a5,0x1
     b68:	c0078793          	addi	a5,a5,-1024 # c00 <main+0x20a>
     b6c:	97a6                	add	a5,a5,s1
     b6e:	85be                	mv	a1,a5
     b70:	853a                	mv	a0,a4
     b72:	e92ff0ef          	jal	204 <Xil_Out32>
     b76:	000307b7          	lui	a5,0x30
     b7a:	00078793          	mv	a5,a5
     b7e:	459d                	li	a1,7
     b80:	853e                	mv	a0,a5
     b82:	e82ff0ef          	jal	204 <Xil_Out32>
     b86:	000307b7          	lui	a5,0x30
     b8a:	00078913          	mv	s2,a5
     b8e:	000307b7          	lui	a5,0x30
     b92:	00078793          	mv	a5,a5
     b96:	853e                	mv	a0,a5
     b98:	e54ff0ef          	jal	1ec <Xil_In32>
     b9c:	87aa                	mv	a5,a0
     b9e:	0807f793          	andi	a5,a5,128
     ba2:	0017e793          	ori	a5,a5,1
     ba6:	85be                	mv	a1,a5
     ba8:	854a                	mv	a0,s2
     baa:	e5aff0ef          	jal	204 <Xil_Out32>
     bae:	6789                	lui	a5,0x2
     bb0:	ea078513          	addi	a0,a5,-352 # 1ea0 <_text_end+0x280>
     bb4:	63d000ef          	jal	19f0 <printf_>
     bb8:	fe042623          	sw	zero,-20(s0)
     bbc:	fec42783          	lw	a5,-20(s0)
     bc0:	0785                	addi	a5,a5,1
     bc2:	fef42623          	sw	a5,-20(s0)
     bc6:	fec42703          	lw	a4,-20(s0)
     bca:	6789                	lui	a5,0x2
     bcc:	71078793          	addi	a5,a5,1808 # 2710 <global_uart+0x7c0>
     bd0:	02f71363          	bne	a4,a5,bf6 <main+0x200>
     bd4:	fe042623          	sw	zero,-20(s0)
     bd8:	57fd                	li	a5,-1
     bda:	fef42423          	sw	a5,-24(s0)
     bde:	000307b7          	lui	a5,0x30
     be2:	00078793          	mv	a5,a5
     be6:	853e                	mv	a0,a5
     be8:	e04ff0ef          	jal	1ec <Xil_In32>
     bec:	fea42423          	sw	a0,-24(s0)
     bf0:	fe842503          	lw	a0,-24(s0)
     bf4:	3b91                	jal	948 <print_control_csr>
     bf6:	000307b7          	lui	a5,0x30
     bfa:	00078793          	mv	a5,a5
     bfe:	07b1                	addi	a5,a5,12 # 3000c <_peripheral_HLS_CONTROL_start+0xc>
     c00:	853e                	mv	a0,a5
     c02:	deaff0ef          	jal	1ec <Xil_In32>
     c06:	87aa                	mv	a5,a0
     c08:	8b85                	andi	a5,a5,1
     c0a:	fbcd                	bnez	a5,bbc <main+0x1c6>
     c0c:	3999                	jal	862 <dump_csrs>
     c0e:	6789                	lui	a5,0x2
     c10:	eb878513          	addi	a0,a5,-328 # 1eb8 <_text_end+0x298>
     c14:	5dd000ef          	jal	19f0 <printf_>
     c18:	b6440713          	addi	a4,s0,-1180
     c1c:	6785                	lui	a5,0x1
     c1e:	c0078793          	addi	a5,a5,-1024 # c00 <main+0x20a>
     c22:	97a6                	add	a5,a5,s1
     c24:	85ba                	mv	a1,a4
     c26:	853e                	mv	a0,a5
     c28:	3acd                	jal	61a <check_values>
     c2a:	87aa                	mv	a5,a0
     c2c:	00f037b3          	snez	a5,a5
     c30:	fef403a3          	sb	a5,-25(s0)
     c34:	fe744783          	lbu	a5,-25(s0)
     c38:	0017c793          	xori	a5,a5,1
     c3c:	0ff7f793          	zext.b	a5,a5
     c40:	cb81                	beqz	a5,c50 <main+0x25a>
     c42:	6789                	lui	a5,0x2
     c44:	ed878513          	addi	a0,a5,-296 # 1ed8 <_text_end+0x2b8>
     c48:	5a9000ef          	jal	19f0 <printf_>
     c4c:	4785                	li	a5,1
     c4e:	a039                	j	c5c <main+0x266>
     c50:	6789                	lui	a5,0x2
     c52:	ef078513          	addi	a0,a5,-272 # 1ef0 <_text_end+0x2d0>
     c56:	59b000ef          	jal	19f0 <printf_>
     c5a:	4781                	li	a5,0
     c5c:	853e                	mv	a0,a5
     c5e:	6289                	lui	t0,0x2
     c60:	9116                	add	sp,sp,t0
     c62:	40c12083          	lw	ra,1036(sp)
     c66:	40812403          	lw	s0,1032(sp)
     c6a:	40412483          	lw	s1,1028(sp)
     c6e:	40012903          	lw	s2,1024(sp)
     c72:	41010113          	addi	sp,sp,1040
     c76:	8082                	ret

00000c78 <_out_buffer>:
     c78:	00d67663          	bgeu	a2,a3,c84 <_out_buffer+0xc>
     c7c:	00c585b3          	add	a1,a1,a2
     c80:	00a58023          	sb	a0,0(a1)
     c84:	00008067          	ret

00000c88 <_out_null>:
     c88:	00008067          	ret

00000c8c <_ntoa_long>:
     c8c:	fb010113          	addi	sp,sp,-80
     c90:	05412e03          	lw	t3,84(sp)
     c94:	04912223          	sw	s1,68(sp)
     c98:	05212023          	sw	s2,64(sp)
     c9c:	03312e23          	sw	s3,60(sp)
     ca0:	03412c23          	sw	s4,56(sp)
     ca4:	03512a23          	sw	s5,52(sp)
     ca8:	04112623          	sw	ra,76(sp)
     cac:	04812423          	sw	s0,72(sp)
     cb0:	03612823          	sw	s6,48(sp)
     cb4:	03712623          	sw	s7,44(sp)
     cb8:	03812423          	sw	s8,40(sp)
     cbc:	03912223          	sw	s9,36(sp)
     cc0:	05012a83          	lw	s5,80(sp)
     cc4:	00050493          	mv	s1,a0
     cc8:	00058913          	mv	s2,a1
     ccc:	00060a13          	mv	s4,a2
     cd0:	00068993          	mv	s3,a3
     cd4:	400e7f13          	andi	t5,t3,1024
     cd8:	010e7f93          	andi	t6,t3,16
     cdc:	00071a63          	bnez	a4,cf0 <_ntoa_long+0x64>
     ce0:	fefe7693          	andi	a3,t3,-17
     ce4:	0c0f1863          	bnez	t5,db4 <_ntoa_long+0x128>
     ce8:	00000f93          	li	t6,0
     cec:	00068e13          	mv	t3,a3
     cf0:	020e7693          	andi	a3,t3,32
     cf4:	06100593          	li	a1,97
     cf8:	14069463          	bnez	a3,e40 <_ntoa_long+0x1b4>
     cfc:	00000413          	li	s0,0
     d00:	00010b13          	mv	s6,sp
     d04:	00900513          	li	a0,9
     d08:	ff658593          	addi	a1,a1,-10
     d0c:	02000e93          	li	t4,32
     d10:	00c0006f          	j	d1c <_ntoa_long+0x90>
     d14:	03d40c63          	beq	s0,t4,d4c <_ntoa_long+0xc0>
     d18:	00068713          	mv	a4,a3
     d1c:	030776b3          	remu	a3,a4,a6
     d20:	0ff6f313          	zext.b	t1,a3
     d24:	03030613          	addi	a2,t1,48
     d28:	00b30333          	add	t1,t1,a1
     d2c:	0ff37313          	zext.b	t1,t1
     d30:	00d56463          	bltu	a0,a3,d38 <_ntoa_long+0xac>
     d34:	0ff67313          	zext.b	t1,a2
     d38:	00140413          	addi	s0,s0,1
     d3c:	008b06b3          	add	a3,s6,s0
     d40:	fe668fa3          	sb	t1,-1(a3)
     d44:	030756b3          	divu	a3,a4,a6
     d48:	fd0776e3          	bgeu	a4,a6,d14 <_ntoa_long+0x88>
     d4c:	002e7c13          	andi	s8,t3,2
     d50:	060c0c63          	beqz	s8,dc8 <_ntoa_long+0x13c>
     d54:	120f8c63          	beqz	t6,e8c <_ntoa_long+0x200>
     d58:	220f1263          	bnez	t5,f7c <_ntoa_long+0x2f0>
     d5c:	2a041263          	bnez	s0,1000 <_ntoa_long+0x374>
     d60:	01000713          	li	a4,16
     d64:	3ee80663          	beq	a6,a4,1150 <_ntoa_long+0x4c4>
     d68:	00200713          	li	a4,2
     d6c:	3ee80c63          	beq	a6,a4,1164 <_ntoa_long+0x4d8>
     d70:	03000713          	li	a4,48
     d74:	00e10023          	sb	a4,0(sp)
     d78:	000e0693          	mv	a3,t3
     d7c:	00100713          	li	a4,1
     d80:	0036f613          	andi	a2,a3,3
     d84:	24079663          	bnez	a5,fd0 <_ntoa_long+0x344>
     d88:	0046f793          	andi	a5,a3,4
     d8c:	30078c63          	beqz	a5,10a4 <_ntoa_long+0x418>
     d90:	02070793          	addi	a5,a4,32
     d94:	002787b3          	add	a5,a5,sp
     d98:	00170413          	addi	s0,a4,1
     d9c:	02b00713          	li	a4,43
     da0:	fee78023          	sb	a4,-32(a5)
     da4:	000a0b93          	mv	s7,s4
     da8:	1e061c63          	bnez	a2,fa0 <_ntoa_long+0x314>
     dac:	0f546a63          	bltu	s0,s5,ea0 <_ntoa_long+0x214>
     db0:	1f00006f          	j	fa0 <_ntoa_long+0x314>
     db4:	002e7c13          	andi	s8,t3,2
     db8:	fc0c14e3          	bnez	s8,d80 <_ntoa_long+0xf4>
     dbc:	00000f93          	li	t6,0
     dc0:	00068e13          	mv	t3,a3
     dc4:	00000413          	li	s0,0
     dc8:	180a9263          	bnez	s5,f4c <_ntoa_long+0x2c0>
     dcc:	07147463          	bgeu	s0,a7,e34 <_ntoa_long+0x1a8>
     dd0:	02000713          	li	a4,32
     dd4:	001e7c13          	andi	s8,t3,1
     dd8:	38e40e63          	beq	s0,a4,1174 <_ntoa_long+0x4e8>
     ddc:	00010b13          	mv	s6,sp
     de0:	03000693          	li	a3,48
     de4:	02000613          	li	a2,32
     de8:	0080006f          	j	df0 <_ntoa_long+0x164>
     dec:	04c40e63          	beq	s0,a2,e48 <_ntoa_long+0x1bc>
     df0:	00140413          	addi	s0,s0,1
     df4:	008b0733          	add	a4,s6,s0
     df8:	fed70fa3          	sb	a3,-1(a4)
     dfc:	ff1468e3          	bltu	s0,a7,dec <_ntoa_long+0x160>
     e00:	f40c0ae3          	beqz	s8,d54 <_ntoa_long+0xc8>
     e04:	03547863          	bgeu	s0,s5,e34 <_ntoa_long+0x1a8>
     e08:	02000713          	li	a4,32
     e0c:	00010b13          	mv	s6,sp
     e10:	03000693          	li	a3,48
     e14:	02000613          	li	a2,32
     e18:	00e41663          	bne	s0,a4,e24 <_ntoa_long+0x198>
     e1c:	0340006f          	j	e50 <_ntoa_long+0x1c4>
     e20:	24c40463          	beq	s0,a2,1068 <_ntoa_long+0x3dc>
     e24:	00140413          	addi	s0,s0,1
     e28:	008b0733          	add	a4,s6,s0
     e2c:	fed70fa3          	sb	a3,-1(a4)
     e30:	ff5418e3          	bne	s0,s5,e20 <_ntoa_long+0x194>
     e34:	00000c13          	li	s8,0
     e38:	f20f90e3          	bnez	t6,d58 <_ntoa_long+0xcc>
     e3c:	0500006f          	j	e8c <_ntoa_long+0x200>
     e40:	04100593          	li	a1,65
     e44:	eb9ff06f          	j	cfc <_ntoa_long+0x70>
     e48:	340c0a63          	beqz	s8,119c <_ntoa_long+0x510>
     e4c:	21547e63          	bgeu	s0,s5,1068 <_ntoa_long+0x3dc>
     e50:	260f8a63          	beqz	t6,10c4 <_ntoa_long+0x438>
     e54:	200f1e63          	bnez	t5,1070 <_ntoa_long+0x3e4>
     e58:	02000713          	li	a4,32
     e5c:	00000c13          	li	s8,0
     e60:	02000413          	li	s0,32
     e64:	1ae89063          	bne	a7,a4,1004 <_ntoa_long+0x378>
     e68:	01f00693          	li	a3,31
     e6c:	01000713          	li	a4,16
     e70:	2ae80a63          	beq	a6,a4,1124 <_ntoa_long+0x498>
     e74:	00200713          	li	a4,2
     e78:	30e80263          	beq	a6,a4,117c <_ntoa_long+0x4f0>
     e7c:	02068713          	addi	a4,a3,32
     e80:	002706b3          	add	a3,a4,sp
     e84:	03000713          	li	a4,48
     e88:	fee68023          	sb	a4,-32(a3)
     e8c:	02000713          	li	a4,32
     e90:	24e41063          	bne	s0,a4,10d0 <_ntoa_long+0x444>
     e94:	003e7e13          	andi	t3,t3,3
     e98:	100e1263          	bnez	t3,f9c <_ntoa_long+0x310>
     e9c:	11547063          	bgeu	s0,s5,f9c <_ntoa_long+0x310>
     ea0:	000a0b13          	mv	s6,s4
     ea4:	41440bb3          	sub	s7,s0,s4
     ea8:	000b0613          	mv	a2,s6
     eac:	00098693          	mv	a3,s3
     eb0:	00090593          	mv	a1,s2
     eb4:	02000513          	li	a0,32
     eb8:	001b0b13          	addi	s6,s6,1
     ebc:	000480e7          	jalr	s1
     ec0:	016b87b3          	add	a5,s7,s6
     ec4:	ff57e2e3          	bltu	a5,s5,ea8 <_ntoa_long+0x21c>
     ec8:	00140793          	addi	a5,s0,1
     ecc:	00000b93          	li	s7,0
     ed0:	00fae663          	bltu	s5,a5,edc <_ntoa_long+0x250>
     ed4:	fffa8b93          	addi	s7,s5,-1
     ed8:	408b8bb3          	sub	s7,s7,s0
     edc:	001a0793          	addi	a5,s4,1
     ee0:	00fb8bb3          	add	s7,s7,a5
     ee4:	0a041e63          	bnez	s0,fa0 <_ntoa_long+0x314>
     ee8:	020c0663          	beqz	s8,f14 <_ntoa_long+0x288>
     eec:	414b8a33          	sub	s4,s7,s4
     ef0:	035a7263          	bgeu	s4,s5,f14 <_ntoa_long+0x288>
     ef4:	000b8613          	mv	a2,s7
     ef8:	001a0a13          	addi	s4,s4,1
     efc:	00098693          	mv	a3,s3
     f00:	00090593          	mv	a1,s2
     f04:	02000513          	li	a0,32
     f08:	001b8b93          	addi	s7,s7,1
     f0c:	000480e7          	jalr	s1
     f10:	ff5a62e3          	bltu	s4,s5,ef4 <_ntoa_long+0x268>
     f14:	04c12083          	lw	ra,76(sp)
     f18:	04812403          	lw	s0,72(sp)
     f1c:	04412483          	lw	s1,68(sp)
     f20:	04012903          	lw	s2,64(sp)
     f24:	03c12983          	lw	s3,60(sp)
     f28:	03812a03          	lw	s4,56(sp)
     f2c:	03412a83          	lw	s5,52(sp)
     f30:	03012b03          	lw	s6,48(sp)
     f34:	02812c03          	lw	s8,40(sp)
     f38:	02412c83          	lw	s9,36(sp)
     f3c:	000b8513          	mv	a0,s7
     f40:	02c12b83          	lw	s7,44(sp)
     f44:	05010113          	addi	sp,sp,80
     f48:	00008067          	ret
     f4c:	001e7c13          	andi	s8,t3,1
     f50:	080c0c63          	beqz	s8,fe8 <_ntoa_long+0x35c>
     f54:	10079663          	bnez	a5,1060 <_ntoa_long+0x3d4>
     f58:	00ce7713          	andi	a4,t3,12
     f5c:	10071263          	bnez	a4,1060 <_ntoa_long+0x3d4>
     f60:	eb1472e3          	bgeu	s0,a7,e04 <_ntoa_long+0x178>
     f64:	02000713          	li	a4,32
     f68:	e6e41ae3          	bne	s0,a4,ddc <_ntoa_long+0x150>
     f6c:	ef5462e3          	bltu	s0,s5,e50 <_ntoa_long+0x1c4>
     f70:	220f8e63          	beqz	t6,11ac <_ntoa_long+0x520>
     f74:	00000c13          	li	s8,0
     f78:	de0f02e3          	beqz	t5,d5c <_ntoa_long+0xd0>
     f7c:	01000693          	li	a3,16
     f80:	003e7713          	andi	a4,t3,3
     f84:	0ed80c63          	beq	a6,a3,107c <_ntoa_long+0x3f0>
     f88:	00200693          	li	a3,2
     f8c:	0ad80863          	beq	a6,a3,103c <_ntoa_long+0x3b0>
     f90:	02000693          	li	a3,32
     f94:	1ad41863          	bne	s0,a3,1144 <_ntoa_long+0x4b8>
     f98:	f00702e3          	beqz	a4,e9c <_ntoa_long+0x210>
     f9c:	000a0b93          	mv	s7,s4
     fa0:	00010b13          	mv	s6,sp
     fa4:	008b8cb3          	add	s9,s7,s0
     fa8:	008b07b3          	add	a5,s6,s0
     fac:	fff7c503          	lbu	a0,-1(a5)
     fb0:	408c8633          	sub	a2,s9,s0
     fb4:	00098693          	mv	a3,s3
     fb8:	fff40413          	addi	s0,s0,-1
     fbc:	00090593          	mv	a1,s2
     fc0:	000c8b93          	mv	s7,s9
     fc4:	000480e7          	jalr	s1
     fc8:	fe0410e3          	bnez	s0,fa8 <_ntoa_long+0x31c>
     fcc:	f1dff06f          	j	ee8 <_ntoa_long+0x25c>
     fd0:	02070793          	addi	a5,a4,32
     fd4:	002787b3          	add	a5,a5,sp
     fd8:	00170413          	addi	s0,a4,1
     fdc:	02d00713          	li	a4,45
     fe0:	fee78023          	sb	a4,-32(a5)
     fe4:	dc1ff06f          	j	da4 <_ntoa_long+0x118>
     fe8:	d71476e3          	bgeu	s0,a7,d54 <_ntoa_long+0xc8>
     fec:	02000713          	li	a4,32
     ff0:	dee416e3          	bne	s0,a4,ddc <_ntoa_long+0x150>
     ff4:	1a0f8c63          	beqz	t6,11ac <_ntoa_long+0x520>
     ff8:	00000c13          	li	s8,0
     ffc:	f80f10e3          	bnez	t5,f7c <_ntoa_long+0x2f0>
    1000:	00888463          	beq	a7,s0,1008 <_ntoa_long+0x37c>
    1004:	f68a9ce3          	bne	s5,s0,f7c <_ntoa_long+0x2f0>
    1008:	fff40693          	addi	a3,s0,-1
    100c:	e60690e3          	bnez	a3,e6c <_ntoa_long+0x1e0>
    1010:	01000713          	li	a4,16
    1014:	d4e81ae3          	bne	a6,a4,d68 <_ntoa_long+0xdc>
    1018:	fffe4713          	not	a4,t3
    101c:	02077713          	andi	a4,a4,32
    1020:	05870713          	addi	a4,a4,88
    1024:	00e10023          	sb	a4,0(sp)
    1028:	03000713          	li	a4,48
    102c:	00e100a3          	sb	a4,1(sp)
    1030:	000e0693          	mv	a3,t3
    1034:	00200713          	li	a4,2
    1038:	d49ff06f          	j	d80 <_ntoa_long+0xf4>
    103c:	02000693          	li	a3,32
    1040:	f4d40ce3          	beq	s0,a3,f98 <_ntoa_long+0x30c>
    1044:	00040693          	mv	a3,s0
    1048:	00140413          	addi	s0,s0,1
    104c:	02068693          	addi	a3,a3,32
    1050:	002686b3          	add	a3,a3,sp
    1054:	06200613          	li	a2,98
    1058:	fec68023          	sb	a2,-32(a3)
    105c:	f35ff06f          	j	f90 <_ntoa_long+0x304>
    1060:	fffa8a93          	addi	s5,s5,-1
    1064:	efdff06f          	j	f60 <_ntoa_long+0x2d4>
    1068:	040f8e63          	beqz	t6,10c4 <_ntoa_long+0x438>
    106c:	0a0f0463          	beqz	t5,1114 <_ntoa_long+0x488>
    1070:	00000c13          	li	s8,0
    1074:	02000413          	li	s0,32
    1078:	f05ff06f          	j	f7c <_ntoa_long+0x2f0>
    107c:	020e7693          	andi	a3,t3,32
    1080:	04068e63          	beqz	a3,10dc <_ntoa_long+0x450>
    1084:	02000693          	li	a3,32
    1088:	f0d408e3          	beq	s0,a3,f98 <_ntoa_long+0x30c>
    108c:	02040693          	addi	a3,s0,32
    1090:	002686b3          	add	a3,a3,sp
    1094:	05800613          	li	a2,88
    1098:	fec68023          	sb	a2,-32(a3)
    109c:	00140413          	addi	s0,s0,1
    10a0:	ef1ff06f          	j	f90 <_ntoa_long+0x304>
    10a4:	0086f693          	andi	a3,a3,8
    10a8:	04069a63          	bnez	a3,10fc <_ntoa_long+0x470>
    10ac:	00070413          	mv	s0,a4
    10b0:	00061463          	bnez	a2,10b8 <_ntoa_long+0x42c>
    10b4:	df5766e3          	bltu	a4,s5,ea0 <_ntoa_long+0x214>
    10b8:	000a0b93          	mv	s7,s4
    10bc:	ee0412e3          	bnez	s0,fa0 <_ntoa_long+0x314>
    10c0:	e29ff06f          	j	ee8 <_ntoa_long+0x25c>
    10c4:	00000c13          	li	s8,0
    10c8:	02000413          	li	s0,32
    10cc:	dc9ff06f          	j	e94 <_ntoa_long+0x208>
    10d0:	000e0693          	mv	a3,t3
    10d4:	00040713          	mv	a4,s0
    10d8:	ca9ff06f          	j	d80 <_ntoa_long+0xf4>
    10dc:	02000693          	li	a3,32
    10e0:	ead40ce3          	beq	s0,a3,f98 <_ntoa_long+0x30c>
    10e4:	02040693          	addi	a3,s0,32
    10e8:	002686b3          	add	a3,a3,sp
    10ec:	07800613          	li	a2,120
    10f0:	fec68023          	sb	a2,-32(a3)
    10f4:	00140413          	addi	s0,s0,1
    10f8:	e99ff06f          	j	f90 <_ntoa_long+0x304>
    10fc:	02070793          	addi	a5,a4,32
    1100:	002787b3          	add	a5,a5,sp
    1104:	00170413          	addi	s0,a4,1
    1108:	02000713          	li	a4,32
    110c:	fee78023          	sb	a4,-32(a5)
    1110:	c95ff06f          	j	da4 <_ntoa_long+0x118>
    1114:	02000413          	li	s0,32
    1118:	00000c13          	li	s8,0
    111c:	ee8894e3          	bne	a7,s0,1004 <_ntoa_long+0x378>
    1120:	ee9ff06f          	j	1008 <_ntoa_long+0x37c>
    1124:	020e7713          	andi	a4,t3,32
    1128:	ffe40413          	addi	s0,s0,-2
    112c:	04071c63          	bnez	a4,1184 <_ntoa_long+0x4f8>
    1130:	02040713          	addi	a4,s0,32
    1134:	00270433          	add	s0,a4,sp
    1138:	07800713          	li	a4,120
    113c:	fee40023          	sb	a4,-32(s0)
    1140:	00068413          	mv	s0,a3
    1144:	00040693          	mv	a3,s0
    1148:	00140413          	addi	s0,s0,1
    114c:	d31ff06f          	j	e7c <_ntoa_long+0x1f0>
    1150:	020e7713          	andi	a4,t3,32
    1154:	00070c63          	beqz	a4,116c <_ntoa_long+0x4e0>
    1158:	05800713          	li	a4,88
    115c:	00e10023          	sb	a4,0(sp)
    1160:	ec9ff06f          	j	1028 <_ntoa_long+0x39c>
    1164:	06200713          	li	a4,98
    1168:	ebdff06f          	j	1024 <_ntoa_long+0x398>
    116c:	07800713          	li	a4,120
    1170:	eb5ff06f          	j	1024 <_ntoa_long+0x398>
    1174:	de0c1ee3          	bnez	s8,f70 <_ntoa_long+0x2e4>
    1178:	e7dff06f          	j	ff4 <_ntoa_long+0x368>
    117c:	003e7713          	andi	a4,t3,3
    1180:	ecdff06f          	j	104c <_ntoa_long+0x3c0>
    1184:	02040713          	addi	a4,s0,32
    1188:	00270433          	add	s0,a4,sp
    118c:	05800713          	li	a4,88
    1190:	fee40023          	sb	a4,-32(s0)
    1194:	00068413          	mv	s0,a3
    1198:	fadff06f          	j	1144 <_ntoa_long+0x4b8>
    119c:	ce0f8ce3          	beqz	t6,e94 <_ntoa_long+0x208>
    11a0:	dc0f1ee3          	bnez	t5,f7c <_ntoa_long+0x2f0>
    11a4:	dc8a9ce3          	bne	s5,s0,f7c <_ntoa_long+0x2f0>
    11a8:	e61ff06f          	j	1008 <_ntoa_long+0x37c>
    11ac:	00000c13          	li	s8,0
    11b0:	ce5ff06f          	j	e94 <_ntoa_long+0x208>

000011b4 <_out_char>:
    11b4:	00051463          	bnez	a0,11bc <_out_char+0x8>
    11b8:	00008067          	ret
    11bc:	2150006f          	j	1bd0 <uart_send_char>

000011c0 <_out_fct>:
    11c0:	00050863          	beqz	a0,11d0 <_out_fct+0x10>
    11c4:	0005a783          	lw	a5,0(a1)
    11c8:	0045a583          	lw	a1,4(a1)
    11cc:	00078067          	jr	a5
    11d0:	00008067          	ret

000011d4 <_vsnprintf>:
    11d4:	fa010113          	addi	sp,sp,-96
    11d8:	05312623          	sw	s3,76(sp)
    11dc:	05412423          	sw	s4,72(sp)
    11e0:	05512223          	sw	s5,68(sp)
    11e4:	03812c23          	sw	s8,56(sp)
    11e8:	03a12823          	sw	s10,48(sp)
    11ec:	04112e23          	sw	ra,92(sp)
    11f0:	04812c23          	sw	s0,88(sp)
    11f4:	04912a23          	sw	s1,84(sp)
    11f8:	05212823          	sw	s2,80(sp)
    11fc:	05612023          	sw	s6,64(sp)
    1200:	03712e23          	sw	s7,60(sp)
    1204:	03912a23          	sw	s9,52(sp)
    1208:	03b12623          	sw	s11,44(sp)
    120c:	00058a13          	mv	s4,a1
    1210:	00060993          	mv	s3,a2
    1214:	00068c13          	mv	s8,a3
    1218:	00070d13          	mv	s10,a4
    121c:	00050a93          	mv	s5,a0
    1220:	46058863          	beqz	a1,1690 <_vsnprintf+0x4bc>
    1224:	000c4503          	lbu	a0,0(s8)
    1228:	00000d93          	li	s11,0
    122c:	46050c63          	beqz	a0,16a4 <_vsnprintf+0x4d0>
    1230:	001217b7          	lui	a5,0x121
    1234:	00002b37          	lui	s6,0x2
    1238:	82178793          	addi	a5,a5,-2015 # 120821 <_peripheral_HLS_CONTROL_end+0xe0821>
    123c:	01000913          	li	s2,16
    1240:	f0cb0b13          	addi	s6,s6,-244 # 1f0c <_text_end+0x2ec>
    1244:	00f12a23          	sw	a5,20(sp)
    1248:	0200006f          	j	1268 <_vsnprintf+0x94>
    124c:	000d8613          	mv	a2,s11
    1250:	00098693          	mv	a3,s3
    1254:	000a0593          	mv	a1,s4
    1258:	001d8d93          	addi	s11,s11,1
    125c:	000a80e7          	jalr	s5
    1260:	000c4503          	lbu	a0,0(s8)
    1264:	10050063          	beqz	a0,1364 <_vsnprintf+0x190>
    1268:	02500793          	li	a5,37
    126c:	001c0c13          	addi	s8,s8,1
    1270:	fcf51ee3          	bne	a0,a5,124c <_vsnprintf+0x78>
    1274:	00000413          	li	s0,0
    1278:	000c4503          	lbu	a0,0(s8)
    127c:	001c0713          	addi	a4,s8,1
    1280:	fe050793          	addi	a5,a0,-32
    1284:	0ff7f793          	zext.b	a5,a5
    1288:	00f96a63          	bltu	s2,a5,129c <_vsnprintf+0xc8>
    128c:	00279793          	slli	a5,a5,0x2
    1290:	016787b3          	add	a5,a5,s6
    1294:	0007a783          	lw	a5,0(a5)
    1298:	00078067          	jr	a5
    129c:	fd050793          	addi	a5,a0,-48
    12a0:	0ff7f793          	zext.b	a5,a5
    12a4:	00900693          	li	a3,9
    12a8:	24f6fe63          	bgeu	a3,a5,1504 <_vsnprintf+0x330>
    12ac:	02a00793          	li	a5,42
    12b0:	00000b93          	li	s7,0
    12b4:	2ef50663          	beq	a0,a5,15a0 <_vsnprintf+0x3cc>
    12b8:	02e00793          	li	a5,46
    12bc:	00000c93          	li	s9,0
    12c0:	28f50263          	beq	a0,a5,1544 <_vsnprintf+0x370>
    12c4:	06c00793          	li	a5,108
    12c8:	00070693          	mv	a3,a4
    12cc:	2af50863          	beq	a0,a5,157c <_vsnprintf+0x3a8>
    12d0:	2aa7ee63          	bltu	a5,a0,158c <_vsnprintf+0x3b8>
    12d4:	06800793          	li	a5,104
    12d8:	2ef50e63          	beq	a0,a5,15d4 <_vsnprintf+0x400>
    12dc:	06a00793          	li	a5,106
    12e0:	6ef51663          	bne	a0,a5,19cc <_vsnprintf+0x7f8>
    12e4:	001c4503          	lbu	a0,1(s8)
    12e8:	20046413          	ori	s0,s0,512
    12ec:	07800793          	li	a5,120
    12f0:	00168c13          	addi	s8,a3,1
    12f4:	f4a7ece3          	bltu	a5,a0,124c <_vsnprintf+0x78>
    12f8:	06300793          	li	a5,99
    12fc:	10a7e863          	bltu	a5,a0,140c <_vsnprintf+0x238>
    1300:	06200713          	li	a4,98
    1304:	50e50c63          	beq	a0,a4,181c <_vsnprintf+0x648>
    1308:	16f51663          	bne	a0,a5,1474 <_vsnprintf+0x2a0>
    130c:	00247413          	andi	s0,s0,2
    1310:	004d0493          	addi	s1,s10,4
    1314:	001d8c93          	addi	s9,s11,1
    1318:	40040863          	beqz	s0,1728 <_vsnprintf+0x554>
    131c:	000d4503          	lbu	a0,0(s10)
    1320:	000d8613          	mv	a2,s11
    1324:	00098693          	mv	a3,s3
    1328:	000a0593          	mv	a1,s4
    132c:	000a80e7          	jalr	s5
    1330:	00100793          	li	a5,1
    1334:	017d8db3          	add	s11,s11,s7
    1338:	5577f463          	bgeu	a5,s7,1880 <_vsnprintf+0x6ac>
    133c:	000c8613          	mv	a2,s9
    1340:	00098693          	mv	a3,s3
    1344:	001c8c93          	addi	s9,s9,1
    1348:	000a0593          	mv	a1,s4
    134c:	02000513          	li	a0,32
    1350:	000a80e7          	jalr	s5
    1354:	ffbc94e3          	bne	s9,s11,133c <_vsnprintf+0x168>
    1358:	00048d13          	mv	s10,s1
    135c:	000c4503          	lbu	a0,0(s8)
    1360:	f00514e3          	bnez	a0,1268 <_vsnprintf+0x94>
    1364:	000d8413          	mv	s0,s11
    1368:	013de463          	bltu	s11,s3,1370 <_vsnprintf+0x19c>
    136c:	fff98d93          	addi	s11,s3,-1
    1370:	00098693          	mv	a3,s3
    1374:	000d8613          	mv	a2,s11
    1378:	000a0593          	mv	a1,s4
    137c:	00000513          	li	a0,0
    1380:	000a80e7          	jalr	s5
    1384:	05c12083          	lw	ra,92(sp)
    1388:	00040513          	mv	a0,s0
    138c:	05812403          	lw	s0,88(sp)
    1390:	05412483          	lw	s1,84(sp)
    1394:	05012903          	lw	s2,80(sp)
    1398:	04c12983          	lw	s3,76(sp)
    139c:	04812a03          	lw	s4,72(sp)
    13a0:	04412a83          	lw	s5,68(sp)
    13a4:	04012b03          	lw	s6,64(sp)
    13a8:	03c12b83          	lw	s7,60(sp)
    13ac:	03812c03          	lw	s8,56(sp)
    13b0:	03412c83          	lw	s9,52(sp)
    13b4:	03012d03          	lw	s10,48(sp)
    13b8:	02c12d83          	lw	s11,44(sp)
    13bc:	06010113          	addi	sp,sp,96
    13c0:	00008067          	ret
    13c4:	00146413          	ori	s0,s0,1
    13c8:	00070c13          	mv	s8,a4
    13cc:	eadff06f          	j	1278 <_vsnprintf+0xa4>
    13d0:	00246413          	ori	s0,s0,2
    13d4:	00070c13          	mv	s8,a4
    13d8:	ea1ff06f          	j	1278 <_vsnprintf+0xa4>
    13dc:	00446413          	ori	s0,s0,4
    13e0:	00070c13          	mv	s8,a4
    13e4:	e95ff06f          	j	1278 <_vsnprintf+0xa4>
    13e8:	01046413          	ori	s0,s0,16
    13ec:	00070c13          	mv	s8,a4
    13f0:	e89ff06f          	j	1278 <_vsnprintf+0xa4>
    13f4:	00846413          	ori	s0,s0,8
    13f8:	00070c13          	mv	s8,a4
    13fc:	e7dff06f          	j	1278 <_vsnprintf+0xa4>
    1400:	07800793          	li	a5,120
    1404:	00070c13          	mv	s8,a4
    1408:	e4a7e2e3          	bltu	a5,a0,124c <_vsnprintf+0x78>
    140c:	f9c50793          	addi	a5,a0,-100
    1410:	00100493          	li	s1,1
    1414:	00f494b3          	sll	s1,s1,a5
    1418:	01412783          	lw	a5,20(sp)
    141c:	00f4f4b3          	and	s1,s1,a5
    1420:	46049663          	bnez	s1,188c <_vsnprintf+0x6b8>
    1424:	07300793          	li	a5,115
    1428:	1af50e63          	beq	a0,a5,15e4 <_vsnprintf+0x410>
    142c:	07000793          	li	a5,112
    1430:	e0f51ee3          	bne	a0,a5,124c <_vsnprintf+0x78>
    1434:	000d2703          	lw	a4,0(s10)
    1438:	00800793          	li	a5,8
    143c:	02146413          	ori	s0,s0,33
    1440:	000d8613          	mv	a2,s11
    1444:	00f12023          	sw	a5,0(sp)
    1448:	00812223          	sw	s0,4(sp)
    144c:	000c8893          	mv	a7,s9
    1450:	01000813          	li	a6,16
    1454:	00000793          	li	a5,0
    1458:	00098693          	mv	a3,s3
    145c:	000a0593          	mv	a1,s4
    1460:	000a8513          	mv	a0,s5
    1464:	829ff0ef          	jal	c8c <_ntoa_long>
    1468:	004d0d13          	addi	s10,s10,4
    146c:	00050d93          	mv	s11,a0
    1470:	df1ff06f          	j	1260 <_vsnprintf+0x8c>
    1474:	02500793          	li	a5,37
    1478:	02f51063          	bne	a0,a5,1498 <_vsnprintf+0x2c4>
    147c:	000d8613          	mv	a2,s11
    1480:	00098693          	mv	a3,s3
    1484:	000a0593          	mv	a1,s4
    1488:	02500513          	li	a0,37
    148c:	001d8d93          	addi	s11,s11,1
    1490:	000a80e7          	jalr	s5
    1494:	dcdff06f          	j	1260 <_vsnprintf+0x8c>
    1498:	05800793          	li	a5,88
    149c:	daf518e3          	bne	a0,a5,124c <_vsnprintf+0x78>
    14a0:	40047793          	andi	a5,s0,1024
    14a4:	38078c63          	beqz	a5,183c <_vsnprintf+0x668>
    14a8:	ff247413          	andi	s0,s0,-14
    14ac:	02046413          	ori	s0,s0,32
    14b0:	01000813          	li	a6,16
    14b4:	20047793          	andi	a5,s0,512
    14b8:	da0794e3          	bnez	a5,1260 <_vsnprintf+0x8c>
    14bc:	10047793          	andi	a5,s0,256
    14c0:	004d0493          	addi	s1,s10,4
    14c4:	38079463          	bnez	a5,184c <_vsnprintf+0x678>
    14c8:	04047793          	andi	a5,s0,64
    14cc:	38078463          	beqz	a5,1854 <_vsnprintf+0x680>
    14d0:	000d4703          	lbu	a4,0(s10)
    14d4:	000d8613          	mv	a2,s11
    14d8:	00812223          	sw	s0,4(sp)
    14dc:	01712023          	sw	s7,0(sp)
    14e0:	000c8893          	mv	a7,s9
    14e4:	00000793          	li	a5,0
    14e8:	00098693          	mv	a3,s3
    14ec:	000a0593          	mv	a1,s4
    14f0:	000a8513          	mv	a0,s5
    14f4:	f98ff0ef          	jal	c8c <_ntoa_long>
    14f8:	00050d93          	mv	s11,a0
    14fc:	00048d13          	mv	s10,s1
    1500:	d61ff06f          	j	1260 <_vsnprintf+0x8c>
    1504:	00000b93          	li	s7,0
    1508:	002b9793          	slli	a5,s7,0x2
    150c:	017787b3          	add	a5,a5,s7
    1510:	00179793          	slli	a5,a5,0x1
    1514:	00a787b3          	add	a5,a5,a0
    1518:	00074503          	lbu	a0,0(a4)
    151c:	fd078b93          	addi	s7,a5,-48
    1520:	00900693          	li	a3,9
    1524:	fd050793          	addi	a5,a0,-48
    1528:	0ff7f793          	zext.b	a5,a5
    152c:	00070c13          	mv	s8,a4
    1530:	00170713          	addi	a4,a4,1
    1534:	fcf6fae3          	bgeu	a3,a5,1508 <_vsnprintf+0x334>
    1538:	02e00793          	li	a5,46
    153c:	00000c93          	li	s9,0
    1540:	d8f512e3          	bne	a0,a5,12c4 <_vsnprintf+0xf0>
    1544:	001c4503          	lbu	a0,1(s8)
    1548:	00900613          	li	a2,9
    154c:	00070693          	mv	a3,a4
    1550:	fd050793          	addi	a5,a0,-48
    1554:	0ff7f793          	zext.b	a5,a5
    1558:	40046413          	ori	s0,s0,1024
    155c:	14f67a63          	bgeu	a2,a5,16b0 <_vsnprintf+0x4dc>
    1560:	02a00793          	li	a5,42
    1564:	18f50863          	beq	a0,a5,16f4 <_vsnprintf+0x520>
    1568:	00070c13          	mv	s8,a4
    156c:	06c00793          	li	a5,108
    1570:	00170713          	addi	a4,a4,1
    1574:	00070693          	mv	a3,a4
    1578:	d4f51ce3          	bne	a0,a5,12d0 <_vsnprintf+0xfc>
    157c:	001c4503          	lbu	a0,1(s8)
    1580:	18f50c63          	beq	a0,a5,1718 <_vsnprintf+0x544>
    1584:	10046413          	ori	s0,s0,256
    1588:	d65ff06f          	j	12ec <_vsnprintf+0x118>
    158c:	07a00793          	li	a5,122
    1590:	e6f518e3          	bne	a0,a5,1400 <_vsnprintf+0x22c>
    1594:	001c4503          	lbu	a0,1(s8)
    1598:	10046413          	ori	s0,s0,256
    159c:	d51ff06f          	j	12ec <_vsnprintf+0x118>
    15a0:	000d2b83          	lw	s7,0(s10)
    15a4:	004d0d13          	addi	s10,s10,4
    15a8:	000bca63          	bltz	s7,15bc <_vsnprintf+0x3e8>
    15ac:	001c4503          	lbu	a0,1(s8)
    15b0:	00070c13          	mv	s8,a4
    15b4:	00170713          	addi	a4,a4,1
    15b8:	d01ff06f          	j	12b8 <_vsnprintf+0xe4>
    15bc:	001c4503          	lbu	a0,1(s8)
    15c0:	00246413          	ori	s0,s0,2
    15c4:	00070c13          	mv	s8,a4
    15c8:	41700bb3          	neg	s7,s7
    15cc:	00170713          	addi	a4,a4,1
    15d0:	ce9ff06f          	j	12b8 <_vsnprintf+0xe4>
    15d4:	001c4503          	lbu	a0,1(s8)
    15d8:	1ef50863          	beq	a0,a5,17c8 <_vsnprintf+0x5f4>
    15dc:	08046413          	ori	s0,s0,128
    15e0:	d0dff06f          	j	12ec <_vsnprintf+0x118>
    15e4:	000d2783          	lw	a5,0(s10)
    15e8:	004d0713          	addi	a4,s10,4
    15ec:	00e12c23          	sw	a4,24(sp)
    15f0:	0007c683          	lbu	a3,0(a5)
    15f4:	00f12823          	sw	a5,16(sp)
    15f8:	00068513          	mv	a0,a3
    15fc:	0e0c9663          	bnez	s9,16e8 <_vsnprintf+0x514>
    1600:	ffe00713          	li	a4,-2
    1604:	02068663          	beqz	a3,1630 <_vsnprintf+0x45c>
    1608:	01012483          	lw	s1,16(sp)
    160c:	00170713          	addi	a4,a4,1
    1610:	00e48733          	add	a4,s1,a4
    1614:	0080006f          	j	161c <_vsnprintf+0x448>
    1618:	1a970263          	beq	a4,s1,17bc <_vsnprintf+0x5e8>
    161c:	0014c783          	lbu	a5,1(s1)
    1620:	00148493          	addi	s1,s1,1
    1624:	fe079ae3          	bnez	a5,1618 <_vsnprintf+0x444>
    1628:	01012783          	lw	a5,16(sp)
    162c:	40f484b3          	sub	s1,s1,a5
    1630:	40047d13          	andi	s10,s0,1024
    1634:	000d0663          	beqz	s10,1640 <_vsnprintf+0x46c>
    1638:	009cf463          	bgeu	s9,s1,1640 <_vsnprintf+0x46c>
    163c:	000c8493          	mv	s1,s9
    1640:	00247793          	andi	a5,s0,2
    1644:	00f12e23          	sw	a5,28(sp)
    1648:	18078863          	beqz	a5,17d8 <_vsnprintf+0x604>
    164c:	12068e63          	beqz	a3,1788 <_vsnprintf+0x5b4>
    1650:	000d8613          	mv	a2,s11
    1654:	000d0863          	beqz	s10,1664 <_vsnprintf+0x490>
    1658:	fffc8793          	addi	a5,s9,-1
    165c:	100c8e63          	beqz	s9,1778 <_vsnprintf+0x5a4>
    1660:	00078c93          	mv	s9,a5
    1664:	00098693          	mv	a3,s3
    1668:	000a0593          	mv	a1,s4
    166c:	00160413          	addi	s0,a2,1
    1670:	000a80e7          	jalr	s5
    1674:	01012703          	lw	a4,16(sp)
    1678:	41b407b3          	sub	a5,s0,s11
    167c:	00f707b3          	add	a5,a4,a5
    1680:	0007c503          	lbu	a0,0(a5)
    1684:	0e050c63          	beqz	a0,177c <_vsnprintf+0x5a8>
    1688:	00040613          	mv	a2,s0
    168c:	fc9ff06f          	j	1654 <_vsnprintf+0x480>
    1690:	000c4503          	lbu	a0,0(s8)
    1694:	00001ab7          	lui	s5,0x1
    1698:	c88a8a93          	addi	s5,s5,-888 # c88 <_out_null>
    169c:	00000d93          	li	s11,0
    16a0:	b80518e3          	bnez	a0,1230 <_vsnprintf+0x5c>
    16a4:	00000413          	li	s0,0
    16a8:	cd3de4e3          	bltu	s11,s3,1370 <_vsnprintf+0x19c>
    16ac:	cc1ff06f          	j	136c <_vsnprintf+0x198>
    16b0:	00900713          	li	a4,9
    16b4:	002c9793          	slli	a5,s9,0x2
    16b8:	019787b3          	add	a5,a5,s9
    16bc:	00168693          	addi	a3,a3,1
    16c0:	00179793          	slli	a5,a5,0x1
    16c4:	00a787b3          	add	a5,a5,a0
    16c8:	0006c503          	lbu	a0,0(a3)
    16cc:	fd078c93          	addi	s9,a5,-48
    16d0:	fd050793          	addi	a5,a0,-48
    16d4:	0ff7f793          	zext.b	a5,a5
    16d8:	fcf77ee3          	bgeu	a4,a5,16b4 <_vsnprintf+0x4e0>
    16dc:	00068c13          	mv	s8,a3
    16e0:	00168713          	addi	a4,a3,1
    16e4:	be1ff06f          	j	12c4 <_vsnprintf+0xf0>
    16e8:	f40684e3          	beqz	a3,1630 <_vsnprintf+0x45c>
    16ec:	fffc8713          	addi	a4,s9,-1
    16f0:	f19ff06f          	j	1608 <_vsnprintf+0x434>
    16f4:	000d2c83          	lw	s9,0(s10)
    16f8:	002c4503          	lbu	a0,2(s8)
    16fc:	002c0c13          	addi	s8,s8,2
    1700:	fffcc793          	not	a5,s9
    1704:	41f7d793          	srai	a5,a5,0x1f
    1708:	00fcfcb3          	and	s9,s9,a5
    170c:	004d0d13          	addi	s10,s10,4
    1710:	001c0713          	addi	a4,s8,1
    1714:	bb1ff06f          	j	12c4 <_vsnprintf+0xf0>
    1718:	002c4503          	lbu	a0,2(s8)
    171c:	30046413          	ori	s0,s0,768
    1720:	002c0693          	addi	a3,s8,2
    1724:	bc9ff06f          	j	12ec <_vsnprintf+0x118>
    1728:	00100793          	li	a5,1
    172c:	1577f063          	bgeu	a5,s7,186c <_vsnprintf+0x698>
    1730:	fffd8413          	addi	s0,s11,-1
    1734:	01740433          	add	s0,s0,s7
    1738:	000d8c93          	mv	s9,s11
    173c:	000c8613          	mv	a2,s9
    1740:	00098693          	mv	a3,s3
    1744:	001c8c93          	addi	s9,s9,1
    1748:	000a0593          	mv	a1,s4
    174c:	02000513          	li	a0,32
    1750:	000a80e7          	jalr	s5
    1754:	ff9414e3          	bne	s0,s9,173c <_vsnprintf+0x568>
    1758:	000d4503          	lbu	a0,0(s10)
    175c:	00098693          	mv	a3,s3
    1760:	00040613          	mv	a2,s0
    1764:	000a0593          	mv	a1,s4
    1768:	017d8db3          	add	s11,s11,s7
    176c:	000a80e7          	jalr	s5
    1770:	00048d13          	mv	s10,s1
    1774:	be9ff06f          	j	135c <_vsnprintf+0x188>
    1778:	00060413          	mv	s0,a2
    177c:	01c12783          	lw	a5,28(sp)
    1780:	02078863          	beqz	a5,17b0 <_vsnprintf+0x5dc>
    1784:	00040d93          	mv	s11,s0
    1788:	0974f663          	bgeu	s1,s7,1814 <_vsnprintf+0x640>
    178c:	01bb8733          	add	a4,s7,s11
    1790:	40970433          	sub	s0,a4,s1
    1794:	000d8613          	mv	a2,s11
    1798:	00098693          	mv	a3,s3
    179c:	001d8d93          	addi	s11,s11,1
    17a0:	000a0593          	mv	a1,s4
    17a4:	02000513          	li	a0,32
    17a8:	000a80e7          	jalr	s5
    17ac:	ffb414e3          	bne	s0,s11,1794 <_vsnprintf+0x5c0>
    17b0:	01812d03          	lw	s10,24(sp)
    17b4:	00040d93          	mv	s11,s0
    17b8:	aa9ff06f          	j	1260 <_vsnprintf+0x8c>
    17bc:	01012783          	lw	a5,16(sp)
    17c0:	40f704b3          	sub	s1,a4,a5
    17c4:	e6dff06f          	j	1630 <_vsnprintf+0x45c>
    17c8:	002c4503          	lbu	a0,2(s8)
    17cc:	0c046413          	ori	s0,s0,192
    17d0:	002c0693          	addi	a3,s8,2
    17d4:	b19ff06f          	j	12ec <_vsnprintf+0x118>
    17d8:	0974f663          	bgeu	s1,s7,1864 <_vsnprintf+0x690>
    17dc:	01bb87b3          	add	a5,s7,s11
    17e0:	409784b3          	sub	s1,a5,s1
    17e4:	000d8613          	mv	a2,s11
    17e8:	00098693          	mv	a3,s3
    17ec:	001d8d93          	addi	s11,s11,1
    17f0:	000a0593          	mv	a1,s4
    17f4:	02000513          	li	a0,32
    17f8:	000a80e7          	jalr	s5
    17fc:	ffb494e3          	bne	s1,s11,17e4 <_vsnprintf+0x610>
    1800:	01012783          	lw	a5,16(sp)
    1804:	001b8493          	addi	s1,s7,1
    1808:	0007c683          	lbu	a3,0(a5)
    180c:	00068513          	mv	a0,a3
    1810:	e40690e3          	bnez	a3,1650 <_vsnprintf+0x47c>
    1814:	000d8413          	mv	s0,s11
    1818:	f99ff06f          	j	17b0 <_vsnprintf+0x5dc>
    181c:	40047793          	andi	a5,s0,1024
    1820:	00078863          	beqz	a5,1830 <_vsnprintf+0x65c>
    1824:	ff247413          	andi	s0,s0,-14
    1828:	00200813          	li	a6,2
    182c:	c89ff06f          	j	14b4 <_vsnprintf+0x2e0>
    1830:	ff347413          	andi	s0,s0,-13
    1834:	00200813          	li	a6,2
    1838:	c7dff06f          	j	14b4 <_vsnprintf+0x2e0>
    183c:	02046413          	ori	s0,s0,32
    1840:	ff347413          	andi	s0,s0,-13
    1844:	01000813          	li	a6,16
    1848:	c6dff06f          	j	14b4 <_vsnprintf+0x2e0>
    184c:	000d2703          	lw	a4,0(s10)
    1850:	c85ff06f          	j	14d4 <_vsnprintf+0x300>
    1854:	08047793          	andi	a5,s0,128
    1858:	fe078ae3          	beqz	a5,184c <_vsnprintf+0x678>
    185c:	000d5703          	lhu	a4,0(s10)
    1860:	c75ff06f          	j	14d4 <_vsnprintf+0x300>
    1864:	00148493          	addi	s1,s1,1
    1868:	fa5ff06f          	j	180c <_vsnprintf+0x638>
    186c:	000d4503          	lbu	a0,0(s10)
    1870:	00098693          	mv	a3,s3
    1874:	000d8613          	mv	a2,s11
    1878:	000a0593          	mv	a1,s4
    187c:	000a80e7          	jalr	s5
    1880:	000c8d93          	mv	s11,s9
    1884:	00048d13          	mv	s10,s1
    1888:	ad5ff06f          	j	135c <_vsnprintf+0x188>
    188c:	07800793          	li	a5,120
    1890:	12f50463          	beq	a0,a5,19b8 <_vsnprintf+0x7e4>
    1894:	06f00793          	li	a5,111
    1898:	06f50a63          	beq	a0,a5,190c <_vsnprintf+0x738>
    189c:	06900793          	li	a5,105
    18a0:	fef47693          	andi	a3,s0,-17
    18a4:	0ef51463          	bne	a0,a5,198c <_vsnprintf+0x7b8>
    18a8:	40047793          	andi	a5,s0,1024
    18ac:	00078463          	beqz	a5,18b4 <_vsnprintf+0x6e0>
    18b0:	fee47693          	andi	a3,s0,-18
    18b4:	2006f793          	andi	a5,a3,512
    18b8:	9a0794e3          	bnez	a5,1260 <_vsnprintf+0x8c>
    18bc:	1006f793          	andi	a5,a3,256
    18c0:	004d0413          	addi	s0,s10,4
    18c4:	08079463          	bnez	a5,194c <_vsnprintf+0x778>
    18c8:	0406f793          	andi	a5,a3,64
    18cc:	04078e63          	beqz	a5,1928 <_vsnprintf+0x754>
    18d0:	000d4783          	lbu	a5,0(s10)
    18d4:	00078713          	mv	a4,a5
    18d8:	000d8613          	mv	a2,s11
    18dc:	00d12223          	sw	a3,4(sp)
    18e0:	01712023          	sw	s7,0(sp)
    18e4:	000c8893          	mv	a7,s9
    18e8:	00a00813          	li	a6,10
    18ec:	01f7d793          	srli	a5,a5,0x1f
    18f0:	00098693          	mv	a3,s3
    18f4:	000a0593          	mv	a1,s4
    18f8:	000a8513          	mv	a0,s5
    18fc:	b90ff0ef          	jal	c8c <_ntoa_long>
    1900:	00050d93          	mv	s11,a0
    1904:	00040d13          	mv	s10,s0
    1908:	959ff06f          	j	1260 <_vsnprintf+0x8c>
    190c:	40047793          	andi	a5,s0,1024
    1910:	00800813          	li	a6,8
    1914:	00078663          	beqz	a5,1920 <_vsnprintf+0x74c>
    1918:	ff247413          	andi	s0,s0,-14
    191c:	b99ff06f          	j	14b4 <_vsnprintf+0x2e0>
    1920:	ff347413          	andi	s0,s0,-13
    1924:	b91ff06f          	j	14b4 <_vsnprintf+0x2e0>
    1928:	0806f793          	andi	a5,a3,128
    192c:	04078663          	beqz	a5,1978 <_vsnprintf+0x7a4>
    1930:	000d1783          	lh	a5,0(s10)
    1934:	40f7d613          	srai	a2,a5,0xf
    1938:	00c7c733          	xor	a4,a5,a2
    193c:	40c70733          	sub	a4,a4,a2
    1940:	01071713          	slli	a4,a4,0x10
    1944:	01075713          	srli	a4,a4,0x10
    1948:	f91ff06f          	j	18d8 <_vsnprintf+0x704>
    194c:	000d2783          	lw	a5,0(s10)
    1950:	00d12223          	sw	a3,4(sp)
    1954:	000d8613          	mv	a2,s11
    1958:	41f7d713          	srai	a4,a5,0x1f
    195c:	00f746b3          	xor	a3,a4,a5
    1960:	01712023          	sw	s7,0(sp)
    1964:	000c8893          	mv	a7,s9
    1968:	00a00813          	li	a6,10
    196c:	01f7d793          	srli	a5,a5,0x1f
    1970:	40e68733          	sub	a4,a3,a4
    1974:	f7dff06f          	j	18f0 <_vsnprintf+0x71c>
    1978:	000d2783          	lw	a5,0(s10)
    197c:	41f7d613          	srai	a2,a5,0x1f
    1980:	00f64733          	xor	a4,a2,a5
    1984:	40c70733          	sub	a4,a4,a2
    1988:	f51ff06f          	j	18d8 <_vsnprintf+0x704>
    198c:	06400793          	li	a5,100
    1990:	f0f50ce3          	beq	a0,a5,18a8 <_vsnprintf+0x6d4>
    1994:	40047793          	andi	a5,s0,1024
    1998:	00078a63          	beqz	a5,19ac <_vsnprintf+0x7d8>
    199c:	00068413          	mv	s0,a3
    19a0:	00a00813          	li	a6,10
    19a4:	ff247413          	andi	s0,s0,-14
    19a8:	b0dff06f          	j	14b4 <_vsnprintf+0x2e0>
    19ac:	fe347413          	andi	s0,s0,-29
    19b0:	00a00813          	li	a6,10
    19b4:	b01ff06f          	j	14b4 <_vsnprintf+0x2e0>
    19b8:	40047793          	andi	a5,s0,1024
    19bc:	e80782e3          	beqz	a5,1840 <_vsnprintf+0x66c>
    19c0:	ff247413          	andi	s0,s0,-14
    19c4:	01000813          	li	a6,16
    19c8:	aedff06f          	j	14b4 <_vsnprintf+0x2e0>
    19cc:	00070c13          	mv	s8,a4
    19d0:	929ff06f          	j	12f8 <_vsnprintf+0x124>

000019d4 <_putchar>:
    19d4:	ff010113          	addi	sp,sp,-16
    19d8:	00112623          	sw	ra,12(sp)
    19dc:	1f4000ef          	jal	1bd0 <uart_send_char>
    19e0:	00c12083          	lw	ra,12(sp)
    19e4:	00000513          	li	a0,0
    19e8:	01010113          	addi	sp,sp,16
    19ec:	00008067          	ret

000019f0 <printf_>:
    19f0:	fc010113          	addi	sp,sp,-64
    19f4:	02410313          	addi	t1,sp,36
    19f8:	02d12623          	sw	a3,44(sp)
    19fc:	00050693          	mv	a3,a0
    1a00:	00001537          	lui	a0,0x1
    1a04:	02b12223          	sw	a1,36(sp)
    1a08:	02c12423          	sw	a2,40(sp)
    1a0c:	02e12823          	sw	a4,48(sp)
    1a10:	00810593          	addi	a1,sp,8
    1a14:	00030713          	mv	a4,t1
    1a18:	fff00613          	li	a2,-1
    1a1c:	1b450513          	addi	a0,a0,436 # 11b4 <_out_char>
    1a20:	00112e23          	sw	ra,28(sp)
    1a24:	02f12a23          	sw	a5,52(sp)
    1a28:	03012c23          	sw	a6,56(sp)
    1a2c:	03112e23          	sw	a7,60(sp)
    1a30:	00612623          	sw	t1,12(sp)
    1a34:	fa0ff0ef          	jal	11d4 <_vsnprintf>
    1a38:	01c12083          	lw	ra,28(sp)
    1a3c:	04010113          	addi	sp,sp,64
    1a40:	00008067          	ret

00001a44 <sprintf_>:
    1a44:	fc010113          	addi	sp,sp,-64
    1a48:	02810313          	addi	t1,sp,40
    1a4c:	02d12623          	sw	a3,44(sp)
    1a50:	00058693          	mv	a3,a1
    1a54:	00050593          	mv	a1,a0
    1a58:	00001537          	lui	a0,0x1
    1a5c:	02c12423          	sw	a2,40(sp)
    1a60:	02e12823          	sw	a4,48(sp)
    1a64:	fff00613          	li	a2,-1
    1a68:	00030713          	mv	a4,t1
    1a6c:	c7850513          	addi	a0,a0,-904 # c78 <_out_buffer>
    1a70:	00112e23          	sw	ra,28(sp)
    1a74:	02f12a23          	sw	a5,52(sp)
    1a78:	03012c23          	sw	a6,56(sp)
    1a7c:	03112e23          	sw	a7,60(sp)
    1a80:	00612623          	sw	t1,12(sp)
    1a84:	f50ff0ef          	jal	11d4 <_vsnprintf>
    1a88:	01c12083          	lw	ra,28(sp)
    1a8c:	04010113          	addi	sp,sp,64
    1a90:	00008067          	ret

00001a94 <snprintf_>:
    1a94:	fc010113          	addi	sp,sp,-64
    1a98:	02c10313          	addi	t1,sp,44
    1a9c:	02d12623          	sw	a3,44(sp)
    1aa0:	00060693          	mv	a3,a2
    1aa4:	00058613          	mv	a2,a1
    1aa8:	00050593          	mv	a1,a0
    1aac:	00001537          	lui	a0,0x1
    1ab0:	02e12823          	sw	a4,48(sp)
    1ab4:	c7850513          	addi	a0,a0,-904 # c78 <_out_buffer>
    1ab8:	00030713          	mv	a4,t1
    1abc:	00112e23          	sw	ra,28(sp)
    1ac0:	02f12a23          	sw	a5,52(sp)
    1ac4:	03012c23          	sw	a6,56(sp)
    1ac8:	03112e23          	sw	a7,60(sp)
    1acc:	00612623          	sw	t1,12(sp)
    1ad0:	f04ff0ef          	jal	11d4 <_vsnprintf>
    1ad4:	01c12083          	lw	ra,28(sp)
    1ad8:	04010113          	addi	sp,sp,64
    1adc:	00008067          	ret

00001ae0 <vprintf_>:
    1ae0:	fe010113          	addi	sp,sp,-32
    1ae4:	00050693          	mv	a3,a0
    1ae8:	00001537          	lui	a0,0x1
    1aec:	00058713          	mv	a4,a1
    1af0:	fff00613          	li	a2,-1
    1af4:	00c10593          	addi	a1,sp,12
    1af8:	1b450513          	addi	a0,a0,436 # 11b4 <_out_char>
    1afc:	00112e23          	sw	ra,28(sp)
    1b00:	ed4ff0ef          	jal	11d4 <_vsnprintf>
    1b04:	01c12083          	lw	ra,28(sp)
    1b08:	02010113          	addi	sp,sp,32
    1b0c:	00008067          	ret

00001b10 <vsnprintf_>:
    1b10:	00068713          	mv	a4,a3
    1b14:	00060693          	mv	a3,a2
    1b18:	00058613          	mv	a2,a1
    1b1c:	00050593          	mv	a1,a0
    1b20:	00001537          	lui	a0,0x1
    1b24:	c7850513          	addi	a0,a0,-904 # c78 <_out_buffer>
    1b28:	eacff06f          	j	11d4 <_vsnprintf>

00001b2c <fctprintf>:
    1b2c:	fc010113          	addi	sp,sp,-64
    1b30:	02c10313          	addi	t1,sp,44
    1b34:	00050e93          	mv	t4,a0
    1b38:	00001537          	lui	a0,0x1
    1b3c:	00058e13          	mv	t3,a1
    1b40:	02d12623          	sw	a3,44(sp)
    1b44:	02e12823          	sw	a4,48(sp)
    1b48:	00060693          	mv	a3,a2
    1b4c:	00810593          	addi	a1,sp,8
    1b50:	00030713          	mv	a4,t1
    1b54:	fff00613          	li	a2,-1
    1b58:	1c050513          	addi	a0,a0,448 # 11c0 <_out_fct>
    1b5c:	00112e23          	sw	ra,28(sp)
    1b60:	02f12a23          	sw	a5,52(sp)
    1b64:	03012c23          	sw	a6,56(sp)
    1b68:	03112e23          	sw	a7,60(sp)
    1b6c:	00612223          	sw	t1,4(sp)
    1b70:	01d12423          	sw	t4,8(sp)
    1b74:	01c12623          	sw	t3,12(sp)
    1b78:	e5cff0ef          	jal	11d4 <_vsnprintf>
    1b7c:	01c12083          	lw	ra,28(sp)
    1b80:	04010113          	addi	sp,sp,64
    1b84:	00008067          	ret

00001b88 <tinyIO_init>:
    1b88:	0040006f          	j	1b8c <uart_init>

00001b8c <uart_init>:
    1b8c:	000027b7          	lui	a5,0x2
    1b90:	f4a7a823          	sw	a0,-176(a5) # 1f50 <global_uart>
    1b94:	00300793          	li	a5,3
    1b98:	00f52623          	sw	a5,12(a0)
    1b9c:	00008067          	ret

00001ba0 <uart_is_rx_empty>:
    1ba0:	000027b7          	lui	a5,0x2
    1ba4:	f507a783          	lw	a5,-176(a5) # 1f50 <global_uart>
    1ba8:	0087a503          	lw	a0,8(a5)
    1bac:	fff54513          	not	a0,a0
    1bb0:	00157513          	andi	a0,a0,1
    1bb4:	00008067          	ret

00001bb8 <uart_is_tx_empty>:
    1bb8:	000027b7          	lui	a5,0x2
    1bbc:	f507a783          	lw	a5,-176(a5) # 1f50 <global_uart>
    1bc0:	0087a503          	lw	a0,8(a5)
    1bc4:	00255513          	srli	a0,a0,0x2
    1bc8:	00157513          	andi	a0,a0,1
    1bcc:	00008067          	ret

00001bd0 <uart_send_char>:
    1bd0:	000027b7          	lui	a5,0x2
    1bd4:	f507a703          	lw	a4,-176(a5) # 1f50 <global_uart>
    1bd8:	00872783          	lw	a5,8(a4)
    1bdc:	0047f793          	andi	a5,a5,4
    1be0:	fe078ce3          	beqz	a5,1bd8 <uart_send_char+0x8>
    1be4:	00a72223          	sw	a0,4(a4)
    1be8:	00008067          	ret

00001bec <uart_get_char>:
    1bec:	000027b7          	lui	a5,0x2
    1bf0:	f507a703          	lw	a4,-176(a5) # 1f50 <global_uart>
    1bf4:	00872783          	lw	a5,8(a4)
    1bf8:	0017f793          	andi	a5,a5,1
    1bfc:	fe078ce3          	beqz	a5,1bf4 <uart_get_char+0x8>
    1c00:	00072503          	lw	a0,0(a4)
    1c04:	00008067          	ret
	...
