
bin/interrupts.elf:     file format elf32-littleriscv


Disassembly of section .vector_table:

00000000 <.vector_table>:
   0:	0800006f          	j	80 <_reset_handler>
   4:	1240006f          	j	128 <_default_handler>
   8:	1200006f          	j	128 <_default_handler>
   c:	11c0006f          	j	128 <_default_handler>
  10:	1180006f          	j	128 <_default_handler>
  14:	1140006f          	j	128 <_default_handler>
  18:	1100006f          	j	128 <_default_handler>
  1c:	10c0006f          	j	128 <_default_handler>
  20:	1080006f          	j	128 <_default_handler>
  24:	1040006f          	j	128 <_default_handler>
  28:	1000006f          	j	128 <_default_handler>
  2c:	0fc0006f          	j	128 <_default_handler>
  30:	0f80006f          	j	128 <_default_handler>
  34:	0f40006f          	j	128 <_default_handler>
  38:	0f00006f          	j	128 <_default_handler>
  3c:	0ec0006f          	j	128 <_default_handler>
  40:	0e80006f          	j	128 <_default_handler>
  44:	0e40006f          	j	128 <_default_handler>
  48:	0e00006f          	j	128 <_default_handler>
  4c:	0dc0006f          	j	128 <_default_handler>
  50:	0d80006f          	j	128 <_default_handler>
  54:	0d40006f          	j	128 <_default_handler>
  58:	0d00006f          	j	128 <_default_handler>
  5c:	0cc0006f          	j	128 <_default_handler>
  60:	0c80006f          	j	128 <_default_handler>
  64:	0c40006f          	j	128 <_default_handler>
  68:	0c00006f          	j	128 <_default_handler>
  6c:	0bc0006f          	j	128 <_default_handler>
  70:	0b80006f          	j	128 <_default_handler>
  74:	0b40006f          	j	128 <_default_handler>
  78:	0b00006f          	j	128 <_default_handler>
  7c:	0ac0006f          	j	128 <_default_handler>

Disassembly of section .text:

00000080 <_reset_handler>:
      80:	00000093          	li	ra,0
      84:	00000113          	li	sp,0
      88:	00000193          	li	gp,0
      8c:	00000213          	li	tp,0
      90:	00000293          	li	t0,0
      94:	00000313          	li	t1,0
      98:	00000393          	li	t2,0
      9c:	00000413          	li	s0,0
      a0:	00000493          	li	s1,0
      a4:	00000513          	li	a0,0
      a8:	00000593          	li	a1,0
      ac:	00000613          	li	a2,0
      b0:	00000693          	li	a3,0
      b4:	00000713          	li	a4,0
      b8:	00000793          	li	a5,0
      bc:	00000813          	li	a6,0
      c0:	00000893          	li	a7,0
      c4:	00000913          	li	s2,0
      c8:	00000993          	li	s3,0
      cc:	00000a13          	li	s4,0
      d0:	00000a93          	li	s5,0
      d4:	00000b13          	li	s6,0
      d8:	00000b93          	li	s7,0
      dc:	00000c13          	li	s8,0
      e0:	00000c93          	li	s9,0
      e4:	00000d13          	li	s10,0
      e8:	00000d93          	li	s11,0
      ec:	00000e13          	li	t3,0
      f0:	00000e93          	li	t4,0
      f4:	00000f13          	li	t5,0
      f8:	00000f93          	li	t6,0
      fc:	00000513          	li	a0,0
     100:	00100593          	li	a1,1
     104:	00a5e5b3          	or	a1,a1,a0
     108:	30559073          	csrw	mtvec,a1
     10c:	30046073          	csrsi	mstatus,8
     110:	000015b7          	lui	a1,0x1
     114:	88858593          	addi	a1,a1,-1912 # 888 <_ntoa_long+0x330>
     118:	3045a073          	csrs	mie,a1
     11c:	00008117          	auipc	sp,0x8
     120:	ee010113          	addi	sp,sp,-288 # 7ffc <_stack_start>
     124:	0080006f          	j	12c <_start>

00000128 <_default_handler>:
     128:	0000006f          	j	128 <_default_handler>

0000012c <_start>:
     12c:	00000293          	li	t0,0
     130:	00020337          	lui	t1,0x20
     134:	20030313          	addi	t1,t1,512 # 20200 <_peripheral_GPIO_out_start>
     138:	00532023          	sw	t0,0(t1)
     13c:	00000513          	li	a0,0
     140:	00000593          	li	a1,0
     144:	1a6000ef          	jal	2ea <main>
     148:	00100293          	li	t0,1
     14c:	00020337          	lui	t1,0x20
     150:	20030313          	addi	t1,t1,512 # 20200 <_peripheral_GPIO_out_start>
     154:	00532023          	sw	t0,0(t1)

00000158 <_exit_wfi>:
     158:	10500073          	wfi

0000015c <_exit_spin>:
     15c:	0000006f          	j	15c <_exit_spin>

00000160 <install_exception_handler>:
     160:	7179                	addi	sp,sp,-48
     162:	d622                	sw	s0,44(sp)
     164:	1800                	addi	s0,sp,48
     166:	fca42e23          	sw	a0,-36(s0)
     16a:	fcb42c23          	sw	a1,-40(s0)
     16e:	fdc42703          	lw	a4,-36(s0)
     172:	47fd                	li	a5,31
     174:	00e7f463          	bgeu	a5,a4,17c <install_exception_handler+0x1c>
     178:	4785                	li	a5,1
     17a:	a859                	j	210 <install_exception_handler+0xb0>
     17c:	fdc42783          	lw	a5,-36(s0)
     180:	00279713          	slli	a4,a5,0x2
     184:	00000793          	li	a5,0
     188:	97ba                	add	a5,a5,a4
     18a:	fef42623          	sw	a5,-20(s0)
     18e:	fd842703          	lw	a4,-40(s0)
     192:	fec42783          	lw	a5,-20(s0)
     196:	40f707b3          	sub	a5,a4,a5
     19a:	fef42423          	sw	a5,-24(s0)
     19e:	fe842703          	lw	a4,-24(s0)
     1a2:	000807b7          	lui	a5,0x80
     1a6:	00f75863          	bge	a4,a5,1b6 <install_exception_handler+0x56>
     1aa:	fe842703          	lw	a4,-24(s0)
     1ae:	fff807b7          	lui	a5,0xfff80
     1b2:	00f75463          	bge	a4,a5,1ba <install_exception_handler+0x5a>
     1b6:	4789                	li	a5,2
     1b8:	a8a1                	j	210 <install_exception_handler+0xb0>
     1ba:	fe842783          	lw	a5,-24(s0)
     1be:	fef42223          	sw	a5,-28(s0)
     1c2:	fe442783          	lw	a5,-28(s0)
     1c6:	01479713          	slli	a4,a5,0x14
     1ca:	7fe007b7          	lui	a5,0x7fe00
     1ce:	8f7d                	and	a4,a4,a5
     1d0:	fe442783          	lw	a5,-28(s0)
     1d4:	00979693          	slli	a3,a5,0x9
     1d8:	001007b7          	lui	a5,0x100
     1dc:	8ff5                	and	a5,a5,a3
     1de:	8f5d                	or	a4,a4,a5
     1e0:	fe442683          	lw	a3,-28(s0)
     1e4:	000ff7b7          	lui	a5,0xff
     1e8:	8ff5                	and	a5,a5,a3
     1ea:	8f5d                	or	a4,a4,a5
     1ec:	fe442783          	lw	a5,-28(s0)
     1f0:	00b79693          	slli	a3,a5,0xb
     1f4:	800007b7          	lui	a5,0x80000
     1f8:	8ff5                	and	a5,a5,a3
     1fa:	8fd9                	or	a5,a5,a4
     1fc:	06f7e793          	ori	a5,a5,111
     200:	fef42023          	sw	a5,-32(s0)
     204:	fec42783          	lw	a5,-20(s0)
     208:	fe042703          	lw	a4,-32(s0)
     20c:	c398                	sw	a4,0(a5)
     20e:	4781                	li	a5,0
     210:	853e                	mv	a0,a5
     212:	5432                	lw	s0,44(sp)
     214:	6145                	addi	sp,sp,48
     216:	8082                	ret

00000218 <_sw_handler>:
     218:	1141                	addi	sp,sp,-16
     21a:	c622                	sw	s0,12(sp)
     21c:	0800                	addi	s0,sp,16
     21e:	0001                	nop
     220:	4432                	lw	s0,12(sp)
     222:	0141                	addi	sp,sp,16
     224:	30200073          	mret

00000228 <_timer_handler>:
     228:	1141                	addi	sp,sp,-16
     22a:	c622                	sw	s0,12(sp)
     22c:	0800                	addi	s0,sp,16
     22e:	0001                	nop
     230:	4432                	lw	s0,12(sp)
     232:	0141                	addi	sp,sp,16
     234:	30200073          	mret

00000238 <_ext_handler>:
     238:	711d                	addi	sp,sp,-96
     23a:	ce86                	sw	ra,92(sp)
     23c:	cc96                	sw	t0,88(sp)
     23e:	ca9a                	sw	t1,84(sp)
     240:	c89e                	sw	t2,80(sp)
     242:	c6a2                	sw	s0,76(sp)
     244:	c4aa                	sw	a0,72(sp)
     246:	c2ae                	sw	a1,68(sp)
     248:	c0b2                	sw	a2,64(sp)
     24a:	de36                	sw	a3,60(sp)
     24c:	dc3a                	sw	a4,56(sp)
     24e:	da3e                	sw	a5,52(sp)
     250:	d842                	sw	a6,48(sp)
     252:	d646                	sw	a7,44(sp)
     254:	d472                	sw	t3,40(sp)
     256:	d276                	sw	t4,36(sp)
     258:	d07a                	sw	t5,32(sp)
     25a:	ce7e                	sw	t6,28(sp)
     25c:	1080                	addi	s0,sp,96
     25e:	040007b7          	lui	a5,0x4000
     262:	00078793          	mv	a5,a5
     266:	faf42623          	sw	a5,-84(s0)
     26a:	fac42703          	lw	a4,-84(s0)
     26e:	002007b7          	lui	a5,0x200
     272:	97ba                	add	a5,a5,a4
     274:	43dc                	lw	a5,4(a5)
     276:	faf42423          	sw	a5,-88(s0)
     27a:	fa842703          	lw	a4,-88(s0)
     27e:	4789                	li	a5,2
     280:	02f70063          	beq	a4,a5,2a0 <_ext_handler+0x68>
     284:	fa842703          	lw	a4,-88(s0)
     288:	4789                	li	a5,2
     28a:	00e7ed63          	bltu	a5,a4,2a4 <_ext_handler+0x6c>
     28e:	fa842783          	lw	a5,-88(s0)
     292:	cb99                	beqz	a5,2a8 <_ext_handler+0x70>
     294:	fa842703          	lw	a4,-88(s0)
     298:	4785                	li	a5,1
     29a:	00f70963          	beq	a4,a5,2ac <_ext_handler+0x74>
     29e:	a019                	j	2a4 <_ext_handler+0x6c>
     2a0:	24a5                	jal	508 <tim_handler>
     2a2:	a031                	j	2ae <_ext_handler+0x76>
     2a4:	0001                	nop
     2a6:	a021                	j	2ae <_ext_handler+0x76>
     2a8:	0001                	nop
     2aa:	a011                	j	2ae <_ext_handler+0x76>
     2ac:	0001                	nop
     2ae:	fac42703          	lw	a4,-84(s0)
     2b2:	002007b7          	lui	a5,0x200
     2b6:	0791                	addi	a5,a5,4 # 200004 <_peripheral_HLS_CONTROL_end+0x1c0004>
     2b8:	97ba                	add	a5,a5,a4
     2ba:	fa842703          	lw	a4,-88(s0)
     2be:	c398                	sw	a4,0(a5)
     2c0:	0001                	nop
     2c2:	40f6                	lw	ra,92(sp)
     2c4:	42e6                	lw	t0,88(sp)
     2c6:	4356                	lw	t1,84(sp)
     2c8:	43c6                	lw	t2,80(sp)
     2ca:	4436                	lw	s0,76(sp)
     2cc:	4526                	lw	a0,72(sp)
     2ce:	4596                	lw	a1,68(sp)
     2d0:	4606                	lw	a2,64(sp)
     2d2:	56f2                	lw	a3,60(sp)
     2d4:	5762                	lw	a4,56(sp)
     2d6:	57d2                	lw	a5,52(sp)
     2d8:	5842                	lw	a6,48(sp)
     2da:	58b2                	lw	a7,44(sp)
     2dc:	5e22                	lw	t3,40(sp)
     2de:	5e92                	lw	t4,36(sp)
     2e0:	5f02                	lw	t5,32(sp)
     2e2:	4ff2                	lw	t6,28(sp)
     2e4:	6125                	addi	sp,sp,96
     2e6:	30200073          	mret

000002ea <main>:
     2ea:	1141                	addi	sp,sp,-16
     2ec:	c606                	sw	ra,12(sp)
     2ee:	c422                	sw	s0,8(sp)
     2f0:	0800                	addi	s0,sp,16
     2f2:	21800593          	li	a1,536
     2f6:	450d                	li	a0,3
     2f8:	35a5                	jal	160 <install_exception_handler>
     2fa:	22800593          	li	a1,552
     2fe:	451d                	li	a0,7
     300:	3585                	jal	160 <install_exception_handler>
     302:	23800593          	li	a1,568
     306:	452d                	li	a0,11
     308:	3da1                	jal	160 <install_exception_handler>
     30a:	2061                	jal	392 <serial_init>
     30c:	6785                	lui	a5,0x1
     30e:	4e078513          	addi	a0,a5,1248 # 14e0 <_text_end>
     312:	7a7000ef          	jal	12b8 <printf_>
     316:	2031                	jal	322 <plic_configure>
     318:	2891                	jal	36c <plic_enable>
     31a:	2a1d                	jal	450 <tim_configure>
     31c:	2a61                	jal	4b4 <tim_enable_int>
     31e:	22c1                	jal	4de <tim_enable>
     320:	a001                	j	320 <main+0x36>

00000322 <plic_configure>:
     322:	1101                	addi	sp,sp,-32
     324:	ce22                	sw	s0,28(sp)
     326:	1000                	addi	s0,sp,32
     328:	040007b7          	lui	a5,0x4000
     32c:	00078793          	mv	a5,a5
     330:	fef42423          	sw	a5,-24(s0)
     334:	4785                	li	a5,1
     336:	fef42623          	sw	a5,-20(s0)
     33a:	a839                	j	358 <plic_configure+0x36>
     33c:	fec42783          	lw	a5,-20(s0)
     340:	078a                	slli	a5,a5,0x2
     342:	873e                	mv	a4,a5
     344:	fe842783          	lw	a5,-24(s0)
     348:	97ba                	add	a5,a5,a4
     34a:	4705                	li	a4,1
     34c:	c398                	sw	a4,0(a5)
     34e:	fec42783          	lw	a5,-20(s0)
     352:	0785                	addi	a5,a5,1 # 4000001 <_peripheral_PLIC_start+0x1>
     354:	fef42623          	sw	a5,-20(s0)
     358:	fec42703          	lw	a4,-20(s0)
     35c:	478d                	li	a5,3
     35e:	fce7dfe3          	bge	a5,a4,33c <plic_configure+0x1a>
     362:	0001                	nop
     364:	0001                	nop
     366:	4472                	lw	s0,28(sp)
     368:	6105                	addi	sp,sp,32
     36a:	8082                	ret

0000036c <plic_enable>:
     36c:	1101                	addi	sp,sp,-32
     36e:	ce22                	sw	s0,28(sp)
     370:	1000                	addi	s0,sp,32
     372:	040007b7          	lui	a5,0x4000
     376:	00078793          	mv	a5,a5
     37a:	fef42623          	sw	a5,-20(s0)
     37e:	fec42703          	lw	a4,-20(s0)
     382:	6789                	lui	a5,0x2
     384:	97ba                	add	a5,a5,a4
     386:	473d                	li	a4,15
     388:	c398                	sw	a4,0(a5)
     38a:	0001                	nop
     38c:	4472                	lw	s0,28(sp)
     38e:	6105                	addi	sp,sp,32
     390:	8082                	ret

00000392 <serial_init>:
     392:	1101                	addi	sp,sp,-32
     394:	ce06                	sw	ra,28(sp)
     396:	cc22                	sw	s0,24(sp)
     398:	1000                	addi	s0,sp,32
     39a:	000207b7          	lui	a5,0x20
     39e:	00078793          	mv	a5,a5
     3a2:	fef42623          	sw	a5,-20(s0)
     3a6:	fec42783          	lw	a5,-20(s0)
     3aa:	853e                	mv	a0,a5
     3ac:	098010ef          	jal	1444 <tinyIO_init>
     3b0:	0001                	nop
     3b2:	40f2                	lw	ra,28(sp)
     3b4:	4462                	lw	s0,24(sp)
     3b6:	6105                	addi	sp,sp,32
     3b8:	8082                	ret

000003ba <gpio_in_configure>:
     3ba:	1101                	addi	sp,sp,-32
     3bc:	ce22                	sw	s0,28(sp)
     3be:	1000                	addi	s0,sp,32
     3c0:	000207b7          	lui	a5,0x20
     3c4:	40078793          	addi	a5,a5,1024 # 20400 <_peripheral_GPIO_in_start>
     3c8:	fef42623          	sw	a5,-20(s0)
     3cc:	fec42783          	lw	a5,-20(s0)
     3d0:	0791                	addi	a5,a5,4
     3d2:	4705                	li	a4,1
     3d4:	c398                	sw	a4,0(a5)
     3d6:	0001                	nop
     3d8:	4472                	lw	s0,28(sp)
     3da:	6105                	addi	sp,sp,32
     3dc:	8082                	ret

000003de <gpio_in_enable_int>:
     3de:	1101                	addi	sp,sp,-32
     3e0:	ce22                	sw	s0,28(sp)
     3e2:	1000                	addi	s0,sp,32
     3e4:	000207b7          	lui	a5,0x20
     3e8:	40078793          	addi	a5,a5,1024 # 20400 <_peripheral_GPIO_in_start>
     3ec:	fef42623          	sw	a5,-20(s0)
     3f0:	fec42783          	lw	a5,-20(s0)
     3f4:	12878793          	addi	a5,a5,296
     3f8:	4705                	li	a4,1
     3fa:	c398                	sw	a4,0(a5)
     3fc:	fec42783          	lw	a5,-20(s0)
     400:	11c78793          	addi	a5,a5,284
     404:	80000737          	lui	a4,0x80000
     408:	c398                	sw	a4,0(a5)
     40a:	0001                	nop
     40c:	4472                	lw	s0,28(sp)
     40e:	6105                	addi	sp,sp,32
     410:	8082                	ret

00000412 <gpio_handler>:
     412:	1101                	addi	sp,sp,-32
     414:	ce22                	sw	s0,28(sp)
     416:	1000                	addi	s0,sp,32
     418:	000207b7          	lui	a5,0x20
     41c:	40078793          	addi	a5,a5,1024 # 20400 <_peripheral_GPIO_in_start>
     420:	fef42623          	sw	a5,-20(s0)
     424:	000207b7          	lui	a5,0x20
     428:	20078793          	addi	a5,a5,512 # 20200 <_peripheral_GPIO_out_start>
     42c:	fef42423          	sw	a5,-24(s0)
     430:	fec42783          	lw	a5,-20(s0)
     434:	4398                	lw	a4,0(a5)
     436:	fe842783          	lw	a5,-24(s0)
     43a:	c398                	sw	a4,0(a5)
     43c:	fec42783          	lw	a5,-20(s0)
     440:	12078793          	addi	a5,a5,288
     444:	4705                	li	a4,1
     446:	c398                	sw	a4,0(a5)
     448:	0001                	nop
     44a:	4472                	lw	s0,28(sp)
     44c:	6105                	addi	sp,sp,32
     44e:	8082                	ret

00000450 <tim_configure>:
     450:	1101                	addi	sp,sp,-32
     452:	ce22                	sw	s0,28(sp)
     454:	1000                	addi	s0,sp,32
     456:	000207b7          	lui	a5,0x20
     45a:	60078793          	addi	a5,a5,1536 # 20600 <_peripheral_GPIO_in_end>
     45e:	fef42623          	sw	a5,-20(s0)
     462:	fec42783          	lw	a5,-20(s0)
     466:	0791                	addi	a5,a5,4
     468:	01313737          	lui	a4,0x1313
     46c:	d0070713          	addi	a4,a4,-768 # 1312d00 <_peripheral_HLS_CONTROL_end+0x12d2d00>
     470:	c398                	sw	a4,0(a5)
     472:	fec42783          	lw	a5,-20(s0)
     476:	02000713          	li	a4,32
     47a:	c398                	sw	a4,0(a5)
     47c:	fec42783          	lw	a5,-20(s0)
     480:	439c                	lw	a5,0(a5)
     482:	fdf7f713          	andi	a4,a5,-33
     486:	fec42783          	lw	a5,-20(s0)
     48a:	c398                	sw	a4,0(a5)
     48c:	fec42783          	lw	a5,-20(s0)
     490:	439c                	lw	a5,0(a5)
     492:	0107e713          	ori	a4,a5,16
     496:	fec42783          	lw	a5,-20(s0)
     49a:	c398                	sw	a4,0(a5)
     49c:	fec42783          	lw	a5,-20(s0)
     4a0:	439c                	lw	a5,0(a5)
     4a2:	0027e713          	ori	a4,a5,2
     4a6:	fec42783          	lw	a5,-20(s0)
     4aa:	c398                	sw	a4,0(a5)
     4ac:	0001                	nop
     4ae:	4472                	lw	s0,28(sp)
     4b0:	6105                	addi	sp,sp,32
     4b2:	8082                	ret

000004b4 <tim_enable_int>:
     4b4:	1101                	addi	sp,sp,-32
     4b6:	ce22                	sw	s0,28(sp)
     4b8:	1000                	addi	s0,sp,32
     4ba:	000207b7          	lui	a5,0x20
     4be:	60078793          	addi	a5,a5,1536 # 20600 <_peripheral_GPIO_in_end>
     4c2:	fef42623          	sw	a5,-20(s0)
     4c6:	fec42783          	lw	a5,-20(s0)
     4ca:	439c                	lw	a5,0(a5)
     4cc:	0407e713          	ori	a4,a5,64
     4d0:	fec42783          	lw	a5,-20(s0)
     4d4:	c398                	sw	a4,0(a5)
     4d6:	0001                	nop
     4d8:	4472                	lw	s0,28(sp)
     4da:	6105                	addi	sp,sp,32
     4dc:	8082                	ret

000004de <tim_enable>:
     4de:	1101                	addi	sp,sp,-32
     4e0:	ce22                	sw	s0,28(sp)
     4e2:	1000                	addi	s0,sp,32
     4e4:	000207b7          	lui	a5,0x20
     4e8:	60078793          	addi	a5,a5,1536 # 20600 <_peripheral_GPIO_in_end>
     4ec:	fef42623          	sw	a5,-20(s0)
     4f0:	fec42783          	lw	a5,-20(s0)
     4f4:	439c                	lw	a5,0(a5)
     4f6:	0807e713          	ori	a4,a5,128
     4fa:	fec42783          	lw	a5,-20(s0)
     4fe:	c398                	sw	a4,0(a5)
     500:	0001                	nop
     502:	4472                	lw	s0,28(sp)
     504:	6105                	addi	sp,sp,32
     506:	8082                	ret

00000508 <tim_handler>:
     508:	1101                	addi	sp,sp,-32
     50a:	ce06                	sw	ra,28(sp)
     50c:	cc22                	sw	s0,24(sp)
     50e:	1000                	addi	s0,sp,32
     510:	000207b7          	lui	a5,0x20
     514:	60078793          	addi	a5,a5,1536 # 20600 <_peripheral_GPIO_in_end>
     518:	fef42623          	sw	a5,-20(s0)
     51c:	6785                	lui	a5,0x1
     51e:	4f878513          	addi	a0,a5,1272 # 14f8 <_text_end+0x18>
     522:	597000ef          	jal	12b8 <printf_>
     526:	fec42783          	lw	a5,-20(s0)
     52a:	10000713          	li	a4,256
     52e:	c398                	sw	a4,0(a5)
     530:	fec42783          	lw	a5,-20(s0)
     534:	0d200713          	li	a4,210
     538:	c398                	sw	a4,0(a5)
     53a:	0001                	nop
     53c:	40f2                	lw	ra,28(sp)
     53e:	4462                	lw	s0,24(sp)
     540:	6105                	addi	sp,sp,32
     542:	8082                	ret

00000544 <_out_buffer>:
     544:	00d67663          	bgeu	a2,a3,550 <_out_buffer+0xc>
     548:	00c585b3          	add	a1,a1,a2
     54c:	00a58023          	sb	a0,0(a1)
     550:	00008067          	ret

00000554 <_out_null>:
     554:	00008067          	ret

00000558 <_ntoa_long>:
     558:	fb010113          	addi	sp,sp,-80
     55c:	05412e03          	lw	t3,84(sp)
     560:	04912223          	sw	s1,68(sp)
     564:	05212023          	sw	s2,64(sp)
     568:	03312e23          	sw	s3,60(sp)
     56c:	03412c23          	sw	s4,56(sp)
     570:	03512a23          	sw	s5,52(sp)
     574:	04112623          	sw	ra,76(sp)
     578:	04812423          	sw	s0,72(sp)
     57c:	03612823          	sw	s6,48(sp)
     580:	03712623          	sw	s7,44(sp)
     584:	03812423          	sw	s8,40(sp)
     588:	03912223          	sw	s9,36(sp)
     58c:	05012a83          	lw	s5,80(sp)
     590:	00050493          	mv	s1,a0
     594:	00058913          	mv	s2,a1
     598:	00060a13          	mv	s4,a2
     59c:	00068993          	mv	s3,a3
     5a0:	400e7f13          	andi	t5,t3,1024
     5a4:	010e7f93          	andi	t6,t3,16
     5a8:	00071a63          	bnez	a4,5bc <_ntoa_long+0x64>
     5ac:	fefe7693          	andi	a3,t3,-17
     5b0:	0c0f1863          	bnez	t5,680 <_ntoa_long+0x128>
     5b4:	00000f93          	li	t6,0
     5b8:	00068e13          	mv	t3,a3
     5bc:	020e7693          	andi	a3,t3,32
     5c0:	06100593          	li	a1,97
     5c4:	14069463          	bnez	a3,70c <_ntoa_long+0x1b4>
     5c8:	00000413          	li	s0,0
     5cc:	00010b13          	mv	s6,sp
     5d0:	00900513          	li	a0,9
     5d4:	ff658593          	addi	a1,a1,-10
     5d8:	02000e93          	li	t4,32
     5dc:	00c0006f          	j	5e8 <_ntoa_long+0x90>
     5e0:	03d40c63          	beq	s0,t4,618 <_ntoa_long+0xc0>
     5e4:	00068713          	mv	a4,a3
     5e8:	030776b3          	remu	a3,a4,a6
     5ec:	0ff6f313          	zext.b	t1,a3
     5f0:	03030613          	addi	a2,t1,48
     5f4:	00b30333          	add	t1,t1,a1
     5f8:	0ff37313          	zext.b	t1,t1
     5fc:	00d56463          	bltu	a0,a3,604 <_ntoa_long+0xac>
     600:	0ff67313          	zext.b	t1,a2
     604:	00140413          	addi	s0,s0,1
     608:	008b06b3          	add	a3,s6,s0
     60c:	fe668fa3          	sb	t1,-1(a3)
     610:	030756b3          	divu	a3,a4,a6
     614:	fd0776e3          	bgeu	a4,a6,5e0 <_ntoa_long+0x88>
     618:	002e7c13          	andi	s8,t3,2
     61c:	060c0c63          	beqz	s8,694 <_ntoa_long+0x13c>
     620:	120f8c63          	beqz	t6,758 <_ntoa_long+0x200>
     624:	220f1263          	bnez	t5,848 <_ntoa_long+0x2f0>
     628:	2a041263          	bnez	s0,8cc <_ntoa_long+0x374>
     62c:	01000713          	li	a4,16
     630:	3ee80663          	beq	a6,a4,a1c <_ntoa_long+0x4c4>
     634:	00200713          	li	a4,2
     638:	3ee80c63          	beq	a6,a4,a30 <_ntoa_long+0x4d8>
     63c:	03000713          	li	a4,48
     640:	00e10023          	sb	a4,0(sp)
     644:	000e0693          	mv	a3,t3
     648:	00100713          	li	a4,1
     64c:	0036f613          	andi	a2,a3,3
     650:	24079663          	bnez	a5,89c <_ntoa_long+0x344>
     654:	0046f793          	andi	a5,a3,4
     658:	30078c63          	beqz	a5,970 <_ntoa_long+0x418>
     65c:	02070793          	addi	a5,a4,32
     660:	002787b3          	add	a5,a5,sp
     664:	00170413          	addi	s0,a4,1
     668:	02b00713          	li	a4,43
     66c:	fee78023          	sb	a4,-32(a5)
     670:	000a0b93          	mv	s7,s4
     674:	1e061c63          	bnez	a2,86c <_ntoa_long+0x314>
     678:	0f546a63          	bltu	s0,s5,76c <_ntoa_long+0x214>
     67c:	1f00006f          	j	86c <_ntoa_long+0x314>
     680:	002e7c13          	andi	s8,t3,2
     684:	fc0c14e3          	bnez	s8,64c <_ntoa_long+0xf4>
     688:	00000f93          	li	t6,0
     68c:	00068e13          	mv	t3,a3
     690:	00000413          	li	s0,0
     694:	180a9263          	bnez	s5,818 <_ntoa_long+0x2c0>
     698:	07147463          	bgeu	s0,a7,700 <_ntoa_long+0x1a8>
     69c:	02000713          	li	a4,32
     6a0:	001e7c13          	andi	s8,t3,1
     6a4:	38e40e63          	beq	s0,a4,a40 <_ntoa_long+0x4e8>
     6a8:	00010b13          	mv	s6,sp
     6ac:	03000693          	li	a3,48
     6b0:	02000613          	li	a2,32
     6b4:	0080006f          	j	6bc <_ntoa_long+0x164>
     6b8:	04c40e63          	beq	s0,a2,714 <_ntoa_long+0x1bc>
     6bc:	00140413          	addi	s0,s0,1
     6c0:	008b0733          	add	a4,s6,s0
     6c4:	fed70fa3          	sb	a3,-1(a4)
     6c8:	ff1468e3          	bltu	s0,a7,6b8 <_ntoa_long+0x160>
     6cc:	f40c0ae3          	beqz	s8,620 <_ntoa_long+0xc8>
     6d0:	03547863          	bgeu	s0,s5,700 <_ntoa_long+0x1a8>
     6d4:	02000713          	li	a4,32
     6d8:	00010b13          	mv	s6,sp
     6dc:	03000693          	li	a3,48
     6e0:	02000613          	li	a2,32
     6e4:	00e41663          	bne	s0,a4,6f0 <_ntoa_long+0x198>
     6e8:	0340006f          	j	71c <_ntoa_long+0x1c4>
     6ec:	24c40463          	beq	s0,a2,934 <_ntoa_long+0x3dc>
     6f0:	00140413          	addi	s0,s0,1
     6f4:	008b0733          	add	a4,s6,s0
     6f8:	fed70fa3          	sb	a3,-1(a4)
     6fc:	ff5418e3          	bne	s0,s5,6ec <_ntoa_long+0x194>
     700:	00000c13          	li	s8,0
     704:	f20f90e3          	bnez	t6,624 <_ntoa_long+0xcc>
     708:	0500006f          	j	758 <_ntoa_long+0x200>
     70c:	04100593          	li	a1,65
     710:	eb9ff06f          	j	5c8 <_ntoa_long+0x70>
     714:	340c0a63          	beqz	s8,a68 <_ntoa_long+0x510>
     718:	21547e63          	bgeu	s0,s5,934 <_ntoa_long+0x3dc>
     71c:	260f8a63          	beqz	t6,990 <_ntoa_long+0x438>
     720:	200f1e63          	bnez	t5,93c <_ntoa_long+0x3e4>
     724:	02000713          	li	a4,32
     728:	00000c13          	li	s8,0
     72c:	02000413          	li	s0,32
     730:	1ae89063          	bne	a7,a4,8d0 <_ntoa_long+0x378>
     734:	01f00693          	li	a3,31
     738:	01000713          	li	a4,16
     73c:	2ae80a63          	beq	a6,a4,9f0 <_ntoa_long+0x498>
     740:	00200713          	li	a4,2
     744:	30e80263          	beq	a6,a4,a48 <_ntoa_long+0x4f0>
     748:	02068713          	addi	a4,a3,32
     74c:	002706b3          	add	a3,a4,sp
     750:	03000713          	li	a4,48
     754:	fee68023          	sb	a4,-32(a3)
     758:	02000713          	li	a4,32
     75c:	24e41063          	bne	s0,a4,99c <_ntoa_long+0x444>
     760:	003e7e13          	andi	t3,t3,3
     764:	100e1263          	bnez	t3,868 <_ntoa_long+0x310>
     768:	11547063          	bgeu	s0,s5,868 <_ntoa_long+0x310>
     76c:	000a0b13          	mv	s6,s4
     770:	41440bb3          	sub	s7,s0,s4
     774:	000b0613          	mv	a2,s6
     778:	00098693          	mv	a3,s3
     77c:	00090593          	mv	a1,s2
     780:	02000513          	li	a0,32
     784:	001b0b13          	addi	s6,s6,1
     788:	000480e7          	jalr	s1
     78c:	016b87b3          	add	a5,s7,s6
     790:	ff57e2e3          	bltu	a5,s5,774 <_ntoa_long+0x21c>
     794:	00140793          	addi	a5,s0,1
     798:	00000b93          	li	s7,0
     79c:	00fae663          	bltu	s5,a5,7a8 <_ntoa_long+0x250>
     7a0:	fffa8b93          	addi	s7,s5,-1
     7a4:	408b8bb3          	sub	s7,s7,s0
     7a8:	001a0793          	addi	a5,s4,1
     7ac:	00fb8bb3          	add	s7,s7,a5
     7b0:	0a041e63          	bnez	s0,86c <_ntoa_long+0x314>
     7b4:	020c0663          	beqz	s8,7e0 <_ntoa_long+0x288>
     7b8:	414b8a33          	sub	s4,s7,s4
     7bc:	035a7263          	bgeu	s4,s5,7e0 <_ntoa_long+0x288>
     7c0:	000b8613          	mv	a2,s7
     7c4:	001a0a13          	addi	s4,s4,1
     7c8:	00098693          	mv	a3,s3
     7cc:	00090593          	mv	a1,s2
     7d0:	02000513          	li	a0,32
     7d4:	001b8b93          	addi	s7,s7,1
     7d8:	000480e7          	jalr	s1
     7dc:	ff5a62e3          	bltu	s4,s5,7c0 <_ntoa_long+0x268>
     7e0:	04c12083          	lw	ra,76(sp)
     7e4:	04812403          	lw	s0,72(sp)
     7e8:	04412483          	lw	s1,68(sp)
     7ec:	04012903          	lw	s2,64(sp)
     7f0:	03c12983          	lw	s3,60(sp)
     7f4:	03812a03          	lw	s4,56(sp)
     7f8:	03412a83          	lw	s5,52(sp)
     7fc:	03012b03          	lw	s6,48(sp)
     800:	02812c03          	lw	s8,40(sp)
     804:	02412c83          	lw	s9,36(sp)
     808:	000b8513          	mv	a0,s7
     80c:	02c12b83          	lw	s7,44(sp)
     810:	05010113          	addi	sp,sp,80
     814:	00008067          	ret
     818:	001e7c13          	andi	s8,t3,1
     81c:	080c0c63          	beqz	s8,8b4 <_ntoa_long+0x35c>
     820:	10079663          	bnez	a5,92c <_ntoa_long+0x3d4>
     824:	00ce7713          	andi	a4,t3,12
     828:	10071263          	bnez	a4,92c <_ntoa_long+0x3d4>
     82c:	eb1472e3          	bgeu	s0,a7,6d0 <_ntoa_long+0x178>
     830:	02000713          	li	a4,32
     834:	e6e41ae3          	bne	s0,a4,6a8 <_ntoa_long+0x150>
     838:	ef5462e3          	bltu	s0,s5,71c <_ntoa_long+0x1c4>
     83c:	220f8e63          	beqz	t6,a78 <_ntoa_long+0x520>
     840:	00000c13          	li	s8,0
     844:	de0f02e3          	beqz	t5,628 <_ntoa_long+0xd0>
     848:	01000693          	li	a3,16
     84c:	003e7713          	andi	a4,t3,3
     850:	0ed80c63          	beq	a6,a3,948 <_ntoa_long+0x3f0>
     854:	00200693          	li	a3,2
     858:	0ad80863          	beq	a6,a3,908 <_ntoa_long+0x3b0>
     85c:	02000693          	li	a3,32
     860:	1ad41863          	bne	s0,a3,a10 <_ntoa_long+0x4b8>
     864:	f00702e3          	beqz	a4,768 <_ntoa_long+0x210>
     868:	000a0b93          	mv	s7,s4
     86c:	00010b13          	mv	s6,sp
     870:	008b8cb3          	add	s9,s7,s0
     874:	008b07b3          	add	a5,s6,s0
     878:	fff7c503          	lbu	a0,-1(a5)
     87c:	408c8633          	sub	a2,s9,s0
     880:	00098693          	mv	a3,s3
     884:	fff40413          	addi	s0,s0,-1
     888:	00090593          	mv	a1,s2
     88c:	000c8b93          	mv	s7,s9
     890:	000480e7          	jalr	s1
     894:	fe0410e3          	bnez	s0,874 <_ntoa_long+0x31c>
     898:	f1dff06f          	j	7b4 <_ntoa_long+0x25c>
     89c:	02070793          	addi	a5,a4,32
     8a0:	002787b3          	add	a5,a5,sp
     8a4:	00170413          	addi	s0,a4,1
     8a8:	02d00713          	li	a4,45
     8ac:	fee78023          	sb	a4,-32(a5)
     8b0:	dc1ff06f          	j	670 <_ntoa_long+0x118>
     8b4:	d71476e3          	bgeu	s0,a7,620 <_ntoa_long+0xc8>
     8b8:	02000713          	li	a4,32
     8bc:	dee416e3          	bne	s0,a4,6a8 <_ntoa_long+0x150>
     8c0:	1a0f8c63          	beqz	t6,a78 <_ntoa_long+0x520>
     8c4:	00000c13          	li	s8,0
     8c8:	f80f10e3          	bnez	t5,848 <_ntoa_long+0x2f0>
     8cc:	00888463          	beq	a7,s0,8d4 <_ntoa_long+0x37c>
     8d0:	f68a9ce3          	bne	s5,s0,848 <_ntoa_long+0x2f0>
     8d4:	fff40693          	addi	a3,s0,-1
     8d8:	e60690e3          	bnez	a3,738 <_ntoa_long+0x1e0>
     8dc:	01000713          	li	a4,16
     8e0:	d4e81ae3          	bne	a6,a4,634 <_ntoa_long+0xdc>
     8e4:	fffe4713          	not	a4,t3
     8e8:	02077713          	andi	a4,a4,32
     8ec:	05870713          	addi	a4,a4,88
     8f0:	00e10023          	sb	a4,0(sp)
     8f4:	03000713          	li	a4,48
     8f8:	00e100a3          	sb	a4,1(sp)
     8fc:	000e0693          	mv	a3,t3
     900:	00200713          	li	a4,2
     904:	d49ff06f          	j	64c <_ntoa_long+0xf4>
     908:	02000693          	li	a3,32
     90c:	f4d40ce3          	beq	s0,a3,864 <_ntoa_long+0x30c>
     910:	00040693          	mv	a3,s0
     914:	00140413          	addi	s0,s0,1
     918:	02068693          	addi	a3,a3,32
     91c:	002686b3          	add	a3,a3,sp
     920:	06200613          	li	a2,98
     924:	fec68023          	sb	a2,-32(a3)
     928:	f35ff06f          	j	85c <_ntoa_long+0x304>
     92c:	fffa8a93          	addi	s5,s5,-1
     930:	efdff06f          	j	82c <_ntoa_long+0x2d4>
     934:	040f8e63          	beqz	t6,990 <_ntoa_long+0x438>
     938:	0a0f0463          	beqz	t5,9e0 <_ntoa_long+0x488>
     93c:	00000c13          	li	s8,0
     940:	02000413          	li	s0,32
     944:	f05ff06f          	j	848 <_ntoa_long+0x2f0>
     948:	020e7693          	andi	a3,t3,32
     94c:	04068e63          	beqz	a3,9a8 <_ntoa_long+0x450>
     950:	02000693          	li	a3,32
     954:	f0d408e3          	beq	s0,a3,864 <_ntoa_long+0x30c>
     958:	02040693          	addi	a3,s0,32
     95c:	002686b3          	add	a3,a3,sp
     960:	05800613          	li	a2,88
     964:	fec68023          	sb	a2,-32(a3)
     968:	00140413          	addi	s0,s0,1
     96c:	ef1ff06f          	j	85c <_ntoa_long+0x304>
     970:	0086f693          	andi	a3,a3,8
     974:	04069a63          	bnez	a3,9c8 <_ntoa_long+0x470>
     978:	00070413          	mv	s0,a4
     97c:	00061463          	bnez	a2,984 <_ntoa_long+0x42c>
     980:	df5766e3          	bltu	a4,s5,76c <_ntoa_long+0x214>
     984:	000a0b93          	mv	s7,s4
     988:	ee0412e3          	bnez	s0,86c <_ntoa_long+0x314>
     98c:	e29ff06f          	j	7b4 <_ntoa_long+0x25c>
     990:	00000c13          	li	s8,0
     994:	02000413          	li	s0,32
     998:	dc9ff06f          	j	760 <_ntoa_long+0x208>
     99c:	000e0693          	mv	a3,t3
     9a0:	00040713          	mv	a4,s0
     9a4:	ca9ff06f          	j	64c <_ntoa_long+0xf4>
     9a8:	02000693          	li	a3,32
     9ac:	ead40ce3          	beq	s0,a3,864 <_ntoa_long+0x30c>
     9b0:	02040693          	addi	a3,s0,32
     9b4:	002686b3          	add	a3,a3,sp
     9b8:	07800613          	li	a2,120
     9bc:	fec68023          	sb	a2,-32(a3)
     9c0:	00140413          	addi	s0,s0,1
     9c4:	e99ff06f          	j	85c <_ntoa_long+0x304>
     9c8:	02070793          	addi	a5,a4,32
     9cc:	002787b3          	add	a5,a5,sp
     9d0:	00170413          	addi	s0,a4,1
     9d4:	02000713          	li	a4,32
     9d8:	fee78023          	sb	a4,-32(a5)
     9dc:	c95ff06f          	j	670 <_ntoa_long+0x118>
     9e0:	02000413          	li	s0,32
     9e4:	00000c13          	li	s8,0
     9e8:	ee8894e3          	bne	a7,s0,8d0 <_ntoa_long+0x378>
     9ec:	ee9ff06f          	j	8d4 <_ntoa_long+0x37c>
     9f0:	020e7713          	andi	a4,t3,32
     9f4:	ffe40413          	addi	s0,s0,-2
     9f8:	04071c63          	bnez	a4,a50 <_ntoa_long+0x4f8>
     9fc:	02040713          	addi	a4,s0,32
     a00:	00270433          	add	s0,a4,sp
     a04:	07800713          	li	a4,120
     a08:	fee40023          	sb	a4,-32(s0)
     a0c:	00068413          	mv	s0,a3
     a10:	00040693          	mv	a3,s0
     a14:	00140413          	addi	s0,s0,1
     a18:	d31ff06f          	j	748 <_ntoa_long+0x1f0>
     a1c:	020e7713          	andi	a4,t3,32
     a20:	00070c63          	beqz	a4,a38 <_ntoa_long+0x4e0>
     a24:	05800713          	li	a4,88
     a28:	00e10023          	sb	a4,0(sp)
     a2c:	ec9ff06f          	j	8f4 <_ntoa_long+0x39c>
     a30:	06200713          	li	a4,98
     a34:	ebdff06f          	j	8f0 <_ntoa_long+0x398>
     a38:	07800713          	li	a4,120
     a3c:	eb5ff06f          	j	8f0 <_ntoa_long+0x398>
     a40:	de0c1ee3          	bnez	s8,83c <_ntoa_long+0x2e4>
     a44:	e7dff06f          	j	8c0 <_ntoa_long+0x368>
     a48:	003e7713          	andi	a4,t3,3
     a4c:	ecdff06f          	j	918 <_ntoa_long+0x3c0>
     a50:	02040713          	addi	a4,s0,32
     a54:	00270433          	add	s0,a4,sp
     a58:	05800713          	li	a4,88
     a5c:	fee40023          	sb	a4,-32(s0)
     a60:	00068413          	mv	s0,a3
     a64:	fadff06f          	j	a10 <_ntoa_long+0x4b8>
     a68:	ce0f8ce3          	beqz	t6,760 <_ntoa_long+0x208>
     a6c:	dc0f1ee3          	bnez	t5,848 <_ntoa_long+0x2f0>
     a70:	dc8a9ce3          	bne	s5,s0,848 <_ntoa_long+0x2f0>
     a74:	e61ff06f          	j	8d4 <_ntoa_long+0x37c>
     a78:	00000c13          	li	s8,0
     a7c:	ce5ff06f          	j	760 <_ntoa_long+0x208>

00000a80 <_out_char>:
     a80:	00051463          	bnez	a0,a88 <_out_char+0x8>
     a84:	00008067          	ret
     a88:	2050006f          	j	148c <uart_send_char>

00000a8c <_out_fct>:
     a8c:	00050863          	beqz	a0,a9c <_out_fct+0x10>
     a90:	0005a783          	lw	a5,0(a1)
     a94:	0045a583          	lw	a1,4(a1)
     a98:	00078067          	jr	a5
     a9c:	00008067          	ret

00000aa0 <_vsnprintf>:
     aa0:	fa010113          	addi	sp,sp,-96
     aa4:	05312623          	sw	s3,76(sp)
     aa8:	05412423          	sw	s4,72(sp)
     aac:	05512223          	sw	s5,68(sp)
     ab0:	03812c23          	sw	s8,56(sp)
     ab4:	03a12823          	sw	s10,48(sp)
     ab8:	04112e23          	sw	ra,92(sp)
     abc:	04812c23          	sw	s0,88(sp)
     ac0:	04912a23          	sw	s1,84(sp)
     ac4:	05212823          	sw	s2,80(sp)
     ac8:	05612023          	sw	s6,64(sp)
     acc:	03712e23          	sw	s7,60(sp)
     ad0:	03912a23          	sw	s9,52(sp)
     ad4:	03b12623          	sw	s11,44(sp)
     ad8:	00058a13          	mv	s4,a1
     adc:	00060993          	mv	s3,a2
     ae0:	00068c13          	mv	s8,a3
     ae4:	00070d13          	mv	s10,a4
     ae8:	00050a93          	mv	s5,a0
     aec:	46058863          	beqz	a1,f5c <_vsnprintf+0x4bc>
     af0:	000c4503          	lbu	a0,0(s8)
     af4:	00000d93          	li	s11,0
     af8:	46050a63          	beqz	a0,f6c <_vsnprintf+0x4cc>
     afc:	001217b7          	lui	a5,0x121
     b00:	00001b37          	lui	s6,0x1
     b04:	82178793          	addi	a5,a5,-2015 # 120821 <_peripheral_HLS_CONTROL_end+0xe0821>
     b08:	01000913          	li	s2,16
     b0c:	520b0b13          	addi	s6,s6,1312 # 1520 <_text_end+0x40>
     b10:	00f12a23          	sw	a5,20(sp)
     b14:	0200006f          	j	b34 <_vsnprintf+0x94>
     b18:	000d8613          	mv	a2,s11
     b1c:	00098693          	mv	a3,s3
     b20:	000a0593          	mv	a1,s4
     b24:	001d8d93          	addi	s11,s11,1
     b28:	000a80e7          	jalr	s5
     b2c:	000c4503          	lbu	a0,0(s8)
     b30:	10050063          	beqz	a0,c30 <_vsnprintf+0x190>
     b34:	02500793          	li	a5,37
     b38:	001c0c13          	addi	s8,s8,1
     b3c:	fcf51ee3          	bne	a0,a5,b18 <_vsnprintf+0x78>
     b40:	00000413          	li	s0,0
     b44:	000c4503          	lbu	a0,0(s8)
     b48:	001c0713          	addi	a4,s8,1
     b4c:	fe050793          	addi	a5,a0,-32
     b50:	0ff7f793          	zext.b	a5,a5
     b54:	00f96a63          	bltu	s2,a5,b68 <_vsnprintf+0xc8>
     b58:	00279793          	slli	a5,a5,0x2
     b5c:	016787b3          	add	a5,a5,s6
     b60:	0007a783          	lw	a5,0(a5)
     b64:	00078067          	jr	a5
     b68:	fd050793          	addi	a5,a0,-48
     b6c:	0ff7f793          	zext.b	a5,a5
     b70:	00900693          	li	a3,9
     b74:	24f6fe63          	bgeu	a3,a5,dd0 <_vsnprintf+0x330>
     b78:	02a00793          	li	a5,42
     b7c:	00000b93          	li	s7,0
     b80:	2ef50663          	beq	a0,a5,e6c <_vsnprintf+0x3cc>
     b84:	02e00793          	li	a5,46
     b88:	00000c93          	li	s9,0
     b8c:	28f50263          	beq	a0,a5,e10 <_vsnprintf+0x370>
     b90:	06c00793          	li	a5,108
     b94:	00070693          	mv	a3,a4
     b98:	2af50863          	beq	a0,a5,e48 <_vsnprintf+0x3a8>
     b9c:	2aa7ee63          	bltu	a5,a0,e58 <_vsnprintf+0x3b8>
     ba0:	06800793          	li	a5,104
     ba4:	2ef50e63          	beq	a0,a5,ea0 <_vsnprintf+0x400>
     ba8:	06a00793          	li	a5,106
     bac:	6ef51463          	bne	a0,a5,1294 <_vsnprintf+0x7f4>
     bb0:	001c4503          	lbu	a0,1(s8)
     bb4:	20046413          	ori	s0,s0,512
     bb8:	07800793          	li	a5,120
     bbc:	00168c13          	addi	s8,a3,1
     bc0:	f4a7ece3          	bltu	a5,a0,b18 <_vsnprintf+0x78>
     bc4:	06300793          	li	a5,99
     bc8:	10a7e863          	bltu	a5,a0,cd8 <_vsnprintf+0x238>
     bcc:	06200713          	li	a4,98
     bd0:	50e50a63          	beq	a0,a4,10e4 <_vsnprintf+0x644>
     bd4:	16f51663          	bne	a0,a5,d40 <_vsnprintf+0x2a0>
     bd8:	00247413          	andi	s0,s0,2
     bdc:	004d0493          	addi	s1,s10,4
     be0:	001d8c93          	addi	s9,s11,1
     be4:	40040663          	beqz	s0,ff0 <_vsnprintf+0x550>
     be8:	000d4503          	lbu	a0,0(s10)
     bec:	000d8613          	mv	a2,s11
     bf0:	00098693          	mv	a3,s3
     bf4:	000a0593          	mv	a1,s4
     bf8:	000a80e7          	jalr	s5
     bfc:	00100793          	li	a5,1
     c00:	017d8db3          	add	s11,s11,s7
     c04:	5577f263          	bgeu	a5,s7,1148 <_vsnprintf+0x6a8>
     c08:	000c8613          	mv	a2,s9
     c0c:	00098693          	mv	a3,s3
     c10:	001c8c93          	addi	s9,s9,1
     c14:	000a0593          	mv	a1,s4
     c18:	02000513          	li	a0,32
     c1c:	000a80e7          	jalr	s5
     c20:	ffbc94e3          	bne	s9,s11,c08 <_vsnprintf+0x168>
     c24:	00048d13          	mv	s10,s1
     c28:	000c4503          	lbu	a0,0(s8)
     c2c:	f00514e3          	bnez	a0,b34 <_vsnprintf+0x94>
     c30:	000d8413          	mv	s0,s11
     c34:	013de463          	bltu	s11,s3,c3c <_vsnprintf+0x19c>
     c38:	fff98d93          	addi	s11,s3,-1
     c3c:	00098693          	mv	a3,s3
     c40:	000d8613          	mv	a2,s11
     c44:	000a0593          	mv	a1,s4
     c48:	00000513          	li	a0,0
     c4c:	000a80e7          	jalr	s5
     c50:	05c12083          	lw	ra,92(sp)
     c54:	00040513          	mv	a0,s0
     c58:	05812403          	lw	s0,88(sp)
     c5c:	05412483          	lw	s1,84(sp)
     c60:	05012903          	lw	s2,80(sp)
     c64:	04c12983          	lw	s3,76(sp)
     c68:	04812a03          	lw	s4,72(sp)
     c6c:	04412a83          	lw	s5,68(sp)
     c70:	04012b03          	lw	s6,64(sp)
     c74:	03c12b83          	lw	s7,60(sp)
     c78:	03812c03          	lw	s8,56(sp)
     c7c:	03412c83          	lw	s9,52(sp)
     c80:	03012d03          	lw	s10,48(sp)
     c84:	02c12d83          	lw	s11,44(sp)
     c88:	06010113          	addi	sp,sp,96
     c8c:	00008067          	ret
     c90:	00146413          	ori	s0,s0,1
     c94:	00070c13          	mv	s8,a4
     c98:	eadff06f          	j	b44 <_vsnprintf+0xa4>
     c9c:	00246413          	ori	s0,s0,2
     ca0:	00070c13          	mv	s8,a4
     ca4:	ea1ff06f          	j	b44 <_vsnprintf+0xa4>
     ca8:	00446413          	ori	s0,s0,4
     cac:	00070c13          	mv	s8,a4
     cb0:	e95ff06f          	j	b44 <_vsnprintf+0xa4>
     cb4:	01046413          	ori	s0,s0,16
     cb8:	00070c13          	mv	s8,a4
     cbc:	e89ff06f          	j	b44 <_vsnprintf+0xa4>
     cc0:	00846413          	ori	s0,s0,8
     cc4:	00070c13          	mv	s8,a4
     cc8:	e7dff06f          	j	b44 <_vsnprintf+0xa4>
     ccc:	07800793          	li	a5,120
     cd0:	00070c13          	mv	s8,a4
     cd4:	e4a7e2e3          	bltu	a5,a0,b18 <_vsnprintf+0x78>
     cd8:	f9c50793          	addi	a5,a0,-100
     cdc:	00100493          	li	s1,1
     ce0:	00f494b3          	sll	s1,s1,a5
     ce4:	01412783          	lw	a5,20(sp)
     ce8:	00f4f4b3          	and	s1,s1,a5
     cec:	46049463          	bnez	s1,1154 <_vsnprintf+0x6b4>
     cf0:	07300793          	li	a5,115
     cf4:	1af50e63          	beq	a0,a5,eb0 <_vsnprintf+0x410>
     cf8:	07000793          	li	a5,112
     cfc:	e0f51ee3          	bne	a0,a5,b18 <_vsnprintf+0x78>
     d00:	000d2703          	lw	a4,0(s10)
     d04:	00800793          	li	a5,8
     d08:	02146413          	ori	s0,s0,33
     d0c:	000d8613          	mv	a2,s11
     d10:	00f12023          	sw	a5,0(sp)
     d14:	00812223          	sw	s0,4(sp)
     d18:	000c8893          	mv	a7,s9
     d1c:	01000813          	li	a6,16
     d20:	00000793          	li	a5,0
     d24:	00098693          	mv	a3,s3
     d28:	000a0593          	mv	a1,s4
     d2c:	000a8513          	mv	a0,s5
     d30:	829ff0ef          	jal	558 <_ntoa_long>
     d34:	004d0d13          	addi	s10,s10,4
     d38:	00050d93          	mv	s11,a0
     d3c:	df1ff06f          	j	b2c <_vsnprintf+0x8c>
     d40:	02500793          	li	a5,37
     d44:	02f51063          	bne	a0,a5,d64 <_vsnprintf+0x2c4>
     d48:	000d8613          	mv	a2,s11
     d4c:	00098693          	mv	a3,s3
     d50:	000a0593          	mv	a1,s4
     d54:	02500513          	li	a0,37
     d58:	001d8d93          	addi	s11,s11,1
     d5c:	000a80e7          	jalr	s5
     d60:	dcdff06f          	j	b2c <_vsnprintf+0x8c>
     d64:	05800793          	li	a5,88
     d68:	daf518e3          	bne	a0,a5,b18 <_vsnprintf+0x78>
     d6c:	40047793          	andi	a5,s0,1024
     d70:	38078a63          	beqz	a5,1104 <_vsnprintf+0x664>
     d74:	ff247413          	andi	s0,s0,-14
     d78:	02046413          	ori	s0,s0,32
     d7c:	01000813          	li	a6,16
     d80:	20047793          	andi	a5,s0,512
     d84:	da0794e3          	bnez	a5,b2c <_vsnprintf+0x8c>
     d88:	10047793          	andi	a5,s0,256
     d8c:	004d0493          	addi	s1,s10,4
     d90:	38079263          	bnez	a5,1114 <_vsnprintf+0x674>
     d94:	04047793          	andi	a5,s0,64
     d98:	38078263          	beqz	a5,111c <_vsnprintf+0x67c>
     d9c:	000d4703          	lbu	a4,0(s10)
     da0:	000d8613          	mv	a2,s11
     da4:	00812223          	sw	s0,4(sp)
     da8:	01712023          	sw	s7,0(sp)
     dac:	000c8893          	mv	a7,s9
     db0:	00000793          	li	a5,0
     db4:	00098693          	mv	a3,s3
     db8:	000a0593          	mv	a1,s4
     dbc:	000a8513          	mv	a0,s5
     dc0:	f98ff0ef          	jal	558 <_ntoa_long>
     dc4:	00050d93          	mv	s11,a0
     dc8:	00048d13          	mv	s10,s1
     dcc:	d61ff06f          	j	b2c <_vsnprintf+0x8c>
     dd0:	00000b93          	li	s7,0
     dd4:	002b9793          	slli	a5,s7,0x2
     dd8:	017787b3          	add	a5,a5,s7
     ddc:	00179793          	slli	a5,a5,0x1
     de0:	00a787b3          	add	a5,a5,a0
     de4:	00074503          	lbu	a0,0(a4)
     de8:	fd078b93          	addi	s7,a5,-48
     dec:	00900693          	li	a3,9
     df0:	fd050793          	addi	a5,a0,-48
     df4:	0ff7f793          	zext.b	a5,a5
     df8:	00070c13          	mv	s8,a4
     dfc:	00170713          	addi	a4,a4,1
     e00:	fcf6fae3          	bgeu	a3,a5,dd4 <_vsnprintf+0x334>
     e04:	02e00793          	li	a5,46
     e08:	00000c93          	li	s9,0
     e0c:	d8f512e3          	bne	a0,a5,b90 <_vsnprintf+0xf0>
     e10:	001c4503          	lbu	a0,1(s8)
     e14:	00900613          	li	a2,9
     e18:	00070693          	mv	a3,a4
     e1c:	fd050793          	addi	a5,a0,-48
     e20:	0ff7f793          	zext.b	a5,a5
     e24:	40046413          	ori	s0,s0,1024
     e28:	14f67863          	bgeu	a2,a5,f78 <_vsnprintf+0x4d8>
     e2c:	02a00793          	li	a5,42
     e30:	18f50663          	beq	a0,a5,fbc <_vsnprintf+0x51c>
     e34:	00070c13          	mv	s8,a4
     e38:	06c00793          	li	a5,108
     e3c:	00170713          	addi	a4,a4,1
     e40:	00070693          	mv	a3,a4
     e44:	d4f51ce3          	bne	a0,a5,b9c <_vsnprintf+0xfc>
     e48:	001c4503          	lbu	a0,1(s8)
     e4c:	18f50a63          	beq	a0,a5,fe0 <_vsnprintf+0x540>
     e50:	10046413          	ori	s0,s0,256
     e54:	d65ff06f          	j	bb8 <_vsnprintf+0x118>
     e58:	07a00793          	li	a5,122
     e5c:	e6f518e3          	bne	a0,a5,ccc <_vsnprintf+0x22c>
     e60:	001c4503          	lbu	a0,1(s8)
     e64:	10046413          	ori	s0,s0,256
     e68:	d51ff06f          	j	bb8 <_vsnprintf+0x118>
     e6c:	000d2b83          	lw	s7,0(s10)
     e70:	004d0d13          	addi	s10,s10,4
     e74:	000bca63          	bltz	s7,e88 <_vsnprintf+0x3e8>
     e78:	001c4503          	lbu	a0,1(s8)
     e7c:	00070c13          	mv	s8,a4
     e80:	00170713          	addi	a4,a4,1
     e84:	d01ff06f          	j	b84 <_vsnprintf+0xe4>
     e88:	001c4503          	lbu	a0,1(s8)
     e8c:	00246413          	ori	s0,s0,2
     e90:	00070c13          	mv	s8,a4
     e94:	41700bb3          	neg	s7,s7
     e98:	00170713          	addi	a4,a4,1
     e9c:	ce9ff06f          	j	b84 <_vsnprintf+0xe4>
     ea0:	001c4503          	lbu	a0,1(s8)
     ea4:	1ef50663          	beq	a0,a5,1090 <_vsnprintf+0x5f0>
     ea8:	08046413          	ori	s0,s0,128
     eac:	d0dff06f          	j	bb8 <_vsnprintf+0x118>
     eb0:	000d2783          	lw	a5,0(s10)
     eb4:	004d0713          	addi	a4,s10,4
     eb8:	00e12c23          	sw	a4,24(sp)
     ebc:	0007c683          	lbu	a3,0(a5)
     ec0:	00f12823          	sw	a5,16(sp)
     ec4:	00068513          	mv	a0,a3
     ec8:	0e0c9463          	bnez	s9,fb0 <_vsnprintf+0x510>
     ecc:	ffe00713          	li	a4,-2
     ed0:	02068663          	beqz	a3,efc <_vsnprintf+0x45c>
     ed4:	01012483          	lw	s1,16(sp)
     ed8:	00170713          	addi	a4,a4,1
     edc:	00e48733          	add	a4,s1,a4
     ee0:	0080006f          	j	ee8 <_vsnprintf+0x448>
     ee4:	1a970063          	beq	a4,s1,1084 <_vsnprintf+0x5e4>
     ee8:	0014c783          	lbu	a5,1(s1)
     eec:	00148493          	addi	s1,s1,1
     ef0:	fe079ae3          	bnez	a5,ee4 <_vsnprintf+0x444>
     ef4:	01012783          	lw	a5,16(sp)
     ef8:	40f484b3          	sub	s1,s1,a5
     efc:	40047d13          	andi	s10,s0,1024
     f00:	000d0663          	beqz	s10,f0c <_vsnprintf+0x46c>
     f04:	009cf463          	bgeu	s9,s1,f0c <_vsnprintf+0x46c>
     f08:	000c8493          	mv	s1,s9
     f0c:	00247793          	andi	a5,s0,2
     f10:	00f12e23          	sw	a5,28(sp)
     f14:	18078663          	beqz	a5,10a0 <_vsnprintf+0x600>
     f18:	12068c63          	beqz	a3,1050 <_vsnprintf+0x5b0>
     f1c:	000d8613          	mv	a2,s11
     f20:	000d0863          	beqz	s10,f30 <_vsnprintf+0x490>
     f24:	fffc8793          	addi	a5,s9,-1
     f28:	100c8c63          	beqz	s9,1040 <_vsnprintf+0x5a0>
     f2c:	00078c93          	mv	s9,a5
     f30:	00098693          	mv	a3,s3
     f34:	000a0593          	mv	a1,s4
     f38:	00160413          	addi	s0,a2,1
     f3c:	000a80e7          	jalr	s5
     f40:	01012703          	lw	a4,16(sp)
     f44:	41b407b3          	sub	a5,s0,s11
     f48:	00f707b3          	add	a5,a4,a5
     f4c:	0007c503          	lbu	a0,0(a5)
     f50:	0e050a63          	beqz	a0,1044 <_vsnprintf+0x5a4>
     f54:	00040613          	mv	a2,s0
     f58:	fc9ff06f          	j	f20 <_vsnprintf+0x480>
     f5c:	000c4503          	lbu	a0,0(s8)
     f60:	55400a93          	li	s5,1364
     f64:	00000d93          	li	s11,0
     f68:	b8051ae3          	bnez	a0,afc <_vsnprintf+0x5c>
     f6c:	00000413          	li	s0,0
     f70:	cd3de6e3          	bltu	s11,s3,c3c <_vsnprintf+0x19c>
     f74:	cc5ff06f          	j	c38 <_vsnprintf+0x198>
     f78:	00900713          	li	a4,9
     f7c:	002c9793          	slli	a5,s9,0x2
     f80:	019787b3          	add	a5,a5,s9
     f84:	00168693          	addi	a3,a3,1
     f88:	00179793          	slli	a5,a5,0x1
     f8c:	00a787b3          	add	a5,a5,a0
     f90:	0006c503          	lbu	a0,0(a3)
     f94:	fd078c93          	addi	s9,a5,-48
     f98:	fd050793          	addi	a5,a0,-48
     f9c:	0ff7f793          	zext.b	a5,a5
     fa0:	fcf77ee3          	bgeu	a4,a5,f7c <_vsnprintf+0x4dc>
     fa4:	00068c13          	mv	s8,a3
     fa8:	00168713          	addi	a4,a3,1
     fac:	be5ff06f          	j	b90 <_vsnprintf+0xf0>
     fb0:	f40686e3          	beqz	a3,efc <_vsnprintf+0x45c>
     fb4:	fffc8713          	addi	a4,s9,-1
     fb8:	f1dff06f          	j	ed4 <_vsnprintf+0x434>
     fbc:	000d2c83          	lw	s9,0(s10)
     fc0:	002c4503          	lbu	a0,2(s8)
     fc4:	002c0c13          	addi	s8,s8,2
     fc8:	fffcc793          	not	a5,s9
     fcc:	41f7d793          	srai	a5,a5,0x1f
     fd0:	00fcfcb3          	and	s9,s9,a5
     fd4:	004d0d13          	addi	s10,s10,4
     fd8:	001c0713          	addi	a4,s8,1
     fdc:	bb5ff06f          	j	b90 <_vsnprintf+0xf0>
     fe0:	002c4503          	lbu	a0,2(s8)
     fe4:	30046413          	ori	s0,s0,768
     fe8:	002c0693          	addi	a3,s8,2
     fec:	bcdff06f          	j	bb8 <_vsnprintf+0x118>
     ff0:	00100793          	li	a5,1
     ff4:	1577f063          	bgeu	a5,s7,1134 <_vsnprintf+0x694>
     ff8:	fffd8413          	addi	s0,s11,-1
     ffc:	01740433          	add	s0,s0,s7
    1000:	000d8c93          	mv	s9,s11
    1004:	000c8613          	mv	a2,s9
    1008:	00098693          	mv	a3,s3
    100c:	001c8c93          	addi	s9,s9,1
    1010:	000a0593          	mv	a1,s4
    1014:	02000513          	li	a0,32
    1018:	000a80e7          	jalr	s5
    101c:	ff9414e3          	bne	s0,s9,1004 <_vsnprintf+0x564>
    1020:	000d4503          	lbu	a0,0(s10)
    1024:	00098693          	mv	a3,s3
    1028:	00040613          	mv	a2,s0
    102c:	000a0593          	mv	a1,s4
    1030:	017d8db3          	add	s11,s11,s7
    1034:	000a80e7          	jalr	s5
    1038:	00048d13          	mv	s10,s1
    103c:	bedff06f          	j	c28 <_vsnprintf+0x188>
    1040:	00060413          	mv	s0,a2
    1044:	01c12783          	lw	a5,28(sp)
    1048:	02078863          	beqz	a5,1078 <_vsnprintf+0x5d8>
    104c:	00040d93          	mv	s11,s0
    1050:	0974f663          	bgeu	s1,s7,10dc <_vsnprintf+0x63c>
    1054:	01bb8733          	add	a4,s7,s11
    1058:	40970433          	sub	s0,a4,s1
    105c:	000d8613          	mv	a2,s11
    1060:	00098693          	mv	a3,s3
    1064:	001d8d93          	addi	s11,s11,1
    1068:	000a0593          	mv	a1,s4
    106c:	02000513          	li	a0,32
    1070:	000a80e7          	jalr	s5
    1074:	ffb414e3          	bne	s0,s11,105c <_vsnprintf+0x5bc>
    1078:	01812d03          	lw	s10,24(sp)
    107c:	00040d93          	mv	s11,s0
    1080:	aadff06f          	j	b2c <_vsnprintf+0x8c>
    1084:	01012783          	lw	a5,16(sp)
    1088:	40f704b3          	sub	s1,a4,a5
    108c:	e71ff06f          	j	efc <_vsnprintf+0x45c>
    1090:	002c4503          	lbu	a0,2(s8)
    1094:	0c046413          	ori	s0,s0,192
    1098:	002c0693          	addi	a3,s8,2
    109c:	b1dff06f          	j	bb8 <_vsnprintf+0x118>
    10a0:	0974f663          	bgeu	s1,s7,112c <_vsnprintf+0x68c>
    10a4:	01bb87b3          	add	a5,s7,s11
    10a8:	409784b3          	sub	s1,a5,s1
    10ac:	000d8613          	mv	a2,s11
    10b0:	00098693          	mv	a3,s3
    10b4:	001d8d93          	addi	s11,s11,1
    10b8:	000a0593          	mv	a1,s4
    10bc:	02000513          	li	a0,32
    10c0:	000a80e7          	jalr	s5
    10c4:	ffb494e3          	bne	s1,s11,10ac <_vsnprintf+0x60c>
    10c8:	01012783          	lw	a5,16(sp)
    10cc:	001b8493          	addi	s1,s7,1
    10d0:	0007c683          	lbu	a3,0(a5)
    10d4:	00068513          	mv	a0,a3
    10d8:	e40692e3          	bnez	a3,f1c <_vsnprintf+0x47c>
    10dc:	000d8413          	mv	s0,s11
    10e0:	f99ff06f          	j	1078 <_vsnprintf+0x5d8>
    10e4:	40047793          	andi	a5,s0,1024
    10e8:	00078863          	beqz	a5,10f8 <_vsnprintf+0x658>
    10ec:	ff247413          	andi	s0,s0,-14
    10f0:	00200813          	li	a6,2
    10f4:	c8dff06f          	j	d80 <_vsnprintf+0x2e0>
    10f8:	ff347413          	andi	s0,s0,-13
    10fc:	00200813          	li	a6,2
    1100:	c81ff06f          	j	d80 <_vsnprintf+0x2e0>
    1104:	02046413          	ori	s0,s0,32
    1108:	ff347413          	andi	s0,s0,-13
    110c:	01000813          	li	a6,16
    1110:	c71ff06f          	j	d80 <_vsnprintf+0x2e0>
    1114:	000d2703          	lw	a4,0(s10)
    1118:	c89ff06f          	j	da0 <_vsnprintf+0x300>
    111c:	08047793          	andi	a5,s0,128
    1120:	fe078ae3          	beqz	a5,1114 <_vsnprintf+0x674>
    1124:	000d5703          	lhu	a4,0(s10)
    1128:	c79ff06f          	j	da0 <_vsnprintf+0x300>
    112c:	00148493          	addi	s1,s1,1
    1130:	fa5ff06f          	j	10d4 <_vsnprintf+0x634>
    1134:	000d4503          	lbu	a0,0(s10)
    1138:	00098693          	mv	a3,s3
    113c:	000d8613          	mv	a2,s11
    1140:	000a0593          	mv	a1,s4
    1144:	000a80e7          	jalr	s5
    1148:	000c8d93          	mv	s11,s9
    114c:	00048d13          	mv	s10,s1
    1150:	ad9ff06f          	j	c28 <_vsnprintf+0x188>
    1154:	07800793          	li	a5,120
    1158:	12f50463          	beq	a0,a5,1280 <_vsnprintf+0x7e0>
    115c:	06f00793          	li	a5,111
    1160:	06f50a63          	beq	a0,a5,11d4 <_vsnprintf+0x734>
    1164:	06900793          	li	a5,105
    1168:	fef47693          	andi	a3,s0,-17
    116c:	0ef51463          	bne	a0,a5,1254 <_vsnprintf+0x7b4>
    1170:	40047793          	andi	a5,s0,1024
    1174:	00078463          	beqz	a5,117c <_vsnprintf+0x6dc>
    1178:	fee47693          	andi	a3,s0,-18
    117c:	2006f793          	andi	a5,a3,512
    1180:	9a0796e3          	bnez	a5,b2c <_vsnprintf+0x8c>
    1184:	1006f793          	andi	a5,a3,256
    1188:	004d0413          	addi	s0,s10,4
    118c:	08079463          	bnez	a5,1214 <_vsnprintf+0x774>
    1190:	0406f793          	andi	a5,a3,64
    1194:	04078e63          	beqz	a5,11f0 <_vsnprintf+0x750>
    1198:	000d4783          	lbu	a5,0(s10)
    119c:	00078713          	mv	a4,a5
    11a0:	000d8613          	mv	a2,s11
    11a4:	00d12223          	sw	a3,4(sp)
    11a8:	01712023          	sw	s7,0(sp)
    11ac:	000c8893          	mv	a7,s9
    11b0:	00a00813          	li	a6,10
    11b4:	01f7d793          	srli	a5,a5,0x1f
    11b8:	00098693          	mv	a3,s3
    11bc:	000a0593          	mv	a1,s4
    11c0:	000a8513          	mv	a0,s5
    11c4:	b94ff0ef          	jal	558 <_ntoa_long>
    11c8:	00050d93          	mv	s11,a0
    11cc:	00040d13          	mv	s10,s0
    11d0:	95dff06f          	j	b2c <_vsnprintf+0x8c>
    11d4:	40047793          	andi	a5,s0,1024
    11d8:	00800813          	li	a6,8
    11dc:	00078663          	beqz	a5,11e8 <_vsnprintf+0x748>
    11e0:	ff247413          	andi	s0,s0,-14
    11e4:	b9dff06f          	j	d80 <_vsnprintf+0x2e0>
    11e8:	ff347413          	andi	s0,s0,-13
    11ec:	b95ff06f          	j	d80 <_vsnprintf+0x2e0>
    11f0:	0806f793          	andi	a5,a3,128
    11f4:	04078663          	beqz	a5,1240 <_vsnprintf+0x7a0>
    11f8:	000d1783          	lh	a5,0(s10)
    11fc:	40f7d613          	srai	a2,a5,0xf
    1200:	00c7c733          	xor	a4,a5,a2
    1204:	40c70733          	sub	a4,a4,a2
    1208:	01071713          	slli	a4,a4,0x10
    120c:	01075713          	srli	a4,a4,0x10
    1210:	f91ff06f          	j	11a0 <_vsnprintf+0x700>
    1214:	000d2783          	lw	a5,0(s10)
    1218:	00d12223          	sw	a3,4(sp)
    121c:	000d8613          	mv	a2,s11
    1220:	41f7d713          	srai	a4,a5,0x1f
    1224:	00f746b3          	xor	a3,a4,a5
    1228:	01712023          	sw	s7,0(sp)
    122c:	000c8893          	mv	a7,s9
    1230:	00a00813          	li	a6,10
    1234:	01f7d793          	srli	a5,a5,0x1f
    1238:	40e68733          	sub	a4,a3,a4
    123c:	f7dff06f          	j	11b8 <_vsnprintf+0x718>
    1240:	000d2783          	lw	a5,0(s10)
    1244:	41f7d613          	srai	a2,a5,0x1f
    1248:	00f64733          	xor	a4,a2,a5
    124c:	40c70733          	sub	a4,a4,a2
    1250:	f51ff06f          	j	11a0 <_vsnprintf+0x700>
    1254:	06400793          	li	a5,100
    1258:	f0f50ce3          	beq	a0,a5,1170 <_vsnprintf+0x6d0>
    125c:	40047793          	andi	a5,s0,1024
    1260:	00078a63          	beqz	a5,1274 <_vsnprintf+0x7d4>
    1264:	00068413          	mv	s0,a3
    1268:	00a00813          	li	a6,10
    126c:	ff247413          	andi	s0,s0,-14
    1270:	b11ff06f          	j	d80 <_vsnprintf+0x2e0>
    1274:	fe347413          	andi	s0,s0,-29
    1278:	00a00813          	li	a6,10
    127c:	b05ff06f          	j	d80 <_vsnprintf+0x2e0>
    1280:	40047793          	andi	a5,s0,1024
    1284:	e80782e3          	beqz	a5,1108 <_vsnprintf+0x668>
    1288:	ff247413          	andi	s0,s0,-14
    128c:	01000813          	li	a6,16
    1290:	af1ff06f          	j	d80 <_vsnprintf+0x2e0>
    1294:	00070c13          	mv	s8,a4
    1298:	92dff06f          	j	bc4 <_vsnprintf+0x124>

0000129c <_putchar>:
    129c:	ff010113          	addi	sp,sp,-16
    12a0:	00112623          	sw	ra,12(sp)
    12a4:	1e8000ef          	jal	148c <uart_send_char>
    12a8:	00c12083          	lw	ra,12(sp)
    12ac:	00000513          	li	a0,0
    12b0:	01010113          	addi	sp,sp,16
    12b4:	00008067          	ret

000012b8 <printf_>:
    12b8:	fc010113          	addi	sp,sp,-64
    12bc:	02410313          	addi	t1,sp,36
    12c0:	02d12623          	sw	a3,44(sp)
    12c4:	00050693          	mv	a3,a0
    12c8:	00001537          	lui	a0,0x1
    12cc:	02b12223          	sw	a1,36(sp)
    12d0:	02c12423          	sw	a2,40(sp)
    12d4:	02e12823          	sw	a4,48(sp)
    12d8:	00810593          	addi	a1,sp,8
    12dc:	00030713          	mv	a4,t1
    12e0:	fff00613          	li	a2,-1
    12e4:	a8050513          	addi	a0,a0,-1408 # a80 <_out_char>
    12e8:	00112e23          	sw	ra,28(sp)
    12ec:	02f12a23          	sw	a5,52(sp)
    12f0:	03012c23          	sw	a6,56(sp)
    12f4:	03112e23          	sw	a7,60(sp)
    12f8:	00612623          	sw	t1,12(sp)
    12fc:	fa4ff0ef          	jal	aa0 <_vsnprintf>
    1300:	01c12083          	lw	ra,28(sp)
    1304:	04010113          	addi	sp,sp,64
    1308:	00008067          	ret

0000130c <sprintf_>:
    130c:	fc010113          	addi	sp,sp,-64
    1310:	02810313          	addi	t1,sp,40
    1314:	02d12623          	sw	a3,44(sp)
    1318:	00058693          	mv	a3,a1
    131c:	00050593          	mv	a1,a0
    1320:	02c12423          	sw	a2,40(sp)
    1324:	02e12823          	sw	a4,48(sp)
    1328:	fff00613          	li	a2,-1
    132c:	00030713          	mv	a4,t1
    1330:	54400513          	li	a0,1348
    1334:	00112e23          	sw	ra,28(sp)
    1338:	02f12a23          	sw	a5,52(sp)
    133c:	03012c23          	sw	a6,56(sp)
    1340:	03112e23          	sw	a7,60(sp)
    1344:	00612623          	sw	t1,12(sp)
    1348:	f58ff0ef          	jal	aa0 <_vsnprintf>
    134c:	01c12083          	lw	ra,28(sp)
    1350:	04010113          	addi	sp,sp,64
    1354:	00008067          	ret

00001358 <snprintf_>:
    1358:	fc010113          	addi	sp,sp,-64
    135c:	02c10313          	addi	t1,sp,44
    1360:	02d12623          	sw	a3,44(sp)
    1364:	00060693          	mv	a3,a2
    1368:	00058613          	mv	a2,a1
    136c:	00050593          	mv	a1,a0
    1370:	02e12823          	sw	a4,48(sp)
    1374:	54400513          	li	a0,1348
    1378:	00030713          	mv	a4,t1
    137c:	00112e23          	sw	ra,28(sp)
    1380:	02f12a23          	sw	a5,52(sp)
    1384:	03012c23          	sw	a6,56(sp)
    1388:	03112e23          	sw	a7,60(sp)
    138c:	00612623          	sw	t1,12(sp)
    1390:	f10ff0ef          	jal	aa0 <_vsnprintf>
    1394:	01c12083          	lw	ra,28(sp)
    1398:	04010113          	addi	sp,sp,64
    139c:	00008067          	ret

000013a0 <vprintf_>:
    13a0:	fe010113          	addi	sp,sp,-32
    13a4:	00050693          	mv	a3,a0
    13a8:	00001537          	lui	a0,0x1
    13ac:	00058713          	mv	a4,a1
    13b0:	fff00613          	li	a2,-1
    13b4:	00c10593          	addi	a1,sp,12
    13b8:	a8050513          	addi	a0,a0,-1408 # a80 <_out_char>
    13bc:	00112e23          	sw	ra,28(sp)
    13c0:	ee0ff0ef          	jal	aa0 <_vsnprintf>
    13c4:	01c12083          	lw	ra,28(sp)
    13c8:	02010113          	addi	sp,sp,32
    13cc:	00008067          	ret

000013d0 <vsnprintf_>:
    13d0:	00068713          	mv	a4,a3
    13d4:	00060693          	mv	a3,a2
    13d8:	00058613          	mv	a2,a1
    13dc:	00050593          	mv	a1,a0
    13e0:	54400513          	li	a0,1348
    13e4:	ebcff06f          	j	aa0 <_vsnprintf>

000013e8 <fctprintf>:
    13e8:	fc010113          	addi	sp,sp,-64
    13ec:	02c10313          	addi	t1,sp,44
    13f0:	00050e93          	mv	t4,a0
    13f4:	00001537          	lui	a0,0x1
    13f8:	00058e13          	mv	t3,a1
    13fc:	02d12623          	sw	a3,44(sp)
    1400:	02e12823          	sw	a4,48(sp)
    1404:	00060693          	mv	a3,a2
    1408:	00810593          	addi	a1,sp,8
    140c:	00030713          	mv	a4,t1
    1410:	fff00613          	li	a2,-1
    1414:	a8c50513          	addi	a0,a0,-1396 # a8c <_out_fct>
    1418:	00112e23          	sw	ra,28(sp)
    141c:	02f12a23          	sw	a5,52(sp)
    1420:	03012c23          	sw	a6,56(sp)
    1424:	03112e23          	sw	a7,60(sp)
    1428:	00612223          	sw	t1,4(sp)
    142c:	01d12423          	sw	t4,8(sp)
    1430:	01c12623          	sw	t3,12(sp)
    1434:	e6cff0ef          	jal	aa0 <_vsnprintf>
    1438:	01c12083          	lw	ra,28(sp)
    143c:	04010113          	addi	sp,sp,64
    1440:	00008067          	ret

00001444 <tinyIO_init>:
    1444:	0040006f          	j	1448 <uart_init>

00001448 <uart_init>:
    1448:	000017b7          	lui	a5,0x1
    144c:	56a7a223          	sw	a0,1380(a5) # 1564 <global_uart>
    1450:	00300793          	li	a5,3
    1454:	00f52623          	sw	a5,12(a0)
    1458:	00008067          	ret

0000145c <uart_is_rx_empty>:
    145c:	000017b7          	lui	a5,0x1
    1460:	5647a783          	lw	a5,1380(a5) # 1564 <global_uart>
    1464:	0087a503          	lw	a0,8(a5)
    1468:	fff54513          	not	a0,a0
    146c:	00157513          	andi	a0,a0,1
    1470:	00008067          	ret

00001474 <uart_is_tx_empty>:
    1474:	000017b7          	lui	a5,0x1
    1478:	5647a783          	lw	a5,1380(a5) # 1564 <global_uart>
    147c:	0087a503          	lw	a0,8(a5)
    1480:	00255513          	srli	a0,a0,0x2
    1484:	00157513          	andi	a0,a0,1
    1488:	00008067          	ret

0000148c <uart_send_char>:
    148c:	000017b7          	lui	a5,0x1
    1490:	5647a703          	lw	a4,1380(a5) # 1564 <global_uart>
    1494:	00872783          	lw	a5,8(a4)
    1498:	0047f793          	andi	a5,a5,4
    149c:	fe078ce3          	beqz	a5,1494 <uart_send_char+0x8>
    14a0:	00a72223          	sw	a0,4(a4)
    14a4:	00008067          	ret

000014a8 <uart_get_char>:
    14a8:	000017b7          	lui	a5,0x1
    14ac:	5647a703          	lw	a4,1380(a5) # 1564 <global_uart>
    14b0:	00872783          	lw	a5,8(a4)
    14b4:	0017f793          	andi	a5,a5,1
    14b8:	fe078ce3          	beqz	a5,14b0 <uart_get_char+0x8>
    14bc:	00072503          	lw	a0,0(a4)
    14c0:	00008067          	ret
	...
