
bin/interrupts.elf:     file format elf32-littleriscv


Disassembly of section .vector_table:

00000000 <.vector_table>:
   0:	0800006f          	j	80 <_reset_handler>
   4:	1240006f          	j	128 <_default_handler>
   8:	1200006f          	j	128 <_default_handler>
   c:	11c0006f          	j	128 <_default_handler>
  10:	1180006f          	j	128 <_default_handler>
  14:	1140006f          	j	128 <_default_handler>
  18:	1100006f          	j	128 <_default_handler>
  1c:	10c0006f          	j	128 <_default_handler>
  20:	1080006f          	j	128 <_default_handler>
  24:	1040006f          	j	128 <_default_handler>
  28:	1000006f          	j	128 <_default_handler>
  2c:	0fc0006f          	j	128 <_default_handler>
  30:	0f80006f          	j	128 <_default_handler>
  34:	0f40006f          	j	128 <_default_handler>
  38:	0f00006f          	j	128 <_default_handler>
  3c:	0ec0006f          	j	128 <_default_handler>
  40:	0e80006f          	j	128 <_default_handler>
  44:	0e40006f          	j	128 <_default_handler>
  48:	0e00006f          	j	128 <_default_handler>
  4c:	0dc0006f          	j	128 <_default_handler>
  50:	0d80006f          	j	128 <_default_handler>
  54:	0d40006f          	j	128 <_default_handler>
  58:	0d00006f          	j	128 <_default_handler>
  5c:	0cc0006f          	j	128 <_default_handler>
  60:	0c80006f          	j	128 <_default_handler>
  64:	0c40006f          	j	128 <_default_handler>
  68:	0c00006f          	j	128 <_default_handler>
  6c:	0bc0006f          	j	128 <_default_handler>
  70:	0b80006f          	j	128 <_default_handler>
  74:	0b40006f          	j	128 <_default_handler>
  78:	0b00006f          	j	128 <_default_handler>
  7c:	0ac0006f          	j	128 <_default_handler>

Disassembly of section .text:

00000080 <_reset_handler>:
      80:	00000093          	li	ra,0
      84:	00000113          	li	sp,0
      88:	00000193          	li	gp,0
      8c:	00000213          	li	tp,0
      90:	00000293          	li	t0,0
      94:	00000313          	li	t1,0
      98:	00000393          	li	t2,0
      9c:	00000413          	li	s0,0
      a0:	00000493          	li	s1,0
      a4:	00000513          	li	a0,0
      a8:	00000593          	li	a1,0
      ac:	00000613          	li	a2,0
      b0:	00000693          	li	a3,0
      b4:	00000713          	li	a4,0
      b8:	00000793          	li	a5,0
      bc:	00000813          	li	a6,0
      c0:	00000893          	li	a7,0
      c4:	00000913          	li	s2,0
      c8:	00000993          	li	s3,0
      cc:	00000a13          	li	s4,0
      d0:	00000a93          	li	s5,0
      d4:	00000b13          	li	s6,0
      d8:	00000b93          	li	s7,0
      dc:	00000c13          	li	s8,0
      e0:	00000c93          	li	s9,0
      e4:	00000d13          	li	s10,0
      e8:	00000d93          	li	s11,0
      ec:	00000e13          	li	t3,0
      f0:	00000e93          	li	t4,0
      f4:	00000f13          	li	t5,0
      f8:	00000f93          	li	t6,0
      fc:	00000513          	li	a0,0
     100:	00100593          	li	a1,1
     104:	00a5e5b3          	or	a1,a1,a0
     108:	30559073          	csrw	mtvec,a1
     10c:	30046073          	csrsi	mstatus,8
     110:	000015b7          	lui	a1,0x1
     114:	88858593          	addi	a1,a1,-1912 # 888 <_ntoa_long+0x330>
     118:	3045a073          	csrs	mie,a1
     11c:	00008117          	auipc	sp,0x8
     120:	ee010113          	addi	sp,sp,-288 # 7ffc <_stack_start>
     124:	0080006f          	j	12c <_start>

00000128 <_default_handler>:
     128:	0000006f          	j	128 <_default_handler>

0000012c <_start>:
     12c:	00000293          	li	t0,0
     130:	00020337          	lui	t1,0x20
     134:	20030313          	addi	t1,t1,512 # 20200 <_peripheral_GPIO_out_start>
     138:	00532023          	sw	t0,0(t1)
     13c:	00000513          	li	a0,0
     140:	00000593          	li	a1,0
     144:	1a6000ef          	jal	2ea <main>
     148:	00100293          	li	t0,1
     14c:	00020337          	lui	t1,0x20
     150:	20030313          	addi	t1,t1,512 # 20200 <_peripheral_GPIO_out_start>
     154:	00532023          	sw	t0,0(t1)

00000158 <_exit_wfi>:
     158:	10500073          	wfi

0000015c <_exit_spin>:
     15c:	0000006f          	j	15c <_exit_spin>

00000160 <install_exception_handler>:
     160:	7179                	addi	sp,sp,-48
     162:	d622                	sw	s0,44(sp)
     164:	1800                	addi	s0,sp,48
     166:	fca42e23          	sw	a0,-36(s0)
     16a:	fcb42c23          	sw	a1,-40(s0)
     16e:	fdc42703          	lw	a4,-36(s0)
     172:	47fd                	li	a5,31
     174:	00e7f463          	bgeu	a5,a4,17c <install_exception_handler+0x1c>
     178:	4785                	li	a5,1
     17a:	a859                	j	210 <install_exception_handler+0xb0>
     17c:	fdc42783          	lw	a5,-36(s0)
     180:	00279713          	slli	a4,a5,0x2
     184:	00000793          	li	a5,0
     188:	97ba                	add	a5,a5,a4
     18a:	fef42623          	sw	a5,-20(s0)
     18e:	fd842703          	lw	a4,-40(s0)
     192:	fec42783          	lw	a5,-20(s0)
     196:	40f707b3          	sub	a5,a4,a5
     19a:	fef42423          	sw	a5,-24(s0)
     19e:	fe842703          	lw	a4,-24(s0)
     1a2:	000807b7          	lui	a5,0x80
     1a6:	00f75863          	bge	a4,a5,1b6 <install_exception_handler+0x56>
     1aa:	fe842703          	lw	a4,-24(s0)
     1ae:	fff807b7          	lui	a5,0xfff80
     1b2:	00f75463          	bge	a4,a5,1ba <install_exception_handler+0x5a>
     1b6:	4789                	li	a5,2
     1b8:	a8a1                	j	210 <install_exception_handler+0xb0>
     1ba:	fe842783          	lw	a5,-24(s0)
     1be:	fef42223          	sw	a5,-28(s0)
     1c2:	fe442783          	lw	a5,-28(s0)
     1c6:	01479713          	slli	a4,a5,0x14
     1ca:	7fe007b7          	lui	a5,0x7fe00
     1ce:	8f7d                	and	a4,a4,a5
     1d0:	fe442783          	lw	a5,-28(s0)
     1d4:	00979693          	slli	a3,a5,0x9
     1d8:	001007b7          	lui	a5,0x100
     1dc:	8ff5                	and	a5,a5,a3
     1de:	8f5d                	or	a4,a4,a5
     1e0:	fe442683          	lw	a3,-28(s0)
     1e4:	000ff7b7          	lui	a5,0xff
     1e8:	8ff5                	and	a5,a5,a3
     1ea:	8f5d                	or	a4,a4,a5
     1ec:	fe442783          	lw	a5,-28(s0)
     1f0:	00b79693          	slli	a3,a5,0xb
     1f4:	800007b7          	lui	a5,0x80000
     1f8:	8ff5                	and	a5,a5,a3
     1fa:	8fd9                	or	a5,a5,a4
     1fc:	06f7e793          	ori	a5,a5,111
     200:	fef42023          	sw	a5,-32(s0)
     204:	fec42783          	lw	a5,-20(s0)
     208:	fe042703          	lw	a4,-32(s0)
     20c:	c398                	sw	a4,0(a5)
     20e:	4781                	li	a5,0
     210:	853e                	mv	a0,a5
     212:	5432                	lw	s0,44(sp)
     214:	6145                	addi	sp,sp,48
     216:	8082                	ret

00000218 <_sw_handler>:
     218:	1141                	addi	sp,sp,-16
     21a:	c622                	sw	s0,12(sp)
     21c:	0800                	addi	s0,sp,16
     21e:	0001                	nop
     220:	4432                	lw	s0,12(sp)
     222:	0141                	addi	sp,sp,16
     224:	30200073          	mret

00000228 <_timer_handler>:
     228:	1141                	addi	sp,sp,-16
     22a:	c622                	sw	s0,12(sp)
     22c:	0800                	addi	s0,sp,16
     22e:	0001                	nop
     230:	4432                	lw	s0,12(sp)
     232:	0141                	addi	sp,sp,16
     234:	30200073          	mret

00000238 <_ext_handler>:
     238:	711d                	addi	sp,sp,-96
     23a:	ce86                	sw	ra,92(sp)
     23c:	cc96                	sw	t0,88(sp)
     23e:	ca9a                	sw	t1,84(sp)
     240:	c89e                	sw	t2,80(sp)
     242:	c6a2                	sw	s0,76(sp)
     244:	c4aa                	sw	a0,72(sp)
     246:	c2ae                	sw	a1,68(sp)
     248:	c0b2                	sw	a2,64(sp)
     24a:	de36                	sw	a3,60(sp)
     24c:	dc3a                	sw	a4,56(sp)
     24e:	da3e                	sw	a5,52(sp)
     250:	d842                	sw	a6,48(sp)
     252:	d646                	sw	a7,44(sp)
     254:	d472                	sw	t3,40(sp)
     256:	d276                	sw	t4,36(sp)
     258:	d07a                	sw	t5,32(sp)
     25a:	ce7e                	sw	t6,28(sp)
     25c:	1080                	addi	s0,sp,96
     25e:	040007b7          	lui	a5,0x4000
     262:	00078793          	mv	a5,a5
     266:	faf42623          	sw	a5,-84(s0)
     26a:	fac42703          	lw	a4,-84(s0)
     26e:	002007b7          	lui	a5,0x200
     272:	97ba                	add	a5,a5,a4
     274:	43dc                	lw	a5,4(a5)
     276:	faf42423          	sw	a5,-88(s0)
     27a:	fa842703          	lw	a4,-88(s0)
     27e:	4789                	li	a5,2
     280:	02f70063          	beq	a4,a5,2a0 <_ext_handler+0x68>
     284:	fa842703          	lw	a4,-88(s0)
     288:	4789                	li	a5,2
     28a:	00e7ed63          	bltu	a5,a4,2a4 <_ext_handler+0x6c>
     28e:	fa842783          	lw	a5,-88(s0)
     292:	cb99                	beqz	a5,2a8 <_ext_handler+0x70>
     294:	fa842703          	lw	a4,-88(s0)
     298:	4785                	li	a5,1
     29a:	00f70963          	beq	a4,a5,2ac <_ext_handler+0x74>
     29e:	a019                	j	2a4 <_ext_handler+0x6c>
     2a0:	24a5                	jal	508 <tim_handler>
     2a2:	a031                	j	2ae <_ext_handler+0x76>
     2a4:	0001                	nop
     2a6:	a021                	j	2ae <_ext_handler+0x76>
     2a8:	0001                	nop
     2aa:	a011                	j	2ae <_ext_handler+0x76>
     2ac:	0001                	nop
     2ae:	fac42703          	lw	a4,-84(s0)
     2b2:	002007b7          	lui	a5,0x200
     2b6:	0791                	addi	a5,a5,4 # 200004 <_peripheral_HLS_CONTROL_end+0x1c0004>
     2b8:	97ba                	add	a5,a5,a4
     2ba:	fa842703          	lw	a4,-88(s0)
     2be:	c398                	sw	a4,0(a5)
     2c0:	0001                	nop
     2c2:	40f6                	lw	ra,92(sp)
     2c4:	42e6                	lw	t0,88(sp)
     2c6:	4356                	lw	t1,84(sp)
     2c8:	43c6                	lw	t2,80(sp)
     2ca:	4436                	lw	s0,76(sp)
     2cc:	4526                	lw	a0,72(sp)
     2ce:	4596                	lw	a1,68(sp)
     2d0:	4606                	lw	a2,64(sp)
     2d2:	56f2                	lw	a3,60(sp)
     2d4:	5762                	lw	a4,56(sp)
     2d6:	57d2                	lw	a5,52(sp)
     2d8:	5842                	lw	a6,48(sp)
     2da:	58b2                	lw	a7,44(sp)
     2dc:	5e22                	lw	t3,40(sp)
     2de:	5e92                	lw	t4,36(sp)
     2e0:	5f02                	lw	t5,32(sp)
     2e2:	4ff2                	lw	t6,28(sp)
     2e4:	6125                	addi	sp,sp,96
     2e6:	30200073          	mret

000002ea <main>:
     2ea:	1141                	addi	sp,sp,-16
     2ec:	c606                	sw	ra,12(sp)
     2ee:	c422                	sw	s0,8(sp)
     2f0:	0800                	addi	s0,sp,16
     2f2:	21800593          	li	a1,536
     2f6:	450d                	li	a0,3
     2f8:	35a5                	jal	160 <install_exception_handler>
     2fa:	22800593          	li	a1,552
     2fe:	451d                	li	a0,7
     300:	3585                	jal	160 <install_exception_handler>
     302:	23800593          	li	a1,568
     306:	452d                	li	a0,11
     308:	3da1                	jal	160 <install_exception_handler>
     30a:	2061                	jal	392 <serial_init>
     30c:	6785                	lui	a5,0x1
     30e:	4e078513          	addi	a0,a5,1248 # 14e0 <_text_end>
     312:	7a7000ef          	jal	12b8 <printf_>
     316:	2031                	jal	322 <plic_configure>
     318:	2891                	jal	36c <plic_enable>
     31a:	2a1d                	jal	450 <tim_configure>
     31c:	2a61                	jal	4b4 <tim_enable_int>
     31e:	22c1                	jal	4de <tim_enable>
     320:	a001                	j	320 <main+0x36>

00000322 <plic_configure>:
     322:	1101                	addi	sp,sp,-32
     324:	ce22                	sw	s0,28(sp)
     326:	1000                	addi	s0,sp,32
     328:	040007b7          	lui	a5,0x4000
     32c:	00078793          	mv	a5,a5
     330:	fef42423          	sw	a5,-24(s0)
     334:	4785                	li	a5,1
     336:	fef42623          	sw	a5,-20(s0)
     33a:	a839                	j	358 <plic_configure+0x36>
     33c:	fec42783          	lw	a5,-20(s0)
     340:	078a                	slli	a5,a5,0x2
     342:	873e                	mv	a4,a5
     344:	fe842783          	lw	a5,-24(s0)
     348:	97ba                	add	a5,a5,a4
     34a:	4705                	li	a4,1
     34c:	c398                	sw	a4,0(a5)
     34e:	fec42783          	lw	a5,-20(s0)
     352:	0785                	addi	a5,a5,1 # 4000001 <_peripheral_PLIC_start+0x1>
     354:	fef42623          	sw	a5,-20(s0)
     358:	fec42703          	lw	a4,-20(s0)
     35c:	478d                	li	a5,3
     35e:	fce7dfe3          	bge	a5,a4,33c <plic_configure+0x1a>
     362:	0001                	nop
     364:	0001                	nop
     366:	4472                	lw	s0,28(sp)
     368:	6105                	addi	sp,sp,32
     36a:	8082                	ret

0000036c <plic_enable>:
     36c:	1101                	addi	sp,sp,-32
     36e:	ce22                	sw	s0,28(sp)
     370:	1000                	addi	s0,sp,32
     372:	040007b7          	lui	a5,0x4000
     376:	00078793          	mv	a5,a5
     37a:	fef42623          	sw	a5,-20(s0)
     37e:	fec42703          	lw	a4,-20(s0)
     382:	6789                	lui	a5,0x2
     384:	97ba                	add	a5,a5,a4
     386:	473d                	li	a4,15
     388:	c398                	sw	a4,0(a5)
     38a:	0001                	nop
     38c:	4472                	lw	s0,28(sp)
     38e:	6105                	addi	sp,sp,32
     390:	8082                	ret

00000392 <serial_init>:
     392:	1101                	addi	sp,sp,-32
     394:	ce06                	sw	ra,28(sp)
     396:	cc22                	sw	s0,24(sp)
     398:	1000                	addi	s0,sp,32
     39a:	000207b7          	lui	a5,0x20
     39e:	00078793          	mv	a5,a5
     3a2:	fef42623          	sw	a5,-20(s0)
     3a6:	fec42783          	lw	a5,-20(s0)
     3aa:	853e                	mv	a0,a5
     3ac:	098010ef          	jal	1444 <tinyIO_init>
     3b0:	0001                	nop
     3b2:	40f2                	lw	ra,28(sp)
     3b4:	4462                	lw	s0,24(sp)
     3b6:	6105                	addi	sp,sp,32
     3b8:	8082                	ret

000003ba <gpio_in_configure>:
     3ba:	1101                	addi	sp,sp,-32
     3bc:	ce22                	sw	s0,28(sp)
     3be:	1000                	addi	s0,sp,32
     3c0:	000207b7          	lui	a5,0x20
     3c4:	40078793          	addi	a5,a5,1024 # 20400 <_peripheral_GPIO_in_start>
     3c8:	fef42623          	sw	a5,-20(s0)
     3cc:	fec42783          	lw	a5,-20(s0)
     3d0:	0791                	addi	a5,a5,4
     3d2:	4705                	li	a4,1
     3d4:	c398                	sw	a4,0(a5)
     3d6:	0001                	nop
     3d8:	4472                	lw	s0,28(sp)
     3da:	6105                	addi	sp,sp,32
     3dc:	8082                	ret

000003de <gpio_in_enable_int>:
     3de:	1101                	addi	sp,sp,-32
     3e0:	ce22                	sw	s0,28(sp)
     3e2:	1000                	addi	s0,sp,32
     3e4:	000207b7          	lui	a5,0x20
     3e8:	40078793          	addi	a5,a5,1024 # 20400 <_peripheral_GPIO_in_start>
     3ec:	fef42623          	sw	a5,-20(s0)
     3f0:	fec42783          	lw	a5,-20(s0)
     3f4:	12878793          	addi	a5,a5,296
     3f8:	4705                	li	a4,1
     3fa:	c398                	sw	a4,0(a5)
     3fc:	fec42783          	lw	a5,-20(s0)
     400:	11c78793          	addi	a5,a5,284
     404:	80000737          	lui	a4,0x80000
     408:	c398                	sw	a4,0(a5)
     40a:	0001                	nop
     40c:	4472                	lw	s0,28(sp)
     40e:	6105                	addi	sp,sp,32
     410:	8082                	ret

00000412 <gpio_handler>:
     412:	1101                	addi	sp,sp,-32
     414:	ce22                	sw	s0,28(sp)
     416:	1000                	addi	s0,sp,32
     418:	000207b7          	lui	a5,0x20
     41c:	40078793          	addi	a5,a5,1024 # 20400 <_peripheral_GPIO_in_start>
     420:	fef42623          	sw	a5,-20(s0)
     424:	000207b7          	lui	a5,0x20
     428:	20078793          	addi	a5,a5,512 # 20200 <_peripheral_GPIO_out_start>
     42c:	fef42423          	sw	a5,-24(s0)
     430:	fec42783          	lw	a5,-20(s0)
     434:	4398                	lw	a4,0(a5)
     436:	fe842783          	lw	a5,-24(s0)
     43a:	c398                	sw	a4,0(a5)
     43c:	fec42783          	lw	a5,-20(s0)
     440:	12078793          	addi	a5,a5,288
     444:	4705                	li	a4,1
     446:	c398                	sw	a4,0(a5)
     448:	0001                	nop
     44a:	4472                	lw	s0,28(sp)
     44c:	6105                	addi	sp,sp,32
     44e:	8082                	ret

00000450 <tim_configure>:
     450:	1101                	addi	sp,sp,-32
     452:	ce22                	sw	s0,28(sp)
     454:	1000                	addi	s0,sp,32
     456:	000207b7          	lui	a5,0x20
     45a:	60078793          	addi	a5,a5,1536 # 20600 <_peripheral_GPIO_in_end>
     45e:	fef42623          	sw	a5,-20(s0)
     462:	fec42783          	lw	a5,-20(s0)
     466:	0791                	addi	a5,a5,4
     468:	01313737          	lui	a4,0x1313
     46c:	d0070713          	addi	a4,a4,-768 # 1312d00 <_peripheral_HLS_CONTROL_end+0x12d2d00>
     470:	c398                	sw	a4,0(a5)
     472:	fec42783          	lw	a5,-20(s0)
     476:	02000713          	li	a4,32
     47a:	c398                	sw	a4,0(a5)
     47c:	fec42783          	lw	a5,-20(s0)
     480:	439c                	lw	a5,0(a5)
     482:	fdf7f713          	andi	a4,a5,-33
     486:	fec42783          	lw	a5,-20(s0)
     48a:	c398                	sw	a4,0(a5)
     48c:	fec42783          	lw	a5,-20(s0)
     490:	439c                	lw	a5,0(a5)
     492:	0107e713          	ori	a4,a5,16
     496:	fec42783          	lw	a5,-20(s0)
     49a:	c398                	sw	a4,0(a5)
     49c:	fec42783          	lw	a5,-20(s0)
     4a0:	439c                	lw	a5,0(a5)
     4a2:	0027e713          	ori	a4,a5,2
     4a6:	fec42783          	lw	a5,-20(s0)
     4aa:	c398                	sw	a4,0(a5)
     4ac:	0001                	nop
     4ae:	4472                	lw	s0,28(sp)
     4b0:	6105                	addi	sp,sp,32
     4b2:	8082                	ret

000004b4 <tim_enable_int>:
     4b4:	1101                	addi	sp,sp,-32
     4b6:	ce22                	sw	s0,28(sp)
     4b8:	1000                	addi	s0,sp,32
     4ba:	000207b7          	lui	a5,0x20
     4be:	60078793          	addi	a5,a5,1536 # 20600 <_peripheral_GPIO_in_end>
     4c2:	fef42623          	sw	a5,-20(s0)
     4c6:	fec42783          	lw	a5,-20(s0)
     4ca:	439c                	lw	a5,0(a5)
     4cc:	0407e713          	ori	a4,a5,64
     4d0:	fec42783          	lw	a5,-20(s0)
     4d4:	c398                	sw	a4,0(a5)
     4d6:	0001                	nop
     4d8:	4472                	lw	s0,28(sp)
     4da:	6105                	addi	sp,sp,32
     4dc:	8082                	ret

000004de <tim_enable>:
     4de:	1101                	addi	sp,sp,-32
     4e0:	ce22                	sw	s0,28(sp)
     4e2:	1000                	addi	s0,sp,32
     4e4:	000207b7          	lui	a5,0x20
     4e8:	60078793          	addi	a5,a5,1536 # 20600 <_peripheral_GPIO_in_end>
     4ec:	fef42623          	sw	a5,-20(s0)
     4f0:	fec42783          	lw	a5,-20(s0)
     4f4:	439c                	lw	a5,0(a5)
     4f6:	0807e713          	ori	a4,a5,128
     4fa:	fec42783          	lw	a5,-20(s0)
     4fe:	c398                	sw	a4,0(a5)
     500:	0001                	nop
     502:	4472                	lw	s0,28(sp)
     504:	6105                	addi	sp,sp,32
     506:	8082                	ret

00000508 <tim_handler>:
     508:	1101                	addi	sp,sp,-32
     50a:	ce06                	sw	ra,28(sp)
     50c:	cc22                	sw	s0,24(sp)
     50e:	1000                	addi	s0,sp,32
     510:	000207b7          	lui	a5,0x20
     514:	60078793          	addi	a5,a5,1536 # 20600 <_peripheral_GPIO_in_end>
     518:	fef42623          	sw	a5,-20(s0)
     51c:	6785                	lui	a5,0x1
     51e:	4f878513          	addi	a0,a5,1272 # 14f8 <_text_end+0x18>
     522:	597000ef          	jal	12b8 <printf_>
     526:	fec42783          	lw	a5,-20(s0)
     52a:	10000713          	li	a4,256
     52e:	c398                	sw	a4,0(a5)
     530:	fec42783          	lw	a5,-20(s0)
     534:	0d200713          	li	a4,210
     538:	c398                	sw	a4,0(a5)
     53a:	0001                	nop
     53c:	40f2                	lw	ra,28(sp)
     53e:	4462                	lw	s0,24(sp)
     540:	6105                	addi	sp,sp,32
     542:	8082                	ret

00000544 <_out_buffer>:
     544:	00d67663          	bgeu	a2,a3,550 <_out_buffer+0xc>
     548:	00c585b3          	add	a1,a1,a2
     54c:	00a58023          	sb	a0,0(a1)
     550:	00008067          	ret

00000554 <_out_null>:
     554:	00008067          	ret

00000558 <_ntoa_long>:
     558:	fb010113          	addi	sp,sp,-80
     55c:	05412e03          	lw	t3,84(sp)
     560:	04912223          	sw	s1,68(sp)
     564:	05212023          	sw	s2,64(sp)
     568:	03312e23          	sw	s3,60(sp)
     56c:	03412c23          	sw	s4,56(sp)
     570:	03512a23          	sw	s5,52(sp)
     574:	04112623          	sw	ra,76(sp)
     578:	04812423          	sw	s0,72(sp)
     57c:	03612823          	sw	s6,48(sp)
     580:	03712623          	sw	s7,44(sp)
     584:	03812423          	sw	s8,40(sp)
     588:	03912223          	sw	s9,36(sp)
     58c:	05012a83          	lw	s5,80(sp)
     590:	00050493          	mv	s1,a0
     594:	00058913          	mv	s2,a1
     598:	00060a13          	mv	s4,a2
     59c:	00068993          	mv	s3,a3
     5a0:	400e7f13          	andi	t5,t3,1024
     5a4:	010e7f93          	andi	t6,t3,16
     5a8:	00071a63          	bnez	a4,5bc <_ntoa_long+0x64>
     5ac:	fefe7693          	andi	a3,t3,-17
     5b0:	0c0f1863          	bnez	t5,680 <_ntoa_long+0x128>
     5b4:	00000f93          	li	t6,0
     5b8:	00068e13          	mv	t3,a3
     5bc:	020e7693          	andi	a3,t3,32
     5c0:	06100593          	li	a1,97
     5c4:	14069463          	bnez	a3,70c <_ntoa_long+0x1b4>
     5c8:	00000413          	li	s0,0
     5cc:	00010b13          	mv	s6,sp
     5d0:	00900513          	li	a0,9
     5d4:	ff658593          	addi	a1,a1,-10
     5d8:	02000e93          	li	t4,32
     5dc:	00c0006f          	j	5e8 <_ntoa_long+0x90>
     5e0:	03d40c63          	beq	s0,t4,618 <_ntoa_long+0xc0>
     5e4:	00068713          	mv	a4,a3
     5e8:	030776b3          	remu	a3,a4,a6
     5ec:	0ff6f313          	zext.b	t1,a3
     5f0:	03030613          	addi	a2,t1,48
     5f4:	00b30333          	add	t1,t1,a1
     5f8:	0ff37313          	zext.b	t1,t1
     5fc:	00d56463          	bltu	a0,a3,604 <_ntoa_long+0xac>
     600:	0ff67313          	zext.b	t1,a2
     604:	00140413          	addi	s0,s0,1
     608:	008b06b3          	add	a3,s6,s0
     60c:	fe668fa3          	sb	t1,-1(a3)
     610:	030756b3          	divu	a3,a4,a6
     614:	fd0776e3          	bgeu	a4,a6,5e0 <_ntoa_long+0x88>
     618:	002e7c13          	andi	s8,t3,2
     61c:	060c0c63          	beqz	s8,694 <_ntoa_long+0x13c>
     620:	120f8c63          	beqz	t6,758 <_ntoa_long+0x200>
     624:	220f1263          	bnez	t5,848 <_ntoa_long+0x2f0>
     628:	2a041263          	bnez	s0,8cc <_ntoa_long+0x374>
     62c:	01000713          	li	a4,16
     630:	3ee80663          	beq	a6,a4,a1c <_ntoa_long+0x4c4>
     634:	00200713          	li	a4,2
     638:	3ee80c63          	beq	a6,a4,a30 <_ntoa_long+0x4d8>
     63c:	03000713          	li	a4,48
     640:	00e10023          	sb	a4,0(sp)
     644:	000e0693          	mv	a3,t3
     648:	00100713          	li	a4,1
     64c:	0036f613          	andi	a2,a3,3
     650:	24079663          	bnez	a5,89c <_ntoa_long+0x344>
     654:	0046f793          	andi	a5,a3,4
     658:	30078c63          	beqz	a5,970 <_ntoa_long+0x418>
     65c:	02070793          	addi	a5,a4,32
     660:	002787b3          	add	a5,a5,sp
     664:	00170413          	addi	s0,a4,1
     668:	02b00713          	li	a4,43
     66c:	fee78023          	sb	a4,-32(a5)
     670:	000a0b93          	mv	s7,s4
     674:	1e061c63          	bnez	a2,86c <_ntoa_long+0x314>
     678:	0f546a63          	bltu	s0,s5,76c <_ntoa_long+0x214>
     67c:	1f00006f          	j	86c <_ntoa_long+0x314>
     680:	002e7c13          	andi	s8,t3,2
     684:	fc0c14e3          	bnez	s8,64c <_ntoa_long+0xf4>
     688:	00000f93          	li	t6,0
     68c:	00068e13          	mv	t3,a3
     690:	00000413          	li	s0,0
     694:	180a9263          	bnez	s5,818 <_ntoa_long+0x2c0>
     698:	07147463          	bgeu	s0,a7,700 <_ntoa_long+0x1a8>
     69c:	02000713          	li	a4,32
     6a0:	001e7c13          	andi	s8,t3,1
     6a4:	38e40e63          	beq	s0,a4,a40 <_ntoa_long+0x4e8>
     6a8:	00010b13          	mv	s6,sp
     6ac:	03000693          	li	a3,48
     6b0:	02000613          	li	a2,32
     6b4:	0080006f          	j	6bc <_ntoa_long+0x164>
     6b8:	04c40e63          	beq	s0,a2,714 <_ntoa_long+0x1bc>
     6bc:	00140413          	addi	s0,s0,1
     6c0:	008b0733          	add	a4,s6,s0
     6c4:	fed70fa3          	sb	a3,-1(a4)
     6c8:	ff1468e3          	bltu	s0,a7,6b8 <_ntoa_long+0x160>
     6cc:	f40c0ae3          	beqz	s8,620 <_ntoa_long+0xc8>
     6d0:	03547863          	bgeu	s0,s5,700 <_ntoa_long+0x1a8>
     6d4:	02000713          	li	a4,32
     6d8:	00010b13          	mv	s6,sp
     6dc:	03000693          	li	a3,48
     6e0:	02000613          	li	a2,32
     6e4:	00e41663          	bne	s0,a4,6f0 <_ntoa_long+0x198>
     6e8:	0340006f          	j	71c <_ntoa_long+0x1c4>
     6ec:	24c40463          	beq	s0,a2,934 <_ntoa_long+0x3dc>
     6f0:	00140413          	addi	s0,s0,1
     6f4:	008b0733          	add	a4,s6,s0
     6f8:	fed70fa3          	sb	a3,-1(a4)
     6fc:	ff5418e3          	bne	s0,s5,6ec <_ntoa_long+0x194>
     700:	00000c13          	li	s8,0
     704:	f20f90e3          	bnez	t6,624 <_ntoa_long+0xcc>
     708:	0500006f          	j	758 <_ntoa_long+0x200>
     70c:	04100593          	li	a1,65
     710:	eb9ff06f          	j	5c8 <_ntoa_long+0x70>
     714:	340c0a63          	beqz	s8,a68 <_ntoa_long+0x510>
     718:	21547e63          	bgeu	s0,s5,934 <_ntoa_long+0x3dc>
     71c:	260f8a63          	beqz	t6,990 <_ntoa_long+0x438>
     720:	200f1e63          	bnez	t5,93c <_ntoa_long+0x3e4>
     724:	02000713          	li	a4,32
     728:	00000c13          	li	s8,0
     72c:	02000413          	li	s0,32
     730:	1ae89063          	bne	a7,a4,8d0 <_ntoa_long+0x378>
     734:	01f00693          	li	a3,31
     738:	01000713          	li	a4,16
     73c:	2ae80a63          	beq	a6,a4,9f0 <_ntoa_long+0x498>
     740:	00200713          	li	a4,2
     744:	30e80263          	beq	a6,a4,a48 <_ntoa_long+0x4f0>
     748:	02068713          	addi	a4,a3,32
     74c:	002706b3          	add	a3,a4,sp
     750:	03000713          	li	a4,48
     754:	fee68023          	sb	a4,-32(a3)
     758:	02000713          	li	a4,32
     75c:	24e41063          	bne	s0,a4,99c <_ntoa_long+0x444>
     760:	003e7e13          	andi	t3,t3,3
     764:	100e1263          	bnez	t3,868 <_ntoa_long+0x310>
     768:	11547063          	bgeu	s0,s5,868 <_ntoa_long+0x310>
     76c:	000a0b13          	mv	s6,s4
     770:	41440bb3          	sub	s7,s0,s4
     774:	000b0613          	mv	a2,s6
     778:	00098693          	mv	a3,s3
     77c:	00090593          	mv	a1,s2
     780:	02000513          	li	a0,32
     784:	001b0b13          	addi	s6,s6,1
     788:	000480e7          	jalr	s1
     78c:	016b87b3          	add	a5,s7,s6
     790:	ff57e2e3          	bltu	a5,s5,774 <_ntoa_long+0x21c>
     794:	00140793          	addi	a5,s0,1
     798:	00000b93          	li	s7,0
     79c:	00fae663          	bltu	s5,a5,7a8 <_ntoa_long+0x250>
     7a0:	fffa8b93          	addi	s7,s5,-1
     7a4:	408b8bb3          	sub	s7,s7,s0
     7a8:	001a0793          	addi	a5,s4,1
     7ac:	00fb8bb3          	add	s7,s7,a5
     7b0:	0a041e63          	bnez	s0,86c <_ntoa_long+0x314>
     7b4:	020c0663          	beqz	s8,7e0 <_ntoa_long+0x288>
     7b8:	414b8a33          	sub	s4,s7,s4
     7bc:	035a7263          	bgeu	s4,s5,7e0 <_ntoa_long+0x288>
     7c0:	000b8613          	mv	a2,s7
     7c4:	001a0a13          	addi	s4,s4,1
     7c8:	00098693          	mv	a3,s3
     7cc:	00090593          	mv	a1,s2
     7d0:	02000513          	li	a0,32
     7d4:	001b8b93          	addi	s7,s7,1
     7d8:	000480e7          	jalr	s1
     7dc:	ff5a62e3          	bltu	s4,s5,7c0 <_ntoa_long+0x268>
     7e0:	04c12083          	lw	ra,76(sp)
     7e4:	04812403          	lw	s0,72(sp)
     7e8:	04412483          	lw	s1,68(sp)
     7ec:	04012903          	lw	s2,64(sp)
     7f0:	03c12983          	lw	s3,60(sp)
     7f4:	03812a03          	lw	s4,56(sp)
     7f8:	03412a83          	lw	s5,52(sp)
     7fc:	03012b03          	lw	s6,48(sp)
     800:	02812c03          	lw	s8,40(sp)
     804:	02412c83          	lw	s9,36(sp)
     808:	000b8513          	mv	a0,s7
     80c:	02c12b83          	lw	s7,44(sp)
     810:	05010113          	addi	sp,sp,80
     814:	00008067          	ret
     818:	001e7c13          	andi	s8,t3,1
     81c:	080c0c63          	beqz	s8,8b4 <_ntoa_long+0x35c>
     820:	10079663          	bnez	a5,92c <_ntoa_long+0x3d4>
     824:	00ce7713          	andi	a4,t3,12
     828:	10071263          	bnez	a4,92c <_ntoa_long+0x3d4>
     82c:	eb1472e3          	bgeu	s0,a7,6d0 <_ntoa_long+0x178>
     830:	02000713          	li	a4,32
     834:	e6e41ae3          	bne	s0,a4,6a8 <_ntoa_long+0x150>
     838:	ef5462e3          	bltu	s0,s5,71c <_ntoa_long+0x1c4>
     83c:	220f8e63          	beqz	t6,a78 <_ntoa_long+0x520>
     840:	00000c13          	li	s8,0
     844:	de0f02e3          	beqz	t5,628 <_ntoa_long+0xd0>
     848:	01000693          	li	a3,16
     84c:	003e7713          	andi	a4,t3,3
     850:	0ed80c63          	beq	a6,a3,948 <_ntoa_long+0x3f0>
     854:	00200693          	li	a3,2
     858:	0ad80863          	beq	a6,a3,908 <_ntoa_long+0x3b0>
     85c:	02000693          	li	a3,32
     860:	1ad41863          	bne	s0,a3,a10 <_ntoa_long+0x4b8>
     864:	f00702e3          	beqz	a4,768 <_ntoa_long+0x210>
     868:	000a0b93          	mv	s7,s4
     86c:	00010b13          	mv	s6,sp
     870:	008b8cb3          	add	s9,s7,s0
     874:	008b07b3          	add	a5,s6,s0
     878:	fff7c503          	lbu	a0,-1(a5)
     87c:	408c8633          	sub	a2,s9,s0
     880:	00098693          	mv	a3,s3
     884:	fff40413          	addi	s0,s0,-1
     888:	00090593          	mv	a1,s2
     88c:	000c8b93          	mv	s7,s9
     890:	000480e7          	jalr	s1
     894:	fe0410e3          	bnez	s0,874 <_ntoa_long+0x31c>
     898:	f1dff06f          	j	7b4 <_ntoa_long+0x25c>
     89c:	02070793          	addi	a5,a4,32
     8a0:	002787b3          	add	a5,a5,sp
     8a4:	00170413          	addi	s0,a4,1
     8a8:	02d00713          	li	a4,45
     8ac:	fee78023          	sb	a4,-32(a5)
     8b0:	dc1ff06f          	j	670 <_ntoa_long+0x118>
     8b4:	d71476e3          	bgeu	s0,a7,620 <_ntoa_long+0xc8>
     8b8:	02000713          	li	a4,32
     8bc:	dee416e3          	bne	s0,a4,6a8 <_ntoa_long+0x150>
     8c0:	1a0f8c63          	beqz	t6,a78 <_ntoa_long+0x520>
     8c4:	00000c13          	li	s8,0
     8c8:	f80f10e3          	bnez	t5,848 <_ntoa_long+0x2f0>
     8cc:	00888463          	beq	a7,s0,8d4 <_ntoa_long+0x37c>
     8d0:	f68a9ce3          	bne	s5,s0,848 <_ntoa_long+0x2f0>
     8d4:	fff40693          	addi	a3,s0,-1
     8d8:	e60690e3          	bnez	a3,738 <_ntoa_long+0x1e0>
     8dc:	01000713          	li	a4,16
     8e0:	d4e81ae3          	bne	a6,a4,634 <_ntoa_long+0xdc>
     8e4:	fffe4713          	not	a4,t3
     8e8:	02077713          	andi	a4,a4,32
     8ec:	05870713          	addi	a4,a4,88
     8f0:	00e10023          	sb	a4,0(sp)
     8f4:	03000713          	li	a4,48
     8f8:	00e100a3          	sb	a4,1(sp)
     8fc:	000e0693          	mv	a3,t3
     900:	00200713          	li	a4,2
     904:	d49ff06f          	j	64c <_ntoa_long+0xf4>
     908:	02000693          	li	a3,32
     90c:	f4d40ce3          	beq	s0,a3,864 <_ntoa_long+0x30c>
     910:	00040693          	mv	a3,s0
     914:	00140413          	addi	s0,s0,1
     918:	02068693          	addi	a3,a3,32
     91c:	002686b3          	add	a3,a3,sp
     920:	06200613          	li	a2,98
     924:	fec68023          	sb	a2,-32(a3)
     928:	f35ff06f          	j	85c <_ntoa_long+0x304>
     92c:	fffa8a93          	addi	s5,s5,-1
     930:	efdff06f          	j	82c <_ntoa_long+0x2d4>
     934:	040f8e63          	beqz	t6,990 <_ntoa_long+0x438>
     938:	0a0f0463          	beqz	t5,9e0 <_ntoa_long+0x488>
     93c:	00000c13          	li	s8,0
     940:	02000413          	li	s0,32
     944:	f05ff06f          	j	848 <_ntoa_long+0x2f0>
     948:	020e7693          	andi	a3,t3,32
     94c:	04068e63          	beqz	a3,9a8 <_ntoa_long+0x450>
     950:	02000693          	li	a3,32
     954:	f0d408e3          	beq	s0,a3,864 <_ntoa_long+0x30c>
     958:	02040693          	addi	a3,s0,32
     95c:	002686b3          	add	a3,a3,sp
     960:	05800613          	li	a2,88
     964:	fec68023          	sb	a2,-32(a3)
     968:	00140413          	addi	s0,s0,1
     96c:	ef1ff06f          	j	85c <_ntoa_long+0x304>
     970:	0086f693          	andi	a3,a3,8
     974:	04069a63          	bnez	a3,9c8 <_ntoa_long+0x470>
     978:	00070413          	mv	s0,a4
     97c:	00061463          	bnez	a2,984 <_ntoa_long+0x42c>
     980:	df5766e3          	bltu	a4,s5,76c <_ntoa_long+0x214>
     984:	000a0b93          	mv	s7,s4
     988:	ee0412e3          	bnez	s0,86c <_ntoa_long+0x314>
     98c:	e29ff06f          	j	7b4 <_ntoa_long+0x25c>
     990:	00000c13          	li	s8,0
     994:	02000413          	li	s0,32
     998:	dc9ff06f          	j	760 <_ntoa_long+0x208>
     99c:	000e0693          	mv	a3,t3
     9a0:	00040713          	mv	a4,s0
     9a4:	ca9ff06f          	j	64c <_ntoa_long+0xf4>
     9a8:	02000693          	li	a3,32
     9ac:	ead40ce3          	beq	s0,a3,864 <_ntoa_long+0x30c>
     9b0:	02040693          	addi	a3,s0,32
     9b4:	002686b3          	add	a3,a3,sp
     9b8:	07800613          	li	a2,120
     9bc:	fec68023          	sb	a2,-32(a3)
     9c0:	00140413          	addi	s0,s0,1
     9c4:	e99ff06f          	j	85c <_ntoa_long+0x304>
     9c8:	02070793          	addi	a5,a4,32
     9cc:	002787b3          	add	a5,a5,sp
     9d0:	00170413          	addi	s0,a4,1
     9d4:	02000713          	li	a4,32
     9d8:	fee78023          	sb	a4,-32(a5)
     9dc:	c95ff06f          	j	670 <_ntoa_long+0x118>
     9e0:	02000413          	li	s0,32
     9e4:	00000c13          	li	s8,0
     9e8:	ee8894e3          	bne	a7,s0,8d0 <_ntoa_long+0x378>
     9ec:	ee9ff06f          	j	8d4 <_ntoa_long+0x37c>
     9f0:	020e7713          	andi	a4,t3,32
     9f4:	ffe40413          	addi	s0,s0,-2
     9f8:	04071c63          	bnez	a4,a50 <_ntoa_long+0x4f8>
     9fc:	02040713          	addi	a4,s0,32
     a00:	00270433          	add	s0,a4,sp
     a04:	07800713          	li	a4,120
     a08:	fee40023          	sb	a4,-32(s0)
     a0c:	00068413          	mv	s0,a3
     a10:	00040693          	mv	a3,s0
     a14:	00140413          	addi	s0,s0,1
     a18:	d31ff06f          	j	748 <_ntoa_long+0x1f0>
     a1c:	020e7713          	andi	a4,t3,32
     a20:	00070c63          	beqz	a4,a38 <_ntoa_long+0x4e0>
     a24:	05800713          	li	a4,88
     a28:	00e10023          	sb	a4,0(sp)
     a2c:	ec9ff06f          	j	8f4 <_ntoa_long+0x39c>
     a30:	06200713          	li	a4,98
     a34:	ebdff06f          	j	8f0 <_ntoa_long+0x398>
     a38:	07800713          	li	a4,120
     a3c:	eb5ff06f          	j	8f0 <_ntoa_long+0x398>
     a40:	de0c1ee3          	bnez	s8,83c <_ntoa_long+0x2e4>
     a44:	e7dff06f          	j	8c0 <_ntoa_long+0x368>
     a48:	003e7713          	andi	a4,t3,3
     a4c:	ecdff06f          	j	918 <_ntoa_long+0x3c0>
     a50:	02040713          	addi	a4,s0,32
     a54:	00270433          	add	s0,a4,sp
     a58:	05800713          	li	a4,88
     a5c:	fee40023          	sb	a4,-32(s0)
     a60:	00068413          	mv	s0,a3
     a64:	fadff06f          	j	a10 <_ntoa_long+0x4b8>
     a68:	ce0f8ce3          	beqz	t6,760 <_ntoa_long+0x208>
     a6c:	dc0f1ee3          	bnez	t5,848 <_ntoa_long+0x2f0>
     a70:	dc8a9ce3          	bne	s5,s0,848 <_ntoa_long+0x2f0>
     a74:	e61ff06f          	j	8d4 <_ntoa_long+0x37c>
     a78:	00000c13          	li	s8,0
     a7c:	ce5ff06f          	j	760 <_ntoa_long+0x208>

00000a80 <_out_char>:
     a80:	00051463          	bnez	a0,a88 <_out_char+0x8>
     a84:	00008067          	ret
     a88:	2050006f          	j	148c <uart_send_char>

00000a8c <_out_fct>:
     a8c:	00050863          	beqz	a0,a9c <_out_fct+0x10>
     a90:	0005a783          	lw	a5,0(a1)
     a94:	0045a583          	lw	a1,4(a1)
     a98:	00078067          	jr	a5
     a9c:	00008067          	ret

00000aa0 <_vsnprintf>:
     aa0:	fa010113          	addi	sp,sp,-96
     aa4:	05312623          	sw	s3,76(sp)
     aa8:	05412423          	sw	s4,72(sp)
     aac:	05512223          	sw	s5,68(sp)
     ab0:	03812c23          	sw	s8,56(sp)
     ab4:	03a12823          	sw	s10,48(sp)
     ab8:	04112e23          	sw	ra,92(sp)
     abc:	04812c23          	sw	s0,88(sp)
     ac0:	04912a23          	sw	s1,84(sp)
     ac4:	05212823          	sw	s2,80(sp)
     ac8:	05612023          	sw	s6,64(sp)
     acc:	03712e23          	sw	s7,60(sp)
     ad0:	03912a23          	sw	s9,52(sp)
     ad4:	03b12623          	sw	s11,44(sp)
     ad8:	00058a13          	mv	s4,a1
     adc:	00060993          	mv	s3,a2
     ae0:	00068c13          	mv	s8,a3
     ae4:	00070d13          	mv	s10,a4
     ae8:	00050a93          	mv	s5,a0
     aec:	46058863          	beqz	a1,f5c <_vsnprintf+0x4bc>
     af0:	000c4503          	lbu	a0,0(s8)
     af4:	00000d93          	li	s11,0
     af8:	46050a63          	beqz	a0,f6c <_vsnprintf+0x4cc>
     afc:	001217b7          	lui	a5,0x121
     b00:	00001b37          	lui	s6,0x1
     b04:	82178793          	addi	a5,a5,-2015 # 120821 <_peripheral_HLS_CONTROL_end+0xe0821>
     b08:	01000913          	li	s2,16
     b0c:	520b0b13          	addi	s6,s6,1312 # 1520 <_text_end+0x40>
     b10:	00f12a23          	sw	a5,20(sp)
     b14:	0200006f          	j	b34 <_vsnprintf+0x94>
     b18:	000d8613          	mv	a2,s11
     b1c:	00098693          	mv	a3,s3
     b20:	000a0593          	mv	a1,s4
     b24:	001d8d93          	addi	s11,s11,1
     b28:	000a80e7          	jalr	s5
     b2c:	000c4503          	lbu	a0,0(s8)
     b30:	10050063          	beqz	a0,c30 <_vsnprintf+0x190>
     b34:	02500793          	li	a5,37
     b38:	001c0c13          	addi	s8,s8,1
     b3c:	fcf51ee3          	bne	a0,a5,b18 <_vsnprintf+0x78>
     b40:	00000413          	li	s0,0
     b44:	000c4503          	lbu	a0,0(s8)
     b48:	001c0713          	addi	a4,s8,1
     b4c:	fe050793          	addi	a5,a0,-32
     b50:	0ff7f793          	zext.b	a5,a5
     b54:	00f96a63          	bltu	s2,a5,b68 <_vsnprintf+0xc8>
     b58:	00279793          	slli	a5,a5,0x2
     b5c:	016787b3          	add	a5,a5,s6
     b60:	0007a783          	lw	a5,0(a5)
     b64:	00078067          	jr	a5
     b68:	fd050793          	addi	a5,a0,-48
     b6c:	0ff7f793          	zext.b	a5,a5
     b70:	00900693          	li	a3,9
     b74:	24f6fe63          	bgeu	a3,a5,dd0 <_vsnprintf+0x330>
     b78:	02a00793          	li	a5,42
     b7c:	00000b93          	li	s7,0
     b80:	2ef50663          	beq	a0,a5,e6c <_vsnprintf+0x3cc>
     b84:	02e00793          	li	a5,46
     b88:	00000c93          	li	s9,0
     b8c:	28f50263          	beq	a0,a5,e10 <_vsnprintf+0x370>
     b90:	06c00793          	li	a5,108
     b94:	00070693          	mv	a3,a4
     b98:	2af50863          	beq	a0,a5,e48 <_vsnprintf+0x3a8>
     b9c:	2aa7ee63          	bltu	a5,a0,e58 <_vsnprintf+0x3b8>
     ba0:	06800793          	li	a5,104
     ba4:	2ef50e63          	beq	a0,a5,ea0 <_vsnprintf+0x400>
     ba8:	06a00793          	li	a5,106
     bac:	6ef51463          	bne	a0,a5,1294 <_vsnprintf+0x7f4>
     bb0:	001c4503          	lbu	a0,1(s8)
     bb4:	20046413          	ori	s0,s0,512
     bb8:	07800793          	li	a5,120
     bbc:	00168c13          	addi	s8,a3,1
     bc0:	f4a7ece3          	bltu	a5,a0,b18 <_vsnprintf+0x78>
     bc4:	06300793          	li	a5,99
     bc8:	10a7e863          	bltu	a5,a0,cd8 <_vsnprintf+0x238>
     bcc:	06200713          	li	a4,98
     bd0:	50e50a63          	beq	a0,a4,10e4 <_vsnprintf+0x644>
     bd4:	16f51663          	bne	a0,a5,d40 <_vsnprintf+0x2a0>
     bd8:	00247413          	andi	s0,s0,2
     bdc:	004d0493          	addi	s1,s10,4
     be0:	001d8c93          	addi	s9,s11,1
     be4:	40040663          	beqz	s0,ff0 <_vsnprintf+0x550>
     be8:	000d4503          	lbu	a0,0(s10)
     bec:	000d8613          	mv	a2,s11
     bf0:	00098693          	mv	a3,s3
     bf4:	000a0593          	mv	a1,s4
     bf8:	000a80e7          	jalr	s5
     bfc:	00100793          	li	a5,1
     c00:	017d8db3          	add	s11,s11,s7
     c04:	5577f263          	bgeu	a5,s7,1148 <_vsnprintf+0x6a8>
     c08:	000c8613          	mv	a2,s9
     c0c:	00098693          	mv	a3,s3
     c10:	001c8c93          	addi	s9,s9,1
     c14:	000a0593          	mv	a1,s4
     c18:	02000513          	li	a0,32
     c1c:	000a80e7          	jalr	s5
     c20:	ffbc94e3          	bne	s9,s11,c08 <_vsnprintf+0x168>
     c24:	00048d13          	mv	s10,s1
     c28:	000c4503          	lbu	a0,0(s8)
     c2c:	f00514e3          	bnez	a0,b34 <_vsnprintf+0x94>
     c30:	000d8413          	mv	s0,s11
     c34:	013de463          	bltu	s11,s3,c3c <_vsnprintf+0x19c>
     c38:	fff98d93          	addi	s11,s3,-1
     c3c:	00098693          	mv	a3,s3
     c40:	000d8613          	mv	a2,s11
     c44:	000a0593          	mv	a1,s4
     c48:	00000513          	li	a0,0
     c4c:	000a80e7          	jalr	s5
     c50:	05c12083          	lw	ra,92(sp)
     c54:	00040513          	mv	a0,s0
     c58:	05812403          	lw	s0,88(sp)
     c5c:	05412483          	lw	s1,84(sp)
     c60:	05012903          	lw	s2,80(sp)
     c64:	04c12983          	lw	s3,76(sp)
     c68:	04812a03          	lw	s4,72(sp)
     c6c:	04412a83          	lw	s5,68(sp)
     c70:	04012b03          	lw	s6,64(sp)
     c74:	03c12b83          	lw	s7,60(sp)
     c78:	03812c03          	lw	s8,56(sp)
     c7c:	03412c83          	lw	s9,52(sp)
     c80:	03012d03          	lw	s10,48(sp)
     c84:	02c12d83          	lw	s11,44(sp)
     c88:	06010113          	addi	sp,sp,96
     c8c:	00008067          	ret
     c90:	00146413          	ori	s0,s0,1
     c94:	00070c13          	mv	s8,a4
     c98:	eadff06f          	j	b44 <_vsnprintf+0xa4>
     c9c:	00246413          	ori	s0,s0,2
     ca0:	00070c13          	mv	s8,a4
     ca4:	ea1ff06f          	j	b44 <_vsnprintf+0xa4>
     ca8:	00446413          	ori	s0,s0,4
     cac:	00070c13          	mv	s8,a4
     cb0:	e95ff06f          	j	b44 <_vsnprintf+0xa4>
     cb4:	01046413          	ori	s0,s0,16
     cb8:	00070c13          	mv	s8,a4
     cbc:	e89ff06f          	j	b44 <_vsnprintf+0xa4>
     cc0:	00846413          	ori	s0,s0,8
     cc4:	00070c13          	mv	s8,a4
     cc8:	e7dff06f          	j	b44 <_vsnprintf+0xa4>
     ccc:	07800793          	li	a5,120
     cd0:	00070c13          	mv	s8,a4
     cd4:	e4a7e2e3          	bltu	a5,a0,b18 <_vsnprintf+0x78>
     cd8:	f9c50793          	addi	a5,a0,-100
     cdc:	00100493          	li	s1,1
     ce0:	00f494b3          	sll	s1,s1,a5
     ce4:	01412783          	lw	a5,20(sp)
     ce8:	00f4f4b3          	and	s1,s1,a5
     cec:	46049463          	bnez	s1,1154 <_vsnprintf+0x6b4>
     cf0:	07300793          	li	a5,115
     cf4:	1af50e63          	beq	a0,a5,eb0 <_vsnprintf+0x410>
     cf8:	07000793          	li	a5,112
     cfc:	e0f51ee3          	bne	a0,a5,b18 <_vsnprintf+0x78>
     d00:	000d2703          	lw	a4,0(s10)
     d04:	00800793          	li	a5,8
     d08:	02146413          	ori	s0,s0,33
     d0c:	000d8613          	mv	a2,s11
     d10:	00f12023          	sw	a5,0(sp)
     d14:	00812223          	sw	s0,4(sp)
     d18:	000c8893          	mv	a7,s9
     d1c:	01000813          	li	a6,16
     d20:	00000793          	li	a5,0
     d24:	00098693          	mv	a3,s3
     d28:	000a0593          	mv	a1,s4
     d2c:	000a8513          	mv	a0,s5
     d30:	829ff0ef          	jal	558 <_ntoa_long>
     d34:	004d0d13          	addi	s10,s10,4
     d38:	00050d93          	mv	s11,a0
     d3c:	df1ff06f          	j	b2c <_vsnprintf+0x8c>
     d40:	02500793          	li	a5,37
     d44:	02f51063          	bne	a0,a5,d64 <_vsnprintf+0x2c4>
     d48:	000d8613          	mv	a2,s11
     d4c:	00098693          	mv	a3,s3
     d50:	000a0593          	mv	a1,s4
     d54:	02500513          	li	a0,37
     d58:	001d8d93          	addi	s11,s11,1
     d5c:	000a80e7          	jalr	s5
     d60:	dcdff06f          	j	b2c <_vsnprintf+0x8c>
     d64:	05800793          	li	a5,88
     d68:	daf518e3          	bne	a0,a5,b18 <_vsnprintf+0x78>
     d6c:	40047793          	andi	a5,s0,1024
     d70:	38078a63          	beqz	a5,1104 <_vsnprintf+0x664>
     d74:	ff247413          	andi	s0,s0,-14
     d78:	02046413          	ori	s0,s0,32
     d7c:	01000813          	li	a6,16
     d80:	20047793          	andi	a5,s0,512
     d84:	da0794e3          	bnez	a5,b2c <_vsnprintf+0x8c>
     d88:	10047793          	andi	a5,s0,256
     d8c:	004d0493          	addi	s1,s10,4
     d90:	38079263          	bnez	a5,1114 <_vsnprintf+0x674>
     d94:	04047793          	andi	a5,s0,64
     d98:	38078263          	beqz	a5,111c <_vsnprintf+0x67c>
     d9c:	000d4703          	lbu	a4,0(s10)
     da0:	000d8613          	mv	a2,s11
     da4:	00812223          	sw	s0,4(sp)
     da8:	01712023          	sw	s7,0(sp)
     dac:	000c8893          	mv	a7,s9
     db0:	00000793          	li	a5,0
     db4:	00098693          	mv	a3,s3
     db8:	000a0593          	mv	a1,s4
     dbc:	000a8513          	mv	a0,s5
     dc0:	f98ff0ef          	jal	558 <_ntoa_long>
     dc4:	00050d93          	mv	s11,a0
     dc8:	00048d13          	mv	s10,s1
     dcc:	d61ff06f          	j	b2c <_vsnprintf+0x8c>
     dd0:	00000b93          	li	s7,0
     dd4:	002b9793          	slli	a5,s7,0x2
     dd8:	017787b3          	add	a5,a5,s7
     ddc:	00179793          	slli	a5,a5,0x1
     de0:	00a787b3          	add	a5,a5,a0
     de4:	00074503          	lbu	a0,0(a4)
     de8:	fd078b93          	addi	s7,a5,-48
     dec:	00900693          	li	a3,9
     df0:	fd050793          	addi	a5,a0,-48
     df4:	0ff7f793          	zext.b	a5,a5
     df8:	00070c13          	mv	s8,a4
     dfc:	00170713          	addi	a4,a4,1
     e00:	fcf6fae3          	bgeu	a3,a5,dd4 <_vsnprintf+0x334>
     e04:	02e00793          	li	a5,46
     e08:	00000c93          	li	s9,0
     e0c:	d8f512e3          	bne	a0,a5,b90 <_vsnprintf+0xf0>
     e10:	001c4503          	lbu	a0,1(s8)
     e14:	00900613          	li	a2,9
     e18:	00070693          	mv	a3,a4
     e1c:	fd050793          	addi	a5,a0,-48
     e20:	0ff7f793          	zext.b	a5,a5
     e24:	40046413          	ori	s0,s0,1024
     e28:	14f67863          	bgeu	a2,a5,f78 <_vsnprintf+0x4d8>
     e2c:	02a00793          	li	a5,42
     e30:	18f50663          	beq	a0,a5,fbc <_vsnprintf+0x51c>
     e34:	00070c13          	mv	s8,a4
     e38:	06c00793          	li	a5,108
     e3c:	00170713          	addi	a4,a4,1
     e40:	00070693          	mv	a3,a4
     e44:	d4f51ce3          	bne	a0,a5,b9c <_vsnprintf+0xfc>
     e48:	001c4503          	lbu	a0,1(s8)
     e4c:	18f50a63          	beq	a0,a5,fe0 <_vsnprintf+0x540>
     e50:	10046413          	ori	s0,s0,256
     e54:	d65ff06f          	j	bb8 <_vsnprintf+0x118>
     e58:	07a00793          	li	a5,122
     e5c:	e6f518e3          	bne	a0,a5,ccc <_vsnprintf+0x22c>
     e60:	001c4503          	lbu	a0,1(s8)
     e64:	10046413          	ori	s0,s0,256
     e68:	d51ff06f          	j	bb8 <_vsnprintf+0x118>
     e6c:	000d2b83          	lw	s7,0(s10)
     e70:	004d0d13          	addi	s10,s10,4
     e74:	000bca63          	bltz	s7,e88 <_vsnprintf+0x3e8>
     e78:	001c4503          	lbu	a0,1(s8)
     e7c:	00070c13          	mv	s8,a4
     e80:	00170713          	addi	a4,a4,1
     e84:	d01ff06f          	j	b84 <_vsnprintf+0xe4>
     e88:	001c4503          	lbu	a0,1(s8)
     e8c:	00246413          	ori	s0,s0,2
     e90:	00070c13          	mv	s8,a4
     e94:	41700bb3          	neg	s7,s7
     e98:	00170713          	addi	a4,a4,1
     e9c:	ce9ff06f          	j	b84 <_vsnprintf+0xe4>
     ea0:	001c4503          	lbu	a0,1(s8)
     ea4:	1ef50663          	beq	a0,a5,1090 <_vsnprintf+0x5f0>
     ea8:	08046413          	ori	s0,s0,128
     eac:	d0dff06f          	j	bb8 <_vsnprintf+0x118>
     eb0:	000d2783          	lw	a5,0(s10)
     eb4:	004d0713          	addi	a4,s10,4
     eb8:	00e12c23          	sw	a4,24(sp)
     ebc:	0007c683          	lbu	a3,0(a5)
     ec0:	00f12823          	sw	a5,16(sp)
     ec4:	00068513          	mv	a0,a3
     ec8:	0e0c9463          	bnez	s9,fb0 <_vsnprintf+0x510>
     ecc:	ffe00713          	li	a4,-2
     ed0:	02068663          	beqz	a3,efc <_vsnprintf+0x45c>
     ed4:	01012483          	lw	s1,16(sp)
     ed8:	00170713          	addi	a4,a4,1
     edc:	00e48733          	add	a4,s1,a4
     ee0:	0080006f          	j	ee8 <_vsnprintf+0x448>
     ee4:	1a970063          	beq	a4,s1,1084 <_vsnprintf+0x5e4>
     ee8:	0014c783          	lbu	a5,1(s1)
     eec:	00148493          	addi	s1,s1,1
     ef0:	fe079ae3          	bnez	a5,ee4 <_vsnprintf+0x444>
     ef4:	01012783          	lw	a5,16(sp)
     ef8:	40f484b3          	sub	s1,s1,a5
     efc:	40047d13          	andi	s10,s0,1024
     f00:	000d0663          	beqz	s10,f0c <_vsnprintf+0x46c>
     f04:	009cf463          	bgeu	s9,s1,f0c <_vsnprintf+0x46c>
     f08:	000c8493          	mv	s1,s9
     f0c:	00247793          	andi	a5,s0,2
     f10:	00f12e23          	sw	a5,28(sp)
     f14:	18078663          	beqz	a5,10a0 <_vsnprintf+0x600>
     f18:	12068c63          	beqz	a3,1050 <_vsnprintf+0x5b0>
     f1c:	000d8613          	mv	a2,s11
     f20:	000d0863          	beqz	s10,f30 <_vsnprintf+0x490>
     f24:	fffc8793          	addi	a5,s9,-1
     f28:	100c8c63          	beqz	s9,1040 <_vsnprintf+0x5a0>
     f2c:	00078c93          	mv	s9,a5
     f30:	00098693          	mv	a3,s3
     f34:	000a0593          	mv	a1,s4
     f38:	00160413          	addi	s0,a2,1
     f3c:	000a80e7          	jalr	s5
     f40:	01012703          	lw	a4,16(sp)
     f44:	41b407b3          	sub	a5,s0,s11
     f48:	00f707b3          	add	a5,a4,a5
     f4c:	0007c503          	lbu	a0,0(a5)
     f50:	0e050a63          	beqz	a0,1044 <_vsnprintf+0x5a4>
     f54:	00040613          	mv	a2,s0
     f58:	fc9ff06f          	j	f20 <_vsnprintf+0x480>
     f5c:	000c4503          	lbu	a0,0(s8)
     f60:	55400a93          	li	s5,1364
     f64:	00000d93          	li	s11,0
     f68:	b8051ae3          	bnez	a0,afc <_vsnprintf+0x5c>
     f6c:	00000413          	li	s0,0
     f70:	cd3de6e3          	bltu	s11,s3,c3c <_vsnprintf+0x19c>
     f74:	cc5ff06f          	j	c38 <_vsnprintf+0x198>
     f78:	00900713          	li	a4,9
     f7c:	002c9793          	slli	a5,s9,0x2
     f80:	019787b3          	add	a5,a5,s9
     f84:	00168693          	addi	a3,a3,1
     f88:	00179793          	slli	a5,a5,0x1
     f8c:	00a787b3          	add	a5,a5,a0
     f90:	0006c503          	lbu	a0,0(a3)
     f94:	fd078c93          	addi	s9,a5,-48
     f98:	fd050793          	addi	a5,a0,-48
     f9c:	0ff7f793          	zext.b	a5,a5
     fa0:	fcf77ee3          	bgeu	a4,a5,f7c <_vsnprintf+0x4dc>
     fa4:	00068c13          	mv	s8,a3
     fa8:	00168713          	addi	a4,a3,1
     fac:	be5ff06f          	j	b90 <_vsnprintf+0xf0>
     fb0:	f40686e3          	beqz	a3,efc <_vsnprintf+0x45c>
     fb4:	fffc8713          	addi	a4,s9,-1
     fb8:	f1dff06f          	j	ed4 <_vsnprintf+0x434>
     fbc:	000d2c83          	lw	s9,0(s10)
     fc0:	002c4503          	lbu	a0,2(s8)
     fc4:	002c0c13          	addi	s8,s8,2
     fc8:	fffcc793          	not	a5,s9
     fcc:	41f7d793          	srai	a5,a5,0x1f
     fd0:	00fcfcb3          	and	s9,s9,a5
     fd4:	004d0d13          	addi	s10,s10,4
     fd8:	001c0713          	addi	a4,s8,1
     fdc:	bb5ff06f          	j	b90 <_vsnprintf+0xf0>
     fe0:	002c4503          	lbu	a0,2(s8)
     fe4:	30046413          	ori	s0,s0,768
     fe8:	002c0693          	addi	a3,s8,2
     fec:	bcdff06f          	j	bb8 <_vsnprintf+0x118>
     ff0:	00100793          	li	a5,1
     ff4:	1577f063          	bgeu	a5,s7,1134 <_vsnprintf+0x694>
     ff8:	fffd8413          	addi	s0,s11,-1
     ffc:	01740433          	add	s0,s0,s7
    1000:	000d8c93          	mv	s9,s11
    1004:	000c8613          	mv	a2,s9
    1008:	00098693          	mv	a3,s3
    100c:	001c8c93          	addi	s9,s9,1
    1010:	000a0593          	mv	a1,s4
    1014:	02000513          	li	a0,32
    1018:	000a80e7          	jalr	s5
    101c:	ff9414e3          	bne	s0,s9,1004 <_vsnprintf+0x564>
    1020:	000d4503          	lbu	a0,0(s10)
    1024:	00098693          	mv	a3,s3
    1028:	00040613          	mv	a2,s0
    102c:	000a0593          	mv	a1,s4
    1030:	017d8db3          	add	s11,s11,s7
    1034:	000a80e7          	jalr	s5
    1038:	00048d13          	mv	s10,s1
    103c:	bedff06f          	j	c28 <_vsnprintf+0x188>
    1040:	00060413          	mv	s0,a2
    1044:	01c12783          	lw	a5,28(sp)
    1048:	02078863          	beqz	a5,1078 <_vsnprintf+0x5d8>
    104c:	00040d93          	mv	s11,s0
    1050:	0974f663          	bgeu	s1,s7,10dc <_vsnprintf+0x63c>
    1054:	01bb8733          	add	a4,s7,s11
    1058:	40970433          	sub	s0,a4,s1
    105c:	000d8613          	mv	a2,s11
    1060:	00098693          	mv	a3,s3
    1064:	001d8d93          	addi	s11,s11,1
    1068:	000a0593          	mv	a1,s4
    106c:	02000513          	li	a0,32
    1070:	000a80e7          	jalr	s5
    1074:	ffb414e3          	bne	s0,s11,105c <_vsnprintf+0x5bc>
    1078:	01812d03          	lw	s10,24(sp)
    107c:	00040d93          	mv	s11,s0
    1080:	aadff06f          	j	b2c <_vsnprintf+0x8c>
    1084:	01012783          	lw	a5,16(sp)
    1088:	40f704b3          	sub	s1,a4,a5
    108c:	e71ff06f          	j	efc <_vsnprintf+0x45c>
    1090:	002c4503          	lbu	a0,2(s8)
    1094:	0c046413          	ori	s0,s0,192
    1098:	002c0693          	addi	a3,s8,2
    109c:	b1dff06f          	j	bb8 <_vsnprintf+0x118>
    10a0:	0974f663          	bgeu	s1,s7,112c <_vsnprintf+0x68c>
    10a4:	01bb87b3          	add	a5,s7,s11
    10a8:	409784b3          	sub	s1,a5,s1
    10ac:	000d8613          	mv	a2,s11
    10b0:	00098693          	mv	a3,s3
    10b4:	001d8d93          	addi	s11,s11,1
    10b8:	000a0593          	mv	a1,s4
    10bc:	02000513          	li	a0,32
    10c0:	000a80e7          	jalr	s5
    10c4:	ffb494e3          	bne	s1,s11,10ac <_vsnprintf+0x60c>
    10c8:	01012783          	lw	a5,16(sp)
    10cc:	001b8493          	addi	s1,s7,1
    10d0:	0007c683          	lbu	a3,0(a5)
    10d4:	00068513          	mv	a0,a3
    10d8:	e40692e3          	bnez	a3,f1c <_vsnprintf+0x47c>
    10dc:	000d8413          	mv	s0,s11
    10e0:	f99ff06f          	j	1078 <_vsnprintf+0x5d8>
    10e4:	40047793          	andi	a5,s0,1024
    10e8:	00078863          	beqz	a5,10f8 <_vsnprintf+0x658>
    10ec:	ff247413          	andi	s0,s0,-14
    10f0:	00200813          	li	a6,2
    10f4:	c8dff06f          	j	d80 <_vsnprintf+0x2e0>
    10f8:	ff347413          	andi	s0,s0,-13
    10fc:	00200813          	li	a6,2
    1100:	c81ff06f          	j	d80 <_vsnprintf+0x2e0>
    1104:	02046413          	ori	s0,s0,32
    1108:	ff347413          	andi	s0,s0,-13
    110c:	01000813          	li	a6,16
    1110:	c71ff06f          	j	d80 <_vsnprintf+0x2e0>
    1114:	000d2703          	lw	a4,0(s10)
    1118:	c89ff06f          	j	da0 <_vsnprintf+0x300>
    111c:	08047793          	andi	a5,s0,128
    1120:	fe078ae3          	beqz	a5,1114 <_vsnprintf+0x674>
    1124:	000d5703          	lhu	a4,0(s10)
    1128:	c79ff06f          	j	da0 <_vsnprintf+0x300>
    112c:	00148493          	addi	s1,s1,1
    1130:	fa5ff06f          	j	10d4 <_vsnprintf+0x634>
    1134:	000d4503          	lbu	a0,0(s10)
    1138:	00098693          	mv	a3,s3
    113c:	000d8613          	mv	a2,s11
    1140:	000a0593          	mv	a1,s4
    1144:	000a80e7          	jalr	s5
    1148:	000c8d93          	mv	s11,s9
    114c:	00048d13          	mv	s10,s1
    1150:	ad9ff06f          	j	c28 <_vsnprintf+0x188>
    1154:	07800793          	li	a5,120
    1158:	12f50463          	beq	a0,a5,1280 <_vsnprintf+0x7e0>
    115c:	06f00793          	li	a5,111
    1160:	06f50a63          	beq	a0,a5,11d4 <_vsnprintf+0x734>
    1164:	06900793          	li	a5,105
    1168:	fef47693          	andi	a3,s0,-17
    116c:	0ef51463          	bne	a0,a5,1254 <_vsnprintf+0x7b4>
    1170:	40047793          	andi	a5,s0,1024
    1174:	00078463          	beqz	a5,117c <_vsnprintf+0x6dc>
    1178:	fee47693          	andi	a3,s0,-18
    117c:	2006f793          	andi	a5,a3,512
    1180:	9a0796e3          	bnez	a5,b2c <_vsnprintf+0x8c>
    1184:	1006f793          	andi	a5,a3,256
    1188:	004d0413          	addi	s0,s10,4
    118c:	08079463          	bnez	a5,1214 <_vsnprintf+0x774>
    1190:	0406f793          	andi	a5,a3,64
    1194:	04078e63          	beqz	a5,11f0 <_vsnprintf+0x750>
    1198:	000d4783          	lbu	a5,0(s10)
    119c:	00078713          	mv	a4,a5
    11a0:	000d8613          	mv	a2,s11
    11a4:	00d12223          	sw	a3,4(sp)
    11a8:	01712023          	sw	s7,0(sp)
    11ac:	000c8893          	mv	a7,s9
    11b0:	00a00813          	li	a6,10
    11b4:	01f7d793          	srli	a5,a5,0x1f
    11b8:	00098693          	mv	a3,s3
    11bc:	000a0593          	mv	a1,s4
    11c0:	000a8513          	mv	a0,s5
    11c4:	b94ff0ef          	jal	558 <_ntoa_long>
    11c8:	00050d93          	mv	s11,a0
    11cc:	00040d13          	mv	s10,s0
    11d0:	95dff06f          	j	b2c <_vsnprintf+0x8c>
    11d4:	40047793          	andi	a5,s0,1024
    11d8:	00800813          	li	a6,8
    11dc:	00078663          	beqz	a5,11e8 <_vsnprintf+0x748>
    11e0:	ff247413          	andi	s0,s0,-14
    11e4:	b9dff06f          	j	d80 <_vsnprintf+0x2e0>
    11e8:	ff347413          	andi	s0,s0,-13
    11ec:	b95ff06f          	j	d80 <_vsnprintf+0x2e0>
    11f0:	0806f793          	andi	a5,a3,128
    11f4:	04078663          	beqz	a5,1240 <_vsnprintf+0x7a0>
    11f8:	000d1783          	lh	a5,0(s10)
    11fc:	40f7d613          	srai	a2,a5,0xf
    1200:	00c7c733          	xor	a4,a5,a2
    1204:	40c70733          	sub	a4,a4,a2
    1208:	01071713          	slli	a4,a4,0x10
    120c:	01075713          	srli	a4,a4,0x10
    1210:	f91ff06f          	j	11a0 <_vsnprintf+0x700>
    1214:	000d2783          	lw	a5,0(s10)
    1218:	00d12223          	sw	a3,4(sp)
    121c:	000d8613          	mv	a2,s11
    1220:	41f7d713          	srai	a4,a5,0x1f
    1224:	00f746b3          	xor	a3,a4,a5
    1228:	01712023          	sw	s7,0(sp)
    122c:	000c8893          	mv	a7,s9
    1230:	00a00813          	li	a6,10
    1234:	01f7d793          	srli	a5,a5,0x1f
    1238:	40e68733          	sub	a4,a3,a4
    123c:	f7dff06f          	j	11b8 <_vsnprintf+0x718>
    1240:	000d2783          	lw	a5,0(s10)
    1244:	41f7d613          	srai	a2,a5,0x1f
    1248:	00f64733          	xor	a4,a2,a5
    124c:	40c70733          	sub	a4,a4,a2
    1250:	f51ff06f          	j	11a0 <_vsnprintf+0x700>
    1254:	06400793          	li	a5,100
    1258:	f0f50ce3          	beq	a0,a5,1170 <_vsnprintf+0x6d0>
    125c:	40047793          	andi	a5,s0,1024
    1260:	00078a63          	beqz	a5,1274 <_vsnprintf+0x7d4>
    1264:	00068413          	mv	s0,a3
    1268:	00a00813          	li	a6,10
    126c:	ff247413          	andi	s0,s0,-14
    1270:	b11ff06f          	j	d80 <_vsnprintf+0x2e0>
    1274:	fe347413          	andi	s0,s0,-29
    1278:	00a00813          	li	a6,10
    127c:	b05ff06f          	j	d80 <_vsnprintf+0x2e0>
    1280:	40047793          	andi	a5,s0,1024
    1284:	e80782e3          	beqz	a5,1108 <_vsnprintf+0x668>
    1288:	ff247413          	andi	s0,s0,-14
    128c:	01000813          	li	a6,16
    1290:	af1ff06f          	j	d80 <_vsnprintf+0x2e0>
    1294:	00070c13          	mv	s8,a4
    1298:	92dff06f          	j	bc4 <_vsnprintf+0x124>

0000129c <_putchar>:
    129c:	ff010113          	addi	sp,sp,-16
    12a0:	00112623          	sw	ra,12(sp)
    12a4:	1e8000ef          	jal	148c <uart_send_char>
    12a8:	00c12083          	lw	ra,12(sp)
    12ac:	00000513          	li	a0,0
    12b0:	01010113          	addi	sp,sp,16
    12b4:	00008067          	ret

000012b8 <printf_>:
    12b8:	fc010113          	addi	sp,sp,-64
    12bc:	02410313          	addi	t1,sp,36
    12c0:	02d12623          	sw	a3,44(sp)
    12c4:	00050693          	mv	a3,a0
    12c8:	00001537          	lui	a0,0x1
    12cc:	02b12223          	sw	a1,36(sp)
    12d0:	02c12423          	sw	a2,40(sp)
    12d4:	02e12823          	sw	a4,48(sp)
    12d8:	00810593          	addi	a1,sp,8
    12dc:	00030713          	mv	a4,t1
    12e0:	fff00613          	li	a2,-1
    12e4:	a8050513          	addi	a0,a0,-1408 # a80 <_out_char>
    12e8:	00112e23          	sw	ra,28(sp)
    12ec:	02f12a23          	sw	a5,52(sp)
    12f0:	03012c23          	sw	a6,56(sp)
    12f4:	03112e23          	sw	a7,60(sp)
    12f8:	00612623          	sw	t1,12(sp)
    12fc:	fa4ff0ef          	jal	aa0 <_vsnprintf>
    1300:	01c12083          	lw	ra,28(sp)
    1304:	04010113          	addi	sp,sp,64
    1308:	00008067          	ret

0000130c <sprintf_>:
    130c:	fc010113          	addi	sp,sp,-64
    1310:	02810313          	addi	t1,sp,40
    1314:	02d12623          	sw	a3,44(sp)
    1318:	00058693          	mv	a3,a1
    131c:	00050593          	mv	a1,a0
    1320:	02c12423          	sw	a2,40(sp)
    1324:	02e12823          	sw	a4,48(sp)
    1328:	fff00613          	li	a2,-1
    132c:	00030713          	mv	a4,t1
    1330:	54400513          	li	a0,1348
    1334:	00112e23          	sw	ra,28(sp)
    1338:	02f12a23          	sw	a5,52(sp)
    133c:	03012c23          	sw	a6,56(sp)
    1340:	03112e23          	sw	a7,60(sp)
    1344:	00612623          	sw	t1,12(sp)
    1348:	f58ff0ef          	jal	aa0 <_vsnprintf>
    134c:	01c12083          	lw	ra,28(sp)
    1350:	04010113          	addi	sp,sp,64
    1354:	00008067          	ret

00001358 <snprintf_>:
    1358:	fc010113          	addi	sp,sp,-64
    135c:	02c10313          	addi	t1,sp,44
    1360:	02d12623          	sw	a3,44(sp)
    1364:	00060693          	mv	a3,a2
    1368:	00058613          	mv	a2,a1
    136c:	00050593          	mv	a1,a0
    1370:	02e12823          	sw	a4,48(sp)
    1374:	54400513          	li	a0,1348
    1378:	00030713          	mv	a4,t1
    137c:	00112e23          	sw	ra,28(sp)
    1380:	02f12a23          	sw	a5,52(sp)
    1384:	03012c23          	sw	a6,56(sp)
    1388:	03112e23          	sw	a7,60(sp)
    138c:	00612623          	sw	t1,12(sp)
    1390:	f10ff0ef          	jal	aa0 <_vsnprintf>
    1394:	01c12083          	lw	ra,28(sp)
    1398:	04010113          	addi	sp,sp,64
    139c:	00008067          	ret

000013a0 <vprintf_>:
    13a0:	fe010113          	addi	sp,sp,-32
    13a4:	00050693          	mv	a3,a0
    13a8:	00001537          	lui	a0,0x1
    13ac:	00058713          	mv	a4,a1
    13b0:	fff00613          	li	a2,-1
    13b4:	00c10593          	addi	a1,sp,12
    13b8:	a8050513          	addi	a0,a0,-1408 # a80 <_out_char>
    13bc:	00112e23          	sw	ra,28(sp)
    13c0:	ee0ff0ef          	jal	aa0 <_vsnprintf>
    13c4:	01c12083          	lw	ra,28(sp)
    13c8:	02010113          	addi	sp,sp,32
    13cc:	00008067          	ret

000013d0 <vsnprintf_>:
    13d0:	00068713          	mv	a4,a3
    13d4:	00060693          	mv	a3,a2
    13d8:	00058613          	mv	a2,a1
    13dc:	00050593          	mv	a1,a0
    13e0:	54400513          	li	a0,1348
    13e4:	ebcff06f          	j	aa0 <_vsnprintf>

000013e8 <fctprintf>:
    13e8:	fc010113          	addi	sp,sp,-64
    13ec:	02c10313          	addi	t1,sp,44
    13f0:	00050e93          	mv	t4,a0
    13f4:	00001537          	lui	a0,0x1
    13f8:	00058e13          	mv	t3,a1
    13fc:	02d12623          	sw	a3,44(sp)
    1400:	02e12823          	sw	a4,48(sp)
    1404:	00060693          	mv	a3,a2
    1408:	00810593          	addi	a1,sp,8
    140c:	00030713          	mv	a4,t1
    1410:	fff00613          	li	a2,-1
    1414:	a8c50513          	addi	a0,a0,-1396 # a8c <_out_fct>
    1418:	00112e23          	sw	ra,28(sp)
    141c:	02f12a23          	sw	a5,52(sp)
    1420:	03012c23          	sw	a6,56(sp)
    1424:	03112e23          	sw	a7,60(sp)
    1428:	00612223          	sw	t1,4(sp)
    142c:	01d12423          	sw	t4,8(sp)
    1430:	01c12623          	sw	t3,12(sp)
    1434:	e6cff0ef          	jal	aa0 <_vsnprintf>
    1438:	01c12083          	lw	ra,28(sp)
    143c:	04010113          	addi	sp,sp,64
    1440:	00008067          	ret

00001444 <tinyIO_init>:
    1444:	0040006f          	j	1448 <uart_init>

00001448 <uart_init>:
    1448:	000017b7          	lui	a5,0x1
    144c:	56a7a223          	sw	a0,1380(a5) # 1564 <global_uart>
    1450:	00300793          	li	a5,3
    1454:	00f52623          	sw	a5,12(a0)
    1458:	00008067          	ret

0000145c <uart_is_rx_empty>:
    145c:	000017b7          	lui	a5,0x1
    1460:	5647a783          	lw	a5,1380(a5) # 1564 <global_uart>
    1464:	0087a503          	lw	a0,8(a5)
    1468:	fff54513          	not	a0,a0
    146c:	00157513          	andi	a0,a0,1
    1470:	00008067          	ret

00001474 <uart_is_tx_empty>:
    1474:	000017b7          	lui	a5,0x1
    1478:	5647a783          	lw	a5,1380(a5) # 1564 <global_uart>
    147c:	0087a503          	lw	a0,8(a5)
    1480:	00255513          	srli	a0,a0,0x2
    1484:	00157513          	andi	a0,a0,1
    1488:	00008067          	ret

0000148c <uart_send_char>:
    148c:	000017b7          	lui	a5,0x1
    1490:	5647a703          	lw	a4,1380(a5) # 1564 <global_uart>
    1494:	00872783          	lw	a5,8(a4)
    1498:	0047f793          	andi	a5,a5,4
    149c:	fe078ce3          	beqz	a5,1494 <uart_send_char+0x8>
    14a0:	00a72223          	sw	a0,4(a4)
    14a4:	00008067          	ret

000014a8 <uart_get_char>:
    14a8:	000017b7          	lui	a5,0x1
    14ac:	5647a703          	lw	a4,1380(a5) # 1564 <global_uart>
    14b0:	00872783          	lw	a5,8(a4)
    14b4:	0017f793          	andi	a5,a5,1
    14b8:	fe078ce3          	beqz	a5,14b0 <uart_get_char+0x8>
    14bc:	00072503          	lw	a0,0(a4)
    14c0:	00008067          	ret
	...

Disassembly of section .rodata:

000014e0 <.rodata>:
    14e0:	6e49                	.insn	2, 0x6e49
    14e2:	6574                	.insn	2, 0x6574
    14e4:	7272                	.insn	2, 0x7272
    14e6:	7075                	.insn	2, 0x7075
    14e8:	7374                	.insn	2, 0x7374
    14ea:	4520                	.insn	2, 0x4520
    14ec:	6178                	.insn	2, 0x6178
    14ee:	706d                	.insn	2, 0x706d
    14f0:	656c                	.insn	2, 0x656c
    14f2:	0d0a                	.insn	2, 0x0d0a
    14f4:	0000                	.insn	2, 0x
    14f6:	0000                	.insn	2, 0x
    14f8:	0d0a                	.insn	2, 0x0d0a
    14fa:	2a2a                	.insn	2, 0x2a2a
    14fc:	2a2a                	.insn	2, 0x2a2a
    14fe:	2a2a                	.insn	2, 0x2a2a
    1500:	202a                	.insn	2, 0x202a
    1502:	6954                	.insn	2, 0x6954
    1504:	656d                	.insn	2, 0x656d
    1506:	2072                	.insn	2, 0x2072
    1508:	6e49                	.insn	2, 0x6e49
    150a:	6574                	.insn	2, 0x6574
    150c:	7272                	.insn	2, 0x7272
    150e:	7075                	.insn	2, 0x7075
    1510:	2174                	.insn	2, 0x2174
    1512:	2a20                	.insn	2, 0x2a20
    1514:	2a2a                	.insn	2, 0x2a2a
    1516:	2a2a                	.insn	2, 0x2a2a
    1518:	2a2a                	.insn	2, 0x2a2a
    151a:	0d0a                	.insn	2, 0x0d0a
    151c:	0d0a                	.insn	2, 0x0d0a
    151e:	0000                	.insn	2, 0x
    1520:	0cc0                	.insn	2, 0x0cc0
    1522:	0000                	.insn	2, 0x
    1524:	0b68                	.insn	2, 0x0b68
    1526:	0000                	.insn	2, 0x
    1528:	0b68                	.insn	2, 0x0b68
    152a:	0000                	.insn	2, 0x
    152c:	0cb4                	.insn	2, 0x0cb4
    152e:	0000                	.insn	2, 0x
    1530:	0b68                	.insn	2, 0x0b68
    1532:	0000                	.insn	2, 0x
    1534:	0b68                	.insn	2, 0x0b68
    1536:	0000                	.insn	2, 0x
    1538:	0b68                	.insn	2, 0x0b68
    153a:	0000                	.insn	2, 0x
    153c:	0b68                	.insn	2, 0x0b68
    153e:	0000                	.insn	2, 0x
    1540:	0b68                	.insn	2, 0x0b68
    1542:	0000                	.insn	2, 0x
    1544:	0b68                	.insn	2, 0x0b68
    1546:	0000                	.insn	2, 0x
    1548:	0b68                	.insn	2, 0x0b68
    154a:	0000                	.insn	2, 0x
    154c:	0ca8                	.insn	2, 0x0ca8
    154e:	0000                	.insn	2, 0x
    1550:	0b68                	.insn	2, 0x0b68
    1552:	0000                	.insn	2, 0x
    1554:	0c9c                	.insn	2, 0x0c9c
    1556:	0000                	.insn	2, 0x
    1558:	0b68                	.insn	2, 0x0b68
    155a:	0000                	.insn	2, 0x
    155c:	0b68                	.insn	2, 0x0b68
    155e:	0000                	.insn	2, 0x
    1560:	0c90                	.insn	2, 0x0c90
	...

Disassembly of section .debug_info:

00000000 <.debug_info>:
       0:	019e                	.insn	2, 0x019e
       2:	0000                	.insn	2, 0x
       4:	0005                	.insn	2, 0x0005
       6:	0401                	.insn	2, 0x0401
       8:	0000                	.insn	2, 0x
       a:	0000                	.insn	2, 0x
       c:	0009                	.insn	2, 0x0009
       e:	0000                	.insn	2, 0x
      10:	1d00                	.insn	2, 0x1d00
      12:	0000                	.insn	2, 0x
      14:	0000                	.insn	2, 0x
      16:	0011                	.insn	2, 0x0011
      18:	0000                	.insn	2, 0x
      1a:	0160                	.insn	2, 0x0160
      1c:	0000                	.insn	2, 0x
      1e:	018a                	.insn	2, 0x018a
      20:	0000                	.insn	2, 0x
      22:	0000                	.insn	2, 0x
      24:	0000                	.insn	2, 0x
      26:	0101                	.insn	2, 0x0101
      28:	bd06                	.insn	2, 0xbd06
      2a:	0000                	.insn	2, 0x
      2c:	0100                	.insn	2, 0x0100
      2e:	0801                	.insn	2, 0x0801
      30:	000000bb          	.insn	4, 0x00bb
      34:	0201                	.insn	2, 0x0201
      36:	7a05                	.insn	2, 0x7a05
      38:	0001                	.insn	2, 0x0001
      3a:	0100                	.insn	2, 0x0100
      3c:	0702                	.insn	2, 0x0702
      3e:	00c9                	.insn	2, 0x00c9
      40:	0000                	.insn	2, 0x
      42:	00006a03          	.insn	4, 0x6a03
      46:	0200                	.insn	2, 0x0200
      48:	184d                	.insn	2, 0x184d
      4a:	004e                	.insn	2, 0x004e
      4c:	0000                	.insn	2, 0x
      4e:	0401                	.insn	2, 0x0401
      50:	5d05                	.insn	2, 0x5d05
      52:	0001                	.insn	2, 0x0001
      54:	0300                	.insn	2, 0x0300
      56:	000000f3          	.insn	4, 0x00f3
      5a:	4f02                	.insn	2, 0x4f02
      5c:	6119                	.insn	2, 0x6119
      5e:	0000                	.insn	2, 0x
      60:	0100                	.insn	2, 0x0100
      62:	0704                	.insn	2, 0x0704
      64:	013a                	.insn	2, 0x013a
      66:	0000                	.insn	2, 0x
      68:	0801                	.insn	2, 0x0801
      6a:	5805                	.insn	2, 0x5805
      6c:	0001                	.insn	2, 0x0001
      6e:	0100                	.insn	2, 0x0100
      70:	0708                	.insn	2, 0x0708
      72:	0135                	.insn	2, 0x0135
      74:	0000                	.insn	2, 0x
      76:	040a                	.insn	2, 0x040a
      78:	6905                	.insn	2, 0x6905
      7a:	746e                	.insn	2, 0x746e
      7c:	0100                	.insn	2, 0x0100
      7e:	0704                	.insn	2, 0x0704
      80:	0000013f 00006c03 	.insn	8, 0x6c030000013f
      88:	0300                	.insn	2, 0x0300
      8a:	132c                	.insn	2, 0x132c
      8c:	0042                	.insn	2, 0x0042
      8e:	0000                	.insn	2, 0x
      90:	0000f503          	.insn	4, 0xf503
      94:	0300                	.insn	2, 0x0300
      96:	1430                	.insn	2, 0x1430
      98:	0055                	.insn	2, 0x0055
      9a:	0000                	.insn	2, 0x
      9c:	0000900b          	.insn	4, 0x900b
      a0:	0500                	.insn	2, 0x0500
      a2:	009c                	.insn	2, 0x009c
      a4:	0000                	.insn	2, 0x
      a6:	9005                	.insn	2, 0x9005
      a8:	0000                	.insn	2, 0x
      aa:	0600                	.insn	2, 0x0600
      ac:	00fe                	.insn	2, 0x00fe
      ae:	0000                	.insn	2, 0x
      b0:	0c04                	.insn	2, 0x0c04
      b2:	00a1                	.insn	2, 0x00a1
      b4:	0000                	.insn	2, 0x
      b6:	1206                	.insn	2, 0x1206
      b8:	0001                	.insn	2, 0x0001
      ba:	0500                	.insn	2, 0x0500
      bc:	a10a                	.insn	2, 0xa10a
      be:	0000                	.insn	2, 0x
      c0:	0c00                	.insn	2, 0x0c00
      c2:	016e                	.insn	2, 0x016e
      c4:	0000                	.insn	2, 0x
      c6:	0e06                	.insn	2, 0x0e06
      c8:	cf06                	.insn	2, 0xcf06
      ca:	0000                	.insn	2, 0x
      cc:	0d00                	.insn	2, 0x0d00
      ce:	0e00                	.insn	2, 0x0e00
      d0:	0000018f          	.insn	4, 0x018f
      d4:	3101                	.insn	2, 0x3101
      d6:	3806                	.insn	2, 0x3806
      d8:	0002                	.insn	2, 0x0002
      da:	b200                	.insn	2, 0xb200
      dc:	0000                	.insn	2, 0x
      de:	0100                	.insn	2, 0x0100
      e0:	049c                	.insn	2, 0x049c
      e2:	0001                	.insn	2, 0x0001
      e4:	0200                	.insn	2, 0x0200
      e6:	00e9                	.insn	2, 0x00e9
      e8:	0000                	.insn	2, 0x
      ea:	0104103f 91030000 	.insn	8, 0x910300000104103f
      f2:	7fac                	.insn	2, 0x7fac
      f4:	dc02                	.insn	2, 0xdc02
      f6:	0000                	.insn	2, 0x
      f8:	4000                	.insn	2, 0x4000
      fa:	900e                	.insn	2, 0x900e
      fc:	0000                	.insn	2, 0x
      fe:	0300                	.insn	2, 0x0300
     100:	a891                	.insn	2, 0xa891
     102:	007f 9004 0000 0700 	.insn	10, 0x0087070000009004007f
     10a:	0087 
     10c:	0000                	.insn	2, 0x
     10e:	282d                	.insn	2, 0x282d
     110:	0002                	.insn	2, 0x0002
     112:	1000                	.insn	2, 0x1000
     114:	0000                	.insn	2, 0x
     116:	0100                	.insn	2, 0x0100
     118:	079c                	.insn	2, 0x079c
     11a:	014c                	.insn	2, 0x014c
     11c:	0000                	.insn	2, 0x
     11e:	1829                	.insn	2, 0x1829
     120:	0002                	.insn	2, 0x0002
     122:	1000                	.insn	2, 0x1000
     124:	0000                	.insn	2, 0x
     126:	0100                	.insn	2, 0x0100
     128:	0f9c                	.insn	2, 0x0f9c
     12a:	0096                	.insn	2, 0x0096
     12c:	0000                	.insn	2, 0x
     12e:	0b01                	.insn	2, 0x0b01
     130:	7605                	.insn	2, 0x7605
     132:	0000                	.insn	2, 0x
     134:	6000                	.insn	2, 0x6000
     136:	0001                	.insn	2, 0x0001
     138:	b800                	.insn	2, 0xb800
     13a:	0000                	.insn	2, 0x
     13c:	0100                	.insn	2, 0x0100
     13e:	969c                	.insn	2, 0x969c
     140:	0001                	.insn	2, 0x0001
     142:	0800                	.insn	2, 0x0800
     144:	0184                	.insn	2, 0x0184
     146:	0000                	.insn	2, 0x
     148:	9028                	.insn	2, 0x9028
     14a:	0000                	.insn	2, 0x
     14c:	0200                	.insn	2, 0x0200
     14e:	5c91                	.insn	2, 0x5c91
     150:	b008                	.insn	2, 0xb008
     152:	0000                	.insn	2, 0x
     154:	3b00                	.insn	2, 0x3b00
     156:	00000197          	auipc	gp,0x0
     15a:	9102                	.insn	2, 0x9102
     15c:	0258                	.insn	2, 0x0258
     15e:	0074                	.insn	2, 0x0074
     160:	0000                	.insn	2, 0x
     162:	019c180f          	.insn	4, 0x019c180f
     166:	0000                	.insn	2, 0x
     168:	9102                	.insn	2, 0x9102
     16a:	026c                	.insn	2, 0x026c
     16c:	00000063          	beqz	zero,16c <install_exception_handler+0xc>
     170:	0d12                	.insn	2, 0x0d12
     172:	0084                	.insn	2, 0x0084
     174:	0000                	.insn	2, 0x
     176:	9102                	.insn	2, 0x9102
     178:	0268                	.insn	2, 0x0268
     17a:	0129                	.insn	2, 0x0129
     17c:	0000                	.insn	2, 0x
     17e:	0e19                	.insn	2, 0x0e19
     180:	0090                	.insn	2, 0x0090
     182:	0000                	.insn	2, 0x
     184:	9102                	.insn	2, 0x9102
     186:	0264                	.insn	2, 0x0264
     188:	0166                	.insn	2, 0x0166
     18a:	0000                	.insn	2, 0x
     18c:	0e1a                	.insn	2, 0x0e1a
     18e:	0090                	.insn	2, 0x0090
     190:	0000                	.insn	2, 0x
     192:	9102                	.insn	2, 0x9102
     194:	0060                	.insn	2, 0x0060
     196:	0410                	.insn	2, 0x0410
     198:	0196                	.insn	2, 0x0196
     19a:	0000                	.insn	2, 0x
     19c:	a604                	.insn	2, 0xa604
     19e:	0000                	.insn	2, 0x
     1a0:	0000                	.insn	2, 0x
     1a2:	0145                	.insn	2, 0x0145
     1a4:	0000                	.insn	2, 0x
     1a6:	0005                	.insn	2, 0x0005
     1a8:	0401                	.insn	2, 0x0401
     1aa:	00fc                	.insn	2, 0x00fc
     1ac:	0000                	.insn	2, 0x
     1ae:	0009                	.insn	2, 0x0009
     1b0:	0000                	.insn	2, 0x
     1b2:	1d00                	.insn	2, 0x1d00
     1b4:	0000013b          	.insn	4, 0x013b
     1b8:	0011                	.insn	2, 0x0011
     1ba:	0000                	.insn	2, 0x
     1bc:	02ea                	.insn	2, 0x02ea
     1be:	0000                	.insn	2, 0x
     1c0:	0038                	.insn	2, 0x0038
     1c2:	0000                	.insn	2, 0x
     1c4:	01b5                	.insn	2, 0x01b5
     1c6:	0000                	.insn	2, 0x
     1c8:	0101                	.insn	2, 0x0101
     1ca:	bd06                	.insn	2, 0xbd06
     1cc:	0000                	.insn	2, 0x
     1ce:	0100                	.insn	2, 0x0100
     1d0:	0801                	.insn	2, 0x0801
     1d2:	000000bb          	.insn	4, 0x00bb
     1d6:	0201                	.insn	2, 0x0201
     1d8:	7a05                	.insn	2, 0x7a05
     1da:	0001                	.insn	2, 0x0001
     1dc:	0100                	.insn	2, 0x0100
     1de:	0702                	.insn	2, 0x0702
     1e0:	00c9                	.insn	2, 0x00c9
     1e2:	0000                	.insn	2, 0x
     1e4:	0401                	.insn	2, 0x0401
     1e6:	5d05                	.insn	2, 0x5d05
     1e8:	0001                	.insn	2, 0x0001
     1ea:	0600                	.insn	2, 0x0600
     1ec:	000000f3          	.insn	4, 0x00f3
     1f0:	4f02                	.insn	2, 0x4f02
     1f2:	5519                	.insn	2, 0x5519
     1f4:	0000                	.insn	2, 0x
     1f6:	0100                	.insn	2, 0x0100
     1f8:	0704                	.insn	2, 0x0704
     1fa:	013a                	.insn	2, 0x013a
     1fc:	0000                	.insn	2, 0x
     1fe:	0801                	.insn	2, 0x0801
     200:	5805                	.insn	2, 0x5805
     202:	0001                	.insn	2, 0x0001
     204:	0100                	.insn	2, 0x0100
     206:	0708                	.insn	2, 0x0708
     208:	0135                	.insn	2, 0x0135
     20a:	0000                	.insn	2, 0x
     20c:	040a                	.insn	2, 0x040a
     20e:	6905                	.insn	2, 0x6905
     210:	746e                	.insn	2, 0x746e
     212:	0100                	.insn	2, 0x0100
     214:	0704                	.insn	2, 0x0704
     216:	0000013f 0000f506 	.insn	8, 0xf5060000013f
     21e:	0300                	.insn	2, 0x0300
     220:	1430                	.insn	2, 0x1430
     222:	0049                	.insn	2, 0x0049
     224:	0000                	.insn	2, 0x
     226:	1001                	.insn	2, 0x1001
     228:	f004                	.insn	2, 0xf004
     22a:	0001                	.insn	2, 0x0001
     22c:	0300                	.insn	2, 0x0300
     22e:	01e5                	.insn	2, 0x01e5
     230:	0000                	.insn	2, 0x
     232:	0c04                	.insn	2, 0x0c04
     234:	0098                	.insn	2, 0x0098
     236:	0000                	.insn	2, 0x
     238:	0002                	.insn	2, 0x0002
     23a:	0001c503          	lbu	a0,0(gp) # 156 <_start+0x2a>
     23e:	0400                	.insn	2, 0x0400
     240:	0000a50b          	.insn	4, 0xa50b
     244:	0200                	.insn	2, 0x0200
     246:	0300                	.insn	2, 0x0300
     248:	000001b7          	lui	gp,0x0
     24c:	0a04                	.insn	2, 0x0a04
     24e:	00b2                	.insn	2, 0x00b2
     250:	0000                	.insn	2, 0x
     252:	0002                	.insn	2, 0x0002
     254:	0001ab03          	lw	s6,0(gp) # 0 <_vector_table_start>
     258:	0500                	.insn	2, 0x0500
     25a:	bf0e                	.insn	2, 0xbf0e
     25c:	0000                	.insn	2, 0x
     25e:	0200                	.insn	2, 0x0200
     260:	0300                	.insn	2, 0x0300
     262:	019c                	.insn	2, 0x019c
     264:	0000                	.insn	2, 0x
     266:	0d05                	.insn	2, 0x0d05
     268:	00cc                	.insn	2, 0x00cc
     26a:	0000                	.insn	2, 0x
     26c:	0002                	.insn	2, 0x0002
     26e:	00044507          	.insn	4, 0x00044507
     272:	0800                	.insn	2, 0x0800
     274:	6a40                	.insn	2, 0x6a40
     276:	0000                	.insn	2, 0x
     278:	e200                	.insn	2, 0xe200
     27a:	0000                	.insn	2, 0x
     27c:	0400                	.insn	2, 0x0400
     27e:	00e2                	.insn	2, 0x00e2
     280:	0000                	.insn	2, 0x
     282:	0002                	.insn	2, 0x0002
     284:	ee08                	.insn	2, 0xee08
     286:	0000                	.insn	2, 0x
     288:	0100                	.insn	2, 0x0100
     28a:	0801                	.insn	2, 0x0801
     28c:	00c4                	.insn	2, 0x00c4
     28e:	0000                	.insn	2, 0x
     290:	0000e70b          	.insn	4, 0xe70b
     294:	0300                	.insn	2, 0x0300
     296:	01d9                	.insn	2, 0x01d9
     298:	0000                	.insn	2, 0x
     29a:	0906                	.insn	2, 0x0906
     29c:	0100                	.insn	2, 0x0100
     29e:	0000                	.insn	2, 0x
     2a0:	0002                	.insn	2, 0x0002
     2a2:	8f05                	.insn	2, 0x8f05
     2a4:	0001                	.insn	2, 0x0001
     2a6:	1e00                	.insn	2, 0x1e00
     2a8:	8705                	.insn	2, 0x8705
     2aa:	0000                	.insn	2, 0x
     2ac:	1d00                	.insn	2, 0x1d00
     2ae:	4c05                	.insn	2, 0x4c05
     2b0:	0001                	.insn	2, 0x0001
     2b2:	1c00                	.insn	2, 0x1c00
     2b4:	00009607          	.insn	4, 0x9607
     2b8:	0700                	.insn	2, 0x0700
     2ba:	6a12                	.insn	2, 0x6a12
     2bc:	0000                	.insn	2, 0x
     2be:	2c00                	.insn	2, 0x2c00
     2c0:	0001                	.insn	2, 0x0001
     2c2:	0400                	.insn	2, 0x0400
     2c4:	0078                	.insn	2, 0x0078
     2c6:	0000                	.insn	2, 0x
     2c8:	2c04                	.insn	2, 0x2c04
     2ca:	0001                	.insn	2, 0x0001
     2cc:	0000                	.insn	2, 0x
     2ce:	3108                	.insn	2, 0x3108
     2d0:	0001                	.insn	2, 0x0001
     2d2:	0c00                	.insn	2, 0x0c00
     2d4:	d40d                	.insn	2, 0xd40d
     2d6:	0001                	.insn	2, 0x0001
     2d8:	0100                	.insn	2, 0x0100
     2da:	051c                	.insn	2, 0x051c
     2dc:	006a                	.insn	2, 0x006a
     2de:	0000                	.insn	2, 0x
     2e0:	02ea                	.insn	2, 0x02ea
     2e2:	0000                	.insn	2, 0x
     2e4:	0038                	.insn	2, 0x0038
     2e6:	0000                	.insn	2, 0x
     2e8:	9c01                	.insn	2, 0x9c01
     2ea:	f800                	.insn	2, 0xf800
     2ec:	0000                	.insn	2, 0x
     2ee:	0500                	.insn	2, 0x0500
     2f0:	0100                	.insn	2, 0x0100
     2f2:	b304                	.insn	2, 0xb304
     2f4:	0001                	.insn	2, 0x0001
     2f6:	0400                	.insn	2, 0x0400
     2f8:	0000                	.insn	2, 0x
     2fa:	0000                	.insn	2, 0x
     2fc:	ae1d                	.insn	2, 0xae1d
     2fe:	0001                	.insn	2, 0x0001
     300:	1100                	.insn	2, 0x1100
     302:	0000                	.insn	2, 0x
     304:	2200                	.insn	2, 0x2200
     306:	70000003          	lb	zero,1792(zero) # 700 <_ntoa_long+0x1a8>
     30a:	0000                	.insn	2, 0x
     30c:	7a00                	.insn	2, 0x7a00
     30e:	0002                	.insn	2, 0x0002
     310:	0100                	.insn	2, 0x0100
     312:	0601                	.insn	2, 0x0601
     314:	00bd                	.insn	2, 0x00bd
     316:	0000                	.insn	2, 0x
     318:	0101                	.insn	2, 0x0101
     31a:	bb08                	.insn	2, 0xbb08
     31c:	0000                	.insn	2, 0x
     31e:	0100                	.insn	2, 0x0100
     320:	0502                	.insn	2, 0x0502
     322:	017a                	.insn	2, 0x017a
     324:	0000                	.insn	2, 0x
     326:	0201                	.insn	2, 0x0201
     328:	0000c907          	.insn	4, 0xc907
     32c:	0100                	.insn	2, 0x0100
     32e:	0504                	.insn	2, 0x0504
     330:	015d                	.insn	2, 0x015d
     332:	0000                	.insn	2, 0x
     334:	f302                	.insn	2, 0xf302
     336:	0000                	.insn	2, 0x
     338:	0200                	.insn	2, 0x0200
     33a:	0055194f          	.insn	4, 0x0055194f
     33e:	0000                	.insn	2, 0x
     340:	0401                	.insn	2, 0x0401
     342:	00013a07          	.insn	4, 0x00013a07
     346:	0100                	.insn	2, 0x0100
     348:	0508                	.insn	2, 0x0508
     34a:	0158                	.insn	2, 0x0158
     34c:	0000                	.insn	2, 0x
     34e:	0801                	.insn	2, 0x0801
     350:	00013507          	.insn	4, 0x00013507
     354:	0500                	.insn	2, 0x0500
     356:	0504                	.insn	2, 0x0504
     358:	6e69                	.insn	2, 0x6e69
     35a:	0074                	.insn	2, 0x0074
     35c:	0401                	.insn	2, 0x0401
     35e:	00013f07          	.insn	4, 0x00013f07
     362:	0200                	.insn	2, 0x0200
     364:	00f5                	.insn	2, 0x00f5
     366:	0000                	.insn	2, 0x
     368:	49143003          	.insn	4, 0x49143003
     36c:	0000                	.insn	2, 0x
     36e:	0600                	.insn	2, 0x0600
     370:	0078                	.insn	2, 0x0078
     372:	0000                	.insn	2, 0x
     374:	00008407          	.insn	4, 0x8407
     378:	0800                	.insn	2, 0x0800
     37a:	0112                	.insn	2, 0x0112
     37c:	0000                	.insn	2, 0x
     37e:	0a04                	.insn	2, 0x0a04
     380:	8920                	.insn	2, 0x8920
     382:	0000                	.insn	2, 0x
     384:	0900                	.insn	2, 0x0900
     386:	000001ab          	.insn	4, 0x01ab
     38a:	1201                	.insn	2, 0x1201
     38c:	6c06                	.insn	2, 0x6c06
     38e:	26000003          	lb	zero,608(zero) # 260 <_ext_handler+0x28>
     392:	0000                	.insn	2, 0x
     394:	0100                	.insn	2, 0x0100
     396:	be9c                	.insn	2, 0xbe9c
     398:	0000                	.insn	2, 0x
     39a:	0300                	.insn	2, 0x0300
     39c:	00e9                	.insn	2, 0x00e9
     39e:	0000                	.insn	2, 0x
     3a0:	be14                	.insn	2, 0xbe14
     3a2:	0000                	.insn	2, 0x
     3a4:	0200                	.insn	2, 0x0200
     3a6:	6c91                	.insn	2, 0x6c91
     3a8:	0a00                	.insn	2, 0x0a00
     3aa:	7804                	.insn	2, 0x7804
     3ac:	0000                	.insn	2, 0x
     3ae:	0b00                	.insn	2, 0x0b00
     3b0:	019c                	.insn	2, 0x019c
     3b2:	0000                	.insn	2, 0x
     3b4:	0501                	.insn	2, 0x0501
     3b6:	2206                	.insn	2, 0x2206
     3b8:	4a000003          	lb	zero,1184(zero) # 4a0 <tim_configure+0x50>
     3bc:	0000                	.insn	2, 0x
     3be:	0100                	.insn	2, 0x0100
     3c0:	039c                	.insn	2, 0x039c
     3c2:	00e9                	.insn	2, 0x00e9
     3c4:	0000                	.insn	2, 0x
     3c6:	0000be07          	.insn	4, 0xbe07
     3ca:	0200                	.insn	2, 0x0200
     3cc:	6891                	.insn	2, 0x6891
     3ce:	340c                	.insn	2, 0x340c
     3d0:	2e000003          	lb	zero,736(zero) # 2e0 <_ext_handler+0xa8>
     3d4:	0000                	.insn	2, 0x
     3d6:	0d00                	.insn	2, 0x0d00
     3d8:	0069                	.insn	2, 0x0069
     3da:	0a01                	.insn	2, 0x0a01
     3dc:	6a0e                	.insn	2, 0x6a0e
     3de:	0000                	.insn	2, 0x
     3e0:	0200                	.insn	2, 0x0200
     3e2:	6c91                	.insn	2, 0x6c91
     3e4:	0000                	.insn	2, 0x
     3e6:	dc00                	.insn	2, 0xdc00
     3e8:	0000                	.insn	2, 0x
     3ea:	0500                	.insn	2, 0x0500
     3ec:	0100                	.insn	2, 0x0100
     3ee:	7304                	.insn	2, 0x7304
     3f0:	0002                	.insn	2, 0x0002
     3f2:	0300                	.insn	2, 0x0300
     3f4:	0000                	.insn	2, 0x
     3f6:	0000                	.insn	2, 0x
     3f8:	b91d                	.insn	2, 0xb91d
     3fa:	0001                	.insn	2, 0x0001
     3fc:	1100                	.insn	2, 0x1100
     3fe:	0000                	.insn	2, 0x
     400:	9200                	.insn	2, 0x9200
     402:	28000003          	lb	zero,640(zero) # 280 <_ext_handler+0x48>
     406:	0000                	.insn	2, 0x
     408:	5700                	.insn	2, 0x5700
     40a:	01000003          	lb	zero,16(zero) # 10 <_vector_table_start+0x10>
     40e:	0601                	.insn	2, 0x0601
     410:	00bd                	.insn	2, 0x00bd
     412:	0000                	.insn	2, 0x
     414:	0101                	.insn	2, 0x0101
     416:	bb08                	.insn	2, 0xbb08
     418:	0000                	.insn	2, 0x
     41a:	0100                	.insn	2, 0x0100
     41c:	0502                	.insn	2, 0x0502
     41e:	017a                	.insn	2, 0x017a
     420:	0000                	.insn	2, 0x
     422:	0201                	.insn	2, 0x0201
     424:	0000c907          	.insn	4, 0xc907
     428:	0100                	.insn	2, 0x0100
     42a:	0504                	.insn	2, 0x0504
     42c:	015d                	.insn	2, 0x015d
     42e:	0000                	.insn	2, 0x
     430:	f302                	.insn	2, 0xf302
     432:	0000                	.insn	2, 0x
     434:	0200                	.insn	2, 0x0200
     436:	0055194f          	.insn	4, 0x0055194f
     43a:	0000                	.insn	2, 0x
     43c:	0401                	.insn	2, 0x0401
     43e:	00013a07          	.insn	4, 0x00013a07
     442:	0100                	.insn	2, 0x0100
     444:	0508                	.insn	2, 0x0508
     446:	0158                	.insn	2, 0x0158
     448:	0000                	.insn	2, 0x
     44a:	0801                	.insn	2, 0x0801
     44c:	00013507          	.insn	4, 0x00013507
     450:	0400                	.insn	2, 0x0400
     452:	0504                	.insn	2, 0x0504
     454:	6e69                	.insn	2, 0x6e69
     456:	0074                	.insn	2, 0x0074
     458:	0401                	.insn	2, 0x0401
     45a:	00013f07          	.insn	4, 0x00013f07
     45e:	0200                	.insn	2, 0x0200
     460:	00f5                	.insn	2, 0x00f5
     462:	0000                	.insn	2, 0x
     464:	49143003          	.insn	4, 0x49143003
     468:	0000                	.insn	2, 0x
     46a:	0500                	.insn	2, 0x0500
     46c:	0078                	.insn	2, 0x0078
     46e:	0000                	.insn	2, 0x
     470:	8406                	.insn	2, 0x8406
     472:	0000                	.insn	2, 0x
     474:	0100                	.insn	2, 0x0100
     476:	0410                	.insn	2, 0x0410
     478:	01f0                	.insn	2, 0x01f0
     47a:	0000                	.insn	2, 0x
     47c:	00020807          	.insn	4, 0x00020807
     480:	0400                	.insn	2, 0x0400
     482:	00892007          	.insn	4, 0x00892007
     486:	0000                	.insn	2, 0x
     488:	fc08                	.insn	2, 0xfc08
     48a:	0001                	.insn	2, 0x0001
     48c:	0500                	.insn	2, 0x0500
     48e:	061e                	.insn	2, 0x061e
     490:	000000b3          	add	ra,zero,zero
     494:	7809                	.insn	2, 0x7809
     496:	0000                	.insn	2, 0x
     498:	0000                	.insn	2, 0x
     49a:	d90a                	.insn	2, 0xd90a
     49c:	0001                	.insn	2, 0x0001
     49e:	0100                	.insn	2, 0x0100
     4a0:	03920603          	lb	a2,57(tp) # 39 <_vector_table_start+0x39>
     4a4:	0000                	.insn	2, 0x
     4a6:	0028                	.insn	2, 0x0028
     4a8:	0000                	.insn	2, 0x
     4aa:	9c01                	.insn	2, 0x9c01
     4ac:	00d9                	.insn	2, 0x00d9
     4ae:	0000                	.insn	2, 0x
     4b0:	00021f0b          	.insn	4, 0x00021f0b
     4b4:	0100                	.insn	2, 0x0100
     4b6:	0f05                	.insn	2, 0x0f05
     4b8:	00d9                	.insn	2, 0x00d9
     4ba:	0000                	.insn	2, 0x
     4bc:	9102                	.insn	2, 0x9102
     4be:	006c                	.insn	2, 0x006c
     4c0:	040c                	.insn	2, 0x040c
     4c2:	0078                	.insn	2, 0x0078
     4c4:	0000                	.insn	2, 0x
     4c6:	1600                	.insn	2, 0x1600
     4c8:	0001                	.insn	2, 0x0001
     4ca:	0500                	.insn	2, 0x0500
     4cc:	0100                	.insn	2, 0x0100
     4ce:	1c04                	.insn	2, 0x1c04
     4d0:	06000003          	lb	zero,96(zero) # 60 <_vector_table_start+0x60>
     4d4:	0000                	.insn	2, 0x
     4d6:	0000                	.insn	2, 0x
     4d8:	cf1d                	.insn	2, 0xcf1d
     4da:	0001                	.insn	2, 0x0001
     4dc:	1100                	.insn	2, 0x1100
     4de:	0000                	.insn	2, 0x
     4e0:	ba00                	.insn	2, 0xba00
     4e2:	96000003          	lb	zero,-1696(zero) # fffff960 <_peripheral_PLIC_end+0xf7fff960>
     4e6:	0000                	.insn	2, 0x
     4e8:	dd00                	.insn	2, 0xdd00
     4ea:	01000003          	lb	zero,16(zero) # 10 <_vector_table_start+0x10>
     4ee:	0601                	.insn	2, 0x0601
     4f0:	00bd                	.insn	2, 0x00bd
     4f2:	0000                	.insn	2, 0x
     4f4:	0101                	.insn	2, 0x0101
     4f6:	bb08                	.insn	2, 0xbb08
     4f8:	0000                	.insn	2, 0x
     4fa:	0100                	.insn	2, 0x0100
     4fc:	0502                	.insn	2, 0x0502
     4fe:	017a                	.insn	2, 0x017a
     500:	0000                	.insn	2, 0x
     502:	0201                	.insn	2, 0x0201
     504:	0000c907          	.insn	4, 0xc907
     508:	0100                	.insn	2, 0x0100
     50a:	0504                	.insn	2, 0x0504
     50c:	015d                	.insn	2, 0x015d
     50e:	0000                	.insn	2, 0x
     510:	0000f303          	.insn	4, 0xf303
     514:	0200                	.insn	2, 0x0200
     516:	0055194f          	.insn	4, 0x0055194f
     51a:	0000                	.insn	2, 0x
     51c:	0401                	.insn	2, 0x0401
     51e:	00013a07          	.insn	4, 0x00013a07
     522:	0100                	.insn	2, 0x0100
     524:	0508                	.insn	2, 0x0508
     526:	0158                	.insn	2, 0x0158
     528:	0000                	.insn	2, 0x
     52a:	0801                	.insn	2, 0x0801
     52c:	00013507          	.insn	4, 0x00013507
     530:	0700                	.insn	2, 0x0700
     532:	0504                	.insn	2, 0x0504
     534:	6e69                	.insn	2, 0x6e69
     536:	0074                	.insn	2, 0x0074
     538:	0401                	.insn	2, 0x0401
     53a:	00013f07          	.insn	4, 0x00013f07
     53e:	0300                	.insn	2, 0x0300
     540:	00f5                	.insn	2, 0x00f5
     542:	0000                	.insn	2, 0x
     544:	49143003          	.insn	4, 0x49143003
     548:	0000                	.insn	2, 0x
     54a:	0800                	.insn	2, 0x0800
     54c:	0078                	.insn	2, 0x0078
     54e:	0000                	.insn	2, 0x
     550:	8409                	.insn	2, 0x8409
     552:	0000                	.insn	2, 0x
     554:	0400                	.insn	2, 0x0400
     556:	028c                	.insn	2, 0x028c
     558:	0000                	.insn	2, 0x
     55a:	890e                	.insn	2, 0x890e
     55c:	0000                	.insn	2, 0x
     55e:	0400                	.insn	2, 0x0400
     560:	0000023f 0000890f 	.insn	8, 0x890f0000023f
     568:	0500                	.insn	2, 0x0500
     56a:	025a                	.insn	2, 0x025a
     56c:	0000                	.insn	2, 0x
     56e:	1218                	.insn	2, 0x1218
     570:	0004                	.insn	2, 0x0004
     572:	3e00                	.insn	2, 0x3e00
     574:	0000                	.insn	2, 0x
     576:	0100                	.insn	2, 0x0100
     578:	d19c                	.insn	2, 0xd19c
     57a:	0000                	.insn	2, 0x
     57c:	0200                	.insn	2, 0x0200
     57e:	02a6                	.insn	2, 0x02a6
     580:	0000                	.insn	2, 0x
     582:	d11a                	.insn	2, 0xd11a
     584:	0000                	.insn	2, 0x
     586:	0200                	.insn	2, 0x0200
     588:	6c91                	.insn	2, 0x6c91
     58a:	3102                	.insn	2, 0x3102
     58c:	0002                	.insn	2, 0x0002
     58e:	1b00                	.insn	2, 0x1b00
     590:	00d1                	.insn	2, 0x00d1
     592:	0000                	.insn	2, 0x
     594:	9102                	.insn	2, 0x9102
     596:	0068                	.insn	2, 0x0068
     598:	040a                	.insn	2, 0x040a
     59a:	0078                	.insn	2, 0x0078
     59c:	0000                	.insn	2, 0x
     59e:	6705                	.insn	2, 0x6705
     5a0:	0002                	.insn	2, 0x0002
     5a2:	0c00                	.insn	2, 0x0c00
     5a4:	03de                	.insn	2, 0x03de
     5a6:	0000                	.insn	2, 0x
     5a8:	0034                	.insn	2, 0x0034
     5aa:	0000                	.insn	2, 0x
     5ac:	9c01                	.insn	2, 0x9c01
     5ae:	00f9                	.insn	2, 0x00f9
     5b0:	0000                	.insn	2, 0x
     5b2:	a602                	.insn	2, 0xa602
     5b4:	0002                	.insn	2, 0x0002
     5b6:	0e00                	.insn	2, 0x0e00
     5b8:	00d1                	.insn	2, 0x00d1
     5ba:	0000                	.insn	2, 0x
     5bc:	9102                	.insn	2, 0x9102
     5be:	006c                	.insn	2, 0x006c
     5c0:	00027a0b          	.insn	4, 0x00027a0b
     5c4:	0100                	.insn	2, 0x0100
     5c6:	03ba0603          	lb	a2,59(s4)
     5ca:	0000                	.insn	2, 0x
     5cc:	0024                	.insn	2, 0x0024
     5ce:	0000                	.insn	2, 0x
     5d0:	9c01                	.insn	2, 0x9c01
     5d2:	a602                	.insn	2, 0xa602
     5d4:	0002                	.insn	2, 0x0002
     5d6:	0500                	.insn	2, 0x0500
     5d8:	00d1                	.insn	2, 0x00d1
     5da:	0000                	.insn	2, 0x
     5dc:	9102                	.insn	2, 0x9102
     5de:	006c                	.insn	2, 0x006c
     5e0:	5300                	.insn	2, 0x5300
     5e2:	0001                	.insn	2, 0x0001
     5e4:	0500                	.insn	2, 0x0500
     5e6:	0100                	.insn	2, 0x0100
     5e8:	c604                	.insn	2, 0xc604
     5ea:	07000003          	lb	zero,112(zero) # 70 <_vector_table_start+0x70>
     5ee:	0000                	.insn	2, 0x
     5f0:	0000                	.insn	2, 0x
     5f2:	eb1d                	.insn	2, 0xeb1d
     5f4:	0001                	.insn	2, 0x0001
     5f6:	1100                	.insn	2, 0x1100
     5f8:	0000                	.insn	2, 0x
     5fa:	5000                	.insn	2, 0x5000
     5fc:	0004                	.insn	2, 0x0004
     5fe:	f400                	.insn	2, 0xf400
     600:	0000                	.insn	2, 0x
     602:	d600                	.insn	2, 0xd600
     604:	0004                	.insn	2, 0x0004
     606:	0100                	.insn	2, 0x0100
     608:	0601                	.insn	2, 0x0601
     60a:	00bd                	.insn	2, 0x00bd
     60c:	0000                	.insn	2, 0x
     60e:	0101                	.insn	2, 0x0101
     610:	bb08                	.insn	2, 0xbb08
     612:	0000                	.insn	2, 0x
     614:	0100                	.insn	2, 0x0100
     616:	0502                	.insn	2, 0x0502
     618:	017a                	.insn	2, 0x017a
     61a:	0000                	.insn	2, 0x
     61c:	0201                	.insn	2, 0x0201
     61e:	0000c907          	.insn	4, 0xc907
     622:	0100                	.insn	2, 0x0100
     624:	0504                	.insn	2, 0x0504
     626:	015d                	.insn	2, 0x015d
     628:	0000                	.insn	2, 0x
     62a:	0000f303          	.insn	4, 0xf303
     62e:	0200                	.insn	2, 0x0200
     630:	0055194f          	.insn	4, 0x0055194f
     634:	0000                	.insn	2, 0x
     636:	0401                	.insn	2, 0x0401
     638:	00013a07          	.insn	4, 0x00013a07
     63c:	0100                	.insn	2, 0x0100
     63e:	0508                	.insn	2, 0x0508
     640:	0158                	.insn	2, 0x0158
     642:	0000                	.insn	2, 0x
     644:	0801                	.insn	2, 0x0801
     646:	00013507          	.insn	4, 0x00013507
     64a:	0800                	.insn	2, 0x0800
     64c:	0504                	.insn	2, 0x0504
     64e:	6e69                	.insn	2, 0x6e69
     650:	0074                	.insn	2, 0x0074
     652:	0401                	.insn	2, 0x0401
     654:	00013f07          	.insn	4, 0x00013f07
     658:	0300                	.insn	2, 0x0300
     65a:	00f5                	.insn	2, 0x00f5
     65c:	0000                	.insn	2, 0x
     65e:	49143003          	.insn	4, 0x49143003
     662:	0000                	.insn	2, 0x
     664:	0400                	.insn	2, 0x0400
     666:	0078                	.insn	2, 0x0078
     668:	0000                	.insn	2, 0x
     66a:	8409                	.insn	2, 0x8409
     66c:	0000                	.insn	2, 0x
     66e:	0a00                	.insn	2, 0x0a00
     670:	02bc                	.insn	2, 0x02bc
     672:	0000                	.insn	2, 0x
     674:	0705                	.insn	2, 0x0705
     676:	8920                	.insn	2, 0x8920
     678:	0000                	.insn	2, 0x
     67a:	0100                	.insn	2, 0x0100
     67c:	0410                	.insn	2, 0x0410
     67e:	01f0                	.insn	2, 0x01f0
     680:	0000                	.insn	2, 0x
     682:	0004450b          	.insn	4, 0x0004450b
     686:	0400                	.insn	2, 0x0400
     688:	0540                	.insn	2, 0x0540
     68a:	006a                	.insn	2, 0x006a
     68c:	0000                	.insn	2, 0x
     68e:	00b8                	.insn	2, 0x00b8
     690:	0000                	.insn	2, 0x
     692:	b80c                	.insn	2, 0xb80c
     694:	0000                	.insn	2, 0x
     696:	0d00                	.insn	2, 0x0d00
     698:	0500                	.insn	2, 0x0500
     69a:	00c4                	.insn	2, 0x00c4
     69c:	0000                	.insn	2, 0x
     69e:	0101                	.insn	2, 0x0101
     6a0:	c408                	.insn	2, 0xc408
     6a2:	0000                	.insn	2, 0x
     6a4:	0400                	.insn	2, 0x0400
     6a6:	00bd                	.insn	2, 0x00bd
     6a8:	0000                	.insn	2, 0x
     6aa:	6e0e                	.insn	2, 0x6e0e
     6ac:	0001                	.insn	2, 0x0001
     6ae:	0100                	.insn	2, 0x0100
     6b0:	0626                	.insn	2, 0x0626
     6b2:	0508                	.insn	2, 0x0508
     6b4:	0000                	.insn	2, 0x
     6b6:	003c                	.insn	2, 0x003c
     6b8:	0000                	.insn	2, 0x
     6ba:	9c01                	.insn	2, 0x9c01
     6bc:	00ed                	.insn	2, 0x00ed
     6be:	0000                	.insn	2, 0x
     6c0:	b302                	.insn	2, 0xb302
     6c2:	0002                	.insn	2, 0x0002
     6c4:	2800                	.insn	2, 0x2800
     6c6:	00ed                	.insn	2, 0x00ed
     6c8:	0000                	.insn	2, 0x
     6ca:	9102                	.insn	2, 0x9102
     6cc:	006c                	.insn	2, 0x006c
     6ce:	7805                	.insn	2, 0x7805
     6d0:	0000                	.insn	2, 0x
     6d2:	0600                	.insn	2, 0x0600
     6d4:	01e5                	.insn	2, 0x01e5
     6d6:	0000                	.insn	2, 0x
     6d8:	de1e                	.insn	2, 0xde1e
     6da:	0004                	.insn	2, 0x0004
     6dc:	2a00                	.insn	2, 0x2a00
     6de:	0000                	.insn	2, 0x
     6e0:	0100                	.insn	2, 0x0100
     6e2:	149c                	.insn	2, 0x149c
     6e4:	0001                	.insn	2, 0x0001
     6e6:	0200                	.insn	2, 0x0200
     6e8:	000002b3          	add	t0,zero,zero
     6ec:	ed20                	.insn	2, 0xed20
     6ee:	0000                	.insn	2, 0x
     6f0:	0200                	.insn	2, 0x0200
     6f2:	6c91                	.insn	2, 0x6c91
     6f4:	0600                	.insn	2, 0x0600
     6f6:	01c5                	.insn	2, 0x01c5
     6f8:	0000                	.insn	2, 0x
     6fa:	b416                	.insn	2, 0xb416
     6fc:	0004                	.insn	2, 0x0004
     6fe:	2a00                	.insn	2, 0x2a00
     700:	0000                	.insn	2, 0x
     702:	0100                	.insn	2, 0x0100
     704:	369c                	.insn	2, 0x369c
     706:	0001                	.insn	2, 0x0001
     708:	0200                	.insn	2, 0x0200
     70a:	000002b3          	add	t0,zero,zero
     70e:	ed18                	.insn	2, 0xed18
     710:	0000                	.insn	2, 0x
     712:	0200                	.insn	2, 0x0200
     714:	6c91                	.insn	2, 0x6c91
     716:	0f00                	.insn	2, 0x0f00
     718:	000001b7          	lui	gp,0x0
     71c:	0401                	.insn	2, 0x0401
     71e:	5006                	.insn	2, 0x5006
     720:	0004                	.insn	2, 0x0004
     722:	6400                	.insn	2, 0x6400
     724:	0000                	.insn	2, 0x
     726:	0100                	.insn	2, 0x0100
     728:	029c                	.insn	2, 0x029c
     72a:	000002b3          	add	t0,zero,zero
     72e:	ed06                	.insn	2, 0xed06
     730:	0000                	.insn	2, 0x
     732:	0200                	.insn	2, 0x0200
     734:	6c91                	.insn	2, 0x6c91
     736:	0000                	.insn	2, 0x
     738:	001f 0000 0005      	.insn	6, 0x00050000001f
     73e:	0401                	.insn	2, 0x0401
     740:	000004ab          	.insn	4, 0x04ab
     744:	1801                	.insn	2, 0x1801
     746:	0006                	.insn	2, 0x0006
     748:	0c00                	.insn	2, 0x0c00
     74a:	0000                	.insn	2, 0x
     74c:	d300                	.insn	2, 0xd300
     74e:	0002                	.insn	2, 0x0002
     750:	2c00                	.insn	2, 0x2c00
     752:	88000003          	lb	zero,-1920(zero) # fffff880 <_peripheral_PLIC_end+0xf7fff880>
     756:	01000003          	lb	zero,16(zero) # 10 <_vector_table_start+0x10>
     75a:	db80                	.insn	2, 0xdb80
     75c:	000e                	.insn	2, 0x000e
     75e:	0500                	.insn	2, 0x0500
     760:	0100                	.insn	2, 0x0100
     762:	bd04                	.insn	2, 0xbd04
     764:	0004                	.insn	2, 0x0004
     766:	2800                	.insn	2, 0x2800
     768:	047e                	.insn	2, 0x047e
     76a:	0000                	.insn	2, 0x
     76c:	871d                	.insn	2, 0x871d
     76e:	0002                	.insn	2, 0x0002
     770:	5300                	.insn	2, 0x5300
     772:	0002                	.insn	2, 0x0002
     774:	4400                	.insn	2, 0x4400
     776:	0005                	.insn	2, 0x0005
     778:	0000                	.insn	2, 0x
     77a:	b500000f          	.insn	4, 0xb500000f
     77e:	07000007          	.insn	4, 0x07000007
     782:	0536                	.insn	2, 0x0536
     784:	0000                	.insn	2, 0x
     786:	2802                	.insn	2, 0x2802
     788:	0000321b          	.insn	4, 0x321b
     78c:	2900                	.insn	2, 0x2900
     78e:	df04                	.insn	2, 0xdf04
     790:	0004                	.insn	2, 0x0004
     792:	0700                	.insn	2, 0x0700
     794:	053d                	.insn	2, 0x053d
     796:	0000                	.insn	2, 0x
     798:	6302                	.insn	2, 0x6302
     79a:	2618                	.insn	2, 0x2618
     79c:	0000                	.insn	2, 0x
     79e:	2a00                	.insn	2, 0x2a00
     7a0:	0504                	.insn	2, 0x0504
     7a2:	6e69                	.insn	2, 0x6e69
     7a4:	0074                	.insn	2, 0x0074
     7a6:	4410                	.insn	2, 0x4410
     7a8:	0000                	.insn	2, 0x
     7aa:	0700                	.insn	2, 0x0700
     7ac:	03ad                	.insn	2, 0x03ad
     7ae:	0000                	.insn	2, 0x
     7b0:	6117d603          	lhu	a2,1553(a5)
     7b4:	0000                	.insn	2, 0x
     7b6:	1000                	.insn	2, 0x1000
     7b8:	0050                	.insn	2, 0x0050
     7ba:	0000                	.insn	2, 0x
     7bc:	0405                	.insn	2, 0x0405
     7be:	00013f07          	.insn	4, 0x00013f07
     7c2:	1000                	.insn	2, 0x1000
     7c4:	0061                	.insn	2, 0x0061
     7c6:	0000                	.insn	2, 0x
     7c8:	0805                	.insn	2, 0x0805
     7ca:	5805                	.insn	2, 0x5805
     7cc:	0001                	.insn	2, 0x0001
     7ce:	0500                	.insn	2, 0x0500
     7d0:	0410                	.insn	2, 0x0410
     7d2:	01f0                	.insn	2, 0x01f0
     7d4:	0000                	.insn	2, 0x
     7d6:	0105                	.insn	2, 0x0105
     7d8:	bd06                	.insn	2, 0xbd06
     7da:	0000                	.insn	2, 0x
     7dc:	0700                	.insn	2, 0x0700
     7de:	041a                	.insn	2, 0x041a
     7e0:	0000                	.insn	2, 0x
     7e2:	2b04                	.insn	2, 0x2b04
     7e4:	8e18                	.insn	2, 0x8e18
     7e6:	0000                	.insn	2, 0x
     7e8:	0500                	.insn	2, 0x0500
     7ea:	0801                	.insn	2, 0x0801
     7ec:	000000bb          	.insn	4, 0x00bb
     7f0:	0205                	.insn	2, 0x0205
     7f2:	7a05                	.insn	2, 0x7a05
     7f4:	0001                	.insn	2, 0x0001
     7f6:	0500                	.insn	2, 0x0500
     7f8:	0702                	.insn	2, 0x0702
     7fa:	00c9                	.insn	2, 0x00c9
     7fc:	0000                	.insn	2, 0x
     7fe:	0405                	.insn	2, 0x0405
     800:	5d05                	.insn	2, 0x5d05
     802:	0001                	.insn	2, 0x0001
     804:	1000                	.insn	2, 0x1000
     806:	000000a3          	sb	zero,1(zero) # 1 <_vector_table_start+0x1>
     80a:	0000f307          	.insn	4, 0xf307
     80e:	0400                	.insn	2, 0x0400
     810:	00bb194f          	.insn	4, 0x00bb194f
     814:	0000                	.insn	2, 0x
     816:	0405                	.insn	2, 0x0405
     818:	00013a07          	.insn	4, 0x00013a07
     81c:	0500                	.insn	2, 0x0500
     81e:	0708                	.insn	2, 0x0708
     820:	0135                	.insn	2, 0x0135
     822:	0000                	.insn	2, 0x
     824:	0004f107          	.insn	4, 0x0004f107
     828:	0400                	.insn	2, 0x0400
     82a:	1ae8                	.insn	2, 0x1ae8
     82c:	0061                	.insn	2, 0x0061
     82e:	0000                	.insn	2, 0x
     830:	00041c07          	.insn	4, 0x00041c07
     834:	0500                	.insn	2, 0x0500
     836:	1318                	.insn	2, 0x1318
     838:	0082                	.insn	2, 0x0082
     83a:	0000                	.insn	2, 0x
     83c:	0000f507          	.insn	4, 0xf507
     840:	0500                	.insn	2, 0x0500
     842:	1430                	.insn	2, 0x1430
     844:	000000af          	.insn	4, 0x00af
     848:	0004f307          	.insn	4, 0x0004f307
     84c:	0500                	.insn	2, 0x0500
     84e:	1552                	.insn	2, 0x1552
     850:	00c9                	.insn	2, 0x00c9
     852:	0000                	.insn	2, 0x
     854:	00042407          	.insn	4, 0x00042407
     858:	0100                	.insn	2, 0x0100
     85a:	1076                	.insn	2, 0x1076
     85c:	0105                	.insn	2, 0x0105
     85e:	0000                	.insn	2, 0x
     860:	00010a13          	mv	s4,sp
     864:	2000                	.insn	2, 0x2000
     866:	0124                	.insn	2, 0x0124
     868:	0000                	.insn	2, 0x
     86a:	240d                	.insn	2, 0x240d
     86c:	0001                	.insn	2, 0x0001
     86e:	0d00                	.insn	2, 0x0d00
     870:	0130                	.insn	2, 0x0130
     872:	0000                	.insn	2, 0x
     874:	500d                	.insn	2, 0x500d
     876:	0000                	.insn	2, 0x
     878:	0d00                	.insn	2, 0x0d00
     87a:	0050                	.insn	2, 0x0050
     87c:	0000                	.insn	2, 0x
     87e:	0500                	.insn	2, 0x0500
     880:	0801                	.insn	2, 0x0801
     882:	00c4                	.insn	2, 0x00c4
     884:	0000                	.insn	2, 0x
     886:	2410                	.insn	2, 0x2410
     888:	0001                	.insn	2, 0x0001
     88a:	2b00                	.insn	2, 0x2b00
     88c:	2c04                	.insn	2, 0x2c04
     88e:	0108                	.insn	2, 0x0108
     890:	097a                	.insn	2, 0x097a
     892:	0154                	.insn	2, 0x0154
     894:	0000                	.insn	2, 0x
     896:	6621                	.insn	2, 0x6621
     898:	7b007463          	bgeu	zero,a6,1040 <_vsnprintf+0x5a0>
     89c:	0001640b          	.insn	4, 0x0001640b
     8a0:	0000                	.insn	2, 0x
     8a2:	6121                	.insn	2, 0x6121
     8a4:	6772                	.insn	2, 0x6772
     8a6:	7c00                	.insn	2, 0x7c00
     8a8:	3009                	.insn	2, 0x3009
     8aa:	0001                	.insn	2, 0x0001
     8ac:	0400                	.insn	2, 0x0400
     8ae:	2000                	.insn	2, 0x2000
     8b0:	0164                	.insn	2, 0x0164
     8b2:	0000                	.insn	2, 0x
     8b4:	240d                	.insn	2, 0x240d
     8b6:	0001                	.insn	2, 0x0001
     8b8:	0d00                	.insn	2, 0x0d00
     8ba:	0130                	.insn	2, 0x0130
     8bc:	0000                	.insn	2, 0x
     8be:	1300                	.insn	2, 0x1300
     8c0:	0154                	.insn	2, 0x0154
     8c2:	0000                	.insn	2, 0x
     8c4:	00051f07          	.insn	4, 0x00051f07
     8c8:	0100                	.insn	2, 0x0100
     8ca:	037d                	.insn	2, 0x037d
     8cc:	0132                	.insn	2, 0x0132
     8ce:	0000                	.insn	2, 0x
     8d0:	6910                	.insn	2, 0x6910
     8d2:	0001                	.insn	2, 0x0001
     8d4:	2d00                	.insn	2, 0x2d00
     8d6:	0545                	.insn	2, 0x0545
     8d8:	0000                	.insn	2, 0x
     8da:	2406                	.insn	2, 0x2406
     8dc:	8c06                	.insn	2, 0x8c06
     8de:	0001                	.insn	2, 0x0001
     8e0:	0d00                	.insn	2, 0x0d00
     8e2:	00d5                	.insn	2, 0x00d5
     8e4:	0000                	.insn	2, 0x
     8e6:	1100                	.insn	2, 0x1100
     8e8:	000003ef          	jal	t2,8e8 <_ntoa_long+0x390>
     8ec:	0392                	.insn	2, 0x0392
     8ee:	0044                	.insn	2, 0x0044
     8f0:	0000                	.insn	2, 0x
     8f2:	13e8                	.insn	2, 0x13e8
     8f4:	0000                	.insn	2, 0x
     8f6:	005c                	.insn	2, 0x005c
     8f8:	0000                	.insn	2, 0x
     8fa:	9c01                	.insn	2, 0x9c01
     8fc:	022e                	.insn	2, 0x022e
     8fe:	0000                	.insn	2, 0x
     900:	74756f0b          	.insn	4, 0x74756f0b
     904:	9200                	.insn	2, 0x9200
     906:	01641603          	lh	a2,22(s0)
     90a:	0000                	.insn	2, 0x
     90c:	000c                	.insn	2, 0x000c
     90e:	0000                	.insn	2, 0x
     910:	6772610b          	.insn	4, 0x6772610b
     914:	9200                	.insn	2, 0x9200
     916:	01303d03          	.insn	4, 0x01303d03
     91a:	0000                	.insn	2, 0x
     91c:	0031                	.insn	2, 0x0031
     91e:	0000                	.insn	2, 0x
     920:	00040803          	lb	a6,0(s0)
     924:	9200                	.insn	2, 0x9200
     926:	022e4e03          	lbu	t3,34(t3)
     92a:	0000                	.insn	2, 0x
     92c:	0056                	.insn	2, 0x0056
     92e:	0000                	.insn	2, 0x
     930:	0818                	.insn	2, 0x0818
     932:	6176                	.insn	2, 0x6176
     934:	9400                	.insn	2, 0x9400
     936:	00380b03          	lb	s6,3(a6)
     93a:	0000                	.insn	2, 0x
     93c:	9102                	.insn	2, 0x9102
     93e:	1944                	.insn	2, 0x1944
     940:	0394                	.insn	2, 0x0394
     942:	0000                	.insn	2, 0x
     944:	0396                	.insn	2, 0x0396
     946:	0001751b          	.insn	4, 0x0001751b
     94a:	0200                	.insn	2, 0x0200
     94c:	4891                	.insn	2, 0x4891
     94e:	7208                	.insn	2, 0x7208
     950:	7465                	.insn	2, 0x7465
     952:	9700                	.insn	2, 0x9700
     954:	004b0d03          	lb	s10,4(s6)
     958:	0000                	.insn	2, 0x
     95a:	5a01                	.insn	2, 0x5a01
     95c:	380e                	.insn	2, 0x380e
     95e:	0014                	.insn	2, 0x0014
     960:	e000                	.insn	2, 0xe000
     962:	0004                	.insn	2, 0x0004
     964:	0100                	.insn	2, 0x0100
     966:	5a01                	.insn	2, 0x5a01
     968:	0305                	.insn	2, 0x0305
     96a:	0a8c                	.insn	2, 0x0a8c
     96c:	0000                	.insn	2, 0x
     96e:	0101                	.insn	2, 0x0101
     970:	4891025b          	.insn	4, 0x4891025b
     974:	0101                	.insn	2, 0x0101
     976:	025c                	.insn	2, 0x025c
     978:	ff09                	.insn	2, 0xff09
     97a:	0101                	.insn	2, 0x0101
     97c:	035d                	.insn	2, 0x035d
     97e:	015c01a3          	sb	s5,3(s8)
     982:	5e01                	.insn	2, 0x5e01
     984:	9102                	.insn	2, 0x9102
     986:	006c                	.insn	2, 0x006c
     988:	1300                	.insn	2, 0x1300
     98a:	0000012b          	.insn	4, 0x012b
     98e:	4211                	.insn	2, 0x4211
     990:	0004                	.insn	2, 0x0004
     992:	8c00                	.insn	2, 0x8c00
     994:	00004403          	lbu	s0,0(zero) # 0 <_vector_table_start>
     998:	d000                	.insn	2, 0xd000
     99a:	18000013          	li	zero,384
     99e:	0000                	.insn	2, 0x
     9a0:	0100                	.insn	2, 0x0100
     9a2:	bb9c                	.insn	2, 0xbb9c
     9a4:	0002                	.insn	2, 0x0002
     9a6:	0300                	.insn	2, 0x0300
     9a8:	03a6                	.insn	2, 0x03a6
     9aa:	0000                	.insn	2, 0x
     9ac:	038c                	.insn	2, 0x038c
     9ae:	bb16                	.insn	2, 0xbb16
     9b0:	0002                	.insn	2, 0x0002
     9b2:	7b00                	.insn	2, 0x7b00
     9b4:	0000                	.insn	2, 0x
     9b6:	0300                	.insn	2, 0x0300
     9b8:	0510                	.insn	2, 0x0510
     9ba:	0000                	.insn	2, 0x
     9bc:	038c                	.insn	2, 0x038c
     9be:	5025                	.insn	2, 0x5025
     9c0:	0000                	.insn	2, 0x
     9c2:	a000                	.insn	2, 0xa000
     9c4:	0000                	.insn	2, 0x
     9c6:	0300                	.insn	2, 0x0300
     9c8:	0408                	.insn	2, 0x0408
     9ca:	0000                	.insn	2, 0x
     9cc:	038c                	.insn	2, 0x038c
     9ce:	2e38                	.insn	2, 0x2e38
     9d0:	0002                	.insn	2, 0x0002
     9d2:	c500                	.insn	2, 0xc500
     9d4:	0000                	.insn	2, 0x
     9d6:	0b00                	.insn	2, 0x0b00
     9d8:	6176                	.insn	2, 0x6176
     9da:	8c00                	.insn	2, 0x8c00
     9dc:	00384803          	lbu	a6,3(a6)
     9e0:	0000                	.insn	2, 0x
     9e2:	00ea                	.insn	2, 0x00ea
     9e4:	0000                	.insn	2, 0x
     9e6:	e82e                	.insn	2, 0xe82e
     9e8:	e0000013          	li	zero,-512
     9ec:	0004                	.insn	2, 0x0004
     9ee:	0100                	.insn	2, 0x0100
     9f0:	5a01                	.insn	2, 0x5a01
     9f2:	0305                	.insn	2, 0x0305
     9f4:	0544                	.insn	2, 0x0544
     9f6:	0000                	.insn	2, 0x
     9f8:	0101                	.insn	2, 0x0101
     9fa:	01a3035b          	.insn	4, 0x01a3035b
     9fe:	015a                	.insn	2, 0x015a
     a00:	5c01                	.insn	2, 0x5c01
     a02:	5b01a303          	lw	t1,1456(gp) # 5b0 <_ntoa_long+0x58>
     a06:	0101                	.insn	2, 0x0101
     a08:	035d                	.insn	2, 0x035d
     a0a:	015c01a3          	sb	s5,3(s8)
     a0e:	5e01                	.insn	2, 0x5e01
     a10:	5d01a303          	lw	t1,1488(gp)
     a14:	0000                	.insn	2, 0x
     a16:	00012413          	slti	s0,sp,0
     a1a:	1100                	.insn	2, 0x1100
     a1c:	00000563          	beqz	zero,a26 <_ntoa_long+0x4ce>
     a20:	0385                	.insn	2, 0x0385
     a22:	0044                	.insn	2, 0x0044
     a24:	0000                	.insn	2, 0x
     a26:	13a0                	.insn	2, 0x13a0
     a28:	0000                	.insn	2, 0x
     a2a:	0030                	.insn	2, 0x0030
     a2c:	0000                	.insn	2, 0x
     a2e:	9c01                	.insn	2, 0x9c01
     a30:	0335                	.insn	2, 0x0335
     a32:	0000                	.insn	2, 0x
     a34:	00040803          	lb	a6,0(s0)
     a38:	8500                	.insn	2, 0x8500
     a3a:	022e1a03          	lh	s4,34(t3)
     a3e:	0000                	.insn	2, 0x
     a40:	0000010f          	.insn	4, 0x010f
     a44:	0061760b          	.insn	4, 0x0061760b
     a48:	0385                	.insn	2, 0x0385
     a4a:	382a                	.insn	2, 0x382a
     a4c:	0000                	.insn	2, 0x
     a4e:	3400                	.insn	2, 0x3400
     a50:	0001                	.insn	2, 0x0001
     a52:	1900                	.insn	2, 0x1900
     a54:	03a6                	.insn	2, 0x03a6
     a56:	0000                	.insn	2, 0x
     a58:	35080387          	.insn	4, 0x35080387
     a5c:	02000003          	lb	zero,32(zero) # 20 <_vector_table_start+0x20>
     a60:	6c91                	.insn	2, 0x6c91
     a62:	c40e                	.insn	2, 0xc40e
     a64:	e0000013          	li	zero,-512
     a68:	0004                	.insn	2, 0x0004
     a6a:	0100                	.insn	2, 0x0100
     a6c:	5a01                	.insn	2, 0x5a01
     a6e:	0305                	.insn	2, 0x0305
     a70:	0a80                	.insn	2, 0x0a80
     a72:	0000                	.insn	2, 0x
     a74:	0101                	.insn	2, 0x0101
     a76:	6c91025b          	.insn	4, 0x6c91025b
     a7a:	0101                	.insn	2, 0x0101
     a7c:	025c                	.insn	2, 0x025c
     a7e:	ff09                	.insn	2, 0xff09
     a80:	0101                	.insn	2, 0x0101
     a82:	035d                	.insn	2, 0x035d
     a84:	015a01a3          	sb	s5,3(s4)
     a88:	5e01                	.insn	2, 0x5e01
     a8a:	5b01a303          	lw	t1,1456(gp)
     a8e:	0000                	.insn	2, 0x
     a90:	2422                	.insn	2, 0x2422
     a92:	0001                	.insn	2, 0x0001
     a94:	4500                	.insn	2, 0x4500
     a96:	23000003          	lb	zero,560(zero) # 230 <_timer_handler+0x8>
     a9a:	0061                	.insn	2, 0x0061
     a9c:	0000                	.insn	2, 0x
     a9e:	0000                	.insn	2, 0x
     aa0:	4311                	.insn	2, 0x4311
     aa2:	0004                	.insn	2, 0x0004
     aa4:	7b00                	.insn	2, 0x7b00
     aa6:	00004403          	lbu	s0,0(zero) # 0 <_vector_table_start>
     aaa:	5800                	.insn	2, 0x5800
     aac:	48000013          	li	zero,1152
     ab0:	0000                	.insn	2, 0x
     ab2:	0100                	.insn	2, 0x0100
     ab4:	da9c                	.insn	2, 0xda9c
     ab6:	03000003          	lb	zero,48(zero) # 30 <_vector_table_start+0x30>
     aba:	03a6                	.insn	2, 0x03a6
     abc:	0000                	.insn	2, 0x
     abe:	bb15037b          	.insn	4, 0xbb15037b
     ac2:	0002                	.insn	2, 0x0002
     ac4:	5900                	.insn	2, 0x5900
     ac6:	0001                	.insn	2, 0x0001
     ac8:	0300                	.insn	2, 0x0300
     aca:	0510                	.insn	2, 0x0510
     acc:	0000                	.insn	2, 0x
     ace:	5024037b          	.insn	4, 0x5024037b
     ad2:	0000                	.insn	2, 0x
     ad4:	7e00                	.insn	2, 0x7e00
     ad6:	0001                	.insn	2, 0x0001
     ad8:	0300                	.insn	2, 0x0300
     ada:	0408                	.insn	2, 0x0408
     adc:	0000                	.insn	2, 0x
     ade:	2e37037b          	.insn	4, 0x2e37037b
     ae2:	0002                	.insn	2, 0x0002
     ae4:	a300                	.insn	2, 0xa300
     ae6:	0001                	.insn	2, 0x0001
     ae8:	1800                	.insn	2, 0x1800
     aea:	7608                	.insn	2, 0x7608
     aec:	0061                	.insn	2, 0x0061
     aee:	037d                	.insn	2, 0x037d
     af0:	0000380b          	.insn	4, 0x380b
     af4:	0200                	.insn	2, 0x0200
     af6:	4c91                	.insn	2, 0x4c91
     af8:	7208                	.insn	2, 0x7208
     afa:	7465                	.insn	2, 0x7465
     afc:	7f00                	.insn	2, 0x7f00
     afe:	004b0d03          	lb	s10,4(s6)
     b02:	0000                	.insn	2, 0x
     b04:	5a01                	.insn	2, 0x5a01
     b06:	940e                	.insn	2, 0x940e
     b08:	e0000013          	li	zero,-512
     b0c:	0004                	.insn	2, 0x0004
     b0e:	0100                	.insn	2, 0x0100
     b10:	5a01                	.insn	2, 0x5a01
     b12:	0305                	.insn	2, 0x0305
     b14:	0544                	.insn	2, 0x0544
     b16:	0000                	.insn	2, 0x
     b18:	0101                	.insn	2, 0x0101
     b1a:	01a3035b          	.insn	4, 0x01a3035b
     b1e:	015a                	.insn	2, 0x015a
     b20:	5c01                	.insn	2, 0x5c01
     b22:	5b01a303          	lw	t1,1456(gp)
     b26:	0101                	.insn	2, 0x0101
     b28:	035d                	.insn	2, 0x035d
     b2a:	015c01a3          	sb	s5,3(s8)
     b2e:	5e01                	.insn	2, 0x5e01
     b30:	9102                	.insn	2, 0x9102
     b32:	006c                	.insn	2, 0x006c
     b34:	1100                	.insn	2, 0x1100
     b36:	0000046b          	.insn	4, 0x046b
     b3a:	0371                	.insn	2, 0x0371
     b3c:	0044                	.insn	2, 0x0044
     b3e:	0000                	.insn	2, 0x
     b40:	130c                	.insn	2, 0x130c
     b42:	0000                	.insn	2, 0x
     b44:	004c                	.insn	2, 0x004c
     b46:	0000                	.insn	2, 0x
     b48:	9c01                	.insn	2, 0x9c01
     b4a:	045e                	.insn	2, 0x045e
     b4c:	0000                	.insn	2, 0x
     b4e:	0003a603          	lw	a2,0(t2)
     b52:	7100                	.insn	2, 0x7100
     b54:	02bb1403          	lh	s0,43(s6)
     b58:	0000                	.insn	2, 0x
     b5a:	01c8                	.insn	2, 0x01c8
     b5c:	0000                	.insn	2, 0x
     b5e:	00040803          	lb	a6,0(s0)
     b62:	7100                	.insn	2, 0x7100
     b64:	022e2803          	lw	a6,34(t3)
     b68:	0000                	.insn	2, 0x
     b6a:	01ed                	.insn	2, 0x01ed
     b6c:	0000                	.insn	2, 0x
     b6e:	0818                	.insn	2, 0x0818
     b70:	6176                	.insn	2, 0x6176
     b72:	7300                	.insn	2, 0x7300
     b74:	00380b03          	lb	s6,3(a6)
     b78:	0000                	.insn	2, 0x
     b7a:	9102                	.insn	2, 0x9102
     b7c:	084c                	.insn	2, 0x084c
     b7e:	6572                	.insn	2, 0x6572
     b80:	0074                	.insn	2, 0x0074
     b82:	0375                	.insn	2, 0x0375
     b84:	4b0d                	.insn	2, 0x4b0d
     b86:	0000                	.insn	2, 0x
     b88:	0100                	.insn	2, 0x0100
     b8a:	0e5a                	.insn	2, 0x0e5a
     b8c:	134c                	.insn	2, 0x134c
     b8e:	0000                	.insn	2, 0x
     b90:	04e0                	.insn	2, 0x04e0
     b92:	0000                	.insn	2, 0x
     b94:	0101                	.insn	2, 0x0101
     b96:	055a                	.insn	2, 0x055a
     b98:	00054403          	lbu	s0,0(a0)
     b9c:	0100                	.insn	2, 0x0100
     b9e:	5b01                	.insn	2, 0x5b01
     ba0:	5a01a303          	lw	t1,1440(gp)
     ba4:	0101                	.insn	2, 0x0101
     ba6:	025c                	.insn	2, 0x025c
     ba8:	ff09                	.insn	2, 0xff09
     baa:	0101                	.insn	2, 0x0101
     bac:	035d                	.insn	2, 0x035d
     bae:	015b01a3          	sb	s5,3(s6)
     bb2:	5e01                	.insn	2, 0x5e01
     bb4:	9102                	.insn	2, 0x9102
     bb6:	0068                	.insn	2, 0x0068
     bb8:	1100                	.insn	2, 0x1100
     bba:	0445                	.insn	2, 0x0445
     bbc:	0000                	.insn	2, 0x
     bbe:	0366                	.insn	2, 0x0366
     bc0:	0044                	.insn	2, 0x0044
     bc2:	0000                	.insn	2, 0x
     bc4:	12b8                	.insn	2, 0x12b8
     bc6:	0000                	.insn	2, 0x
     bc8:	0054                	.insn	2, 0x0054
     bca:	0000                	.insn	2, 0x
     bcc:	9c01                	.insn	2, 0x9c01
     bce:	04e0                	.insn	2, 0x04e0
     bd0:	0000                	.insn	2, 0x
     bd2:	00040803          	lb	a6,0(s0)
     bd6:	6600                	.insn	2, 0x6600
     bd8:	022e1903          	lh	s2,34(t3)
     bdc:	0000                	.insn	2, 0x
     bde:	0212                	.insn	2, 0x0212
     be0:	0000                	.insn	2, 0x
     be2:	0818                	.insn	2, 0x0818
     be4:	6176                	.insn	2, 0x6176
     be6:	6800                	.insn	2, 0x6800
     be8:	00380b03          	lb	s6,3(a6)
     bec:	0000                	.insn	2, 0x
     bee:	9102                	.insn	2, 0x9102
     bf0:	194c                	.insn	2, 0x194c
     bf2:	03a6                	.insn	2, 0x03a6
     bf4:	0000                	.insn	2, 0x
     bf6:	036a                	.insn	2, 0x036a
     bf8:	3508                	.insn	2, 0x3508
     bfa:	02000003          	lb	zero,32(zero) # 20 <_vector_table_start+0x20>
     bfe:	4891                	.insn	2, 0x4891
     c00:	7208                	.insn	2, 0x7208
     c02:	7465                	.insn	2, 0x7465
     c04:	6b00                	.insn	2, 0x6b00
     c06:	004b0d03          	lb	s10,4(s6)
     c0a:	0000                	.insn	2, 0x
     c0c:	5a01                	.insn	2, 0x5a01
     c0e:	000e                	.insn	2, 0x000e
     c10:	e0000013          	li	zero,-512
     c14:	0004                	.insn	2, 0x0004
     c16:	0100                	.insn	2, 0x0100
     c18:	5a01                	.insn	2, 0x5a01
     c1a:	0305                	.insn	2, 0x0305
     c1c:	0a80                	.insn	2, 0x0a80
     c1e:	0000                	.insn	2, 0x
     c20:	0101                	.insn	2, 0x0101
     c22:	4891025b          	.insn	4, 0x4891025b
     c26:	0101                	.insn	2, 0x0101
     c28:	025c                	.insn	2, 0x025c
     c2a:	ff09                	.insn	2, 0xff09
     c2c:	0101                	.insn	2, 0x0101
     c2e:	035d                	.insn	2, 0x035d
     c30:	015a01a3          	sb	s5,3(s4)
     c34:	5e01                	.insn	2, 0x5e01
     c36:	9102                	.insn	2, 0x9102
     c38:	0064                	.insn	2, 0x0064
     c3a:	2400                	.insn	2, 0x2400
     c3c:	0000040f          	.insn	4, 0x040f
     c40:	0249                	.insn	2, 0x0249
     c42:	440c                	.insn	2, 0x440c
     c44:	0000                	.insn	2, 0x
     c46:	a000                	.insn	2, 0xa000
     c48:	000a                	.insn	2, 0x000a
     c4a:	fc00                	.insn	2, 0xfc00
     c4c:	01000007          	.insn	4, 0x01000007
     c50:	219c                	.insn	2, 0x219c
     c52:	0009                	.insn	2, 0x0009
     c54:	0b00                	.insn	2, 0x0b00
     c56:	0074756f          	jal	a0,4845c <_peripheral_HLS_CONTROL_end+0x845c>
     c5a:	0249                	.insn	2, 0x0249
     c5c:	f924                	.insn	2, 0xf924
     c5e:	0000                	.insn	2, 0x
     c60:	3700                	.insn	2, 0x3700
     c62:	0002                	.insn	2, 0x0002
     c64:	0300                	.insn	2, 0x0300
     c66:	03a6                	.insn	2, 0x03a6
     c68:	0000                	.insn	2, 0x
     c6a:	0249                	.insn	2, 0x0249
     c6c:	0002bb2f          	.insn	4, 0x0002bb2f
     c70:	8800                	.insn	2, 0x8800
     c72:	0002                	.insn	2, 0x0002
     c74:	0300                	.insn	2, 0x0300
     c76:	044d                	.insn	2, 0x044d
     c78:	0000                	.insn	2, 0x
     c7a:	0249                	.insn	2, 0x0249
     c7c:	5c44                	.insn	2, 0x5c44
     c7e:	0000                	.insn	2, 0x
     c80:	ce00                	.insn	2, 0xce00
     c82:	0002                	.insn	2, 0x0002
     c84:	0300                	.insn	2, 0x0300
     c86:	0408                	.insn	2, 0x0408
     c88:	0000                	.insn	2, 0x
     c8a:	0249                	.insn	2, 0x0249
     c8c:	2e58                	.insn	2, 0x2e58
     c8e:	0002                	.insn	2, 0x0002
     c90:	1400                	.insn	2, 0x1400
     c92:	0b000003          	lb	zero,176(zero) # b0 <_reset_handler+0x30>
     c96:	6176                	.insn	2, 0x6176
     c98:	4900                	.insn	2, 0x4900
     c9a:	6802                	.insn	2, 0x6802
     c9c:	0038                	.insn	2, 0x0038
     c9e:	0000                	.insn	2, 0x
     ca0:	042c                	.insn	2, 0x042c
     ca2:	0000                	.insn	2, 0x
     ca4:	00043c0f          	.insn	4, 0x00043c0f
     ca8:	4b00                	.insn	2, 0x4b00
     caa:	1002                	.insn	2, 0x1002
     cac:	0061                	.insn	2, 0x0061
     cae:	0000                	.insn	2, 0x
     cb0:	000005a3          	sb	zero,11(zero) # b <_vector_table_start+0xb>
     cb4:	0003e90f          	.insn	4, 0x0003e90f
     cb8:	4b00                	.insn	2, 0x4b00
     cba:	1702                	.insn	2, 0x1702
     cbc:	0061                	.insn	2, 0x0061
     cbe:	0000                	.insn	2, 0x
     cc0:	073c                	.insn	2, 0x073c
     cc2:	0000                	.insn	2, 0x
     cc4:	0005590f          	.insn	4, 0x0005590f
     cc8:	4b00                	.insn	2, 0x4b00
     cca:	1e02                	.insn	2, 0x1e02
     ccc:	0061                	.insn	2, 0x0061
     cce:	0000                	.insn	2, 0x
     cd0:	07c6                	.insn	2, 0x07c6
     cd2:	0000                	.insn	2, 0x
     cd4:	6e12                	.insn	2, 0x6e12
     cd6:	4b00                	.insn	2, 0x4b00
     cd8:	2902                	.insn	2, 0x2902
     cda:	0061                	.insn	2, 0x0061
     cdc:	0000                	.insn	2, 0x
     cde:	0891                	.insn	2, 0x0891
     ce0:	0000                	.insn	2, 0x
     ce2:	6912                	.insn	2, 0x6912
     ce4:	7864                	.insn	2, 0x7864
     ce6:	4c00                	.insn	2, 0x4c00
     ce8:	0a02                	.insn	2, 0x0a02
     cea:	0050                	.insn	2, 0x0050
     cec:	0000                	.insn	2, 0x
     cee:	08f2                	.insn	2, 0x08f2
     cf0:	0000                	.insn	2, 0x
     cf2:	f70c                	.insn	2, 0xf70c
     cf4:	0000                	.insn	2, 0x
     cf6:	ac00                	.insn	2, 0xac00
     cf8:	0005                	.insn	2, 0x0005
     cfa:	2f00                	.insn	2, 0x2f00
     cfc:	74010077          	.insn	4, 0x74010077
     d00:	1102                	.insn	2, 0x1102
     d02:	0000004b          	.insn	4, 0x004b
     d06:	0c00                	.insn	2, 0x0c00
     d08:	0000027b          	.insn	4, 0x027b
     d0c:	000005c3          	.insn	4, 0x05c3
     d10:	3130                	.insn	2, 0x3130
     d12:	0005                	.insn	2, 0x0005
     d14:	0100                	.insn	2, 0x0100
     d16:	0288                	.insn	2, 0x0288
     d18:	00004b13          	xori	s6,zero,0
     d1c:	0000                	.insn	2, 0x
     d1e:	490c                	.insn	2, 0x490c
     d20:	0001                	.insn	2, 0x0001
     d22:	7c00                	.insn	2, 0x7c00
     d24:	0006                	.insn	2, 0x0006
     d26:	0f00                	.insn	2, 0x0f00
     d28:	0554                	.insn	2, 0x0554
     d2a:	0000                	.insn	2, 0x
     d2c:	02bc                	.insn	2, 0x02bc
     d2e:	6116                	.insn	2, 0x6116
     d30:	0000                	.insn	2, 0x
     d32:	2b00                	.insn	2, 0x2b00
     d34:	000a                	.insn	2, 0x000a
     d36:	0c00                	.insn	2, 0x0c00
     d38:	0180                	.insn	2, 0x0180
     d3a:	0000                	.insn	2, 0x
     d3c:	05f4                	.insn	2, 0x05f4
     d3e:	0000                	.insn	2, 0x
     d40:	d019                	.insn	2, 0xd019
     d42:	e3000003          	lb	zero,-464(zero) # fffffe30 <_peripheral_PLIC_end+0xf7fffe30>
     d46:	1802                	.insn	2, 0x1802
     d48:	00aa                	.insn	2, 0x00aa
     d4a:	0000                	.insn	2, 0x
     d4c:	5f01                	.insn	2, 0x5f01
     d4e:	0c00                	.insn	2, 0x0c00
     d50:	01b8                	.insn	2, 0x01b8
     d52:	0000                	.insn	2, 0x
     d54:	062a                	.insn	2, 0x062a
     d56:	0000                	.insn	2, 0x
     d58:	0003d00f          	.insn	4, 0x0003d00f
     d5c:	e700                	.insn	2, 0xe700
     d5e:	1702                	.insn	2, 0x1702
     d60:	0000004b          	.insn	4, 0x004b
     d64:	0a38                	.insn	2, 0x0a38
     d66:	0000                	.insn	2, 0x
     d68:	c80e                	.insn	2, 0xc80e
     d6a:	0011                	.insn	2, 0x0011
     d6c:	2100                	.insn	2, 0x2100
     d6e:	0009                	.insn	2, 0x0009
     d70:	0100                	.insn	2, 0x0100
     d72:	5a01                	.insn	2, 0x5a01
     d74:	8502                	.insn	2, 0x8502
     d76:	0100                	.insn	2, 0x0100
     d78:	5b01                	.insn	2, 0x5b01
     d7a:	8402                	.insn	2, 0x8402
     d7c:	0100                	.insn	2, 0x0100
     d7e:	5d01                	.insn	2, 0x5d01
     d80:	8302                	.insn	2, 0x8302
     d82:	0000                	.insn	2, 0x
     d84:	1b00                	.insn	2, 0x1b00
     d86:	01a5                	.insn	2, 0x01a5
     d88:	0000                	.insn	2, 0x
     d8a:	0003d00f          	.insn	4, 0x0003d00f
     d8e:	f600                	.insn	2, 0xf600
     d90:	2002                	.insn	2, 0x2002
     d92:	0068                	.insn	2, 0x0068
     d94:	0000                	.insn	2, 0x
     d96:	0a44                	.insn	2, 0x0a44
     d98:	0000                	.insn	2, 0x
     d9a:	c40e                	.insn	2, 0xc40e
     d9c:	000d                	.insn	2, 0x000d
     d9e:	2100                	.insn	2, 0x2100
     da0:	0009                	.insn	2, 0x0009
     da2:	0100                	.insn	2, 0x0100
     da4:	5a01                	.insn	2, 0x5a01
     da6:	8502                	.insn	2, 0x8502
     da8:	0100                	.insn	2, 0x0100
     daa:	5b01                	.insn	2, 0x5b01
     dac:	8402                	.insn	2, 0x8402
     dae:	0100                	.insn	2, 0x0100
     db0:	5c01                	.insn	2, 0x5c01
     db2:	8b02                	.insn	2, 0x8b02
     db4:	0100                	.insn	2, 0x0100
     db6:	5d01                	.insn	2, 0x5d01
     db8:	8302                	.insn	2, 0x8302
     dba:	0100                	.insn	2, 0x0100
     dbc:	5f01                	.insn	2, 0x5f01
     dbe:	3001                	.insn	2, 0x3001
     dc0:	0101                	.insn	2, 0x0101
     dc2:	0261                	.insn	2, 0x0261
     dc4:	0089                	.insn	2, 0x0089
     dc6:	0201                	.insn	2, 0x0201
     dc8:	0072                	.insn	2, 0x0072
     dca:	8702                	.insn	2, 0x8702
     dcc:	0100                	.insn	2, 0x0100
     dce:	7202                	.insn	2, 0x7202
     dd0:	0204                	.insn	2, 0x0204
     dd2:	0078                	.insn	2, 0x0078
     dd4:	0000                	.insn	2, 0x
     dd6:	0c00                	.insn	2, 0x0c00
     dd8:	01d4                	.insn	2, 0x01d4
     dda:	0000                	.insn	2, 0x
     ddc:	0728                	.insn	2, 0x0728
     dde:	0000                	.insn	2, 0x
     de0:	6c12                	.insn	2, 0x6c12
     de2:	1100                	.insn	2, 0x1100
     de4:	00611603          	lh	a2,6(sp)
     de8:	0000                	.insn	2, 0x
     dea:	0a50                	.insn	2, 0x0a50
     dec:	0000                	.insn	2, 0x
     dee:	fc09                	.insn	2, 0xfc09
     df0:	af00000b          	.insn	4, 0xaf00000b
     df4:	0006                	.insn	2, 0x0006
     df6:	0100                	.insn	2, 0x0100
     df8:	5b01                	.insn	2, 0x5b01
     dfa:	8402                	.insn	2, 0x8402
     dfc:	0100                	.insn	2, 0x0100
     dfe:	5c01                	.insn	2, 0x5c01
     e00:	8b02                	.insn	2, 0x8b02
     e02:	0100                	.insn	2, 0x0100
     e04:	5d01                	.insn	2, 0x5d01
     e06:	8302                	.insn	2, 0x8302
     e08:	0000                	.insn	2, 0x
     e0a:	2009                	.insn	2, 0x2009
     e0c:	000c                	.insn	2, 0x000c
     e0e:	d100                	.insn	2, 0xd100
     e10:	0006                	.insn	2, 0x0006
     e12:	0100                	.insn	2, 0x0100
     e14:	5a01                	.insn	2, 0x5a01
     e16:	0802                	.insn	2, 0x0802
     e18:	0120                	.insn	2, 0x0120
     e1a:	5b01                	.insn	2, 0x5b01
     e1c:	8402                	.insn	2, 0x8402
     e1e:	0100                	.insn	2, 0x0100
     e20:	5c01                	.insn	2, 0x5c01
     e22:	8902                	.insn	2, 0x8902
     e24:	017f 5d01 8302 0000 	.insn	10, 0x1c09000083025d01017f
     e2c:	1c09 
     e2e:	0010                	.insn	2, 0x0010
     e30:	f300                	.insn	2, 0xf300
     e32:	0006                	.insn	2, 0x0006
     e34:	0100                	.insn	2, 0x0100
     e36:	5a01                	.insn	2, 0x5a01
     e38:	0802                	.insn	2, 0x0802
     e3a:	0120                	.insn	2, 0x0120
     e3c:	5b01                	.insn	2, 0x5b01
     e3e:	8402                	.insn	2, 0x8402
     e40:	0100                	.insn	2, 0x0100
     e42:	5c01                	.insn	2, 0x5c01
     e44:	8902                	.insn	2, 0x8902
     e46:	017f 5d01 8302 0000 	.insn	10, 0x3809000083025d01017f
     e4e:	3809 
     e50:	0010                	.insn	2, 0x0010
     e52:	0f00                	.insn	2, 0x0f00
     e54:	01000007          	.insn	4, 0x01000007
     e58:	5b01                	.insn	2, 0x5b01
     e5a:	8402                	.insn	2, 0x8402
     e5c:	0100                	.insn	2, 0x0100
     e5e:	5c01                	.insn	2, 0x5c01
     e60:	7802                	.insn	2, 0x7802
     e62:	0100                	.insn	2, 0x0100
     e64:	5d01                	.insn	2, 0x5d01
     e66:	8302                	.insn	2, 0x8302
     e68:	0000                	.insn	2, 0x
     e6a:	4814                	.insn	2, 0x4814
     e6c:	0011                	.insn	2, 0x0011
     e6e:	0100                	.insn	2, 0x0100
     e70:	5b01                	.insn	2, 0x5b01
     e72:	8402                	.insn	2, 0x8402
     e74:	0100                	.insn	2, 0x0100
     e76:	5c01                	.insn	2, 0x5c01
     e78:	8b02                	.insn	2, 0x8b02
     e7a:	0100                	.insn	2, 0x0100
     e7c:	5d01                	.insn	2, 0x5d01
     e7e:	8302                	.insn	2, 0x8302
     e80:	0000                	.insn	2, 0x
     e82:	0c00                	.insn	2, 0x0c00
     e84:	021f 0000 07dc      	.insn	6, 0x07dc0000021f
     e8a:	0000                	.insn	2, 0x
     e8c:	7012                	.insn	2, 0x7012
     e8e:	2500                	.insn	2, 0x2500
     e90:	022e1503          	lh	a0,34(t3)
     e94:	0000                	.insn	2, 0x
     e96:	00000b0f          	.insn	4, 0x0b0f
     e9a:	6c12                	.insn	2, 0x6c12
     e9c:	2600                	.insn	2, 0x2600
     e9e:	00611603          	lh	a2,6(sp)
     ea2:	0000                	.insn	2, 0x
     ea4:	0b80                	.insn	2, 0x0b80
     ea6:	0000                	.insn	2, 0x
     ea8:	c925                	.insn	2, 0xc925
     eaa:	000c                	.insn	2, 0x000c
     eac:	bc00                	.insn	2, 0xbc00
     eae:	000e                	.insn	2, 0x000e
     eb0:	4d00                	.insn	2, 0x4d00
     eb2:	0002                	.insn	2, 0x0002
     eb4:	2600                	.insn	2, 0x2600
     eb6:	077f1a03          	lh	s4,119(t5)
     eba:	0000                	.insn	2, 0x
     ebc:	e402                	.insn	2, 0xe402
     ebe:	000c                	.insn	2, 0x000c
     ec0:	c000                	.insn	2, 0xc000
     ec2:	0a00000b          	.insn	4, 0x0a00000b
     ec6:	0cd9                	.insn	2, 0x0cd9
     ec8:	0000                	.insn	2, 0x
     eca:	00024d1b          	.insn	4, 0x00024d1b
     ece:	1500                	.insn	2, 0x1500
     ed0:	00000cef          	jal	s9,ed0 <_vsnprintf+0x430>
     ed4:	0be4                	.insn	2, 0x0be4
     ed6:	0000                	.insn	2, 0x
     ed8:	0000                	.insn	2, 0x
     eda:	4009                	.insn	2, 0x4009
     edc:	9b00000f          	.insn	4, 0x9b00000f
     ee0:	01000007          	.insn	4, 0x01000007
     ee4:	5b01                	.insn	2, 0x5b01
     ee6:	8402                	.insn	2, 0x8402
     ee8:	0100                	.insn	2, 0x0100
     eea:	5c01                	.insn	2, 0x5c01
     eec:	7802                	.insn	2, 0x7802
     eee:	017f 5d01 8302 0000 	.insn	10, 0x7409000083025d01017f
     ef6:	7409 
     ef8:	0010                	.insn	2, 0x0010
     efa:	bd00                	.insn	2, 0xbd00
     efc:	01000007          	.insn	4, 0x01000007
     f00:	5a01                	.insn	2, 0x5a01
     f02:	0802                	.insn	2, 0x0802
     f04:	0120                	.insn	2, 0x0120
     f06:	5b01                	.insn	2, 0x5b01
     f08:	8402                	.insn	2, 0x8402
     f0a:	0100                	.insn	2, 0x0100
     f0c:	5c01                	.insn	2, 0x5c01
     f0e:	8b02                	.insn	2, 0x8b02
     f10:	017f 5d01 8302 0000 	.insn	10, 0xc414000083025d01017f
     f18:	c414 
     f1a:	0010                	.insn	2, 0x0010
     f1c:	0100                	.insn	2, 0x0100
     f1e:	5a01                	.insn	2, 0x5a01
     f20:	0802                	.insn	2, 0x0802
     f22:	0120                	.insn	2, 0x0120
     f24:	5b01                	.insn	2, 0x5b01
     f26:	8402                	.insn	2, 0x8402
     f28:	0100                	.insn	2, 0x0100
     f2a:	5c01                	.insn	2, 0x5c01
     f2c:	8b02                	.insn	2, 0x8b02
     f2e:	017f 5d01 8302 0000 	.insn	10, 0x1c00000083025d01017f
     f36:	1c00 
     f38:	0cae                	.insn	2, 0x0cae
     f3a:	0000                	.insn	2, 0x
     f3c:	0b68                	.insn	2, 0x0b68
     f3e:	0000                	.insn	2, 0x
     f40:	0004                	.insn	2, 0x0004
     f42:	0000                	.insn	2, 0x
     f44:	0270                	.insn	2, 0x0270
     f46:	f609                	.insn	2, 0xf609
     f48:	0a000007          	.insn	4, 0x0a000007
     f4c:	0cbe                	.insn	2, 0x0cbe
     f4e:	0000                	.insn	2, 0x
     f50:	1c00                	.insn	2, 0x1c00
     f52:	0c84                	.insn	2, 0x0c84
     f54:	0000                	.insn	2, 0x
     f56:	0dd0                	.insn	2, 0x0dd0
     f58:	0000                	.insn	2, 0x
     f5a:	0034                	.insn	2, 0x0034
     f5c:	0000                	.insn	2, 0x
     f5e:	0271                	.insn	2, 0x0271
     f60:	00082f0f          	.insn	4, 0x00082f0f
     f64:	0a00                	.insn	2, 0x0a00
     f66:	0c94                	.insn	2, 0x0c94
     f68:	0000                	.insn	2, 0x
     f6a:	9f15                	.insn	2, 0x9f15
     f6c:	000c                	.insn	2, 0x000c
     f6e:	2000                	.insn	2, 0x2000
     f70:	000c                	.insn	2, 0x000c
     f72:	3100                	.insn	2, 0x3100
     f74:	0cae                	.insn	2, 0x0cae
     f76:	0000                	.insn	2, 0x
     f78:	0df0                	.insn	2, 0x0df0
     f7a:	0000                	.insn	2, 0x
     f7c:	01f9                	.insn	2, 0x01f9
     f7e:	0000                	.insn	2, 0x
     f80:	c801                	.insn	2, 0xc801
     f82:	0a0a                	.insn	2, 0x0a0a
     f84:	0cbe                	.insn	2, 0x0cbe
     f86:	0000                	.insn	2, 0x
     f88:	0000                	.insn	2, 0x
     f8a:	ae25                	.insn	2, 0xae25
     f8c:	000c                	.insn	2, 0x000c
     f8e:	1c00                	.insn	2, 0x1c00
     f90:	000e                	.insn	2, 0x000e
     f92:	0c00                	.insn	2, 0x0c00
     f94:	0002                	.insn	2, 0x0002
     f96:	8400                	.insn	2, 0x8400
     f98:	0b02                	.insn	2, 0x0b02
     f9a:	0849                	.insn	2, 0x0849
     f9c:	0000                	.insn	2, 0x
     f9e:	be0a                	.insn	2, 0xbe0a
     fa0:	000c                	.insn	2, 0x000c
     fa2:	0000                	.insn	2, 0x
     fa4:	841c                	.insn	2, 0x841c
     fa6:	000c                	.insn	2, 0x000c
     fa8:	7800                	.insn	2, 0x7800
     faa:	3800000f          	.insn	4, 0x3800000f
     fae:	0000                	.insn	2, 0x
     fb0:	8500                	.insn	2, 0x8500
     fb2:	1502                	.insn	2, 0x1502
     fb4:	0881                	.insn	2, 0x0881
     fb6:	0000                	.insn	2, 0x
     fb8:	940a                	.insn	2, 0x940a
     fba:	000c                	.insn	2, 0x000c
     fbc:	1500                	.insn	2, 0x1500
     fbe:	0c9f 0000 0c37      	.insn	6, 0x0c3700000c9f
     fc4:	0000                	.insn	2, 0x
     fc6:	ae1d                	.insn	2, 0xae1d
     fc8:	000c                	.insn	2, 0x000c
     fca:	9800                	.insn	2, 0x9800
     fcc:	0400000f          	fence	o,unknown
     fd0:	0000                	.insn	2, 0x
     fd2:	c800                	.insn	2, 0xc800
     fd4:	0a0a                	.insn	2, 0x0a0a
     fd6:	0cbe                	.insn	2, 0x0cbe
     fd8:	0000                	.insn	2, 0x
     fda:	0000                	.insn	2, 0x
     fdc:	2c09                	.insn	2, 0x2c09
     fde:	9d00000b          	.insn	4, 0x9d00000b
     fe2:	0008                	.insn	2, 0x0008
     fe4:	0100                	.insn	2, 0x0100
     fe6:	5b01                	.insn	2, 0x5b01
     fe8:	8402                	.insn	2, 0x8402
     fea:	0100                	.insn	2, 0x0100
     fec:	5c01                	.insn	2, 0x5c01
     fee:	8b02                	.insn	2, 0x8b02
     ff0:	017f 5d01 8302 0000 	.insn	10, 0x5009000083025d01017f
     ff8:	5009 
     ffa:	000c                	.insn	2, 0x000c
     ffc:	be00                	.insn	2, 0xbe00
     ffe:	0008                	.insn	2, 0x0008
    1000:	0100                	.insn	2, 0x0100
    1002:	5a01                	.insn	2, 0x5a01
    1004:	3001                	.insn	2, 0x3001
    1006:	0101                	.insn	2, 0x0101
    1008:	0084025b          	.insn	4, 0x0084025b
    100c:	0101                	.insn	2, 0x0101
    100e:	025c                	.insn	2, 0x025c
    1010:	0101008b          	.insn	4, 0x0101008b
    1014:	025d                	.insn	2, 0x025d
    1016:	32000083          	lb	ra,800(zero) # 320 <main+0x36>
    101a:	0d34                	.insn	2, 0x0d34
    101c:	0000                	.insn	2, 0x
    101e:	0921                	.insn	2, 0x0921
    1020:	0000                	.insn	2, 0x
    1022:	0902                	.insn	2, 0x0902
    1024:	0000                	.insn	2, 0x
    1026:	0101                	.insn	2, 0x0101
    1028:	025a                	.insn	2, 0x025a
    102a:	0085                	.insn	2, 0x0085
    102c:	0101                	.insn	2, 0x0101
    102e:	0084025b          	.insn	4, 0x0084025b
    1032:	0101                	.insn	2, 0x0101
    1034:	025c                	.insn	2, 0x025c
    1036:	0101008b          	.insn	4, 0x0101008b
    103a:	025d                	.insn	2, 0x025d
    103c:	01010083          	lb	ra,16(sp)
    1040:	015f 0130 6001      	.insn	6, 0x60010130015f
    1046:	8202                	.insn	2, 0x8202
    1048:	0100                	.insn	2, 0x0100
    104a:	6101                	.insn	2, 0x6101
    104c:	8902                	.insn	2, 0x8902
    104e:	0100                	.insn	2, 0x0100
    1050:	7202                	.insn	2, 0x7202
    1052:	0100                	.insn	2, 0x0100
    1054:	0138                	.insn	2, 0x0138
    1056:	7202                	.insn	2, 0x7202
    1058:	0204                	.insn	2, 0x0204
    105a:	0078                	.insn	2, 0x0078
    105c:	1400                	.insn	2, 0x1400
    105e:	0d60                	.insn	2, 0x0d60
    1060:	0000                	.insn	2, 0x
    1062:	0101                	.insn	2, 0x0101
    1064:	025a                	.insn	2, 0x025a
    1066:	2508                	.insn	2, 0x2508
    1068:	0101                	.insn	2, 0x0101
    106a:	0084025b          	.insn	4, 0x0084025b
    106e:	0101                	.insn	2, 0x0101
    1070:	025c                	.insn	2, 0x025c
    1072:	01017f8b          	.insn	4, 0x01017f8b
    1076:	025d                	.insn	2, 0x025d
    1078:	00000083          	lb	ra,0(zero) # 0 <_vector_table_start>
    107c:	3124                	.insn	2, 0x3124
    107e:	0004                	.insn	2, 0x0004
    1080:	2200                	.insn	2, 0x2200
    1082:	0f01                	.insn	2, 0x0f01
    1084:	0050                	.insn	2, 0x0050
    1086:	0000                	.insn	2, 0x
    1088:	0558                	.insn	2, 0x0558
    108a:	0000                	.insn	2, 0x
    108c:	0528                	.insn	2, 0x0528
    108e:	0000                	.insn	2, 0x
    1090:	9c01                	.insn	2, 0x9c01
    1092:	00000b63          	beqz	zero,10a8 <_vsnprintf+0x608>
    1096:	74756f0b          	.insn	4, 0x74756f0b
    109a:	2200                	.insn	2, 0x2200
    109c:	2701                	.insn	2, 0x2701
    109e:	00f9                	.insn	2, 0x00f9
    10a0:	0000                	.insn	2, 0x
    10a2:	00000c43          	.insn	4, 0x0c43
    10a6:	0003a603          	lw	a2,0(t2)
    10aa:	2200                	.insn	2, 0x2200
    10ac:	3201                	.insn	2, 0x3201
    10ae:	000002bb          	.insn	4, 0x02bb
    10b2:	00000c73          	.insn	4, 0x0c73
    10b6:	7864690b          	.insn	4, 0x7864690b
    10ba:	2200                	.insn	2, 0x2200
    10bc:	4101                	.insn	2, 0x4101
    10be:	0050                	.insn	2, 0x0050
    10c0:	0000                	.insn	2, 0x
    10c2:	0cb9                	.insn	2, 0x0cb9
    10c4:	0000                	.insn	2, 0x
    10c6:	00044d03          	lbu	s10,0(s0)
    10ca:	2200                	.insn	2, 0x2200
    10cc:	4d01                	.insn	2, 0x4d01
    10ce:	0050                	.insn	2, 0x0050
    10d0:	0000                	.insn	2, 0x
    10d2:	0d15                	.insn	2, 0x0d15
    10d4:	0000                	.insn	2, 0x
    10d6:	0003d003          	lhu	zero,0(t2)
    10da:	2200                	.insn	2, 0x2200
    10dc:	6301                	.insn	2, 0x6301
    10de:	000000bb          	.insn	4, 0x00bb
    10e2:	0d45                	.insn	2, 0x0d45
    10e4:	0000                	.insn	2, 0x
    10e6:	0003f903          	.insn	4, 0x0003f903
    10ea:	2200                	.insn	2, 0x2200
    10ec:	6f01                	.insn	2, 0x6f01
    10ee:	00000b63          	beqz	zero,1104 <_vsnprintf+0x664>
    10f2:	0d88                	.insn	2, 0x0d88
    10f4:	0000                	.insn	2, 0x
    10f6:	00055403          	lhu	s0,0(a0)
    10fa:	2200                	.insn	2, 0x2200
    10fc:	8701                	.insn	2, 0x8701
    10fe:	000000bb          	.insn	4, 0x00bb
    1102:	0e2a                	.insn	2, 0x0e2a
    1104:	0000                	.insn	2, 0x
    1106:	00053103          	.insn	4, 0x00053103
    110a:	2200                	.insn	2, 0x2200
    110c:	9a01                	.insn	2, 0x9a01
    110e:	0061                	.insn	2, 0x0061
    1110:	0000                	.insn	2, 0x
    1112:	0e68                	.insn	2, 0x0e68
    1114:	0000                	.insn	2, 0x
    1116:	0003e903          	.insn	4, 0x0003e903
    111a:	2200                	.insn	2, 0x2200
    111c:	ad01                	.insn	2, 0xad01
    111e:	0061                	.insn	2, 0x0061
    1120:	0000                	.insn	2, 0x
    1122:	0ea6                	.insn	2, 0x0ea6
    1124:	0000                	.insn	2, 0x
    1126:	00043c03          	.insn	4, 0x00043c03
    112a:	2200                	.insn	2, 0x2200
    112c:	c101                	.insn	2, 0xc101
    112e:	0061                	.insn	2, 0x0061
    1130:	0000                	.insn	2, 0x
    1132:	0f79                	.insn	2, 0x0f79
    1134:	0000                	.insn	2, 0x
    1136:	6208                	.insn	2, 0x6208
    1138:	6675                	.insn	2, 0x6675
    113a:	2400                	.insn	2, 0x2400
    113c:	0801                	.insn	2, 0x0801
    113e:	0b6a                	.insn	2, 0x0b6a
    1140:	0000                	.insn	2, 0x
    1142:	7fb09103          	lh	sp,2043(ra)
    1146:	6c12                	.insn	2, 0x6c12
    1148:	6e65                	.insn	2, 0x6e65
    114a:	2500                	.insn	2, 0x2500
    114c:	0a01                	.insn	2, 0x0a01
    114e:	0050                	.insn	2, 0x0050
    1150:	0000                	.insn	2, 0x
    1152:	00000fc7          	.insn	4, 0x0fc7
    1156:	db0c                	.insn	2, 0xdb0c
    1158:	0000                	.insn	2, 0x
    115a:	1500                	.insn	2, 0x1500
    115c:	000a                	.insn	2, 0x000a
    115e:	0f00                	.insn	2, 0x0f00
    1160:	0478                	.insn	2, 0x0478
    1162:	0000                	.insn	2, 0x
    1164:	2b12012f          	.insn	4, 0x2b12012f
    1168:	0001                	.insn	2, 0x0001
    116a:	0f00                	.insn	2, 0x0f00
    116c:	0010                	.insn	2, 0x0010
    116e:	0000                	.insn	2, 0x
    1170:	7a26                	.insn	2, 0x7a26
    1172:	a400000b          	.insn	4, 0xa400000b
    1176:	0005                	.insn	2, 0x0005
    1178:	2d00                	.insn	2, 0x2d00
    117a:	0000                	.insn	2, 0x
    117c:	3500                	.insn	2, 0x3500
    117e:	0201                	.insn	2, 0x0201
    1180:	0bf8                	.insn	2, 0x0bf8
    1182:	0000                	.insn	2, 0x
    1184:	1035                	.insn	2, 0x1035
    1186:	0000                	.insn	2, 0x
    1188:	ed02                	.insn	2, 0xed02
    118a:	6100000b          	.insn	4, 0x6100000b
    118e:	0010                	.insn	2, 0x0010
    1190:	0200                	.insn	2, 0x0200
    1192:	0be2                	.insn	2, 0x0be2
    1194:	0000                	.insn	2, 0x
    1196:	10f4                	.insn	2, 0x10f4
    1198:	0000                	.insn	2, 0x
    119a:	d702                	.insn	2, 0xd702
    119c:	3d00000b          	.insn	4, 0x3d00000b
    11a0:	0011                	.insn	2, 0x0011
    11a2:	0200                	.insn	2, 0x0200
    11a4:	0bcc                	.insn	2, 0x0bcc
    11a6:	0000                	.insn	2, 0x
    11a8:	1186                	.insn	2, 0x1186
    11aa:	0000                	.insn	2, 0x
    11ac:	c102                	.insn	2, 0xc102
    11ae:	3300000b          	.insn	4, 0x3300000b
    11b2:	0012                	.insn	2, 0x0012
    11b4:	0200                	.insn	2, 0x0200
    11b6:	0bb6                	.insn	2, 0x0bb6
    11b8:	0000                	.insn	2, 0x
    11ba:	141a                	.insn	2, 0x141a
    11bc:	0000                	.insn	2, 0x
    11be:	ab02                	.insn	2, 0xab02
    11c0:	4a00000b          	.insn	4, 0x4a00000b
    11c4:	0014                	.insn	2, 0x0014
    11c6:	0200                	.insn	2, 0x0200
    11c8:	0ba0                	.insn	2, 0x0ba0
    11ca:	0000                	.insn	2, 0x
    11cc:	147a                	.insn	2, 0x147a
    11ce:	0000                	.insn	2, 0x
    11d0:	9502                	.insn	2, 0x9502
    11d2:	c000000b          	.insn	4, 0xc000000b
    11d6:	0014                	.insn	2, 0x0014
    11d8:	0200                	.insn	2, 0x0200
    11da:	0b8a                	.insn	2, 0x0b8a
    11dc:	0000                	.insn	2, 0x
    11de:	1506                	.insn	2, 0x1506
    11e0:	0000                	.insn	2, 0x
    11e2:	0426                	.insn	2, 0x0426
    11e4:	000c                	.insn	2, 0x000c
    11e6:	4c00                	.insn	2, 0x4c00
    11e8:	0006                	.insn	2, 0x0006
    11ea:	5b00                	.insn	2, 0x5b00
    11ec:	0000                	.insn	2, 0x
    11ee:	1d00                	.insn	2, 0x1d00
    11f0:	0201                	.insn	2, 0x0201
    11f2:	0c61                	.insn	2, 0x0c61
    11f4:	0000                	.insn	2, 0x
    11f6:	1536                	.insn	2, 0x1536
    11f8:	0000                	.insn	2, 0x
    11fa:	5602                	.insn	2, 0x5602
    11fc:	000c                	.insn	2, 0x000c
    11fe:	4d00                	.insn	2, 0x4d00
    1200:	0015                	.insn	2, 0x0015
    1202:	0200                	.insn	2, 0x0200
    1204:	00000c4b          	.insn	4, 0x0c4b
    1208:	157a                	.insn	2, 0x157a
    120a:	0000                	.insn	2, 0x
    120c:	4002                	.insn	2, 0x4002
    120e:	000c                	.insn	2, 0x000c
    1210:	9e00                	.insn	2, 0x9e00
    1212:	0015                	.insn	2, 0x0015
    1214:	0200                	.insn	2, 0x0200
    1216:	0c35                	.insn	2, 0x0c35
    1218:	0000                	.insn	2, 0x
    121a:	15d9                	.insn	2, 0x15d9
    121c:	0000                	.insn	2, 0x
    121e:	2a02                	.insn	2, 0x2a02
    1220:	000c                	.insn	2, 0x000c
    1222:	1400                	.insn	2, 0x1400
    1224:	0016                	.insn	2, 0x0016
    1226:	0200                	.insn	2, 0x0200
    1228:	0c1f 0000 1678      	.insn	6, 0x167800000c1f
    122e:	0000                	.insn	2, 0x
    1230:	1402                	.insn	2, 0x1402
    1232:	000c                	.insn	2, 0x000c
    1234:	b300                	.insn	2, 0xb300
    1236:	0016                	.insn	2, 0x0016
    1238:	1b00                	.insn	2, 0x1b00
    123a:	0000005b          	.insn	4, 0x005b
    123e:	6c15                	.insn	2, 0x6c15
    1240:	000c                	.insn	2, 0x000c
    1242:	ee00                	.insn	2, 0xee00
    1244:	0016                	.insn	2, 0x0016
    1246:	3300                	.insn	2, 0x3300
    1248:	0c78                	.insn	2, 0x0c78
    124a:	0000                	.insn	2, 0x
    124c:	00a4                	.insn	2, 0x00a4
    124e:	0000                	.insn	2, 0x
    1250:	0b21                	.insn	2, 0x0b21
    1252:	0000                	.insn	2, 0x
    1254:	7915                	.insn	2, 0x7915
    1256:	000c                	.insn	2, 0x000c
    1258:	2900                	.insn	2, 0x2900
    125a:	14000017          	auipc	zero,0x14000
    125e:	078c                	.insn	2, 0x078c
    1260:	0000                	.insn	2, 0x
    1262:	0101                	.insn	2, 0x0101
    1264:	025a                	.insn	2, 0x025a
    1266:	2008                	.insn	2, 0x2008
    1268:	0101                	.insn	2, 0x0101
    126a:	0082025b          	.insn	4, 0x0082025b
    126e:	0101                	.insn	2, 0x0101
    1270:	025c                	.insn	2, 0x025c
    1272:	7f86                	.insn	2, 0x7f86
    1274:	0101                	.insn	2, 0x0101
    1276:	025d                	.insn	2, 0x025d
    1278:	00000083          	lb	ra,0(zero) # 0 <_vector_table_start>
    127c:	dc09                	.insn	2, 0xdc09
    127e:	43000007          	.insn	4, 0x43000007
    1282:	0100000b          	.insn	4, 0x0100000b
    1286:	5a01                	.insn	2, 0x5a01
    1288:	0802                	.insn	2, 0x0802
    128a:	0120                	.insn	2, 0x0120
    128c:	5b01                	.insn	2, 0x5b01
    128e:	8202                	.insn	2, 0x8202
    1290:	0100                	.insn	2, 0x0100
    1292:	5c01                	.insn	2, 0x5c01
    1294:	8702                	.insn	2, 0x8702
    1296:	017f 5d01 8302 0000 	.insn	10, 0x9414000083025d01017f
    129e:	9414 
    12a0:	0008                	.insn	2, 0x0008
    12a2:	0100                	.insn	2, 0x0100
    12a4:	5b01                	.insn	2, 0x5b01
    12a6:	8202                	.insn	2, 0x8202
    12a8:	0100                	.insn	2, 0x0100
    12aa:	5c01                	.insn	2, 0x5c01
    12ac:	7806                	.insn	2, 0x7806
    12ae:	2000                	.insn	2, 0x2000
    12b0:	01220087          	.insn	4, 0x01220087
    12b4:	5d01                	.insn	2, 0x5d01
    12b6:	8302                	.insn	2, 0x8302
    12b8:	0000                	.insn	2, 0x
    12ba:	0000                	.insn	2, 0x
    12bc:	0000                	.insn	2, 0x
    12be:	0105                	.insn	2, 0x0105
    12c0:	6502                	.insn	2, 0x6502
    12c2:	0004                	.insn	2, 0x0004
    12c4:	2200                	.insn	2, 0x2200
    12c6:	0124                	.insn	2, 0x0124
    12c8:	0000                	.insn	2, 0x
    12ca:	0b7a                	.insn	2, 0x0b7a
    12cc:	0000                	.insn	2, 0x
    12ce:	00006123          	.insn	4, 0x6123
    12d2:	1f00                	.insn	2, 0x1f00
    12d4:	1600                	.insn	2, 0x1600
    12d6:	0402                	.insn	2, 0x0402
    12d8:	0000                	.insn	2, 0x
    12da:	0fec                	.insn	2, 0x0fec
    12dc:	0050                	.insn	2, 0x0050
    12de:	0000                	.insn	2, 0x
    12e0:	0401                	.insn	2, 0x0401
    12e2:	000c                	.insn	2, 0x000c
    12e4:	0600                	.insn	2, 0x0600
    12e6:	0074756f          	jal	a0,48aec <_peripheral_HLS_CONTROL_end+0x8aec>
    12ea:	29ec                	.insn	2, 0x29ec
    12ec:	00f9                	.insn	2, 0x00f9
    12ee:	0000                	.insn	2, 0x
    12f0:	a604                	.insn	2, 0xa604
    12f2:	ec000003          	lb	zero,-320(zero) # fffffec0 <_peripheral_PLIC_end+0xf7fffec0>
    12f6:	bb34                	.insn	2, 0xbb34
    12f8:	0002                	.insn	2, 0x0002
    12fa:	0600                	.insn	2, 0x0600
    12fc:	6469                	.insn	2, 0x6469
    12fe:	0078                	.insn	2, 0x0078
    1300:	43ec                	.insn	2, 0x43ec
    1302:	0050                	.insn	2, 0x0050
    1304:	0000                	.insn	2, 0x
    1306:	4d04                	.insn	2, 0x4d04
    1308:	0004                	.insn	2, 0x0004
    130a:	ec00                	.insn	2, 0xec00
    130c:	0000504f          	.insn	4, 0x504f
    1310:	0600                	.insn	2, 0x0600
    1312:	7562                	.insn	2, 0x7562
    1314:	0066                	.insn	2, 0x0066
    1316:	5dec                	.insn	2, 0x5dec
    1318:	000002bb          	.insn	4, 0x02bb
    131c:	6c06                	.insn	2, 0x6c06
    131e:	6e65                	.insn	2, 0x6e65
    1320:	ec00                	.insn	2, 0xec00
    1322:	5069                	.insn	2, 0x5069
    1324:	0000                	.insn	2, 0x
    1326:	0400                	.insn	2, 0x0400
    1328:	03f9                	.insn	2, 0x03f9
    132a:	0000                	.insn	2, 0x
    132c:	73ec                	.insn	2, 0x73ec
    132e:	00000b63          	beqz	zero,1344 <sprintf_+0x38>
    1332:	5404                	.insn	2, 0x5404
    1334:	0005                	.insn	2, 0x0005
    1336:	ec00                	.insn	2, 0xec00
    1338:	618a                	.insn	2, 0x618a
    133a:	0000                	.insn	2, 0x
    133c:	0400                	.insn	2, 0x0400
    133e:	0531                	.insn	2, 0x0531
    1340:	0000                	.insn	2, 0x
    1342:	9dec                	.insn	2, 0x9dec
    1344:	0061                	.insn	2, 0x0061
    1346:	0000                	.insn	2, 0x
    1348:	e904                	.insn	2, 0xe904
    134a:	ec000003          	lb	zero,-320(zero) # fffffec0 <_peripheral_PLIC_end+0xf7fffec0>
    134e:	61b0                	.insn	2, 0x61b0
    1350:	0000                	.insn	2, 0x
    1352:	0400                	.insn	2, 0x0400
    1354:	043c                	.insn	2, 0x043c
    1356:	0000                	.insn	2, 0x
    1358:	c4ec                	.insn	2, 0xc4ec
    135a:	0061                	.insn	2, 0x0061
    135c:	0000                	.insn	2, 0x
    135e:	1600                	.insn	2, 0x1600
    1360:	00000507          	.insn	4, 0x0507
    1364:	0fd0                	.insn	2, 0x0fd0
    1366:	0050                	.insn	2, 0x0050
    1368:	0000                	.insn	2, 0x
    136a:	8401                	.insn	2, 0x8401
    136c:	000c                	.insn	2, 0x000c
    136e:	0600                	.insn	2, 0x0600
    1370:	0074756f          	jal	a0,48b76 <_peripheral_HLS_CONTROL_end+0x8b76>
    1374:	25d0                	.insn	2, 0x25d0
    1376:	00f9                	.insn	2, 0x00f9
    1378:	0000                	.insn	2, 0x
    137a:	a604                	.insn	2, 0xa604
    137c:	d0000003          	lb	zero,-768(zero) # fffffd00 <_peripheral_PLIC_end+0xf7fffd00>
    1380:	bb30                	.insn	2, 0xbb30
    1382:	0002                	.insn	2, 0x0002
    1384:	0600                	.insn	2, 0x0600
    1386:	6469                	.insn	2, 0x6469
    1388:	0078                	.insn	2, 0x0078
    138a:	3fd0                	.insn	2, 0x3fd0
    138c:	0050                	.insn	2, 0x0050
    138e:	0000                	.insn	2, 0x
    1390:	4d04                	.insn	2, 0x4d04
    1392:	0004                	.insn	2, 0x0004
    1394:	d000                	.insn	2, 0xd000
    1396:	0000504b          	.insn	4, 0x504b
    139a:	0600                	.insn	2, 0x0600
    139c:	7562                	.insn	2, 0x7562
    139e:	0066                	.insn	2, 0x0066
    13a0:	5fd0                	.insn	2, 0x5fd0
    13a2:	022e                	.insn	2, 0x022e
    13a4:	0000                	.insn	2, 0x
    13a6:	6c06                	.insn	2, 0x6c06
    13a8:	6e65                	.insn	2, 0x6e65
    13aa:	d000                	.insn	2, 0xd000
    13ac:	0000506b          	.insn	4, 0x506b
    13b0:	0400                	.insn	2, 0x0400
    13b2:	03e9                	.insn	2, 0x03e9
    13b4:	0000                	.insn	2, 0x
    13b6:	7dd0                	.insn	2, 0x7dd0
    13b8:	0061                	.insn	2, 0x0061
    13ba:	0000                	.insn	2, 0x
    13bc:	3c04                	.insn	2, 0x3c04
    13be:	0004                	.insn	2, 0x0004
    13c0:	d000                	.insn	2, 0xd000
    13c2:	6191                	.insn	2, 0x6191
    13c4:	0000                	.insn	2, 0x
    13c6:	3400                	.insn	2, 0x3400
    13c8:	03df 0000 d201      	.insn	6, 0xd201000003df
    13ce:	5c10                	.insn	2, 0x5c10
    13d0:	0000                	.insn	2, 0x
    13d2:	3500                	.insn	2, 0x3500
    13d4:	691e                	.insn	2, 0x691e
    13d6:	d600                	.insn	2, 0xd600
    13d8:	5011                	.insn	2, 0x5011
    13da:	0000                	.insn	2, 0x
    13dc:	0000                	.insn	2, 0x
    13de:	1600                	.insn	2, 0x1600
    13e0:	0454                	.insn	2, 0x0454
    13e2:	0000                	.insn	2, 0x
    13e4:	15c5                	.insn	2, 0x15c5
    13e6:	0061                	.insn	2, 0x0061
    13e8:	0000                	.insn	2, 0x
    13ea:	a901                	.insn	2, 0xa901
    13ec:	000c                	.insn	2, 0x000c
    13ee:	0600                	.insn	2, 0x0600
    13f0:	00727473          	csrrci	s0,0x7,4
    13f4:	28c5                	.insn	2, 0x28c5
    13f6:	0ca9                	.insn	2, 0x0ca9
    13f8:	0000                	.insn	2, 0x
    13fa:	691e                	.insn	2, 0x691e
    13fc:	c700                	.insn	2, 0xc700
    13fe:	6110                	.insn	2, 0x6110
    1400:	0000                	.insn	2, 0x
    1402:	0000                	.insn	2, 0x
    1404:	00022e13          	slti	t3,tp,0
    1408:	1600                	.insn	2, 0x1600
    140a:	0474                	.insn	2, 0x0474
    140c:	0000                	.insn	2, 0x
    140e:	14be                	.insn	2, 0x14be
    1410:	00000b63          	beqz	zero,1426 <fctprintf+0x3e>
    1414:	000cc903          	lbu	s2,0(s9)
    1418:	0600                	.insn	2, 0x0600
    141a:	be006863          	bltu	zero,zero,80a <_ntoa_long+0x2b2>
    141e:	00012423          	sw	zero,8(sp)
    1422:	0000                	.insn	2, 0x
    1424:	5a16                	.insn	2, 0x5a16
    1426:	0004                	.insn	2, 0x0004
    1428:	b400                	.insn	2, 0xb400
    142a:	611c                	.insn	2, 0x611c
    142c:	0000                	.insn	2, 0x
    142e:	0300                	.insn	2, 0x0300
    1430:	0cf9                	.insn	2, 0x0cf9
    1432:	0000                	.insn	2, 0x
    1434:	7306                	.insn	2, 0x7306
    1436:	7274                	.insn	2, 0x7274
    1438:	b400                	.insn	2, 0xb400
    143a:	00022e33          	sltz	t3,tp
    143e:	0400                	.insn	2, 0x0400
    1440:	03c8                	.insn	2, 0x03c8
    1442:	0000                	.insn	2, 0x
    1444:	3fb4                	.insn	2, 0x3fb4
    1446:	0050                	.insn	2, 0x0050
    1448:	0000                	.insn	2, 0x
    144a:	731e                	.insn	2, 0x731e
    144c:	b600                	.insn	2, 0xb600
    144e:	00022e0f          	.insn	4, 0x00022e0f
    1452:	0000                	.insn	2, 0x
    1454:	d636                	.insn	2, 0xd636
    1456:	01000003          	lb	zero,16(zero) # 10 <_vector_table_start+0x10>
    145a:	14a8                	.insn	2, 0x14a8
    145c:	000d3303          	.insn	4, 0x000d3303
    1460:	0400                	.insn	2, 0x0400
    1462:	04fd                	.insn	2, 0x04fd
    1464:	0000                	.insn	2, 0x
    1466:	22a8                	.insn	2, 0x22a8
    1468:	0124                	.insn	2, 0x0124
    146a:	0000                	.insn	2, 0x
    146c:	a604                	.insn	2, 0xa604
    146e:	a8000003          	lb	zero,-1408(zero) # fffffa80 <_peripheral_PLIC_end+0xf7fffa80>
    1472:	00013033          	sltu	zero,sp,zero
    1476:	0600                	.insn	2, 0x0600
    1478:	6469                	.insn	2, 0x6469
    147a:	0078                	.insn	2, 0x0078
    147c:	42a8                	.insn	2, 0x42a8
    147e:	0050                	.insn	2, 0x0050
    1480:	0000                	.insn	2, 0x
    1482:	4d04                	.insn	2, 0x4d04
    1484:	0004                	.insn	2, 0x0004
    1486:	a800                	.insn	2, 0xa800
    1488:	504e                	.insn	2, 0x504e
    148a:	0000                	.insn	2, 0x
    148c:	0000                	.insn	2, 0x
    148e:	be1f 0003 9e00      	.insn	6, 0x9e000003be1f
    1494:	0a80                	.insn	2, 0x0a80
    1496:	0000                	.insn	2, 0x
    1498:	000c                	.insn	2, 0x000c
    149a:	0000                	.insn	2, 0x
    149c:	9c01                	.insn	2, 0x9c01
    149e:	00000da3          	sb	zero,27(zero) # 1b <_vector_table_start+0x1b>
    14a2:	fd1a                	.insn	2, 0xfd1a
    14a4:	0004                	.insn	2, 0x0004
    14a6:	9e00                	.insn	2, 0x9e00
    14a8:	00012423          	sw	zero,8(sp)
    14ac:	4200                	.insn	2, 0x4200
    14ae:	1a000017          	auipc	zero,0x1a000
    14b2:	03a6                	.insn	2, 0x03a6
    14b4:	0000                	.insn	2, 0x
    14b6:	349e                	.insn	2, 0x349e
    14b8:	0130                	.insn	2, 0x0130
    14ba:	0000                	.insn	2, 0x
    14bc:	175c                	.insn	2, 0x175c
    14be:	0000                	.insn	2, 0x
    14c0:	78646937          	lui	s2,0x78646
    14c4:	0100                	.insn	2, 0x0100
    14c6:	439e                	.insn	2, 0x439e
    14c8:	0050                	.insn	2, 0x0050
    14ca:	0000                	.insn	2, 0x
    14cc:	1776                	.insn	2, 0x1776
    14ce:	0000                	.insn	2, 0x
    14d0:	4d1a                	.insn	2, 0x4d1a
    14d2:	0004                	.insn	2, 0x0004
    14d4:	9e00                	.insn	2, 0x9e00
    14d6:	0000504f          	.insn	4, 0x504f
    14da:	9000                	.insn	2, 0x9000
    14dc:	1d000017          	auipc	zero,0x1d000
    14e0:	00000da3          	sb	zero,27(zero) # 1b <_vector_table_start+0x1b>
    14e4:	0a88                	.insn	2, 0x0a88
    14e6:	0000                	.insn	2, 0x
    14e8:	0004                	.insn	2, 0x0004
    14ea:	0000                	.insn	2, 0x
    14ec:	05a2                	.insn	2, 0x05a2
    14ee:	b40a                	.insn	2, 0xb40a
    14f0:	000d                	.insn	2, 0x000d
    14f2:	3800                	.insn	2, 0x3800
    14f4:	0a8c                	.insn	2, 0x0a8c
    14f6:	0000                	.insn	2, 0x
    14f8:	017a                	.insn	2, 0x017a
    14fa:	0000                	.insn	2, 0x
    14fc:	0000                	.insn	2, 0x
    14fe:	1639                	.insn	2, 0x1639
    1500:	0005                	.insn	2, 0x0005
    1502:	0100                	.insn	2, 0x0100
    1504:	0a96                	.insn	2, 0x0a96
    1506:	00e1                	.insn	2, 0x00e1
    1508:	0000                	.insn	2, 0x
    150a:	c001                	.insn	2, 0xc001
    150c:	000d                	.insn	2, 0x000d
    150e:	0400                	.insn	2, 0x0400
    1510:	04fd                	.insn	2, 0x04fd
    1512:	0000                	.insn	2, 0x
    1514:	1896                	.insn	2, 0x1896
    1516:	0124                	.insn	2, 0x0124
    1518:	0000                	.insn	2, 0x
    151a:	1f00                	.insn	2, 0x1f00
    151c:	03b4                	.insn	2, 0x03b4
    151e:	0000                	.insn	2, 0x
    1520:	5489                	.insn	2, 0x5489
    1522:	0005                	.insn	2, 0x0005
    1524:	0400                	.insn	2, 0x0400
    1526:	0000                	.insn	2, 0x
    1528:	0100                	.insn	2, 0x0100
    152a:	099c                	.insn	2, 0x099c
    152c:	000e                	.insn	2, 0x000e
    152e:	1700                	.insn	2, 0x1700
    1530:	04fd                	.insn	2, 0x04fd
    1532:	0000                	.insn	2, 0x
    1534:	2389                	.insn	2, 0x2389
    1536:	0124                	.insn	2, 0x0124
    1538:	0000                	.insn	2, 0x
    153a:	5a01                	.insn	2, 0x5a01
    153c:	0003a617          	auipc	a2,0x3a
    1540:	8900                	.insn	2, 0x8900
    1542:	3034                	.insn	2, 0x3034
    1544:	0001                	.insn	2, 0x0001
    1546:	0100                	.insn	2, 0x0100
    1548:	6469275b          	.insn	4, 0x6469275b
    154c:	0078                	.insn	2, 0x0078
    154e:	4389                	.insn	2, 0x4389
    1550:	0050                	.insn	2, 0x0050
    1552:	0000                	.insn	2, 0x
    1554:	5c01                	.insn	2, 0x5c01
    1556:	00044d17          	auipc	s10,0x44
    155a:	8900                	.insn	2, 0x8900
    155c:	0000504f          	.insn	4, 0x504f
    1560:	0100                	.insn	2, 0x0100
    1562:	005d                	.insn	2, 0x005d
    1564:	a11f 0003 8100      	.insn	6, 0x81000003a11f
    156a:	0544                	.insn	2, 0x0544
    156c:	0000                	.insn	2, 0x
    156e:	0010                	.insn	2, 0x0010
    1570:	0000                	.insn	2, 0x
    1572:	9c01                	.insn	2, 0x9c01
    1574:	0e54                	.insn	2, 0x0e54
    1576:	0000                	.insn	2, 0x
    1578:	0004fd17          	auipc	s10,0x4f
    157c:	8100                	.insn	2, 0x8100
    157e:	2425                	.insn	2, 0x2425
    1580:	0001                	.insn	2, 0x0001
    1582:	0100                	.insn	2, 0x0100
    1584:	1a5a                	.insn	2, 0x1a5a
    1586:	03a6                	.insn	2, 0x03a6
    1588:	0000                	.insn	2, 0x
    158a:	3681                	.insn	2, 0x3681
    158c:	0130                	.insn	2, 0x0130
    158e:	0000                	.insn	2, 0x
    1590:	17aa                	.insn	2, 0x17aa
    1592:	0000                	.insn	2, 0x
    1594:	78646927          	.insn	4, 0x78646927
    1598:	8100                	.insn	2, 0x8100
    159a:	5045                	.insn	2, 0x5045
    159c:	0000                	.insn	2, 0x
    159e:	0100                	.insn	2, 0x0100
    15a0:	175c                	.insn	2, 0x175c
    15a2:	044d                	.insn	2, 0x044d
    15a4:	0000                	.insn	2, 0x
    15a6:	5181                	.insn	2, 0x5181
    15a8:	0050                	.insn	2, 0x0050
    15aa:	0000                	.insn	2, 0x
    15ac:	5d01                	.insn	2, 0x5d01
    15ae:	3a00                	.insn	2, 0x3a00
    15b0:	0cf9                	.insn	2, 0x0cf9
    15b2:	0000                	.insn	2, 0x
    15b4:	0a8c                	.insn	2, 0x0a8c
    15b6:	0000                	.insn	2, 0x
    15b8:	0014                	.insn	2, 0x0014
    15ba:	0000                	.insn	2, 0x
    15bc:	9c01                	.insn	2, 0x9c01
    15be:	0ebc                	.insn	2, 0x0ebc
    15c0:	0000                	.insn	2, 0x
    15c2:	0602                	.insn	2, 0x0602
    15c4:	000d                	.insn	2, 0x000d
    15c6:	c400                	.insn	2, 0xc400
    15c8:	02000017          	auipc	zero,0x2000
    15cc:	0d11                	.insn	2, 0x0d11
    15ce:	0000                	.insn	2, 0x
    15d0:	17e9                	.insn	2, 0x17e9
    15d2:	0000                	.insn	2, 0x
    15d4:	1c02                	.insn	2, 0x1c02
    15d6:	000d                	.insn	2, 0x000d
    15d8:	0e00                	.insn	2, 0x0e00
    15da:	0018                	.insn	2, 0x0018
    15dc:	0200                	.insn	2, 0x0200
    15de:	00000d27          	.insn	4, 0x0d27
    15e2:	00001833          	sll	a6,zero,zero
    15e6:	f91d                	.insn	2, 0xf91d
    15e8:	000c                	.insn	2, 0x000c
    15ea:	9000                	.insn	2, 0x9000
    15ec:	000a                	.insn	2, 0x000a
    15ee:	0c00                	.insn	2, 0x0c00
    15f0:	0000                	.insn	2, 0x
    15f2:	a800                	.insn	2, 0xa800
    15f4:	0214                	.insn	2, 0x0214
    15f6:	0d1c                	.insn	2, 0x0d1c
    15f8:	0000                	.insn	2, 0x
    15fa:	1858                	.insn	2, 0x1858
    15fc:	0000                	.insn	2, 0x
    15fe:	2702                	.insn	2, 0x2702
    1600:	000d                	.insn	2, 0x000d
    1602:	7200                	.insn	2, 0x7200
    1604:	0018                	.insn	2, 0x0018
    1606:	0200                	.insn	2, 0x0200
    1608:	0d11                	.insn	2, 0x0d11
    160a:	0000                	.insn	2, 0x
    160c:	188c                	.insn	2, 0x188c
    160e:	0000                	.insn	2, 0x
    1610:	060a                	.insn	2, 0x060a
    1612:	000d                	.insn	2, 0x000d
    1614:	0000                	.insn	2, 0x
    1616:	3b00                	.insn	2, 0x3b00
    1618:	00000da3          	sb	zero,27(zero) # 1b <_vector_table_start+0x1b>
    161c:	129c                	.insn	2, 0x129c
    161e:	0000                	.insn	2, 0x
    1620:	001c                	.insn	2, 0x001c
    1622:	0000                	.insn	2, 0x
    1624:	9c01                	.insn	2, 0x9c01
    1626:	b402                	.insn	2, 0xb402
    1628:	000d                	.insn	2, 0x000d
    162a:	a600                	.insn	2, 0xa600
    162c:	0018                	.insn	2, 0x0018
    162e:	3c00                	.insn	2, 0x3c00
    1630:	12a8                	.insn	2, 0x12a8
    1632:	0000                	.insn	2, 0x
    1634:	017a                	.insn	2, 0x017a
    1636:	0000                	.insn	2, 0x
    1638:	0000                	.insn	2, 0x
    163a:	00ce                	.insn	2, 0x00ce
    163c:	0000                	.insn	2, 0x
    163e:	0005                	.insn	2, 0x0005
    1640:	0401                	.insn	2, 0x0401
    1642:	081d                	.insn	2, 0x081d
    1644:	0000                	.insn	2, 0x
    1646:	00047e03          	.insn	4, 0x00047e03
    164a:	1d00                	.insn	2, 0x1d00
    164c:	0339                	.insn	2, 0x0339
    164e:	0000                	.insn	2, 0x
    1650:	00000253          	.insn	4, 0x0253
    1654:	1444                	.insn	2, 0x1444
    1656:	0000                	.insn	2, 0x
    1658:	0004                	.insn	2, 0x0004
    165a:	0000                	.insn	2, 0x
    165c:	2194                	.insn	2, 0x2194
    165e:	0000                	.insn	2, 0x
    1660:	0101                	.insn	2, 0x0101
    1662:	bd06                	.insn	2, 0xbd06
    1664:	0000                	.insn	2, 0x
    1666:	0100                	.insn	2, 0x0100
    1668:	0801                	.insn	2, 0x0801
    166a:	000000bb          	.insn	4, 0x00bb
    166e:	0201                	.insn	2, 0x0201
    1670:	7a05                	.insn	2, 0x7a05
    1672:	0001                	.insn	2, 0x0001
    1674:	0100                	.insn	2, 0x0100
    1676:	0702                	.insn	2, 0x0702
    1678:	00c9                	.insn	2, 0x00c9
    167a:	0000                	.insn	2, 0x
    167c:	0401                	.insn	2, 0x0401
    167e:	5d05                	.insn	2, 0x5d05
    1680:	0001                	.insn	2, 0x0001
    1682:	0200                	.insn	2, 0x0200
    1684:	000000f3          	.insn	4, 0x00f3
    1688:	4f02                	.insn	2, 0x4f02
    168a:	5519                	.insn	2, 0x5519
    168c:	0000                	.insn	2, 0x
    168e:	0100                	.insn	2, 0x0100
    1690:	0704                	.insn	2, 0x0704
    1692:	013a                	.insn	2, 0x013a
    1694:	0000                	.insn	2, 0x
    1696:	0801                	.insn	2, 0x0801
    1698:	5805                	.insn	2, 0x5805
    169a:	0001                	.insn	2, 0x0001
    169c:	0100                	.insn	2, 0x0100
    169e:	0708                	.insn	2, 0x0708
    16a0:	0135                	.insn	2, 0x0135
    16a2:	0000                	.insn	2, 0x
    16a4:	0404                	.insn	2, 0x0404
    16a6:	6905                	.insn	2, 0x6905
    16a8:	746e                	.insn	2, 0x746e
    16aa:	0100                	.insn	2, 0x0100
    16ac:	0704                	.insn	2, 0x0704
    16ae:	0000013f 0000f502 	.insn	8, 0xf5020000013f
    16b6:	0300                	.insn	2, 0x0300
    16b8:	1430                	.insn	2, 0x1430
    16ba:	0049                	.insn	2, 0x0049
    16bc:	0000                	.insn	2, 0x
    16be:	1001                	.insn	2, 0x1001
    16c0:	f004                	.insn	2, 0xf004
    16c2:	0001                	.insn	2, 0x0001
    16c4:	0500                	.insn	2, 0x0500
    16c6:	056c                	.insn	2, 0x056c
    16c8:	0000                	.insn	2, 0x
    16ca:	1b04                	.insn	2, 0x1b04
    16cc:	9d06                	.insn	2, 0x9d06
    16ce:	0000                	.insn	2, 0x
    16d0:	0600                	.insn	2, 0x0600
    16d2:	0078                	.insn	2, 0x0078
    16d4:	0000                	.insn	2, 0x
    16d6:	0700                	.insn	2, 0x0700
    16d8:	01fc                	.insn	2, 0x01fc
    16da:	0000                	.insn	2, 0x
    16dc:	0501                	.insn	2, 0x0501
    16de:	4406                	.insn	2, 0x4406
    16e0:	0014                	.insn	2, 0x0014
    16e2:	0400                	.insn	2, 0x0400
    16e4:	0000                	.insn	2, 0x
    16e6:	0100                	.insn	2, 0x0100
    16e8:	089c                	.insn	2, 0x089c
    16ea:	0576                	.insn	2, 0x0576
    16ec:	0000                	.insn	2, 0x
    16ee:	0501                	.insn	2, 0x0501
    16f0:	0000781b          	.insn	4, 0x781b
    16f4:	cc00                	.insn	2, 0xcc00
    16f6:	0018                	.insn	2, 0x0018
    16f8:	0900                	.insn	2, 0x0900
    16fa:	1448                	.insn	2, 0x1448
    16fc:	0000                	.insn	2, 0x
    16fe:	0000008b          	.insn	4, 0x008b
    1702:	010a                	.insn	2, 0x010a
    1704:	035a                	.insn	2, 0x035a
    1706:	005a01a3          	sb	t0,3(s4)
    170a:	0000                	.insn	2, 0x
    170c:	01b6                	.insn	2, 0x01b6
    170e:	0000                	.insn	2, 0x
    1710:	0005                	.insn	2, 0x0005
    1712:	0401                	.insn	2, 0x0401
    1714:	08b1                	.insn	2, 0x08b1
    1716:	0000                	.insn	2, 0x
    1718:	7e09                	.insn	2, 0x7e09
    171a:	0004                	.insn	2, 0x0004
    171c:	1d00                	.insn	2, 0x1d00
    171e:	0346                	.insn	2, 0x0346
    1720:	0000                	.insn	2, 0x
    1722:	00000253          	.insn	4, 0x0253
    1726:	1448                	.insn	2, 0x1448
    1728:	0000                	.insn	2, 0x
    172a:	007c                	.insn	2, 0x007c
    172c:	0000                	.insn	2, 0x
    172e:	2201                	.insn	2, 0x2201
    1730:	0000                	.insn	2, 0x
    1732:	0101                	.insn	2, 0x0101
    1734:	bd06                	.insn	2, 0xbd06
    1736:	0000                	.insn	2, 0x
    1738:	0200                	.insn	2, 0x0200
    173a:	041a                	.insn	2, 0x041a
    173c:	0000                	.insn	2, 0x
    173e:	2b02                	.insn	2, 0x2b02
    1740:	3918                	.insn	2, 0x3918
    1742:	0000                	.insn	2, 0x
    1744:	0100                	.insn	2, 0x0100
    1746:	0801                	.insn	2, 0x0801
    1748:	000000bb          	.insn	4, 0x00bb
    174c:	0201                	.insn	2, 0x0201
    174e:	7a05                	.insn	2, 0x7a05
    1750:	0001                	.insn	2, 0x0001
    1752:	0100                	.insn	2, 0x0100
    1754:	0702                	.insn	2, 0x0702
    1756:	00c9                	.insn	2, 0x00c9
    1758:	0000                	.insn	2, 0x
    175a:	0401                	.insn	2, 0x0401
    175c:	5d05                	.insn	2, 0x5d05
    175e:	0001                	.insn	2, 0x0001
    1760:	0200                	.insn	2, 0x0200
    1762:	000000f3          	.insn	4, 0x00f3
    1766:	4f02                	.insn	2, 0x4f02
    1768:	6119                	.insn	2, 0x6119
    176a:	0000                	.insn	2, 0x
    176c:	0100                	.insn	2, 0x0100
    176e:	0704                	.insn	2, 0x0704
    1770:	013a                	.insn	2, 0x013a
    1772:	0000                	.insn	2, 0x
    1774:	0801                	.insn	2, 0x0801
    1776:	5805                	.insn	2, 0x5805
    1778:	0001                	.insn	2, 0x0001
    177a:	0100                	.insn	2, 0x0100
    177c:	0708                	.insn	2, 0x0708
    177e:	0135                	.insn	2, 0x0135
    1780:	0000                	.insn	2, 0x
    1782:	8502                	.insn	2, 0x8502
    1784:	0005                	.insn	2, 0x0005
    1786:	0200                	.insn	2, 0x0200
    1788:	19e6                	.insn	2, 0x19e6
    178a:	0082                	.insn	2, 0x0082
    178c:	0000                	.insn	2, 0x
    178e:	040a                	.insn	2, 0x040a
    1790:	6905                	.insn	2, 0x6905
    1792:	746e                	.insn	2, 0x746e
    1794:	0100                	.insn	2, 0x0100
    1796:	0704                	.insn	2, 0x0704
    1798:	0000013f 00041c02 	.insn	8, 0x00041c020000013f
    17a0:	0300                	.insn	2, 0x0300
    17a2:	1318                	.insn	2, 0x1318
    17a4:	002d                	.insn	2, 0x002d
    17a6:	0000                	.insn	2, 0x
    17a8:	f502                	.insn	2, 0xf502
    17aa:	0000                	.insn	2, 0x
    17ac:	0300                	.insn	2, 0x0300
    17ae:	1430                	.insn	2, 0x1430
    17b0:	0055                	.insn	2, 0x0055
    17b2:	0000                	.insn	2, 0x
    17b4:	00009c0b          	.insn	4, 0x9c0b
    17b8:	0200                	.insn	2, 0x0200
    17ba:	00000587          	.insn	4, 0x0587
    17be:	76144d03          	lbu	s10,1889(s0)
    17c2:	0000                	.insn	2, 0x
    17c4:	0c00                	.insn	2, 0x0c00
    17c6:	0590                	.insn	2, 0x0590
    17c8:	0000                	.insn	2, 0x
    17ca:	0410                	.insn	2, 0x0410
    17cc:	0811                	.insn	2, 0x0811
    17ce:	00f1                	.insn	2, 0x00f1
    17d0:	0000                	.insn	2, 0x
    17d2:	00787203          	.insn	4, 0x00787203
    17d6:	0000a813          	slti	a6,ra,0
    17da:	0000                	.insn	2, 0x
    17dc:	00787403          	.insn	4, 0x00787403
    17e0:	a814                	.insn	2, 0xa814
    17e2:	0000                	.insn	2, 0x
    17e4:	0400                	.insn	2, 0x0400
    17e6:	d404                	.insn	2, 0xd404
    17e8:	0005                	.insn	2, 0x0005
    17ea:	1500                	.insn	2, 0x1500
    17ec:	00a8                	.insn	2, 0x00a8
    17ee:	0000                	.insn	2, 0x
    17f0:	0408                	.insn	2, 0x0408
    17f2:	05a0                	.insn	2, 0x05a0
    17f4:	0000                	.insn	2, 0x
    17f6:	a816                	.insn	2, 0xa816
    17f8:	0000                	.insn	2, 0x
    17fa:	0c00                	.insn	2, 0x0c00
    17fc:	0d00                	.insn	2, 0x0d00
    17fe:	05a9                	.insn	2, 0x05a9
    1800:	0000                	.insn	2, 0x
    1802:	0401                	.insn	2, 0x0401
    1804:	0311                	.insn	2, 0x0311
    1806:	0001                	.insn	2, 0x0001
    1808:	0500                	.insn	2, 0x0500
    180a:	00156403          	.insn	4, 0x00156403
    180e:	0e00                	.insn	2, 0x0e00
    1810:	b904                	.insn	2, 0xb904
    1812:	0000                	.insn	2, 0x
    1814:	0f00                	.insn	2, 0x0f00
    1816:	05c6                	.insn	2, 0x05c6
    1818:	0000                	.insn	2, 0x
    181a:	2501                	.insn	2, 0x2501
    181c:	9c0a                	.insn	2, 0x9c0a
    181e:	0000                	.insn	2, 0x
    1820:	a800                	.insn	2, 0xa800
    1822:	0014                	.insn	2, 0x0014
    1824:	1c00                	.insn	2, 0x1c00
    1826:	0000                	.insn	2, 0x
    1828:	0100                	.insn	2, 0x0100
    182a:	339c                	.insn	2, 0x339c
    182c:	0001                	.insn	2, 0x0001
    182e:	0500                	.insn	2, 0x0500
    1830:	016e                	.insn	2, 0x016e
    1832:	0000                	.insn	2, 0x
    1834:	14b0                	.insn	2, 0x14b0
    1836:	0000                	.insn	2, 0x
    1838:	0004                	.insn	2, 0x0004
    183a:	0000                	.insn	2, 0x
    183c:	06000b27          	.insn	4, 0x06000b27
    1840:	0545                	.insn	2, 0x0545
    1842:	0000                	.insn	2, 0x
    1844:	8c19                	.insn	2, 0x8c19
    1846:	0014                	.insn	2, 0x0014
    1848:	1c00                	.insn	2, 0x1c00
    184a:	0000                	.insn	2, 0x
    184c:	0100                	.insn	2, 0x0100
    184e:	649c                	.insn	2, 0x649c
    1850:	0001                	.insn	2, 0x0001
    1852:	1000                	.insn	2, 0x1000
    1854:	01006863          	bltu	zero,a6,1864 <global_uart+0x300>
    1858:	1d19                	.insn	2, 0x1d19
    185a:	0090                	.insn	2, 0x0090
    185c:	0000                	.insn	2, 0x
    185e:	5a01                	.insn	2, 0x5a01
    1860:	6405                	.insn	2, 0x6405
    1862:	0001                	.insn	2, 0x0001
    1864:	9400                	.insn	2, 0x9400
    1866:	0014                	.insn	2, 0x0014
    1868:	0800                	.insn	2, 0x0800
    186a:	0000                	.insn	2, 0x
    186c:	1b00                	.insn	2, 0x1b00
    186e:	000d                	.insn	2, 0x000d
    1870:	0005b507          	.insn	4, 0x0005b507
    1874:	1300                	.insn	2, 0x1300
    1876:	0090                	.insn	2, 0x0090
    1878:	0000                	.insn	2, 0x
    187a:	0005de07          	.insn	4, 0x0005de07
    187e:	0e00                	.insn	2, 0x0e00
    1880:	0090                	.insn	2, 0x0090
    1882:	0000                	.insn	2, 0x
    1884:	6c06                	.insn	2, 0x6c06
    1886:	0005                	.insn	2, 0x0005
    1888:	0600                	.insn	2, 0x0600
    188a:	1448                	.insn	2, 0x1448
    188c:	0000                	.insn	2, 0x
    188e:	0014                	.insn	2, 0x0014
    1890:	0000                	.insn	2, 0x
    1892:	9c01                	.insn	2, 0x9c01
    1894:	0000019b          	.insn	4, 0x019b
    1898:	9711                	.insn	2, 0x9711
    189a:	0005                	.insn	2, 0x0005
    189c:	0100                	.insn	2, 0x0100
    189e:	1906                	.insn	2, 0x1906
    18a0:	009c                	.insn	2, 0x009c
    18a2:	0000                	.insn	2, 0x
    18a4:	5a01                	.insn	2, 0x5a01
    18a6:	0800                	.insn	2, 0x0800
    18a8:	016e                	.insn	2, 0x016e
    18aa:	0000                	.insn	2, 0x
    18ac:	145c                	.insn	2, 0x145c
    18ae:	0000                	.insn	2, 0x
    18b0:	0018                	.insn	2, 0x0018
    18b2:	0000                	.insn	2, 0x
    18b4:	9c01                	.insn	2, 0x9c01
    18b6:	6408                	.insn	2, 0x6408
    18b8:	0001                	.insn	2, 0x0001
    18ba:	7400                	.insn	2, 0x7400
    18bc:	0014                	.insn	2, 0x0014
    18be:	1800                	.insn	2, 0x1800
    18c0:	0000                	.insn	2, 0x
    18c2:	0100                	.insn	2, 0x0100
    18c4:	009c                	.insn	2, 0x009c

Disassembly of section .debug_abbrev:

00000000 <.debug_abbrev>:
   0:	2401                	.insn	2, 0x2401
   2:	0b00                	.insn	2, 0x0b00
   4:	030b3e0b          	.insn	4, 0x030b3e0b
   8:	000e                	.insn	2, 0x000e
   a:	0200                	.insn	2, 0x0200
   c:	0034                	.insn	2, 0x0034
   e:	213a0e03          	lb	t3,531(s4)
  12:	3b01                	.insn	2, 0x3b01
  14:	490b390b          	.insn	4, 0x490b390b
  18:	00180213          	addi	tp,a6,1
  1c:	0300                	.insn	2, 0x0300
  1e:	0016                	.insn	2, 0x0016
  20:	0b3a0e03          	lb	t3,179(s4)
  24:	0b390b3b          	.insn	4, 0x0b390b3b
  28:	1349                	.insn	2, 0x1349
  2a:	0000                	.insn	2, 0x
  2c:	0f04                	.insn	2, 0x0f04
  2e:	0b00                	.insn	2, 0x0b00
  30:	0421                	.insn	2, 0x0421
  32:	1349                	.insn	2, 0x1349
  34:	0000                	.insn	2, 0x
  36:	3505                	.insn	2, 0x3505
  38:	4900                	.insn	2, 0x4900
  3a:	06000013          	li	zero,96
  3e:	0034                	.insn	2, 0x0034
  40:	0b3a0e03          	lb	t3,179(s4)
  44:	21390b3b          	.insn	4, 0x21390b3b
  48:	4920                	.insn	2, 0x4920
  4a:	3c193f13          	sltiu	t5,s2,961
  4e:	0019                	.insn	2, 0x0019
  50:	0700                	.insn	2, 0x0700
  52:	002e                	.insn	2, 0x002e
  54:	0e03193f 3b01213a 	.insn	8, 0x3b01213a0e03193f
  5c:	0621390b          	.insn	4, 0x0621390b
  60:	01111927          	.insn	4, 0x01111927
  64:	0612                	.insn	2, 0x0612
  66:	1840                	.insn	2, 0x1840
  68:	197a                	.insn	2, 0x197a
  6a:	0000                	.insn	2, 0x
  6c:	0508                	.insn	2, 0x0508
  6e:	0300                	.insn	2, 0x0300
  70:	3a0e                	.insn	2, 0x3a0e
  72:	0121                	.insn	2, 0x0121
  74:	390b213b          	.insn	4, 0x390b213b
  78:	0213490b          	.insn	4, 0x0213490b
  7c:	0018                	.insn	2, 0x0018
  7e:	0900                	.insn	2, 0x0900
  80:	0111                	.insn	2, 0x0111
  82:	0e25                	.insn	2, 0x0e25
  84:	1f030b13          	addi	s6,t1,496
  88:	01111f1b          	.insn	4, 0x01111f1b
  8c:	0612                	.insn	2, 0x0612
  8e:	1710                	.insn	2, 0x1710
  90:	0000                	.insn	2, 0x
  92:	240a                	.insn	2, 0x240a
  94:	0b00                	.insn	2, 0x0b00
  96:	030b3e0b          	.insn	4, 0x030b3e0b
  9a:	0008                	.insn	2, 0x0008
  9c:	0b00                	.insn	2, 0x0b00
  9e:	0026                	.insn	2, 0x0026
  a0:	1349                	.insn	2, 0x1349
  a2:	0000                	.insn	2, 0x
  a4:	2e0c                	.insn	2, 0x2e0c
  a6:	3f01                	.insn	2, 0x3f01
  a8:	0319                	.insn	2, 0x0319
  aa:	3a0e                	.insn	2, 0x3a0e
  ac:	390b3b0b          	.insn	4, 0x390b3b0b
  b0:	01193c0b          	.insn	4, 0x01193c0b
  b4:	0d000013          	li	zero,208
  b8:	0018                	.insn	2, 0x0018
  ba:	0000                	.insn	2, 0x
  bc:	2e0e                	.insn	2, 0x2e0e
  be:	3f01                	.insn	2, 0x3f01
  c0:	0319                	.insn	2, 0x0319
  c2:	3a0e                	.insn	2, 0x3a0e
  c4:	390b3b0b          	.insn	4, 0x390b3b0b
  c8:	1119270b          	.insn	4, 0x1119270b
  cc:	1201                	.insn	2, 0x1201
  ce:	4006                	.insn	2, 0x4006
  d0:	7c18                	.insn	2, 0x7c18
  d2:	0119                	.insn	2, 0x0119
  d4:	0f000013          	li	zero,240
  d8:	012e                	.insn	2, 0x012e
  da:	0e03193f 0b3b0b3a 	.insn	8, 0x0b3b0b3a0e03193f
  e2:	0b39                	.insn	2, 0x0b39
  e4:	13491927          	.insn	4, 0x13491927
  e8:	0111                	.insn	2, 0x0111
  ea:	0612                	.insn	2, 0x0612
  ec:	1840                	.insn	2, 0x1840
  ee:	197a                	.insn	2, 0x197a
  f0:	1301                	.insn	2, 0x1301
  f2:	0000                	.insn	2, 0x
  f4:	1510                	.insn	2, 0x1510
  f6:	2700                	.insn	2, 0x2700
  f8:	0019                	.insn	2, 0x0019
  fa:	0000                	.insn	2, 0x
  fc:	2401                	.insn	2, 0x2401
  fe:	0b00                	.insn	2, 0x0b00
 100:	030b3e0b          	.insn	4, 0x030b3e0b
 104:	000e                	.insn	2, 0x000e
 106:	0200                	.insn	2, 0x0200
 108:	0018                	.insn	2, 0x0018
 10a:	0000                	.insn	2, 0x
 10c:	3f012e03          	lw	t3,1008(sp)
 110:	0319                	.insn	2, 0x0319
 112:	3a0e                	.insn	2, 0x3a0e
 114:	390b3b0b          	.insn	4, 0x390b3b0b
 118:	0621                	.insn	2, 0x0621
 11a:	193c                	.insn	2, 0x193c
 11c:	1301                	.insn	2, 0x1301
 11e:	0000                	.insn	2, 0x
 120:	0504                	.insn	2, 0x0504
 122:	4900                	.insn	2, 0x4900
 124:	05000013          	li	zero,80
 128:	002e                	.insn	2, 0x002e
 12a:	0e03193f 3b07213a 	.insn	8, 0x3b07213a0e03193f
 132:	0621390b          	.insn	4, 0x0621390b
 136:	193c1927          	.insn	4, 0x193c1927
 13a:	0000                	.insn	2, 0x
 13c:	1606                	.insn	2, 0x1606
 13e:	0300                	.insn	2, 0x0300
 140:	3a0e                	.insn	2, 0x3a0e
 142:	390b3b0b          	.insn	4, 0x390b3b0b
 146:	0013490b          	.insn	4, 0x0013490b
 14a:	0700                	.insn	2, 0x0700
 14c:	012e                	.insn	2, 0x012e
 14e:	0e03193f 0b3b0b3a 	.insn	8, 0x0b3b0b3a0e03193f
 156:	2139                	.insn	2, 0x2139
 158:	2705                	.insn	2, 0x2705
 15a:	4919                	.insn	2, 0x4919
 15c:	01193c13          	sltiu	s8,s2,17
 160:	08000013          	li	zero,128
 164:	210b000f          	.insn	4, 0x210b000f
 168:	4904                	.insn	2, 0x4904
 16a:	09000013          	li	zero,144
 16e:	0111                	.insn	2, 0x0111
 170:	0e25                	.insn	2, 0x0e25
 172:	1f030b13          	addi	s6,t1,496
 176:	01111f1b          	.insn	4, 0x01111f1b
 17a:	0612                	.insn	2, 0x0612
 17c:	1710                	.insn	2, 0x1710
 17e:	0000                	.insn	2, 0x
 180:	240a                	.insn	2, 0x240a
 182:	0b00                	.insn	2, 0x0b00
 184:	030b3e0b          	.insn	4, 0x030b3e0b
 188:	0008                	.insn	2, 0x0008
 18a:	0b00                	.insn	2, 0x0b00
 18c:	0026                	.insn	2, 0x0026
 18e:	1349                	.insn	2, 0x1349
 190:	0000                	.insn	2, 0x
 192:	150c                	.insn	2, 0x150c
 194:	2700                	.insn	2, 0x2700
 196:	0019                	.insn	2, 0x0019
 198:	0d00                	.insn	2, 0x0d00
 19a:	002e                	.insn	2, 0x002e
 19c:	0e03193f 0b3b0b3a 	.insn	8, 0x0b3b0b3a0e03193f
 1a4:	0b39                	.insn	2, 0x0b39
 1a6:	1349                	.insn	2, 0x1349
 1a8:	0111                	.insn	2, 0x0111
 1aa:	0612                	.insn	2, 0x0612
 1ac:	1840                	.insn	2, 0x1840
 1ae:	197c                	.insn	2, 0x197c
 1b0:	0000                	.insn	2, 0x
 1b2:	0100                	.insn	2, 0x0100
 1b4:	0024                	.insn	2, 0x0024
 1b6:	0b3e0b0b          	.insn	4, 0x0b3e0b0b
 1ba:	00000e03          	lb	t3,0(zero) # 0 <_vector_table_start>
 1be:	1602                	.insn	2, 0x1602
 1c0:	0300                	.insn	2, 0x0300
 1c2:	3a0e                	.insn	2, 0x3a0e
 1c4:	390b3b0b          	.insn	4, 0x390b3b0b
 1c8:	0013490b          	.insn	4, 0x0013490b
 1cc:	0300                	.insn	2, 0x0300
 1ce:	0034                	.insn	2, 0x0034
 1d0:	213a0e03          	lb	t3,531(s4)
 1d4:	3b01                	.insn	2, 0x3b01
 1d6:	1021390b          	.insn	4, 0x1021390b
 1da:	1349                	.insn	2, 0x1349
 1dc:	1802                	.insn	2, 0x1802
 1de:	0000                	.insn	2, 0x
 1e0:	1104                	.insn	2, 0x1104
 1e2:	2501                	.insn	2, 0x2501
 1e4:	130e                	.insn	2, 0x130e
 1e6:	1b1f030b          	.insn	4, 0x1b1f030b
 1ea:	111f 1201 1006      	.insn	6, 0x10061201111f
 1f0:	05000017          	auipc	zero,0x5000
 1f4:	0024                	.insn	2, 0x0024
 1f6:	0b3e0b0b          	.insn	4, 0x0b3e0b0b
 1fa:	00000803          	lb	a6,0(zero) # 0 <_vector_table_start>
 1fe:	2606                	.insn	2, 0x2606
 200:	4900                	.insn	2, 0x4900
 202:	07000013          	li	zero,112
 206:	0035                	.insn	2, 0x0035
 208:	1349                	.insn	2, 0x1349
 20a:	0000                	.insn	2, 0x
 20c:	3408                	.insn	2, 0x3408
 20e:	0300                	.insn	2, 0x0300
 210:	3a0e                	.insn	2, 0x3a0e
 212:	390b3b0b          	.insn	4, 0x390b3b0b
 216:	3f13490b          	.insn	4, 0x3f13490b
 21a:	3c19                	.insn	2, 0x3c19
 21c:	0019                	.insn	2, 0x0019
 21e:	0900                	.insn	2, 0x0900
 220:	012e                	.insn	2, 0x012e
 222:	0e03193f 0b3b0b3a 	.insn	8, 0x0b3b0b3a0e03193f
 22a:	0b39                	.insn	2, 0x0b39
 22c:	0111                	.insn	2, 0x0111
 22e:	0612                	.insn	2, 0x0612
 230:	1840                	.insn	2, 0x1840
 232:	197a                	.insn	2, 0x197a
 234:	1301                	.insn	2, 0x1301
 236:	0000                	.insn	2, 0x
 238:	0f0a                	.insn	2, 0x0f0a
 23a:	0b00                	.insn	2, 0x0b00
 23c:	0013490b          	.insn	4, 0x0013490b
 240:	0b00                	.insn	2, 0x0b00
 242:	012e                	.insn	2, 0x012e
 244:	0e03193f 0b3b0b3a 	.insn	8, 0x0b3b0b3a0e03193f
 24c:	0b39                	.insn	2, 0x0b39
 24e:	0111                	.insn	2, 0x0111
 250:	0612                	.insn	2, 0x0612
 252:	1840                	.insn	2, 0x1840
 254:	197a                	.insn	2, 0x197a
 256:	0000                	.insn	2, 0x
 258:	0b0c                	.insn	2, 0x0b0c
 25a:	1101                	.insn	2, 0x1101
 25c:	1201                	.insn	2, 0x1201
 25e:	0006                	.insn	2, 0x0006
 260:	0d00                	.insn	2, 0x0d00
 262:	0034                	.insn	2, 0x0034
 264:	0b3a0803          	lb	a6,179(s4)
 268:	0b390b3b          	.insn	4, 0x0b390b3b
 26c:	1349                	.insn	2, 0x1349
 26e:	1802                	.insn	2, 0x1802
 270:	0000                	.insn	2, 0x
 272:	0100                	.insn	2, 0x0100
 274:	0024                	.insn	2, 0x0024
 276:	0b3e0b0b          	.insn	4, 0x0b3e0b0b
 27a:	00000e03          	lb	t3,0(zero) # 0 <_vector_table_start>
 27e:	1602                	.insn	2, 0x1602
 280:	0300                	.insn	2, 0x0300
 282:	3a0e                	.insn	2, 0x3a0e
 284:	390b3b0b          	.insn	4, 0x390b3b0b
 288:	0013490b          	.insn	4, 0x0013490b
 28c:	0300                	.insn	2, 0x0300
 28e:	0111                	.insn	2, 0x0111
 290:	0e25                	.insn	2, 0x0e25
 292:	1f030b13          	addi	s6,t1,496
 296:	01111f1b          	.insn	4, 0x01111f1b
 29a:	0612                	.insn	2, 0x0612
 29c:	1710                	.insn	2, 0x1710
 29e:	0000                	.insn	2, 0x
 2a0:	2404                	.insn	2, 0x2404
 2a2:	0b00                	.insn	2, 0x0b00
 2a4:	030b3e0b          	.insn	4, 0x030b3e0b
 2a8:	0008                	.insn	2, 0x0008
 2aa:	0500                	.insn	2, 0x0500
 2ac:	0035                	.insn	2, 0x0035
 2ae:	1349                	.insn	2, 0x1349
 2b0:	0000                	.insn	2, 0x
 2b2:	2606                	.insn	2, 0x2606
 2b4:	4900                	.insn	2, 0x4900
 2b6:	07000013          	li	zero,112
 2ba:	0034                	.insn	2, 0x0034
 2bc:	0b3a0e03          	lb	t3,179(s4)
 2c0:	0b390b3b          	.insn	4, 0x0b390b3b
 2c4:	1349                	.insn	2, 0x1349
 2c6:	193c193f 2e080000 	.insn	8, 0x2e080000193c193f
 2ce:	3f01                	.insn	2, 0x3f01
 2d0:	0319                	.insn	2, 0x0319
 2d2:	3a0e                	.insn	2, 0x3a0e
 2d4:	390b3b0b          	.insn	4, 0x390b3b0b
 2d8:	3c19270b          	.insn	4, 0x3c19270b
 2dc:	0119                	.insn	2, 0x0119
 2de:	09000013          	li	zero,144
 2e2:	0005                	.insn	2, 0x0005
 2e4:	1349                	.insn	2, 0x1349
 2e6:	0000                	.insn	2, 0x
 2e8:	2e0a                	.insn	2, 0x2e0a
 2ea:	3f01                	.insn	2, 0x3f01
 2ec:	0319                	.insn	2, 0x0319
 2ee:	3a0e                	.insn	2, 0x3a0e
 2f0:	390b3b0b          	.insn	4, 0x390b3b0b
 2f4:	1201110b          	.insn	4, 0x1201110b
 2f8:	4006                	.insn	2, 0x4006
 2fa:	7c18                	.insn	2, 0x7c18
 2fc:	0119                	.insn	2, 0x0119
 2fe:	0b000013          	li	zero,176
 302:	0034                	.insn	2, 0x0034
 304:	0b3a0e03          	lb	t3,179(s4)
 308:	0b390b3b          	.insn	4, 0x0b390b3b
 30c:	1349                	.insn	2, 0x1349
 30e:	1802                	.insn	2, 0x1802
 310:	0000                	.insn	2, 0x
 312:	0f0c                	.insn	2, 0x0f0c
 314:	0b00                	.insn	2, 0x0b00
 316:	0013490b          	.insn	4, 0x0013490b
 31a:	0000                	.insn	2, 0x
 31c:	2401                	.insn	2, 0x2401
 31e:	0b00                	.insn	2, 0x0b00
 320:	030b3e0b          	.insn	4, 0x030b3e0b
 324:	000e                	.insn	2, 0x000e
 326:	0200                	.insn	2, 0x0200
 328:	0034                	.insn	2, 0x0034
 32a:	213a0e03          	lb	t3,531(s4)
 32e:	3b01                	.insn	2, 0x3b01
 330:	1021390b          	.insn	4, 0x1021390b
 334:	1349                	.insn	2, 0x1349
 336:	1802                	.insn	2, 0x1802
 338:	0000                	.insn	2, 0x
 33a:	03001603          	lh	a2,48(zero) # 30 <_vector_table_start+0x30>
 33e:	3a0e                	.insn	2, 0x3a0e
 340:	390b3b0b          	.insn	4, 0x390b3b0b
 344:	0013490b          	.insn	4, 0x0013490b
 348:	0400                	.insn	2, 0x0400
 34a:	0034                	.insn	2, 0x0034
 34c:	213a0e03          	lb	t3,531(s4)
 350:	3b04                	.insn	2, 0x3b04
 352:	2021390b          	.insn	4, 0x2021390b
 356:	1349                	.insn	2, 0x1349
 358:	193c193f 2e050000 	.insn	8, 0x2e050000193c193f
 360:	3f01                	.insn	2, 0x3f01
 362:	0319                	.insn	2, 0x0319
 364:	3a0e                	.insn	2, 0x3a0e
 366:	0121                	.insn	2, 0x0121
 368:	21390b3b          	.insn	4, 0x21390b3b
 36c:	1106                	.insn	2, 0x1106
 36e:	1201                	.insn	2, 0x1201
 370:	4006                	.insn	2, 0x4006
 372:	7a18                	.insn	2, 0x7a18
 374:	0119                	.insn	2, 0x0119
 376:	06000013          	li	zero,96
 37a:	0111                	.insn	2, 0x0111
 37c:	0e25                	.insn	2, 0x0e25
 37e:	1f030b13          	addi	s6,t1,496
 382:	01111f1b          	.insn	4, 0x01111f1b
 386:	0612                	.insn	2, 0x0612
 388:	1710                	.insn	2, 0x1710
 38a:	0000                	.insn	2, 0x
 38c:	0b002407          	.insn	4, 0x0b002407
 390:	030b3e0b          	.insn	4, 0x030b3e0b
 394:	0008                	.insn	2, 0x0008
 396:	0800                	.insn	2, 0x0800
 398:	0026                	.insn	2, 0x0026
 39a:	1349                	.insn	2, 0x1349
 39c:	0000                	.insn	2, 0x
 39e:	3509                	.insn	2, 0x3509
 3a0:	4900                	.insn	2, 0x4900
 3a2:	0a000013          	li	zero,160
 3a6:	0b0b000f          	.insn	4, 0x0b0b000f
 3aa:	1349                	.insn	2, 0x1349
 3ac:	0000                	.insn	2, 0x
 3ae:	3f012e0b          	.insn	4, 0x3f012e0b
 3b2:	0319                	.insn	2, 0x0319
 3b4:	3a0e                	.insn	2, 0x3a0e
 3b6:	390b3b0b          	.insn	4, 0x390b3b0b
 3ba:	1201110b          	.insn	4, 0x1201110b
 3be:	4006                	.insn	2, 0x4006
 3c0:	7a18                	.insn	2, 0x7a18
 3c2:	0019                	.insn	2, 0x0019
 3c4:	0000                	.insn	2, 0x
 3c6:	2401                	.insn	2, 0x2401
 3c8:	0b00                	.insn	2, 0x0b00
 3ca:	030b3e0b          	.insn	4, 0x030b3e0b
 3ce:	000e                	.insn	2, 0x000e
 3d0:	0200                	.insn	2, 0x0200
 3d2:	0034                	.insn	2, 0x0034
 3d4:	213a0e03          	lb	t3,531(s4)
 3d8:	3b01                	.insn	2, 0x3b01
 3da:	1021390b          	.insn	4, 0x1021390b
 3de:	1349                	.insn	2, 0x1349
 3e0:	1802                	.insn	2, 0x1802
 3e2:	0000                	.insn	2, 0x
 3e4:	03001603          	lh	a2,48(zero) # 30 <_vector_table_start+0x30>
 3e8:	3a0e                	.insn	2, 0x3a0e
 3ea:	390b3b0b          	.insn	4, 0x390b3b0b
 3ee:	0013490b          	.insn	4, 0x0013490b
 3f2:	0400                	.insn	2, 0x0400
 3f4:	0026                	.insn	2, 0x0026
 3f6:	1349                	.insn	2, 0x1349
 3f8:	0000                	.insn	2, 0x
 3fa:	0f05                	.insn	2, 0x0f05
 3fc:	0b00                	.insn	2, 0x0b00
 3fe:	0421                	.insn	2, 0x0421
 400:	1349                	.insn	2, 0x1349
 402:	0000                	.insn	2, 0x
 404:	2e06                	.insn	2, 0x2e06
 406:	3f01                	.insn	2, 0x3f01
 408:	0319                	.insn	2, 0x0319
 40a:	3a0e                	.insn	2, 0x3a0e
 40c:	0121                	.insn	2, 0x0121
 40e:	21390b3b          	.insn	4, 0x21390b3b
 412:	1106                	.insn	2, 0x1106
 414:	1201                	.insn	2, 0x1201
 416:	4006                	.insn	2, 0x4006
 418:	7a18                	.insn	2, 0x7a18
 41a:	0119                	.insn	2, 0x0119
 41c:	07000013          	li	zero,112
 420:	0111                	.insn	2, 0x0111
 422:	0e25                	.insn	2, 0x0e25
 424:	1f030b13          	addi	s6,t1,496
 428:	01111f1b          	.insn	4, 0x01111f1b
 42c:	0612                	.insn	2, 0x0612
 42e:	1710                	.insn	2, 0x1710
 430:	0000                	.insn	2, 0x
 432:	2408                	.insn	2, 0x2408
 434:	0b00                	.insn	2, 0x0b00
 436:	030b3e0b          	.insn	4, 0x030b3e0b
 43a:	0008                	.insn	2, 0x0008
 43c:	0900                	.insn	2, 0x0900
 43e:	0035                	.insn	2, 0x0035
 440:	1349                	.insn	2, 0x1349
 442:	0000                	.insn	2, 0x
 444:	340a                	.insn	2, 0x340a
 446:	0300                	.insn	2, 0x0300
 448:	3a0e                	.insn	2, 0x3a0e
 44a:	390b3b0b          	.insn	4, 0x390b3b0b
 44e:	3f13490b          	.insn	4, 0x3f13490b
 452:	3c19                	.insn	2, 0x3c19
 454:	0019                	.insn	2, 0x0019
 456:	0b00                	.insn	2, 0x0b00
 458:	012e                	.insn	2, 0x012e
 45a:	0e03193f 0b3b0b3a 	.insn	8, 0x0b3b0b3a0e03193f
 462:	0b39                	.insn	2, 0x0b39
 464:	13491927          	.insn	4, 0x13491927
 468:	193c                	.insn	2, 0x193c
 46a:	1301                	.insn	2, 0x1301
 46c:	0000                	.insn	2, 0x
 46e:	050c                	.insn	2, 0x050c
 470:	4900                	.insn	2, 0x4900
 472:	0d000013          	li	zero,208
 476:	0018                	.insn	2, 0x0018
 478:	0000                	.insn	2, 0x
 47a:	2e0e                	.insn	2, 0x2e0e
 47c:	3f01                	.insn	2, 0x3f01
 47e:	0319                	.insn	2, 0x0319
 480:	3a0e                	.insn	2, 0x3a0e
 482:	390b3b0b          	.insn	4, 0x390b3b0b
 486:	1201110b          	.insn	4, 0x1201110b
 48a:	4006                	.insn	2, 0x4006
 48c:	7c18                	.insn	2, 0x7c18
 48e:	0119                	.insn	2, 0x0119
 490:	0f000013          	li	zero,240
 494:	012e                	.insn	2, 0x012e
 496:	0e03193f 0b3b0b3a 	.insn	8, 0x0b3b0b3a0e03193f
 49e:	0b39                	.insn	2, 0x0b39
 4a0:	0111                	.insn	2, 0x0111
 4a2:	0612                	.insn	2, 0x0612
 4a4:	1840                	.insn	2, 0x1840
 4a6:	197a                	.insn	2, 0x197a
 4a8:	0000                	.insn	2, 0x
 4aa:	0100                	.insn	2, 0x0100
 4ac:	0011                	.insn	2, 0x0011
 4ae:	1710                	.insn	2, 0x1710
 4b0:	1755                	.insn	2, 0x1755
 4b2:	0e1b0e03          	lb	t3,225(s6)
 4b6:	0e25                	.insn	2, 0x0e25
 4b8:	00000513          	li	a0,0
 4bc:	0100                	.insn	2, 0x0100
 4be:	0049                	.insn	2, 0x0049
 4c0:	1802                	.insn	2, 0x1802
 4c2:	187e                	.insn	2, 0x187e
 4c4:	0000                	.insn	2, 0x
 4c6:	0502                	.insn	2, 0x0502
 4c8:	3100                	.insn	2, 0x3100
 4ca:	00170213          	addi	tp,a4,1
 4ce:	0300                	.insn	2, 0x0300
 4d0:	0005                	.insn	2, 0x0005
 4d2:	213a0e03          	lb	t3,531(s4)
 4d6:	3b01                	.insn	2, 0x3b01
 4d8:	3905                	.insn	2, 0x3905
 4da:	0213490b          	.insn	4, 0x0213490b
 4de:	04000017          	auipc	zero,0x4000
 4e2:	0005                	.insn	2, 0x0005
 4e4:	213a0e03          	lb	t3,531(s4)
 4e8:	3b01                	.insn	2, 0x3b01
 4ea:	490b390b          	.insn	4, 0x490b390b
 4ee:	05000013          	li	zero,80
 4f2:	0024                	.insn	2, 0x0024
 4f4:	0b3e0b0b          	.insn	4, 0x0b3e0b0b
 4f8:	00000e03          	lb	t3,0(zero) # 0 <_vector_table_start>
 4fc:	0506                	.insn	2, 0x0506
 4fe:	0300                	.insn	2, 0x0300
 500:	3a08                	.insn	2, 0x3a08
 502:	0121                	.insn	2, 0x0121
 504:	0b390b3b          	.insn	4, 0x0b390b3b
 508:	1349                	.insn	2, 0x1349
 50a:	0000                	.insn	2, 0x
 50c:	03001607          	.insn	4, 0x03001607
 510:	3a0e                	.insn	2, 0x3a0e
 512:	390b3b0b          	.insn	4, 0x390b3b0b
 516:	0013490b          	.insn	4, 0x0013490b
 51a:	0800                	.insn	2, 0x0800
 51c:	0034                	.insn	2, 0x0034
 51e:	213a0803          	lb	a6,531(s4)
 522:	3b01                	.insn	2, 0x3b01
 524:	3905                	.insn	2, 0x3905
 526:	0213490b          	.insn	4, 0x0213490b
 52a:	0018                	.insn	2, 0x0018
 52c:	0900                	.insn	2, 0x0900
 52e:	0148                	.insn	2, 0x0148
 530:	017d                	.insn	2, 0x017d
 532:	1301                	.insn	2, 0x1301
 534:	0000                	.insn	2, 0x
 536:	050a                	.insn	2, 0x050a
 538:	3100                	.insn	2, 0x3100
 53a:	0b000013          	li	zero,176
 53e:	0005                	.insn	2, 0x0005
 540:	213a0803          	lb	a6,531(s4)
 544:	3b01                	.insn	2, 0x3b01
 546:	3905                	.insn	2, 0x3905
 548:	0213490b          	.insn	4, 0x0213490b
 54c:	0c000017          	auipc	zero,0xc000
 550:	1755010b          	.insn	4, 0x1755010b
 554:	1301                	.insn	2, 0x1301
 556:	0000                	.insn	2, 0x
 558:	050d                	.insn	2, 0x050d
 55a:	4900                	.insn	2, 0x4900
 55c:	0e000013          	li	zero,224
 560:	0148                	.insn	2, 0x0148
 562:	017d                	.insn	2, 0x017d
 564:	0000137f 0300340f 	.insn	12, 0x01213a0e0300340f0000137f
 56c:	01213a0e 
 570:	0b39053b          	.insn	4, 0x0b39053b
 574:	1349                	.insn	2, 0x1349
 576:	1702                	.insn	2, 0x1702
 578:	0000                	.insn	2, 0x
 57a:	2610                	.insn	2, 0x2610
 57c:	4900                	.insn	2, 0x4900
 57e:	11000013          	li	zero,272
 582:	012e                	.insn	2, 0x012e
 584:	0e03193f 3b01213a 	.insn	8, 0x3b01213a0e03193f
 58c:	3905                	.insn	2, 0x3905
 58e:	0521                	.insn	2, 0x0521
 590:	13491927          	.insn	4, 0x13491927
 594:	0111                	.insn	2, 0x0111
 596:	0612                	.insn	2, 0x0612
 598:	1840                	.insn	2, 0x1840
 59a:	197a                	.insn	2, 0x197a
 59c:	1301                	.insn	2, 0x1301
 59e:	0000                	.insn	2, 0x
 5a0:	3412                	.insn	2, 0x3412
 5a2:	0300                	.insn	2, 0x0300
 5a4:	3a08                	.insn	2, 0x3a08
 5a6:	0121                	.insn	2, 0x0121
 5a8:	0b39053b          	.insn	4, 0x0b39053b
 5ac:	1349                	.insn	2, 0x1349
 5ae:	1702                	.insn	2, 0x1702
 5b0:	0000                	.insn	2, 0x
 5b2:	0b000f13          	li	t5,176
 5b6:	0421                	.insn	2, 0x0421
 5b8:	1349                	.insn	2, 0x1349
 5ba:	0000                	.insn	2, 0x
 5bc:	4814                	.insn	2, 0x4814
 5be:	7d01                	.insn	2, 0x7d01
 5c0:	0001                	.insn	2, 0x0001
 5c2:	1500                	.insn	2, 0x1500
 5c4:	0034                	.insn	2, 0x0034
 5c6:	1331                	.insn	2, 0x1331
 5c8:	1702                	.insn	2, 0x1702
 5ca:	0000                	.insn	2, 0x
 5cc:	2e16                	.insn	2, 0x2e16
 5ce:	0301                	.insn	2, 0x0301
 5d0:	3a0e                	.insn	2, 0x3a0e
 5d2:	0121                	.insn	2, 0x0121
 5d4:	0b390b3b          	.insn	4, 0x0b390b3b
 5d8:	13491927          	.insn	4, 0x13491927
 5dc:	0b20                	.insn	2, 0x0b20
 5de:	1301                	.insn	2, 0x1301
 5e0:	0000                	.insn	2, 0x
 5e2:	03000517          	auipc	a0,0x3000
 5e6:	3a0e                	.insn	2, 0x3a0e
 5e8:	0121                	.insn	2, 0x0121
 5ea:	0b390b3b          	.insn	4, 0x0b390b3b
 5ee:	1349                	.insn	2, 0x1349
 5f0:	1802                	.insn	2, 0x1802
 5f2:	0000                	.insn	2, 0x
 5f4:	1818                	.insn	2, 0x1818
 5f6:	0000                	.insn	2, 0x
 5f8:	1900                	.insn	2, 0x1900
 5fa:	0034                	.insn	2, 0x0034
 5fc:	213a0e03          	lb	t3,531(s4)
 600:	3b01                	.insn	2, 0x3b01
 602:	3905                	.insn	2, 0x3905
 604:	0213490b          	.insn	4, 0x0213490b
 608:	0018                	.insn	2, 0x0018
 60a:	1a00                	.insn	2, 0x1a00
 60c:	0005                	.insn	2, 0x0005
 60e:	213a0e03          	lb	t3,531(s4)
 612:	3b01                	.insn	2, 0x3b01
 614:	490b390b          	.insn	4, 0x490b390b
 618:	00170213          	addi	tp,a4,1
 61c:	1b00                	.insn	2, 0x1b00
 61e:	1755010b          	.insn	4, 0x1755010b
 622:	0000                	.insn	2, 0x
 624:	1d1c                	.insn	2, 0x1d1c
 626:	3101                	.insn	2, 0x3101
 628:	12011113          	.insn	4, 0x12011113
 62c:	5806                	.insn	2, 0x5806
 62e:	0121                	.insn	2, 0x0121
 630:	0559                	.insn	2, 0x0559
 632:	13010b57          	.insn	4, 0x13010b57
 636:	0000                	.insn	2, 0x
 638:	1d1d                	.insn	2, 0x1d1d
 63a:	3101                	.insn	2, 0x3101
 63c:	12011113          	.insn	4, 0x12011113
 640:	5806                	.insn	2, 0x5806
 642:	0121                	.insn	2, 0x0121
 644:	0b59                	.insn	2, 0x0b59
 646:	00000b57          	.insn	4, 0x0b57
 64a:	341e                	.insn	2, 0x341e
 64c:	0300                	.insn	2, 0x0300
 64e:	3a08                	.insn	2, 0x3a08
 650:	0121                	.insn	2, 0x0121
 652:	0b390b3b          	.insn	4, 0x0b390b3b
 656:	1349                	.insn	2, 0x1349
 658:	0000                	.insn	2, 0x
 65a:	2e1f 0301 3a0e      	.insn	6, 0x3a0e03012e1f
 660:	0121                	.insn	2, 0x0121
 662:	21390b3b          	.insn	4, 0x21390b3b
 666:	2714                	.insn	2, 0x2714
 668:	1119                	.insn	2, 0x1119
 66a:	1201                	.insn	2, 0x1201
 66c:	4006                	.insn	2, 0x4006
 66e:	7a18                	.insn	2, 0x7a18
 670:	0119                	.insn	2, 0x0119
 672:	20000013          	li	zero,512
 676:	0115                	.insn	2, 0x0115
 678:	13011927          	.insn	4, 0x13011927
 67c:	0000                	.insn	2, 0x
 67e:	0d21                	.insn	2, 0x0d21
 680:	0300                	.insn	2, 0x0300
 682:	3a08                	.insn	2, 0x3a08
 684:	0121                	.insn	2, 0x0121
 686:	0b390b3b          	.insn	4, 0x0b390b3b
 68a:	1349                	.insn	2, 0x1349
 68c:	0b38                	.insn	2, 0x0b38
 68e:	0000                	.insn	2, 0x
 690:	0122                	.insn	2, 0x0122
 692:	4901                	.insn	2, 0x4901
 694:	00130113          	addi	sp,t1,1
 698:	2300                	.insn	2, 0x2300
 69a:	0021                	.insn	2, 0x0021
 69c:	1349                	.insn	2, 0x1349
 69e:	00000b2f          	.insn	4, 0x0b2f
 6a2:	2e24                	.insn	2, 0x2e24
 6a4:	0301                	.insn	2, 0x0301
 6a6:	3a0e                	.insn	2, 0x3a0e
 6a8:	0121                	.insn	2, 0x0121
 6aa:	0b39053b          	.insn	4, 0x0b39053b
 6ae:	13491927          	.insn	4, 0x13491927
 6b2:	0111                	.insn	2, 0x0111
 6b4:	0612                	.insn	2, 0x0612
 6b6:	1840                	.insn	2, 0x1840
 6b8:	197a                	.insn	2, 0x197a
 6ba:	1301                	.insn	2, 0x1301
 6bc:	0000                	.insn	2, 0x
 6be:	1d25                	.insn	2, 0x1d25
 6c0:	3101                	.insn	2, 0x3101
 6c2:	55015213          	.insn	4, 0x55015213
 6c6:	01215817          	auipc	a6,0x1215
 6ca:	0559                	.insn	2, 0x0559
 6cc:	13010b57          	.insn	4, 0x13010b57
 6d0:	0000                	.insn	2, 0x
 6d2:	1d26                	.insn	2, 0x1d26
 6d4:	3101                	.insn	2, 0x3101
 6d6:	55015213          	.insn	4, 0x55015213
 6da:	01215817          	auipc	a6,0x1215
 6de:	0559                	.insn	2, 0x0559
 6e0:	000a2157          	.insn	4, 0x000a2157
 6e4:	2700                	.insn	2, 0x2700
 6e6:	0005                	.insn	2, 0x0005
 6e8:	213a0803          	lb	a6,531(s4)
 6ec:	3b01                	.insn	2, 0x3b01
 6ee:	490b390b          	.insn	4, 0x490b390b
 6f2:	00180213          	addi	tp,a6,1 # 12156db <_peripheral_HLS_CONTROL_end+0x11d56db>
 6f6:	2800                	.insn	2, 0x2800
 6f8:	0111                	.insn	2, 0x0111
 6fa:	0e25                	.insn	2, 0x0e25
 6fc:	1f030b13          	addi	s6,t1,496
 700:	01111f1b          	.insn	4, 0x01111f1b
 704:	0612                	.insn	2, 0x0612
 706:	1710                	.insn	2, 0x1710
 708:	0000                	.insn	2, 0x
 70a:	0f29                	.insn	2, 0x0f29
 70c:	0b00                	.insn	2, 0x0b00
 70e:	000e030b          	.insn	4, 0x000e030b
 712:	2a00                	.insn	2, 0x2a00
 714:	0024                	.insn	2, 0x0024
 716:	0b3e0b0b          	.insn	4, 0x0b3e0b0b
 71a:	00000803          	lb	a6,0(zero) # 0 <_vector_table_start>
 71e:	0b000f2b          	.insn	4, 0x0b000f2b
 722:	2c00000b          	.insn	4, 0x2c00000b
 726:	0b0b0113          	addi	sp,s6,176
 72a:	0b3a                	.insn	2, 0x0b3a
 72c:	0b390b3b          	.insn	4, 0x0b390b3b
 730:	1301                	.insn	2, 0x1301
 732:	0000                	.insn	2, 0x
 734:	2e2d                	.insn	2, 0x2e2d
 736:	3f01                	.insn	2, 0x3f01
 738:	0319                	.insn	2, 0x0319
 73a:	3a0e                	.insn	2, 0x3a0e
 73c:	390b3b0b          	.insn	4, 0x390b3b0b
 740:	3c19270b          	.insn	4, 0x3c19270b
 744:	0119                	.insn	2, 0x0119
 746:	2e000013          	li	zero,736
 74a:	0148                	.insn	2, 0x0148
 74c:	017d                	.insn	2, 0x017d
 74e:	0182                	.insn	2, 0x0182
 750:	7f19                	.insn	2, 0x7f19
 752:	2f000013          	li	zero,752
 756:	0034                	.insn	2, 0x0034
 758:	0b3a0803          	lb	a6,179(s4)
 75c:	0b39053b          	.insn	4, 0x0b39053b
 760:	1349                	.insn	2, 0x1349
 762:	0000                	.insn	2, 0x
 764:	3430                	.insn	2, 0x3430
 766:	0300                	.insn	2, 0x0300
 768:	3a0e                	.insn	2, 0x3a0e
 76a:	39053b0b          	.insn	4, 0x39053b0b
 76e:	0013490b          	.insn	4, 0x0013490b
 772:	3100                	.insn	2, 0x3100
 774:	011d                	.insn	2, 0x011d
 776:	1331                	.insn	2, 0x1331
 778:	0152                	.insn	2, 0x0152
 77a:	1755                	.insn	2, 0x1755
 77c:	0b58                	.insn	2, 0x0b58
 77e:	0b59                	.insn	2, 0x0b59
 780:	00000b57          	.insn	4, 0x0b57
 784:	4832                	.insn	2, 0x4832
 786:	7d01                	.insn	2, 0x7d01
 788:	7f01                	.insn	2, 0x7f01
 78a:	00130113          	addi	sp,t1,1
 78e:	3300                	.insn	2, 0x3300
 790:	1331010b          	.insn	4, 0x1331010b
 794:	1755                	.insn	2, 0x1755
 796:	1301                	.insn	2, 0x1301
 798:	0000                	.insn	2, 0x
 79a:	3434                	.insn	2, 0x3434
 79c:	0300                	.insn	2, 0x0300
 79e:	3a0e                	.insn	2, 0x3a0e
 7a0:	390b3b0b          	.insn	4, 0x390b3b0b
 7a4:	0013490b          	.insn	4, 0x0013490b
 7a8:	3500                	.insn	2, 0x3500
 7aa:	0000010b          	.insn	4, 0x010b
 7ae:	2e36                	.insn	2, 0x2e36
 7b0:	0301                	.insn	2, 0x0301
 7b2:	3a0e                	.insn	2, 0x3a0e
 7b4:	390b3b0b          	.insn	4, 0x390b3b0b
 7b8:	2019270b          	.insn	4, 0x2019270b
 7bc:	0013010b          	.insn	4, 0x0013010b
 7c0:	3700                	.insn	2, 0x3700
 7c2:	0005                	.insn	2, 0x0005
 7c4:	0b3a0803          	lb	a6,179(s4)
 7c8:	0b390b3b          	.insn	4, 0x0b390b3b
 7cc:	1349                	.insn	2, 0x1349
 7ce:	1702                	.insn	2, 0x1702
 7d0:	0000                	.insn	2, 0x
 7d2:	4838                	.insn	2, 0x4838
 7d4:	7d00                	.insn	2, 0x7d00
 7d6:	8201                	.insn	2, 0x8201
 7d8:	1901                	.insn	2, 0x1901
 7da:	0000137f 3f012e39 	.insn	12, 0x3a0e03193f012e390000137f
 7e2:	3a0e0319 
 7e6:	390b3b0b          	.insn	4, 0x390b3b0b
 7ea:	4919270b          	.insn	4, 0x4919270b
 7ee:	010b2013          	slti	zero,s6,16
 7f2:	3a000013          	li	zero,928
 7f6:	012e                	.insn	2, 0x012e
 7f8:	1331                	.insn	2, 0x1331
 7fa:	0111                	.insn	2, 0x0111
 7fc:	0612                	.insn	2, 0x0612
 7fe:	1840                	.insn	2, 0x1840
 800:	1301                	.insn	2, 0x1301
 802:	0000                	.insn	2, 0x
 804:	31012e3b          	.insn	4, 0x31012e3b
 808:	12011113          	.insn	4, 0x12011113
 80c:	4006                	.insn	2, 0x4006
 80e:	7a18                	.insn	2, 0x7a18
 810:	0019                	.insn	2, 0x0019
 812:	3c00                	.insn	2, 0x3c00
 814:	0048                	.insn	2, 0x0048
 816:	017d                	.insn	2, 0x017d
 818:	0000137f 00240100 	.insn	12, 0x0b3e0b0b002401000000137f
 820:	0b3e0b0b 
 824:	00000e03          	lb	t3,0(zero) # 0 <_vector_table_start>
 828:	1602                	.insn	2, 0x1602
 82a:	0300                	.insn	2, 0x0300
 82c:	3a0e                	.insn	2, 0x3a0e
 82e:	390b3b0b          	.insn	4, 0x390b3b0b
 832:	0013490b          	.insn	4, 0x0013490b
 836:	0300                	.insn	2, 0x0300
 838:	0111                	.insn	2, 0x0111
 83a:	0e25                	.insn	2, 0x0e25
 83c:	1f030b13          	addi	s6,t1,496
 840:	01111f1b          	.insn	4, 0x01111f1b
 844:	0612                	.insn	2, 0x0612
 846:	1710                	.insn	2, 0x1710
 848:	0000                	.insn	2, 0x
 84a:	2404                	.insn	2, 0x2404
 84c:	0b00                	.insn	2, 0x0b00
 84e:	030b3e0b          	.insn	4, 0x030b3e0b
 852:	0008                	.insn	2, 0x0008
 854:	0500                	.insn	2, 0x0500
 856:	012e                	.insn	2, 0x012e
 858:	0e03193f 0b3b0b3a 	.insn	8, 0x0b3b0b3a0e03193f
 860:	0b39                	.insn	2, 0x0b39
 862:	193c1927          	.insn	4, 0x193c1927
 866:	1301                	.insn	2, 0x1301
 868:	0000                	.insn	2, 0x
 86a:	0506                	.insn	2, 0x0506
 86c:	4900                	.insn	2, 0x4900
 86e:	07000013          	li	zero,112
 872:	012e                	.insn	2, 0x012e
 874:	0e03193f 0b3b0b3a 	.insn	8, 0x0b3b0b3a0e03193f
 87c:	0b39                	.insn	2, 0x0b39
 87e:	01111927          	.insn	4, 0x01111927
 882:	0612                	.insn	2, 0x0612
 884:	1840                	.insn	2, 0x1840
 886:	197a                	.insn	2, 0x197a
 888:	0000                	.insn	2, 0x
 88a:	0508                	.insn	2, 0x0508
 88c:	0300                	.insn	2, 0x0300
 88e:	3a0e                	.insn	2, 0x3a0e
 890:	390b3b0b          	.insn	4, 0x390b3b0b
 894:	0213490b          	.insn	4, 0x0213490b
 898:	09000017          	auipc	zero,0x9000
 89c:	0148                	.insn	2, 0x0148
 89e:	017d                	.insn	2, 0x017d
 8a0:	0182                	.insn	2, 0x0182
 8a2:	7f19                	.insn	2, 0x7f19
 8a4:	0a000013          	li	zero,160
 8a8:	0049                	.insn	2, 0x0049
 8aa:	1802                	.insn	2, 0x1802
 8ac:	187e                	.insn	2, 0x187e
 8ae:	0000                	.insn	2, 0x
 8b0:	0100                	.insn	2, 0x0100
 8b2:	0024                	.insn	2, 0x0024
 8b4:	0b3e0b0b          	.insn	4, 0x0b3e0b0b
 8b8:	00000e03          	lb	t3,0(zero) # 0 <_vector_table_start>
 8bc:	1602                	.insn	2, 0x1602
 8be:	0300                	.insn	2, 0x0300
 8c0:	3a0e                	.insn	2, 0x3a0e
 8c2:	390b3b0b          	.insn	4, 0x390b3b0b
 8c6:	0013490b          	.insn	4, 0x0013490b
 8ca:	0300                	.insn	2, 0x0300
 8cc:	000d                	.insn	2, 0x000d
 8ce:	213a0803          	lb	a6,531(s4)
 8d2:	3b04                	.insn	2, 0x3b04
 8d4:	1721390b          	.insn	4, 0x1721390b
 8d8:	1349                	.insn	2, 0x1349
 8da:	0b38                	.insn	2, 0x0b38
 8dc:	0000                	.insn	2, 0x
 8de:	0d04                	.insn	2, 0x0d04
 8e0:	0300                	.insn	2, 0x0300
 8e2:	3a0e                	.insn	2, 0x3a0e
 8e4:	0421                	.insn	2, 0x0421
 8e6:	21390b3b          	.insn	4, 0x21390b3b
 8ea:	38134917          	auipc	s2,0x38134
 8ee:	0500000b          	.insn	4, 0x0500000b
 8f2:	001d                	.insn	2, 0x001d
 8f4:	1331                	.insn	2, 0x1331
 8f6:	0111                	.insn	2, 0x0111
 8f8:	0612                	.insn	2, 0x0612
 8fa:	2158                	.insn	2, 0x2158
 8fc:	5901                	.insn	2, 0x5901
 8fe:	000b570b          	.insn	4, 0x000b570b
 902:	0600                	.insn	2, 0x0600
 904:	012e                	.insn	2, 0x012e
 906:	0e03193f 3b01213a 	.insn	8, 0x3b01213a0e03193f
 90e:	0621390b          	.insn	4, 0x0621390b
 912:	01111927          	.insn	4, 0x01111927
 916:	0612                	.insn	2, 0x0612
 918:	1840                	.insn	2, 0x1840
 91a:	197a                	.insn	2, 0x197a
 91c:	1301                	.insn	2, 0x1301
 91e:	0000                	.insn	2, 0x
 920:	3f002e07          	.insn	4, 0x3f002e07
 924:	0319                	.insn	2, 0x0319
 926:	3a0e                	.insn	2, 0x3a0e
 928:	0121                	.insn	2, 0x0121
 92a:	21390b3b          	.insn	4, 0x21390b3b
 92e:	2013492f          	.insn	4, 0x2013492f
 932:	0321                	.insn	2, 0x0321
 934:	0000                	.insn	2, 0x
 936:	2e08                	.insn	2, 0x2e08
 938:	3100                	.insn	2, 0x3100
 93a:	12011113          	.insn	4, 0x12011113
 93e:	4006                	.insn	2, 0x4006
 940:	7a18                	.insn	2, 0x7a18
 942:	0019                	.insn	2, 0x0019
 944:	0900                	.insn	2, 0x0900
 946:	0111                	.insn	2, 0x0111
 948:	0e25                	.insn	2, 0x0e25
 94a:	1f030b13          	addi	s6,t1,496
 94e:	01111f1b          	.insn	4, 0x01111f1b
 952:	0612                	.insn	2, 0x0612
 954:	1710                	.insn	2, 0x1710
 956:	0000                	.insn	2, 0x
 958:	240a                	.insn	2, 0x240a
 95a:	0b00                	.insn	2, 0x0b00
 95c:	030b3e0b          	.insn	4, 0x030b3e0b
 960:	0008                	.insn	2, 0x0008
 962:	0b00                	.insn	2, 0x0b00
 964:	0035                	.insn	2, 0x0035
 966:	1349                	.insn	2, 0x1349
 968:	0000                	.insn	2, 0x
 96a:	130c                	.insn	2, 0x130c
 96c:	0301                	.insn	2, 0x0301
 96e:	0b0e                	.insn	2, 0x0b0e
 970:	3b0b3a0b          	.insn	4, 0x3b0b3a0b
 974:	010b390b          	.insn	4, 0x010b390b
 978:	0d000013          	li	zero,208
 97c:	0034                	.insn	2, 0x0034
 97e:	0b3a0e03          	lb	t3,179(s4)
 982:	0b390b3b          	.insn	4, 0x0b390b3b
 986:	1349                	.insn	2, 0x1349
 988:	1802193f 0f0e0000 	.insn	8, 0x0f0e00001802193f
 990:	0b00                	.insn	2, 0x0b00
 992:	0013490b          	.insn	4, 0x0013490b
 996:	0f00                	.insn	2, 0x0f00
 998:	012e                	.insn	2, 0x012e
 99a:	0e03193f 0b3b0b3a 	.insn	8, 0x0b3b0b3a0e03193f
 9a2:	0b39                	.insn	2, 0x0b39
 9a4:	1349                	.insn	2, 0x1349
 9a6:	0111                	.insn	2, 0x0111
 9a8:	0612                	.insn	2, 0x0612
 9aa:	1840                	.insn	2, 0x1840
 9ac:	197a                	.insn	2, 0x197a
 9ae:	1301                	.insn	2, 0x1301
 9b0:	0000                	.insn	2, 0x
 9b2:	0510                	.insn	2, 0x0510
 9b4:	0300                	.insn	2, 0x0300
 9b6:	3a08                	.insn	2, 0x3a08
 9b8:	390b3b0b          	.insn	4, 0x390b3b0b
 9bc:	0213490b          	.insn	4, 0x0213490b
 9c0:	0018                	.insn	2, 0x0018
 9c2:	1100                	.insn	2, 0x1100
 9c4:	0005                	.insn	2, 0x0005
 9c6:	0b3a0e03          	lb	t3,179(s4)
 9ca:	0b390b3b          	.insn	4, 0x0b390b3b
 9ce:	1349                	.insn	2, 0x1349
 9d0:	1802                	.insn	2, 0x1802
 9d2:	0000                	.insn	2, 0x
	...

Disassembly of section .debug_aranges:

00000000 <.debug_aranges>:
   0:	001c                	.insn	2, 0x001c
   2:	0000                	.insn	2, 0x
   4:	0002                	.insn	2, 0x0002
   6:	0000                	.insn	2, 0x
   8:	0000                	.insn	2, 0x
   a:	0004                	.insn	2, 0x0004
   c:	0000                	.insn	2, 0x
   e:	0000                	.insn	2, 0x
  10:	0160                	.insn	2, 0x0160
  12:	0000                	.insn	2, 0x
  14:	018a                	.insn	2, 0x018a
	...
  1e:	0000                	.insn	2, 0x
  20:	001c                	.insn	2, 0x001c
  22:	0000                	.insn	2, 0x
  24:	0002                	.insn	2, 0x0002
  26:	01a2                	.insn	2, 0x01a2
  28:	0000                	.insn	2, 0x
  2a:	0004                	.insn	2, 0x0004
  2c:	0000                	.insn	2, 0x
  2e:	0000                	.insn	2, 0x
  30:	02ea                	.insn	2, 0x02ea
  32:	0000                	.insn	2, 0x
  34:	0038                	.insn	2, 0x0038
	...
  3e:	0000                	.insn	2, 0x
  40:	001c                	.insn	2, 0x001c
  42:	0000                	.insn	2, 0x
  44:	0002                	.insn	2, 0x0002
  46:	000002eb          	.insn	4, 0x02eb
  4a:	0004                	.insn	2, 0x0004
  4c:	0000                	.insn	2, 0x
  4e:	0000                	.insn	2, 0x
  50:	0322                	.insn	2, 0x0322
  52:	0000                	.insn	2, 0x
  54:	0070                	.insn	2, 0x0070
	...
  5e:	0000                	.insn	2, 0x
  60:	001c                	.insn	2, 0x001c
  62:	0000                	.insn	2, 0x
  64:	0002                	.insn	2, 0x0002
  66:	000003e7          	jalr	t2,zero # 0 <_vector_table_start>
  6a:	0004                	.insn	2, 0x0004
  6c:	0000                	.insn	2, 0x
  6e:	0000                	.insn	2, 0x
  70:	0392                	.insn	2, 0x0392
  72:	0000                	.insn	2, 0x
  74:	0028                	.insn	2, 0x0028
	...
  7e:	0000                	.insn	2, 0x
  80:	001c                	.insn	2, 0x001c
  82:	0000                	.insn	2, 0x
  84:	0002                	.insn	2, 0x0002
  86:	000004c7          	.insn	4, 0x04c7
  8a:	0004                	.insn	2, 0x0004
  8c:	0000                	.insn	2, 0x
  8e:	0000                	.insn	2, 0x
  90:	03ba                	.insn	2, 0x03ba
  92:	0000                	.insn	2, 0x
  94:	0096                	.insn	2, 0x0096
	...
  9e:	0000                	.insn	2, 0x
  a0:	001c                	.insn	2, 0x001c
  a2:	0000                	.insn	2, 0x
  a4:	0002                	.insn	2, 0x0002
  a6:	05e1                	.insn	2, 0x05e1
  a8:	0000                	.insn	2, 0x
  aa:	0004                	.insn	2, 0x0004
  ac:	0000                	.insn	2, 0x
  ae:	0000                	.insn	2, 0x
  b0:	0450                	.insn	2, 0x0450
  b2:	0000                	.insn	2, 0x
  b4:	00f4                	.insn	2, 0x00f4
	...
  be:	0000                	.insn	2, 0x
  c0:	002c                	.insn	2, 0x002c
  c2:	0000                	.insn	2, 0x
  c4:	0002                	.insn	2, 0x0002
  c6:	0738                	.insn	2, 0x0738
  c8:	0000                	.insn	2, 0x
  ca:	0004                	.insn	2, 0x0004
	...
  d4:	0080                	.insn	2, 0x0080
  d6:	0000                	.insn	2, 0x
  d8:	0080                	.insn	2, 0x0080
  da:	0000                	.insn	2, 0x
  dc:	00ac                	.insn	2, 0x00ac
  de:	0000                	.insn	2, 0x
  e0:	012c                	.insn	2, 0x012c
  e2:	0000                	.insn	2, 0x
  e4:	0034                	.insn	2, 0x0034
	...
  ee:	0000                	.insn	2, 0x
  f0:	001c                	.insn	2, 0x001c
  f2:	0000                	.insn	2, 0x
  f4:	0002                	.insn	2, 0x0002
  f6:	0000075b          	.insn	4, 0x075b
  fa:	0004                	.insn	2, 0x0004
  fc:	0000                	.insn	2, 0x
  fe:	0000                	.insn	2, 0x
 100:	0544                	.insn	2, 0x0544
 102:	0000                	.insn	2, 0x
 104:	0f00                	.insn	2, 0x0f00
	...
 10e:	0000                	.insn	2, 0x
 110:	001c                	.insn	2, 0x001c
 112:	0000                	.insn	2, 0x
 114:	0002                	.insn	2, 0x0002
 116:	163a                	.insn	2, 0x163a
 118:	0000                	.insn	2, 0x
 11a:	0004                	.insn	2, 0x0004
 11c:	0000                	.insn	2, 0x
 11e:	0000                	.insn	2, 0x
 120:	1444                	.insn	2, 0x1444
 122:	0000                	.insn	2, 0x
 124:	0004                	.insn	2, 0x0004
	...
 12e:	0000                	.insn	2, 0x
 130:	001c                	.insn	2, 0x001c
 132:	0000                	.insn	2, 0x
 134:	0002                	.insn	2, 0x0002
 136:	170c                	.insn	2, 0x170c
 138:	0000                	.insn	2, 0x
 13a:	0004                	.insn	2, 0x0004
 13c:	0000                	.insn	2, 0x
 13e:	0000                	.insn	2, 0x
 140:	1448                	.insn	2, 0x1448
 142:	0000                	.insn	2, 0x
 144:	007c                	.insn	2, 0x007c
	...

Disassembly of section .debug_line:

00000000 <.debug_line>:
       0:	01b1                	.insn	2, 0x01b1
       2:	0000                	.insn	2, 0x
       4:	0005                	.insn	2, 0x0005
       6:	0004                	.insn	2, 0x0004
       8:	00000053          	.insn	4, 0x0053
       c:	0101                	.insn	2, 0x0101
       e:	fb01                	.insn	2, 0xfb01
      10:	0d0e                	.insn	2, 0x0d0e
      12:	0100                	.insn	2, 0x0100
      14:	0101                	.insn	2, 0x0101
      16:	0001                	.insn	2, 0x0001
      18:	0000                	.insn	2, 0x
      1a:	0001                	.insn	2, 0x0001
      1c:	0100                	.insn	2, 0x0100
      1e:	0101                	.insn	2, 0x0101
      20:	051f 0011 0000      	.insn	6, 0x0011051f
      26:	006d                	.insn	2, 0x006d
      28:	0000                	.insn	2, 0x
      2a:	0071                	.insn	2, 0x0071
      2c:	0000                	.insn	2, 0x
      2e:	000000bb          	.insn	4, 0x00bb
      32:	0199                	.insn	2, 0x0199
      34:	0000                	.insn	2, 0x
      36:	0102                	.insn	2, 0x0102
      38:	021f 070f 0004      	.insn	6, 0x0004070f021f
      3e:	0000                	.insn	2, 0x
      40:	0401                	.insn	2, 0x0401
      42:	0000                	.insn	2, 0x
      44:	0100                	.insn	2, 0x0100
      46:	0101                	.insn	2, 0x0101
      48:	0000                	.insn	2, 0x
      4a:	1202                	.insn	2, 0x1202
      4c:	0001                	.insn	2, 0x0001
      4e:	0300                	.insn	2, 0x0300
      50:	011c                	.insn	2, 0x011c
      52:	0000                	.insn	2, 0x
      54:	2904                	.insn	2, 0x2904
      56:	0001                	.insn	2, 0x0001
      58:	0400                	.insn	2, 0x0400
      5a:	0130                	.insn	2, 0x0130
      5c:	0000                	.insn	2, 0x
      5e:	0504                	.insn	2, 0x0504
      60:	004e                	.insn	2, 0x004e
      62:	0205                	.insn	2, 0x0205
      64:	0160                	.insn	2, 0x0160
      66:	0000                	.insn	2, 0x
      68:	05010a03          	lb	s4,80(sp)
      6c:	0308                	.insn	2, 0x0308
      6e:	0902                	.insn	2, 0x0902
      70:	000e                	.insn	2, 0x000e
      72:	0501                	.insn	2, 0x0501
      74:	0022                	.insn	2, 0x0022
      76:	0402                	.insn	2, 0x0402
      78:	0301                	.insn	2, 0x0301
      7a:	0900                	.insn	2, 0x0900
      7c:	000a                	.insn	2, 0x000a
      7e:	0601                	.insn	2, 0x0601
      80:	02090003          	lb	zero,32(s2) # 3813490a <_peripheral_PLIC_end+0x3013490a>
      84:	0100                	.insn	2, 0x0100
      86:	5005                	.insn	2, 0x5005
      88:	0306                	.insn	2, 0x0306
      8a:	0902                	.insn	2, 0x0902
      8c:	0002                	.insn	2, 0x0002
      8e:	0501                	.insn	2, 0x0501
      90:	0318                	.insn	2, 0x0318
      92:	0900                	.insn	2, 0x0900
      94:	0008                	.insn	2, 0x0008
      96:	0501                	.insn	2, 0x0501
      98:	0316                	.insn	2, 0x0316
      9a:	000a0903          	lb	s2,0(s4)
      9e:	0501                	.insn	2, 0x0501
      a0:	032d                	.insn	2, 0x032d
      a2:	0900                	.insn	2, 0x0900
      a4:	0004                	.insn	2, 0x0004
      a6:	0501                	.insn	2, 0x0501
      a8:	0900032b          	.insn	4, 0x0900032b
      ac:	0004                	.insn	2, 0x0004
      ae:	0501                	.insn	2, 0x0501
      b0:	030d                	.insn	2, 0x030d
      b2:	0900                	.insn	2, 0x0900
      b4:	0004                	.insn	2, 0x0004
      b6:	0501                	.insn	2, 0x0501
      b8:	0308                	.insn	2, 0x0308
      ba:	00040903          	lb	s2,0(s0)
      be:	0501                	.insn	2, 0x0501
      c0:	001f 0402 0301      	.insn	6, 0x03010402001f
      c6:	0900                	.insn	2, 0x0900
      c8:	000c                	.insn	2, 0x000c
      ca:	0501                	.insn	2, 0x0501
      cc:	030e                	.insn	2, 0x030e
      ce:	0901                	.insn	2, 0x0901
      d0:	000c                	.insn	2, 0x000c
      d2:	0301                	.insn	2, 0x0301
      d4:	00040903          	lb	s2,0(s0)
      d8:	0501                	.insn	2, 0x0501
      da:	0901032f          	.insn	4, 0x0901032f
      de:	0008                	.insn	2, 0x0008
      e0:	0301                	.insn	2, 0x0301
      e2:	0901                	.insn	2, 0x0901
      e4:	000e                	.insn	2, 0x000e
      e6:	0501                	.insn	2, 0x0501
      e8:	0336                	.insn	2, 0x0336
      ea:	097f 000e 0501 0325 	.insn	10, 0x090203250501000e097f
      f2:	0902 
      f4:	0002                	.insn	2, 0x0002
      f6:	0501                	.insn	2, 0x0501
      f8:	0335                	.insn	2, 0x0335
      fa:	097f 000a 0501 0332 	.insn	10, 0x090203320501000a097f
     102:	0902 
     104:	0002                	.insn	2, 0x0002
     106:	0501                	.insn	2, 0x0501
     108:	0330                	.insn	2, 0x0330
     10a:	097f 000e 0501 030e 	.insn	10, 0x097e030e0501000e097f
     112:	097e 
     114:	0002                	.insn	2, 0x0002
     116:	0501                	.insn	2, 0x0501
     118:	0319                	.insn	2, 0x0319
     11a:	00080907          	.insn	4, 0x00080907
     11e:	0501                	.insn	2, 0x0501
     120:	030c                	.insn	2, 0x030c
     122:	0904                	.insn	2, 0x0904
     124:	000a                	.insn	2, 0x000a
     126:	0501                	.insn	2, 0x0501
     128:	0301                	.insn	2, 0x0301
     12a:	0901                	.insn	2, 0x0901
     12c:	0002                	.insn	2, 0x0002
     12e:	0501                	.insn	2, 0x0501
     130:	0318                	.insn	2, 0x0318
     132:	00080903          	lb	s2,0(a6)
     136:	0501                	.insn	2, 0x0501
     138:	0301                	.insn	2, 0x0301
     13a:	0902                	.insn	2, 0x0902
     13c:	0006                	.insn	2, 0x0006
     13e:	0501                	.insn	2, 0x0501
     140:	0902031b          	.insn	4, 0x0902031b
     144:	000a                	.insn	2, 0x000a
     146:	0501                	.insn	2, 0x0501
     148:	0301                	.insn	2, 0x0301
     14a:	0902                	.insn	2, 0x0902
     14c:	0006                	.insn	2, 0x0006
     14e:	0501                	.insn	2, 0x0501
     150:	0319                	.insn	2, 0x0319
     152:	0902                	.insn	2, 0x0902
     154:	000a                	.insn	2, 0x000a
     156:	0501                	.insn	2, 0x0501
     158:	0310                	.insn	2, 0x0310
     15a:	090e                	.insn	2, 0x090e
     15c:	0026                	.insn	2, 0x0026
     15e:	0501                	.insn	2, 0x0501
     160:	030e                	.insn	2, 0x030e
     162:	0901                	.insn	2, 0x0901
     164:	000c                	.insn	2, 0x000c
     166:	0501                	.insn	2, 0x0501
     168:	0305                	.insn	2, 0x0305
     16a:	0902                	.insn	2, 0x0902
     16c:	0010                	.insn	2, 0x0010
     16e:	0501                	.insn	2, 0x0501
     170:	030d                	.insn	2, 0x030d
     172:	090e                	.insn	2, 0x090e
     174:	0024                	.insn	2, 0x0024
     176:	0301                	.insn	2, 0x0301
     178:	097d                	.insn	2, 0x097d
     17a:	0002                	.insn	2, 0x0002
     17c:	0301                	.insn	2, 0x0301
     17e:	0901                	.insn	2, 0x0901
     180:	0002                	.insn	2, 0x0002
     182:	0301                	.insn	2, 0x0301
     184:	0902                	.insn	2, 0x0902
     186:	0002                	.insn	2, 0x0002
     188:	0301                	.insn	2, 0x0301
     18a:	0974                	.insn	2, 0x0974
     18c:	0004                	.insn	2, 0x0004
     18e:	0501                	.insn	2, 0x0501
     190:	0309                	.insn	2, 0x0309
     192:	0906                	.insn	2, 0x0906
     194:	0004                	.insn	2, 0x0004
     196:	0501                	.insn	2, 0x0501
     198:	0311                	.insn	2, 0x0311
     19a:	090a                	.insn	2, 0x090a
     19c:	0002                	.insn	2, 0x0002
     19e:	0501                	.insn	2, 0x0501
     1a0:	032e                	.insn	2, 0x032e
     1a2:	0900                	.insn	2, 0x0900
     1a4:	000c                	.insn	2, 0x000c
     1a6:	0501                	.insn	2, 0x0501
     1a8:	0301                	.insn	2, 0x0301
     1aa:	0902                	.insn	2, 0x0902
     1ac:	0006                	.insn	2, 0x0006
     1ae:	0901                	.insn	2, 0x0901
     1b0:	002a                	.insn	2, 0x002a
     1b2:	0100                	.insn	2, 0x0100
     1b4:	c101                	.insn	2, 0xc101
     1b6:	0000                	.insn	2, 0x
     1b8:	0500                	.insn	2, 0x0500
     1ba:	0400                	.insn	2, 0x0400
     1bc:	6100                	.insn	2, 0x6100
     1be:	0000                	.insn	2, 0x
     1c0:	0100                	.insn	2, 0x0100
     1c2:	0101                	.insn	2, 0x0101
     1c4:	000d0efb          	.insn	4, 0x000d0efb
     1c8:	0101                	.insn	2, 0x0101
     1ca:	0101                	.insn	2, 0x0101
     1cc:	0000                	.insn	2, 0x
     1ce:	0100                	.insn	2, 0x0100
     1d0:	0000                	.insn	2, 0x
     1d2:	0101                	.insn	2, 0x0101
     1d4:	1f01                	.insn	2, 0x1f01
     1d6:	1106                	.insn	2, 0x1106
     1d8:	0000                	.insn	2, 0x
     1da:	6d00                	.insn	2, 0x6d00
     1dc:	0000                	.insn	2, 0x
     1de:	7100                	.insn	2, 0x7100
     1e0:	0000                	.insn	2, 0x
     1e2:	bb00                	.insn	2, 0xbb00
     1e4:	0000                	.insn	2, 0x
     1e6:	9900                	.insn	2, 0x9900
     1e8:	0001                	.insn	2, 0x0001
     1ea:	4600                	.insn	2, 0x4600
     1ec:	0001                	.insn	2, 0x0001
     1ee:	0200                	.insn	2, 0x0200
     1f0:	1f01                	.insn	2, 0x1f01
     1f2:	0f02                	.insn	2, 0x0f02
     1f4:	3f09                	.insn	2, 0x3f09
     1f6:	0001                	.insn	2, 0x0001
     1f8:	0100                	.insn	2, 0x0100
     1fa:	0000013f 00010101 	.insn	8, 0x000101010000013f
     202:	0200                	.insn	2, 0x0200
     204:	0112                	.insn	2, 0x0112
     206:	0000                	.insn	2, 0x
     208:	00013003          	.insn	4, 0x00013003
     20c:	0400                	.insn	2, 0x0400
     20e:	0129                	.insn	2, 0x0129
     210:	0000                	.insn	2, 0x
     212:	9d04                	.insn	2, 0x9d04
     214:	0001                	.insn	2, 0x0001
     216:	0400                	.insn	2, 0x0400
     218:	011c                	.insn	2, 0x011c
     21a:	0000                	.insn	2, 0x
     21c:	a604                	.insn	2, 0xa604
     21e:	0001                	.insn	2, 0x0001
     220:	0500                	.insn	2, 0x0500
     222:	0b05                	.insn	2, 0x0b05
     224:	0500                	.insn	2, 0x0500
     226:	ea02                	.insn	2, 0xea02
     228:	0002                	.insn	2, 0x0002
     22a:	0300                	.insn	2, 0x0300
     22c:	0505011b          	.insn	4, 0x0505011b
     230:	08090303          	lb	t1,128(s2)
     234:	0100                	.insn	2, 0x0100
     236:	08090103          	lb	sp,128(s2)
     23a:	0100                	.insn	2, 0x0100
     23c:	08090103          	lb	sp,128(s2)
     240:	0100                	.insn	2, 0x0100
     242:	08090303          	lb	t1,128(s2)
     246:	0100                	.insn	2, 0x0100
     248:	02090203          	lb	tp,32(s2)
     24c:	0100                	.insn	2, 0x0100
     24e:	0a090303          	lb	t1,160(s2)
     252:	0100                	.insn	2, 0x0100
     254:	02090103          	lb	sp,32(s2)
     258:	0100                	.insn	2, 0x0100
     25a:	02090a03          	lb	s4,32(s2)
     25e:	0100                	.insn	2, 0x0100
     260:	02090103          	lb	sp,32(s2)
     264:	0100                	.insn	2, 0x0100
     266:	02090103          	lb	sp,32(s2)
     26a:	0100                	.insn	2, 0x0100
     26c:	0a05                	.insn	2, 0x0a05
     26e:	02090203          	lb	tp,32(s2)
     272:	0100                	.insn	2, 0x0100
     274:	0209                	.insn	2, 0x0209
     276:	0000                	.insn	2, 0x
     278:	0101                	.insn	2, 0x0101
     27a:	00d9                	.insn	2, 0x00d9
     27c:	0000                	.insn	2, 0x
     27e:	0005                	.insn	2, 0x0005
     280:	0004                	.insn	2, 0x0004
     282:	0049                	.insn	2, 0x0049
     284:	0000                	.insn	2, 0x
     286:	0101                	.insn	2, 0x0101
     288:	fb01                	.insn	2, 0xfb01
     28a:	0d0e                	.insn	2, 0x0d0e
     28c:	0100                	.insn	2, 0x0100
     28e:	0101                	.insn	2, 0x0101
     290:	0001                	.insn	2, 0x0001
     292:	0000                	.insn	2, 0x
     294:	0001                	.insn	2, 0x0001
     296:	0100                	.insn	2, 0x0100
     298:	0101                	.insn	2, 0x0101
     29a:	051f 0011 0000      	.insn	6, 0x0011051f
     2a0:	006d                	.insn	2, 0x006d
     2a2:	0000                	.insn	2, 0x
     2a4:	0071                	.insn	2, 0x0071
     2a6:	0000                	.insn	2, 0x
     2a8:	000000bb          	.insn	4, 0x00bb
     2ac:	0199                	.insn	2, 0x0199
     2ae:	0000                	.insn	2, 0x
     2b0:	0102                	.insn	2, 0x0102
     2b2:	021f 050f 01b2      	.insn	6, 0x01b2050f021f
     2b8:	0000                	.insn	2, 0x
     2ba:	b201                	.insn	2, 0xb201
     2bc:	0001                	.insn	2, 0x0001
     2be:	0100                	.insn	2, 0x0100
     2c0:	0101                	.insn	2, 0x0101
     2c2:	0000                	.insn	2, 0x
     2c4:	1202                	.insn	2, 0x1202
     2c6:	0001                	.insn	2, 0x0001
     2c8:	0300                	.insn	2, 0x0300
     2ca:	0129                	.insn	2, 0x0129
     2cc:	0000                	.insn	2, 0x
     2ce:	0504                	.insn	2, 0x0504
     2d0:	0016                	.insn	2, 0x0016
     2d2:	0205                	.insn	2, 0x0205
     2d4:	0322                	.insn	2, 0x0322
     2d6:	0000                	.insn	2, 0x
     2d8:	0516                	.insn	2, 0x0516
     2da:	0310                	.insn	2, 0x0310
     2dc:	0902                	.insn	2, 0x0902
     2de:	0006                	.insn	2, 0x0006
     2e0:	0501                	.insn	2, 0x0501
     2e2:	030e                	.insn	2, 0x030e
     2e4:	000c0903          	lb	s2,0(s8)
     2e8:	0501                	.insn	2, 0x0501
     2ea:	0305                	.insn	2, 0x0305
     2ec:	0900                	.insn	2, 0x0900
     2ee:	0006                	.insn	2, 0x0006
     2f0:	0501                	.insn	2, 0x0501
     2f2:	031c                	.insn	2, 0x031c
     2f4:	0902                	.insn	2, 0x0902
     2f6:	0002                	.insn	2, 0x0002
     2f8:	0501                	.insn	2, 0x0501
     2fa:	0315                	.insn	2, 0x0315
     2fc:	0900                	.insn	2, 0x0900
     2fe:	0006                	.insn	2, 0x0006
     300:	0501                	.insn	2, 0x0501
     302:	0335                	.insn	2, 0x0335
     304:	0900                	.insn	2, 0x0900
     306:	0008                	.insn	2, 0x0008
     308:	0501                	.insn	2, 0x0501
     30a:	0026                	.insn	2, 0x0026
     30c:	0402                	.insn	2, 0x0402
     30e:	097e0303          	lb	t1,151(t3)
     312:	0004                	.insn	2, 0x0004
     314:	0501                	.insn	2, 0x0501
     316:	04020017          	auipc	zero,0x4020
     31a:	0301                	.insn	2, 0x0301
     31c:	0900                	.insn	2, 0x0900
     31e:	000a                	.insn	2, 0x000a
     320:	0501                	.insn	2, 0x0501
     322:	0301                	.insn	2, 0x0301
     324:	0906                	.insn	2, 0x0906
     326:	000a                	.insn	2, 0x000a
     328:	0501                	.insn	2, 0x0501
     32a:	09020313          	addi	t1,tp,144 # 90 <_reset_handler+0x10>
     32e:	000a                	.insn	2, 0x000a
     330:	0501                	.insn	2, 0x0501
     332:	0310                	.insn	2, 0x0310
     334:	0902                	.insn	2, 0x0902
     336:	0006                	.insn	2, 0x0006
     338:	0501                	.insn	2, 0x0501
     33a:	0311                	.insn	2, 0x0311
     33c:	000c0903          	lb	s2,0(s8)
     340:	0501                	.insn	2, 0x0501
     342:	0900033b          	.insn	4, 0x0900033b
     346:	0008                	.insn	2, 0x0008
     348:	0501                	.insn	2, 0x0501
     34a:	0301                	.insn	2, 0x0301
     34c:	0902                	.insn	2, 0x0902
     34e:	0004                	.insn	2, 0x0004
     350:	0901                	.insn	2, 0x0901
     352:	0008                	.insn	2, 0x0008
     354:	0100                	.insn	2, 0x0100
     356:	8201                	.insn	2, 0x8201
     358:	0000                	.insn	2, 0x
     35a:	0500                	.insn	2, 0x0500
     35c:	0400                	.insn	2, 0x0400
     35e:	5200                	.insn	2, 0x5200
     360:	0000                	.insn	2, 0x
     362:	0100                	.insn	2, 0x0100
     364:	0101                	.insn	2, 0x0101
     366:	000d0efb          	.insn	4, 0x000d0efb
     36a:	0101                	.insn	2, 0x0101
     36c:	0101                	.insn	2, 0x0101
     36e:	0000                	.insn	2, 0x
     370:	0100                	.insn	2, 0x0100
     372:	0000                	.insn	2, 0x
     374:	0101                	.insn	2, 0x0101
     376:	1f01                	.insn	2, 0x1f01
     378:	1106                	.insn	2, 0x1106
     37a:	0000                	.insn	2, 0x
     37c:	6d00                	.insn	2, 0x6d00
     37e:	0000                	.insn	2, 0x
     380:	7100                	.insn	2, 0x7100
     382:	0000                	.insn	2, 0x
     384:	bb00                	.insn	2, 0xbb00
     386:	0000                	.insn	2, 0x
     388:	9900                	.insn	2, 0x9900
     38a:	0001                	.insn	2, 0x0001
     38c:	4600                	.insn	2, 0x4600
     38e:	0001                	.insn	2, 0x0001
     390:	0200                	.insn	2, 0x0200
     392:	1f01                	.insn	2, 0x1f01
     394:	0f02                	.insn	2, 0x0f02
     396:	bd06                	.insn	2, 0xbd06
     398:	0001                	.insn	2, 0x0001
     39a:	0100                	.insn	2, 0x0100
     39c:	01bd                	.insn	2, 0x01bd
     39e:	0000                	.insn	2, 0x
     3a0:	0101                	.insn	2, 0x0101
     3a2:	0001                	.insn	2, 0x0001
     3a4:	0200                	.insn	2, 0x0200
     3a6:	0112                	.insn	2, 0x0112
     3a8:	0000                	.insn	2, 0x
     3aa:	00019d03          	lh	s10,0(gp)
     3ae:	0400                	.insn	2, 0x0400
     3b0:	01c6                	.insn	2, 0x01c6
     3b2:	0000                	.insn	2, 0x
     3b4:	0505                	.insn	2, 0x0505
     3b6:	02050013          	addi	zero,a0,32 # 3000602 <_peripheral_HLS_CONTROL_end+0x2fc0602>
     3ba:	0392                	.insn	2, 0x0392
     3bc:	0000                	.insn	2, 0x
     3be:	0514                	.insn	2, 0x0514
     3c0:	0902030f          	.insn	4, 0x0902030f
     3c4:	0008                	.insn	2, 0x0008
     3c6:	0501                	.insn	2, 0x0501
     3c8:	0305                	.insn	2, 0x0305
     3ca:	0902                	.insn	2, 0x0902
     3cc:	000c                	.insn	2, 0x000c
     3ce:	0501                	.insn	2, 0x0501
     3d0:	0301                	.insn	2, 0x0301
     3d2:	0901                	.insn	2, 0x0901
     3d4:	000a                	.insn	2, 0x000a
     3d6:	0901                	.insn	2, 0x0901
     3d8:	000a                	.insn	2, 0x000a
     3da:	0100                	.insn	2, 0x0100
     3dc:	f501                	.insn	2, 0xf501
     3de:	0000                	.insn	2, 0x
     3e0:	0500                	.insn	2, 0x0500
     3e2:	0400                	.insn	2, 0x0400
     3e4:	4900                	.insn	2, 0x4900
     3e6:	0000                	.insn	2, 0x
     3e8:	0100                	.insn	2, 0x0100
     3ea:	0101                	.insn	2, 0x0101
     3ec:	000d0efb          	.insn	4, 0x000d0efb
     3f0:	0101                	.insn	2, 0x0101
     3f2:	0101                	.insn	2, 0x0101
     3f4:	0000                	.insn	2, 0x
     3f6:	0100                	.insn	2, 0x0100
     3f8:	0000                	.insn	2, 0x
     3fa:	0101                	.insn	2, 0x0101
     3fc:	1f01                	.insn	2, 0x1f01
     3fe:	1105                	.insn	2, 0x1105
     400:	0000                	.insn	2, 0x
     402:	6d00                	.insn	2, 0x6d00
     404:	0000                	.insn	2, 0x
     406:	7100                	.insn	2, 0x7100
     408:	0000                	.insn	2, 0x
     40a:	bb00                	.insn	2, 0xbb00
     40c:	0000                	.insn	2, 0x
     40e:	9900                	.insn	2, 0x9900
     410:	0001                	.insn	2, 0x0001
     412:	0200                	.insn	2, 0x0200
     414:	1f01                	.insn	2, 0x1f01
     416:	0f02                	.insn	2, 0x0f02
     418:	d305                	.insn	2, 0xd305
     41a:	0001                	.insn	2, 0x0001
     41c:	0100                	.insn	2, 0x0100
     41e:	000001d3          	.insn	4, 0x01d3
     422:	0101                	.insn	2, 0x0101
     424:	0001                	.insn	2, 0x0001
     426:	0200                	.insn	2, 0x0200
     428:	0112                	.insn	2, 0x0112
     42a:	0000                	.insn	2, 0x
     42c:	0001df03          	lhu	t5,0(gp)
     430:	0400                	.insn	2, 0x0400
     432:	1905                	.insn	2, 0x1905
     434:	0500                	.insn	2, 0x0500
     436:	ba02                	.insn	2, 0xba02
     438:	14000003          	lb	zero,320(zero) # 140 <_start+0x14>
     43c:	1005                	.insn	2, 0x1005
     43e:	06090203          	lb	tp,96(s2)
     442:	0100                	.insn	2, 0x0100
     444:	1405                	.insn	2, 0x1405
     446:	0c090303          	lb	t1,192(s2)
     44a:	0100                	.insn	2, 0x0100
     44c:	3505                	.insn	2, 0x3505
     44e:	06090003          	lb	zero,96(s2)
     452:	0100                	.insn	2, 0x0100
     454:	0105                	.insn	2, 0x0105
     456:	04090203          	lb	tp,64(s2)
     45a:	0100                	.insn	2, 0x0100
     45c:	1a05                	.insn	2, 0x1a05
     45e:	08090203          	lb	tp,128(s2)
     462:	0100                	.insn	2, 0x0100
     464:	1005                	.insn	2, 0x1005
     466:	06090203          	lb	tp,96(s2)
     46a:	0100                	.insn	2, 0x0100
     46c:	1405                	.insn	2, 0x1405
     46e:	0c090303          	lb	t1,192(s2)
     472:	0100                	.insn	2, 0x0100
     474:	3305                	.insn	2, 0x3305
     476:	08090003          	lb	zero,128(s2)
     47a:	0100                	.insn	2, 0x0100
     47c:	1405                	.insn	2, 0x1405
     47e:	04090303          	lb	t1,64(s2)
     482:	0100                	.insn	2, 0x0100
     484:	3105                	.insn	2, 0x3105
     486:	08090003          	lb	zero,128(s2)
     48a:	0100                	.insn	2, 0x0100
     48c:	0105                	.insn	2, 0x0105
     48e:	06090203          	lb	tp,96(s2)
     492:	0100                	.insn	2, 0x0100
     494:	1505                	.insn	2, 0x1505
     496:	08090203          	lb	tp,128(s2)
     49a:	0100                	.insn	2, 0x0100
     49c:	1005                	.insn	2, 0x1005
     49e:	06090203          	lb	tp,96(s2)
     4a2:	0100                	.insn	2, 0x0100
     4a4:	0c090103          	lb	sp,192(s2)
     4a8:	0100                	.insn	2, 0x0100
     4aa:	1605                	.insn	2, 0x1605
     4ac:	0c090303          	lb	t1,192(s2)
     4b0:	0100                	.insn	2, 0x0100
     4b2:	1405                	.insn	2, 0x1405
     4b4:	06090003          	lb	zero,96(s2)
     4b8:	0100                	.insn	2, 0x0100
     4ba:	06090403          	lb	s0,96(s2)
     4be:	0100                	.insn	2, 0x0100
     4c0:	2e05                	.insn	2, 0x2e05
     4c2:	08090003          	lb	zero,128(s2)
     4c6:	0100                	.insn	2, 0x0100
     4c8:	0105                	.insn	2, 0x0105
     4ca:	04090203          	lb	tp,64(s2)
     4ce:	0100                	.insn	2, 0x0100
     4d0:	0809                	.insn	2, 0x0809
     4d2:	0000                	.insn	2, 0x
     4d4:	0101                	.insn	2, 0x0101
     4d6:	013e                	.insn	2, 0x013e
     4d8:	0000                	.insn	2, 0x
     4da:	0005                	.insn	2, 0x0005
     4dc:	0004                	.insn	2, 0x0004
     4de:	0052                	.insn	2, 0x0052
     4e0:	0000                	.insn	2, 0x
     4e2:	0101                	.insn	2, 0x0101
     4e4:	fb01                	.insn	2, 0xfb01
     4e6:	0d0e                	.insn	2, 0x0d0e
     4e8:	0100                	.insn	2, 0x0100
     4ea:	0101                	.insn	2, 0x0101
     4ec:	0001                	.insn	2, 0x0001
     4ee:	0000                	.insn	2, 0x
     4f0:	0001                	.insn	2, 0x0001
     4f2:	0100                	.insn	2, 0x0100
     4f4:	0101                	.insn	2, 0x0101
     4f6:	061f 0011 0000      	.insn	6, 0x0011061f
     4fc:	006d                	.insn	2, 0x006d
     4fe:	0000                	.insn	2, 0x
     500:	0071                	.insn	2, 0x0071
     502:	0000                	.insn	2, 0x
     504:	000000bb          	.insn	4, 0x00bb
     508:	0146                	.insn	2, 0x0146
     50a:	0000                	.insn	2, 0x
     50c:	0199                	.insn	2, 0x0199
     50e:	0000                	.insn	2, 0x
     510:	0102                	.insn	2, 0x0102
     512:	021f 060f 01ef      	.insn	6, 0x01ef060f021f
     518:	0000                	.insn	2, 0x
     51a:	ef01                	.insn	2, 0xef01
     51c:	0001                	.insn	2, 0x0001
     51e:	0100                	.insn	2, 0x0100
     520:	0101                	.insn	2, 0x0101
     522:	0000                	.insn	2, 0x
     524:	1202                	.insn	2, 0x1202
     526:	0001                	.insn	2, 0x0001
     528:	0300                	.insn	2, 0x0300
     52a:	01a6                	.insn	2, 0x01a6
     52c:	0000                	.insn	2, 0x
     52e:	3004                	.insn	2, 0x3004
     530:	0001                	.insn	2, 0x0001
     532:	0500                	.insn	2, 0x0500
     534:	1505                	.insn	2, 0x1505
     536:	0500                	.insn	2, 0x0500
     538:	5002                	.insn	2, 0x5002
     53a:	0004                	.insn	2, 0x0004
     53c:	1500                	.insn	2, 0x1500
     53e:	1005                	.insn	2, 0x1005
     540:	06090203          	lb	tp,96(s2)
     544:	0100                	.insn	2, 0x0100
     546:	0c090303          	lb	t1,192(s2)
     54a:	0100                	.insn	2, 0x0100
     54c:	2d05                	.insn	2, 0x2d05
     54e:	06090003          	lb	zero,96(s2)
     552:	0100                	.insn	2, 0x0100
     554:	1105                	.insn	2, 0x1105
     556:	0a090303          	lb	t1,160(s2)
     55a:	0100                	.insn	2, 0x0100
     55c:	0505                	.insn	2, 0x0505
     55e:	0a090303          	lb	t1,160(s2)
     562:	0100                	.insn	2, 0x0100
     564:	1105                	.insn	2, 0x1105
     566:	06090003          	lb	zero,96(s2)
     56a:	0100                	.insn	2, 0x0100
     56c:	0505                	.insn	2, 0x0505
     56e:	0a090303          	lb	t1,160(s2)
     572:	0100                	.insn	2, 0x0100
     574:	1105                	.insn	2, 0x1105
     576:	06090003          	lb	zero,96(s2)
     57a:	0100                	.insn	2, 0x0100
     57c:	0505                	.insn	2, 0x0505
     57e:	0a090103          	lb	sp,160(s2)
     582:	0100                	.insn	2, 0x0100
     584:	1105                	.insn	2, 0x1105
     586:	06090003          	lb	zero,96(s2)
     58a:	0100                	.insn	2, 0x0100
     58c:	0105                	.insn	2, 0x0105
     58e:	0a090103          	lb	sp,160(s2)
     592:	0100                	.insn	2, 0x0100
     594:	1605                	.insn	2, 0x1605
     596:	08090203          	lb	tp,128(s2)
     59a:	0100                	.insn	2, 0x0100
     59c:	1005                	.insn	2, 0x1005
     59e:	06090203          	lb	tp,96(s2)
     5a2:	0100                	.insn	2, 0x0100
     5a4:	0505                	.insn	2, 0x0505
     5a6:	0c090303          	lb	t1,192(s2)
     5aa:	0100                	.insn	2, 0x0100
     5ac:	1105                	.insn	2, 0x1105
     5ae:	06090003          	lb	zero,96(s2)
     5b2:	0100                	.insn	2, 0x0100
     5b4:	0105                	.insn	2, 0x0105
     5b6:	0a090103          	lb	sp,160(s2)
     5ba:	0100                	.insn	2, 0x0100
     5bc:	1205                	.insn	2, 0x1205
     5be:	08090203          	lb	tp,128(s2)
     5c2:	0100                	.insn	2, 0x0100
     5c4:	1005                	.insn	2, 0x1005
     5c6:	06090203          	lb	tp,96(s2)
     5ca:	0100                	.insn	2, 0x0100
     5cc:	0505                	.insn	2, 0x0505
     5ce:	0c090303          	lb	t1,192(s2)
     5d2:	0100                	.insn	2, 0x0100
     5d4:	1105                	.insn	2, 0x1105
     5d6:	06090003          	lb	zero,96(s2)
     5da:	0100                	.insn	2, 0x0100
     5dc:	0105                	.insn	2, 0x0105
     5de:	0a090103          	lb	sp,160(s2)
     5e2:	0100                	.insn	2, 0x0100
     5e4:	1305                	.insn	2, 0x1305
     5e6:	08090203          	lb	tp,128(s2)
     5ea:	0100                	.insn	2, 0x0100
     5ec:	1005                	.insn	2, 0x1005
     5ee:	08090203          	lb	tp,128(s2)
     5f2:	0100                	.insn	2, 0x0100
     5f4:	0505                	.insn	2, 0x0505
     5f6:	0c090303          	lb	t1,192(s2)
     5fa:	0100                	.insn	2, 0x0100
     5fc:	0f05                	.insn	2, 0x0f05
     5fe:	0a090303          	lb	t1,160(s2)
     602:	0100                	.insn	2, 0x0100
     604:	0a090303          	lb	t1,160(s2)
     608:	0100                	.insn	2, 0x0100
     60a:	0105                	.insn	2, 0x0105
     60c:	0a090203          	lb	tp,160(s2)
     610:	0100                	.insn	2, 0x0100
     612:	0a09                	.insn	2, 0x0a09
     614:	0000                	.insn	2, 0x
     616:	0101                	.insn	2, 0x0101
     618:	0199                	.insn	2, 0x0199
     61a:	0000                	.insn	2, 0x
     61c:	0005                	.insn	2, 0x0005
     61e:	0004                	.insn	2, 0x0004
     620:	002e                	.insn	2, 0x002e
     622:	0000                	.insn	2, 0x
     624:	0101                	.insn	2, 0x0101
     626:	fb01                	.insn	2, 0xfb01
     628:	0d0e                	.insn	2, 0x0d0e
     62a:	0100                	.insn	2, 0x0100
     62c:	0101                	.insn	2, 0x0101
     62e:	0001                	.insn	2, 0x0001
     630:	0000                	.insn	2, 0x
     632:	0001                	.insn	2, 0x0001
     634:	0100                	.insn	2, 0x0100
     636:	0101                	.insn	2, 0x0101
     638:	021f 0011 0000      	.insn	6, 0x0011021f
     63e:	01fa                	.insn	2, 0x01fa
     640:	0000                	.insn	2, 0x
     642:	0102                	.insn	2, 0x0102
     644:	021f 020f 0249      	.insn	6, 0x0249020f021f
     64a:	0000                	.insn	2, 0x
     64c:	4901                	.insn	2, 0x4901
     64e:	0002                	.insn	2, 0x0002
     650:	0100                	.insn	2, 0x0100
     652:	0500                	.insn	2, 0x0500
     654:	0002                	.insn	2, 0x0002
     656:	0000                	.insn	2, 0x
     658:	0300                	.insn	2, 0x0300
     65a:	0203010b          	.insn	4, 0x0203010b
     65e:	0409                	.insn	2, 0x0409
     660:	0100                	.insn	2, 0x0100
     662:	7c09                	.insn	2, 0x7c09
     664:	0000                	.insn	2, 0x
     666:	0101                	.insn	2, 0x0101
     668:	0500                	.insn	2, 0x0500
     66a:	8002                	.insn	2, 0x8002
     66c:	0000                	.insn	2, 0x
     66e:	0300                	.insn	2, 0x0300
     670:	0119                	.insn	2, 0x0119
     672:	04090103          	lb	sp,64(s2)
     676:	0100                	.insn	2, 0x0100
     678:	04090103          	lb	sp,64(s2)
     67c:	0100                	.insn	2, 0x0100
     67e:	04090103          	lb	sp,64(s2)
     682:	0100                	.insn	2, 0x0100
     684:	04090103          	lb	sp,64(s2)
     688:	0100                	.insn	2, 0x0100
     68a:	04090103          	lb	sp,64(s2)
     68e:	0100                	.insn	2, 0x0100
     690:	04090103          	lb	sp,64(s2)
     694:	0100                	.insn	2, 0x0100
     696:	04090103          	lb	sp,64(s2)
     69a:	0100                	.insn	2, 0x0100
     69c:	04090103          	lb	sp,64(s2)
     6a0:	0100                	.insn	2, 0x0100
     6a2:	04090103          	lb	sp,64(s2)
     6a6:	0100                	.insn	2, 0x0100
     6a8:	04090103          	lb	sp,64(s2)
     6ac:	0100                	.insn	2, 0x0100
     6ae:	04090103          	lb	sp,64(s2)
     6b2:	0100                	.insn	2, 0x0100
     6b4:	04090103          	lb	sp,64(s2)
     6b8:	0100                	.insn	2, 0x0100
     6ba:	04090103          	lb	sp,64(s2)
     6be:	0100                	.insn	2, 0x0100
     6c0:	04090103          	lb	sp,64(s2)
     6c4:	0100                	.insn	2, 0x0100
     6c6:	04090103          	lb	sp,64(s2)
     6ca:	0100                	.insn	2, 0x0100
     6cc:	04090103          	lb	sp,64(s2)
     6d0:	0100                	.insn	2, 0x0100
     6d2:	04090103          	lb	sp,64(s2)
     6d6:	0100                	.insn	2, 0x0100
     6d8:	04090103          	lb	sp,64(s2)
     6dc:	0100                	.insn	2, 0x0100
     6de:	04090103          	lb	sp,64(s2)
     6e2:	0100                	.insn	2, 0x0100
     6e4:	04090103          	lb	sp,64(s2)
     6e8:	0100                	.insn	2, 0x0100
     6ea:	04090103          	lb	sp,64(s2)
     6ee:	0100                	.insn	2, 0x0100
     6f0:	04090103          	lb	sp,64(s2)
     6f4:	0100                	.insn	2, 0x0100
     6f6:	04090103          	lb	sp,64(s2)
     6fa:	0100                	.insn	2, 0x0100
     6fc:	04090103          	lb	sp,64(s2)
     700:	0100                	.insn	2, 0x0100
     702:	04090103          	lb	sp,64(s2)
     706:	0100                	.insn	2, 0x0100
     708:	04090103          	lb	sp,64(s2)
     70c:	0100                	.insn	2, 0x0100
     70e:	04090103          	lb	sp,64(s2)
     712:	0100                	.insn	2, 0x0100
     714:	04090103          	lb	sp,64(s2)
     718:	0100                	.insn	2, 0x0100
     71a:	04090103          	lb	sp,64(s2)
     71e:	0100                	.insn	2, 0x0100
     720:	04090103          	lb	sp,64(s2)
     724:	0100                	.insn	2, 0x0100
     726:	04090703          	lb	a4,64(s2)
     72a:	0100                	.insn	2, 0x0100
     72c:	04090103          	lb	sp,64(s2)
     730:	0100                	.insn	2, 0x0100
     732:	04090103          	lb	sp,64(s2)
     736:	0100                	.insn	2, 0x0100
     738:	04090103          	lb	sp,64(s2)
     73c:	0100                	.insn	2, 0x0100
     73e:	04090303          	lb	t1,64(s2)
     742:	0100                	.insn	2, 0x0100
     744:	04090403          	lb	s0,64(s2)
     748:	0100                	.insn	2, 0x0100
     74a:	08090103          	lb	sp,128(s2)
     74e:	0100                	.insn	2, 0x0100
     750:	04090703          	lb	a4,64(s2)
     754:	0100                	.insn	2, 0x0100
     756:	08090303          	lb	t1,128(s2)
     75a:	0100                	.insn	2, 0x0100
     75c:	04090303          	lb	t1,64(s2)
     760:	0100                	.insn	2, 0x0100
     762:	0409                	.insn	2, 0x0409
     764:	0000                	.insn	2, 0x
     766:	0101                	.insn	2, 0x0101
     768:	0500                	.insn	2, 0x0500
     76a:	2c02                	.insn	2, 0x2c02
     76c:	0001                	.insn	2, 0x0001
     76e:	0300                	.insn	2, 0x0300
     770:	00de                	.insn	2, 0x00de
     772:	0301                	.insn	2, 0x0301
     774:	0901                	.insn	2, 0x0901
     776:	0004                	.insn	2, 0x0004
     778:	0301                	.insn	2, 0x0301
     77a:	0901                	.insn	2, 0x0901
     77c:	0008                	.insn	2, 0x0008
     77e:	0301                	.insn	2, 0x0301
     780:	00040903          	lb	s2,0(s0)
     784:	0301                	.insn	2, 0x0301
     786:	0901                	.insn	2, 0x0901
     788:	0004                	.insn	2, 0x0004
     78a:	0301                	.insn	2, 0x0301
     78c:	0902                	.insn	2, 0x0902
     78e:	0004                	.insn	2, 0x0004
     790:	0301                	.insn	2, 0x0301
     792:	00040903          	lb	s2,0(s0)
     796:	0301                	.insn	2, 0x0301
     798:	0901                	.insn	2, 0x0901
     79a:	0004                	.insn	2, 0x0004
     79c:	0301                	.insn	2, 0x0301
     79e:	0901                	.insn	2, 0x0901
     7a0:	0008                	.insn	2, 0x0008
     7a2:	0301                	.insn	2, 0x0301
     7a4:	0904                	.insn	2, 0x0904
     7a6:	0004                	.insn	2, 0x0004
     7a8:	0301                	.insn	2, 0x0301
     7aa:	0904                	.insn	2, 0x0904
     7ac:	0004                	.insn	2, 0x0004
     7ae:	0901                	.insn	2, 0x0901
     7b0:	0004                	.insn	2, 0x0004
     7b2:	0100                	.insn	2, 0x0100
     7b4:	db01                	.insn	2, 0xdb01
     7b6:	0019                	.insn	2, 0x0019
     7b8:	0500                	.insn	2, 0x0500
     7ba:	0400                	.insn	2, 0x0400
     7bc:	5700                	.insn	2, 0x5700
     7be:	0000                	.insn	2, 0x
     7c0:	0100                	.insn	2, 0x0100
     7c2:	0101                	.insn	2, 0x0101
     7c4:	000d0efb          	.insn	4, 0x000d0efb
     7c8:	0101                	.insn	2, 0x0101
     7ca:	0101                	.insn	2, 0x0101
     7cc:	0000                	.insn	2, 0x
     7ce:	0100                	.insn	2, 0x0100
     7d0:	0000                	.insn	2, 0x
     7d2:	0101                	.insn	2, 0x0101
     7d4:	1f01                	.insn	2, 0x1f01
     7d6:	5306                	.insn	2, 0x5306
     7d8:	0002                	.insn	2, 0x0002
     7da:	6d00                	.insn	2, 0x6d00
     7dc:	0000                	.insn	2, 0x
     7de:	9300                	.insn	2, 0x9300
     7e0:	0002                	.insn	2, 0x0002
     7e2:	c800                	.insn	2, 0xc800
     7e4:	0002                	.insn	2, 0x0002
     7e6:	f600                	.insn	2, 0xf600
     7e8:	0002                	.insn	2, 0x0002
     7ea:	9900                	.insn	2, 0x9900
     7ec:	0001                	.insn	2, 0x0001
     7ee:	0200                	.insn	2, 0x0200
     7f0:	1f01                	.insn	2, 0x1f01
     7f2:	0f02                	.insn	2, 0x0f02
     7f4:	00028b07          	.insn	4, 0x00028b07
     7f8:	0100                	.insn	2, 0x0100
     7fa:	0000028b          	.insn	4, 0x028b
     7fe:	2001                	.insn	2, 0x2001
     800:	02000003          	lb	zero,32(zero) # 20 <_vector_table_start+0x20>
     804:	0329                	.insn	2, 0x0329
     806:	0000                	.insn	2, 0x
     808:	0102                	.insn	2, 0x0102
     80a:	0001                	.insn	2, 0x0001
     80c:	0300                	.insn	2, 0x0300
     80e:	0112                	.insn	2, 0x0112
     810:	0000                	.insn	2, 0x
     812:	3204                	.insn	2, 0x3204
     814:	05000003          	lb	zero,80(zero) # 50 <_vector_table_start+0x50>
     818:	0105                	.insn	2, 0x0105
     81a:	0500                	.insn	2, 0x0500
     81c:	4402                	.insn	2, 0x4402
     81e:	0005                	.insn	2, 0x0005
     820:	0300                	.insn	2, 0x0300
     822:	0181                	.insn	2, 0x0181
     824:	0501                	.insn	2, 0x0501
     826:	09010303          	lb	t1,144(sp)
     82a:	0000                	.insn	2, 0x
     82c:	0501                	.insn	2, 0x0501
     82e:	0606                	.insn	2, 0x0606
     830:	00090003          	lb	zero,0(s2)
     834:	0100                	.insn	2, 0x0100
     836:	0505                	.insn	2, 0x0505
     838:	0306                	.insn	2, 0x0306
     83a:	0901                	.insn	2, 0x0901
     83c:	0004                	.insn	2, 0x0004
     83e:	0501                	.insn	2, 0x0501
     840:	061a                	.insn	2, 0x061a
     842:	00090003          	lb	zero,0(s2)
     846:	0100                	.insn	2, 0x0100
     848:	0105                	.insn	2, 0x0105
     84a:	08090203          	lb	tp,128(s2)
     84e:	0100                	.insn	2, 0x0100
     850:	0306                	.insn	2, 0x0306
     852:	0904                	.insn	2, 0x0904
     854:	0004                	.insn	2, 0x0004
     856:	0501                	.insn	2, 0x0501
     858:	09010303          	lb	t1,144(sp)
     85c:	0000                	.insn	2, 0x
     85e:	0501                	.insn	2, 0x0501
     860:	0314                	.insn	2, 0x0314
     862:	0900                	.insn	2, 0x0900
     864:	0000                	.insn	2, 0x
     866:	0501                	.insn	2, 0x0501
     868:	0322                	.insn	2, 0x0322
     86a:	0900                	.insn	2, 0x0900
     86c:	0000                	.insn	2, 0x
     86e:	0501                	.insn	2, 0x0501
     870:	032d                	.insn	2, 0x032d
     872:	0900                	.insn	2, 0x0900
     874:	0000                	.insn	2, 0x
     876:	0501                	.insn	2, 0x0501
     878:	0601                	.insn	2, 0x0601
     87a:	00090103          	lb	sp,0(s2)
     87e:	0100                	.insn	2, 0x0100
     880:	0306                	.insn	2, 0x0306
     882:	04090197          	auipc	gp,0x4090
     886:	0100                	.insn	2, 0x0100
     888:	0306                	.insn	2, 0x0306
     88a:	0900                	.insn	2, 0x0900
     88c:	0034                	.insn	2, 0x0034
     88e:	0501                	.insn	2, 0x0501
     890:	01030603          	lb	a2,16(t1)
     894:	0409                	.insn	2, 0x0409
     896:	0100                	.insn	2, 0x0100
     898:	00090103          	lb	sp,0(s2)
     89c:	0100                	.insn	2, 0x0100
     89e:	00090303          	lb	t1,0(s2)
     8a2:	0100                	.insn	2, 0x0100
     8a4:	0105                	.insn	2, 0x0105
     8a6:	0306                	.insn	2, 0x0306
     8a8:	0000097b          	.insn	4, 0x097b
     8ac:	0501                	.insn	2, 0x0501
     8ae:	090a030f          	.insn	4, 0x090a030f
     8b2:	0010                	.insn	2, 0x0010
     8b4:	0501                	.insn	2, 0x0501
     8b6:	030d                	.insn	2, 0x030d
     8b8:	0004094f          	.insn	4, 0x0004094f
     8bc:	0501                	.insn	2, 0x0501
     8be:	0306                	.insn	2, 0x0306
     8c0:	092c                	.insn	2, 0x092c
     8c2:	0004                	.insn	2, 0x0004
     8c4:	0501                	.insn	2, 0x0501
     8c6:	0605                	.insn	2, 0x0605
     8c8:	04090103          	lb	sp,64(s2)
     8cc:	0100                	.insn	2, 0x0100
     8ce:	0b05                	.insn	2, 0x0b05
     8d0:	0306                	.insn	2, 0x0306
     8d2:	0900                	.insn	2, 0x0900
     8d4:	0000                	.insn	2, 0x
     8d6:	0501                	.insn	2, 0x0501
     8d8:	04030603          	lb	a2,64(t1)
     8dc:	0409                	.insn	2, 0x0409
     8de:	0100                	.insn	2, 0x0100
     8e0:	0605                	.insn	2, 0x0605
     8e2:	0306                	.insn	2, 0x0306
     8e4:	0900                	.insn	2, 0x0900
     8e6:	0000                	.insn	2, 0x
     8e8:	0501                	.insn	2, 0x0501
     8ea:	0336                	.insn	2, 0x0336
     8ec:	000c0903          	lb	s2,0(s8)
     8f0:	0501                	.insn	2, 0x0501
     8f2:	0312                	.insn	2, 0x0312
     8f4:	0900                	.insn	2, 0x0900
     8f6:	0014                	.insn	2, 0x0014
     8f8:	0501                	.insn	2, 0x0501
     8fa:	0314                	.insn	2, 0x0314
     8fc:	0902                	.insn	2, 0x0902
     8fe:	0008                	.insn	2, 0x0008
     900:	0001                	.insn	2, 0x0001
     902:	0402                	.insn	2, 0x0402
     904:	0301                	.insn	2, 0x0301
     906:	0900                	.insn	2, 0x0900
     908:	0008                	.insn	2, 0x0008
     90a:	0501                	.insn	2, 0x0501
     90c:	030d                	.insn	2, 0x030d
     90e:	097f 0004 0501 0605 	.insn	10, 0x7d03060505010004097f
     916:	7d03 
     918:	0409                	.insn	2, 0x0409
     91a:	0100                	.insn	2, 0x0100
     91c:	0705                	.insn	2, 0x0705
     91e:	00090103          	lb	sp,0(s2)
     922:	0100                	.insn	2, 0x0100
     924:	2705                	.insn	2, 0x2705
     926:	0306                	.insn	2, 0x0306
     928:	0900                	.insn	2, 0x0900
     92a:	0000                	.insn	2, 0x
     92c:	0501                	.insn	2, 0x0501
     92e:	0312                	.insn	2, 0x0312
     930:	0900                	.insn	2, 0x0900
     932:	0004                	.insn	2, 0x0004
     934:	0501                	.insn	2, 0x0501
     936:	01030607          	.insn	4, 0x01030607
     93a:	0409                	.insn	2, 0x0409
     93c:	0100                	.insn	2, 0x0100
     93e:	1205                	.insn	2, 0x1205
     940:	0306                	.insn	2, 0x0306
     942:	0900                	.insn	2, 0x0900
     944:	0000                	.insn	2, 0x
     946:	0001                	.insn	2, 0x0001
     948:	0402                	.insn	2, 0x0402
     94a:	0301                	.insn	2, 0x0301
     94c:	0900                	.insn	2, 0x0900
     94e:	0010                	.insn	2, 0x0010
     950:	0501                	.insn	2, 0x0501
     952:	000e                	.insn	2, 0x000e
     954:	0402                	.insn	2, 0x0402
     956:	0308                	.insn	2, 0x0308
     958:	0900                	.insn	2, 0x0900
     95a:	0004                	.insn	2, 0x0004
     95c:	0501                	.insn	2, 0x0501
     95e:	0012                	.insn	2, 0x0012
     960:	0402                	.insn	2, 0x0402
     962:	0308                	.insn	2, 0x0308
     964:	0900                	.insn	2, 0x0900
     966:	0004                	.insn	2, 0x0004
     968:	0501                	.insn	2, 0x0501
     96a:	04020007          	.insn	4, 0x04020007
     96e:	0608                	.insn	2, 0x0608
     970:	08090103          	lb	sp,128(s2)
     974:	0100                	.insn	2, 0x0100
     976:	0d05                	.insn	2, 0x0d05
     978:	0200                	.insn	2, 0x0200
     97a:	0804                	.insn	2, 0x0804
     97c:	0306                	.insn	2, 0x0306
     97e:	0900                	.insn	2, 0x0900
     980:	0000                	.insn	2, 0x
     982:	0501                	.insn	2, 0x0501
     984:	0014                	.insn	2, 0x0014
     986:	0402                	.insn	2, 0x0402
     988:	0608                	.insn	2, 0x0608
     98a:	04090103          	lb	sp,64(s2)
     98e:	0100                	.insn	2, 0x0100
     990:	0305                	.insn	2, 0x0305
     992:	04090303          	lb	t1,64(s2)
     996:	0100                	.insn	2, 0x0100
     998:	097fba03          	.insn	4, 0x097fba03
     99c:	0000                	.insn	2, 0x
     99e:	0501                	.insn	2, 0x0501
     9a0:	0003060f          	.insn	4, 0x0003060f
     9a4:	0009                	.insn	2, 0x0009
     9a6:	0100                	.insn	2, 0x0100
     9a8:	0605                	.insn	2, 0x0605
     9aa:	04090003          	lb	zero,64(s2)
     9ae:	0100                	.insn	2, 0x0100
     9b0:	0305                	.insn	2, 0x0305
     9b2:	0306                	.insn	2, 0x0306
     9b4:	090d                	.insn	2, 0x090d
     9b6:	0004                	.insn	2, 0x0004
     9b8:	0501                	.insn	2, 0x0501
     9ba:	0606                	.insn	2, 0x0606
     9bc:	00090003          	lb	zero,0(s2)
     9c0:	0100                	.insn	2, 0x0100
     9c2:	0505                	.insn	2, 0x0505
     9c4:	0306                	.insn	2, 0x0306
     9c6:	0901                	.insn	2, 0x0901
     9c8:	0004                	.insn	2, 0x0004
     9ca:	0501                	.insn	2, 0x0501
     9cc:	0608                	.insn	2, 0x0608
     9ce:	00090003          	lb	zero,0(s2)
     9d2:	0100                	.insn	2, 0x0100
     9d4:	2405                	.insn	2, 0x2405
     9d6:	04090003          	lb	zero,64(s2)
     9da:	0100                	.insn	2, 0x0100
     9dc:	0505                	.insn	2, 0x0505
     9de:	0306                	.insn	2, 0x0306
     9e0:	0906                	.insn	2, 0x0906
     9e2:	0004                	.insn	2, 0x0004
     9e4:	0501                	.insn	2, 0x0501
     9e6:	0608                	.insn	2, 0x0608
     9e8:	00090003          	lb	zero,0(s2)
     9ec:	0100                	.insn	2, 0x0100
     9ee:	0a05                	.insn	2, 0x0a05
     9f0:	0306                	.insn	2, 0x0306
     9f2:	0906                	.insn	2, 0x0906
     9f4:	0008                	.insn	2, 0x0008
     9f6:	0501                	.insn	2, 0x0501
     9f8:	060d                	.insn	2, 0x060d
     9fa:	00090003          	lb	zero,0(s2)
     9fe:	0100                	.insn	2, 0x0100
     a00:	0705                	.insn	2, 0x0705
     a02:	0306                	.insn	2, 0x0306
     a04:	0904                	.insn	2, 0x0904
     a06:	0008                	.insn	2, 0x0008
     a08:	0501                	.insn	2, 0x0501
     a0a:	0612                	.insn	2, 0x0612
     a0c:	00090003          	lb	zero,0(s2)
     a10:	0100                	.insn	2, 0x0100
     a12:	0305                	.insn	2, 0x0305
     a14:	0306                	.insn	2, 0x0306
     a16:	0904                	.insn	2, 0x0904
     a18:	0008                	.insn	2, 0x0008
     a1a:	0501                	.insn	2, 0x0501
     a1c:	0612                	.insn	2, 0x0612
     a1e:	00097c03          	.insn	4, 0x00097c03
     a22:	0100                	.insn	2, 0x0100
     a24:	0e05                	.insn	2, 0x0e05
     a26:	04090003          	lb	zero,64(s2)
     a2a:	0100                	.insn	2, 0x0100
     a2c:	0505                	.insn	2, 0x0505
     a2e:	0306                	.insn	2, 0x0306
     a30:	0905                	.insn	2, 0x0905
     a32:	0004                	.insn	2, 0x0004
     a34:	0501                	.insn	2, 0x0501
     a36:	061d                	.insn	2, 0x061d
     a38:	00094303          	lbu	t1,0(s2)
     a3c:	0100                	.insn	2, 0x0100
     a3e:	0805                	.insn	2, 0x0805
     a40:	04093d03          	.insn	4, 0x04093d03
     a44:	0100                	.insn	2, 0x0100
     a46:	0a05                	.insn	2, 0x0a05
     a48:	0306                	.insn	2, 0x0306
     a4a:	00040903          	lb	s2,0(s0)
     a4e:	0501                	.insn	2, 0x0501
     a50:	0614                	.insn	2, 0x0614
     a52:	00090003          	lb	zero,0(s2)
     a56:	0100                	.insn	2, 0x0100
     a58:	0d05                	.insn	2, 0x0d05
     a5a:	04090003          	lb	zero,64(s2)
     a5e:	0100                	.insn	2, 0x0100
     a60:	0705                	.insn	2, 0x0705
     a62:	0306                	.insn	2, 0x0306
     a64:	0901                	.insn	2, 0x0901
     a66:	0004                	.insn	2, 0x0004
     a68:	0501                	.insn	2, 0x0501
     a6a:	0612                	.insn	2, 0x0612
     a6c:	00090003          	lb	zero,0(s2)
     a70:	0100                	.insn	2, 0x0100
     a72:	0e05                	.insn	2, 0x0e05
     a74:	08090003          	lb	zero,128(s2)
     a78:	0100                	.insn	2, 0x0100
     a7a:	1205                	.insn	2, 0x1205
     a7c:	04090003          	lb	zero,64(s2)
     a80:	0100                	.insn	2, 0x0100
     a82:	0305                	.insn	2, 0x0305
     a84:	0306                	.insn	2, 0x0306
     a86:	00080907          	.insn	4, 0x00080907
     a8a:	0301                	.insn	2, 0x0301
     a8c:	7fb5                	.insn	2, 0x7fb5
     a8e:	0009                	.insn	2, 0x0009
     a90:	0100                	.insn	2, 0x0100
     a92:	00090303          	lb	t1,0(s2)
     a96:	0100                	.insn	2, 0x0100
     a98:	0605                	.insn	2, 0x0605
     a9a:	0306                	.insn	2, 0x0306
     a9c:	0900                	.insn	2, 0x0900
     a9e:	0000                	.insn	2, 0x
     aa0:	0501                	.insn	2, 0x0501
     aa2:	061c                	.insn	2, 0x061c
     aa4:	08090103          	lb	sp,128(s2)
     aa8:	0100                	.insn	2, 0x0100
     aaa:	0305                	.insn	2, 0x0305
     aac:	0900df03          	lhu	t5,144(ra)
     ab0:	0008                	.insn	2, 0x0008
     ab2:	0301                	.insn	2, 0x0301
     ab4:	7fba                	.insn	2, 0x7fba
     ab6:	0009                	.insn	2, 0x0009
     ab8:	0100                	.insn	2, 0x0100
     aba:	0f05                	.insn	2, 0x0f05
     abc:	0306                	.insn	2, 0x0306
     abe:	0900                	.insn	2, 0x0900
     ac0:	0000                	.insn	2, 0x
     ac2:	0501                	.insn	2, 0x0501
     ac4:	0306                	.insn	2, 0x0306
     ac6:	0900                	.insn	2, 0x0900
     ac8:	0004                	.insn	2, 0x0004
     aca:	0501                	.insn	2, 0x0501
     acc:	030a                	.insn	2, 0x030a
     ace:	0936                	.insn	2, 0x0936
     ad0:	000c                	.insn	2, 0x000c
     ad2:	0501                	.insn	2, 0x0501
     ad4:	0605                	.insn	2, 0x0605
     ad6:	04094b03          	lbu	s6,64(s2)
     ada:	0100                	.insn	2, 0x0100
     adc:	0805                	.insn	2, 0x0805
     ade:	0306                	.insn	2, 0x0306
     ae0:	0900                	.insn	2, 0x0900
     ae2:	0000                	.insn	2, 0x
     ae4:	0501                	.insn	2, 0x0501
     ae6:	0619                	.insn	2, 0x0619
     ae8:	04090303          	lb	t1,64(s2)
     aec:	0100                	.insn	2, 0x0100
     aee:	0306                	.insn	2, 0x0306
     af0:	097d                	.insn	2, 0x097d
     af2:	0008                	.insn	2, 0x0008
     af4:	0301                	.insn	2, 0x0301
     af6:	00040903          	lb	s2,0(s0)
     afa:	0501                	.insn	2, 0x0501
     afc:	0312                	.insn	2, 0x0312
     afe:	0901                	.insn	2, 0x0901
     b00:	0008                	.insn	2, 0x0008
     b02:	0501                	.insn	2, 0x0501
     b04:	0319                	.insn	2, 0x0319
     b06:	097f 0004 0501 0607 	.insn	10, 0x0103060705010004097f
     b0e:	0103 
     b10:	0c09                	.insn	2, 0x0c09
     b12:	0100                	.insn	2, 0x0100
     b14:	0e05                	.insn	2, 0x0e05
     b16:	0306                	.insn	2, 0x0306
     b18:	0900                	.insn	2, 0x0900
     b1a:	0000                	.insn	2, 0x
     b1c:	0501                	.insn	2, 0x0501
     b1e:	0312                	.insn	2, 0x0312
     b20:	0900                	.insn	2, 0x0900
     b22:	0004                	.insn	2, 0x0004
     b24:	0501                	.insn	2, 0x0501
     b26:	0619                	.insn	2, 0x0619
     b28:	08097f03          	.insn	4, 0x08097f03
     b2c:	0100                	.insn	2, 0x0100
     b2e:	3505                	.insn	2, 0x3505
     b30:	04090303          	lb	t1,64(s2)
     b34:	0100                	.insn	2, 0x0100
     b36:	2405                	.insn	2, 0x2405
     b38:	0306                	.insn	2, 0x0306
     b3a:	0900                	.insn	2, 0x0900
     b3c:	0004                	.insn	2, 0x0004
     b3e:	0501                	.insn	2, 0x0501
     b40:	0335                	.insn	2, 0x0335
     b42:	0900                	.insn	2, 0x0900
     b44:	0004                	.insn	2, 0x0004
     b46:	0501                	.insn	2, 0x0501
     b48:	0312                	.insn	2, 0x0312
     b4a:	0901                	.insn	2, 0x0901
     b4c:	0008                	.insn	2, 0x0008
     b4e:	0501                	.insn	2, 0x0501
     b50:	0335                	.insn	2, 0x0335
     b52:	097f 0004 0501 0607 	.insn	10, 0x0103060705010004097f
     b5a:	0103 
     b5c:	1009                	.insn	2, 0x1009
     b5e:	0100                	.insn	2, 0x0100
     b60:	0e05                	.insn	2, 0x0e05
     b62:	0306                	.insn	2, 0x0306
     b64:	0900                	.insn	2, 0x0900
     b66:	0000                	.insn	2, 0x
     b68:	0501                	.insn	2, 0x0501
     b6a:	0312                	.insn	2, 0x0312
     b6c:	0900                	.insn	2, 0x0900
     b6e:	0004                	.insn	2, 0x0004
     b70:	0501                	.insn	2, 0x0501
     b72:	0635                	.insn	2, 0x0635
     b74:	08097f03          	.insn	4, 0x08097f03
     b78:	0100                	.insn	2, 0x0100
     b7a:	2405                	.insn	2, 0x2405
     b7c:	0306                	.insn	2, 0x0306
     b7e:	0900                	.insn	2, 0x0900
     b80:	0000                	.insn	2, 0x
     b82:	0501                	.insn	2, 0x0501
     b84:	06030603          	lb	a2,96(t1)
     b88:	0809                	.insn	2, 0x0809
     b8a:	0100                	.insn	2, 0x0100
     b8c:	0605                	.insn	2, 0x0605
     b8e:	0306                	.insn	2, 0x0306
     b90:	0900                	.insn	2, 0x0900
     b92:	0000                	.insn	2, 0x
     b94:	0501                	.insn	2, 0x0501
     b96:	0635                	.insn	2, 0x0635
     b98:	10097a03          	.insn	4, 0x10097a03
     b9c:	0100                	.insn	2, 0x0100
     b9e:	2405                	.insn	2, 0x2405
     ba0:	0306                	.insn	2, 0x0306
     ba2:	0900                	.insn	2, 0x0900
     ba4:	0004                	.insn	2, 0x0004
     ba6:	0501                	.insn	2, 0x0501
     ba8:	06030603          	lb	a2,96(t1)
     bac:	0409                	.insn	2, 0x0409
     bae:	0100                	.insn	2, 0x0100
     bb0:	0605                	.insn	2, 0x0605
     bb2:	0306                	.insn	2, 0x0306
     bb4:	0900                	.insn	2, 0x0900
     bb6:	0000                	.insn	2, 0x
     bb8:	0501                	.insn	2, 0x0501
     bba:	0605                	.insn	2, 0x0605
     bbc:	04090103          	lb	sp,64(s2)
     bc0:	0100                	.insn	2, 0x0100
     bc2:	0805                	.insn	2, 0x0805
     bc4:	0306                	.insn	2, 0x0306
     bc6:	0900                	.insn	2, 0x0900
     bc8:	0000                	.insn	2, 0x
     bca:	0501                	.insn	2, 0x0501
     bcc:	0900032b          	.insn	4, 0x0900032b
     bd0:	0004                	.insn	2, 0x0004
     bd2:	0501                	.insn	2, 0x0501
     bd4:	030a                	.insn	2, 0x030a
     bd6:	0901                	.insn	2, 0x0901
     bd8:	0010                	.insn	2, 0x0010
     bda:	0501                	.insn	2, 0x0501
     bdc:	0901030f          	.insn	4, 0x0901030f
     be0:	0004                	.insn	2, 0x0004
     be2:	0501                	.insn	2, 0x0501
     be4:	060a                	.insn	2, 0x060a
     be6:	08090703          	lb	a4,128(s2)
     bea:	0100                	.insn	2, 0x0100
     bec:	00090303          	lb	t1,0(s2)
     bf0:	0100                	.insn	2, 0x0100
     bf2:	0d05                	.insn	2, 0x0d05
     bf4:	0306                	.insn	2, 0x0306
     bf6:	0900                	.insn	2, 0x0900
     bf8:	0000                	.insn	2, 0x
     bfa:	0501                	.insn	2, 0x0501
     bfc:	04030607          	.insn	4, 0x04030607
     c00:	0809                	.insn	2, 0x0809
     c02:	0100                	.insn	2, 0x0100
     c04:	1205                	.insn	2, 0x1205
     c06:	0306                	.insn	2, 0x0306
     c08:	0900                	.insn	2, 0x0900
     c0a:	0000                	.insn	2, 0x
     c0c:	0501                	.insn	2, 0x0501
     c0e:	04030603          	lb	a2,64(t1)
     c12:	1009                	.insn	2, 0x1009
     c14:	0100                	.insn	2, 0x0100
     c16:	0605                	.insn	2, 0x0605
     c18:	0306                	.insn	2, 0x0306
     c1a:	0900                	.insn	2, 0x0900
     c1c:	0000                	.insn	2, 0x
     c1e:	0501                	.insn	2, 0x0501
     c20:	0c030603          	lb	a2,192(t1)
     c24:	0809                	.insn	2, 0x0809
     c26:	0100                	.insn	2, 0x0100
     c28:	097fb503          	.insn	4, 0x097fb503
     c2c:	0000                	.insn	2, 0x
     c2e:	0301                	.insn	2, 0x0301
     c30:	00000903          	lb	s2,0(zero) # 0 <_vector_table_start>
     c34:	0501                	.insn	2, 0x0501
     c36:	061d                	.insn	2, 0x061d
     c38:	00090003          	lb	zero,0(s2)
     c3c:	0100                	.insn	2, 0x0100
     c3e:	0605                	.insn	2, 0x0605
     c40:	04090003          	lb	zero,64(s2)
     c44:	0100                	.insn	2, 0x0100
     c46:	1c05                	.insn	2, 0x1c05
     c48:	0306                	.insn	2, 0x0306
     c4a:	0901                	.insn	2, 0x0901
     c4c:	0004                	.insn	2, 0x0004
     c4e:	0501                	.insn	2, 0x0501
     c50:	09010307          	.insn	4, 0x09010307
     c54:	000c                	.insn	2, 0x000c
     c56:	0501                	.insn	2, 0x0501
     c58:	0326                	.insn	2, 0x0326
     c5a:	097f 0018 0501 031c 	.insn	10, 0x0900031c05010018097f
     c62:	0900 
     c64:	0000                	.insn	2, 0x
     c66:	0501                	.insn	2, 0x0501
     c68:	01030607          	.insn	4, 0x01030607
     c6c:	0809                	.insn	2, 0x0809
     c6e:	0100                	.insn	2, 0x0100
     c70:	0a05                	.insn	2, 0x0a05
     c72:	0306                	.insn	2, 0x0306
     c74:	0905                	.insn	2, 0x0905
     c76:	001c                	.insn	2, 0x001c
     c78:	0501                	.insn	2, 0x0501
     c7a:	09050303          	lb	t1,144(a0)
     c7e:	0004                	.insn	2, 0x0004
     c80:	0501                	.insn	2, 0x0501
     c82:	0606                	.insn	2, 0x0606
     c84:	00090003          	lb	zero,0(s2)
     c88:	0100                	.insn	2, 0x0100
     c8a:	1c05                	.insn	2, 0x1c05
     c8c:	0306                	.insn	2, 0x0306
     c8e:	0901                	.insn	2, 0x0901
     c90:	0004                	.insn	2, 0x0004
     c92:	0501                	.insn	2, 0x0501
     c94:	0610                	.insn	2, 0x0610
     c96:	00090003          	lb	zero,0(s2)
     c9a:	0100                	.insn	2, 0x0100
     c9c:	1c05                	.insn	2, 0x1c05
     c9e:	04090003          	lb	zero,64(s2)
     ca2:	0100                	.insn	2, 0x0100
     ca4:	0705                	.insn	2, 0x0705
     ca6:	0306                	.insn	2, 0x0306
     ca8:	0901                	.insn	2, 0x0901
     caa:	0004                	.insn	2, 0x0004
     cac:	0501                	.insn	2, 0x0501
     cae:	061c                	.insn	2, 0x061c
     cb0:	04097f03          	.insn	4, 0x04097f03
     cb4:	0100                	.insn	2, 0x0100
     cb6:	0705                	.insn	2, 0x0705
     cb8:	04090103          	lb	sp,64(s2)
     cbc:	0100                	.insn	2, 0x0100
     cbe:	1c05                	.insn	2, 0x1c05
     cc0:	0306                	.insn	2, 0x0306
     cc2:	097f 0014 0501 0601 	.insn	10, 0xd403060105010014097f
     cca:	d403 
     ccc:	0900                	.insn	2, 0x0900
     cce:	0004                	.insn	2, 0x0004
     cd0:	0501                	.insn	2, 0x0501
     cd2:	0319                	.insn	2, 0x0319
     cd4:	7fba                	.insn	2, 0x7fba
     cd6:	3809                	.insn	2, 0x3809
     cd8:	0100                	.insn	2, 0x0100
     cda:	0f05                	.insn	2, 0x0f05
     cdc:	04090003          	lb	zero,64(s2)
     ce0:	0100                	.insn	2, 0x0100
     ce2:	2a05                	.insn	2, 0x2a05
     ce4:	04090003          	lb	zero,64(s2)
     ce8:	0100                	.insn	2, 0x0100
     cea:	4105                	.insn	2, 0x4105
     cec:	04090003          	lb	zero,64(s2)
     cf0:	0100                	.insn	2, 0x0100
     cf2:	3705                	.insn	2, 0x3705
     cf4:	04090003          	lb	zero,64(s2)
     cf8:	0100                	.insn	2, 0x0100
     cfa:	1905                	.insn	2, 0x1905
     cfc:	0306                	.insn	2, 0x0306
     cfe:	00040903          	lb	s2,0(s0)
     d02:	0501                	.insn	2, 0x0501
     d04:	0335                	.insn	2, 0x0335
     d06:	000c0903          	lb	s2,0(s8)
     d0a:	0501                	.insn	2, 0x0501
     d0c:	0624                	.insn	2, 0x0624
     d0e:	00090003          	lb	zero,0(s2)
     d12:	0100                	.insn	2, 0x0100
     d14:	0305                	.insn	2, 0x0305
     d16:	0306                	.insn	2, 0x0306
     d18:	0906                	.insn	2, 0x0906
     d1a:	0004                	.insn	2, 0x0004
     d1c:	0501                	.insn	2, 0x0501
     d1e:	0606                	.insn	2, 0x0606
     d20:	00090003          	lb	zero,0(s2)
     d24:	0100                	.insn	2, 0x0100
     d26:	0505                	.insn	2, 0x0505
     d28:	0306                	.insn	2, 0x0306
     d2a:	0901                	.insn	2, 0x0901
     d2c:	0008                	.insn	2, 0x0008
     d2e:	0501                	.insn	2, 0x0501
     d30:	0608                	.insn	2, 0x0608
     d32:	00090003          	lb	zero,0(s2)
     d36:	0100                	.insn	2, 0x0100
     d38:	0505                	.insn	2, 0x0505
     d3a:	0306                	.insn	2, 0x0306
     d3c:	0906                	.insn	2, 0x0906
     d3e:	0004                	.insn	2, 0x0004
     d40:	0501                	.insn	2, 0x0501
     d42:	0608                	.insn	2, 0x0608
     d44:	00090003          	lb	zero,0(s2)
     d48:	0100                	.insn	2, 0x0100
     d4a:	1d05                	.insn	2, 0x1d05
     d4c:	04095203          	lhu	tp,64(s2)
     d50:	0100                	.insn	2, 0x0100
     d52:	0805                	.insn	2, 0x0805
     d54:	04092e03          	lw	t3,64(s2)
     d58:	0100                	.insn	2, 0x0100
     d5a:	0a05                	.insn	2, 0x0a05
     d5c:	0306                	.insn	2, 0x0306
     d5e:	0906                	.insn	2, 0x0906
     d60:	0004                	.insn	2, 0x0004
     d62:	0501                	.insn	2, 0x0501
     d64:	060d                	.insn	2, 0x060d
     d66:	00090003          	lb	zero,0(s2)
     d6a:	0100                	.insn	2, 0x0100
     d6c:	0505                	.insn	2, 0x0505
     d6e:	0306                	.insn	2, 0x0306
     d70:	00080903          	lb	s2,0(a6)
     d74:	0501                	.insn	2, 0x0501
     d76:	0608                	.insn	2, 0x0608
     d78:	00090003          	lb	zero,0(s2)
     d7c:	0100                	.insn	2, 0x0100
     d7e:	0305                	.insn	2, 0x0305
     d80:	0306                	.insn	2, 0x0306
     d82:	0911                	.insn	2, 0x0911
     d84:	0008                	.insn	2, 0x0008
     d86:	0301                	.insn	2, 0x0301
     d88:	7fb5                	.insn	2, 0x7fb5
     d8a:	0009                	.insn	2, 0x0009
     d8c:	0100                	.insn	2, 0x0100
     d8e:	00090303          	lb	t1,0(s2)
     d92:	0100                	.insn	2, 0x0100
     d94:	0605                	.insn	2, 0x0605
     d96:	0306                	.insn	2, 0x0306
     d98:	0900                	.insn	2, 0x0900
     d9a:	0000                	.insn	2, 0x
     d9c:	0501                	.insn	2, 0x0501
     d9e:	0305                	.insn	2, 0x0305
     da0:	0908                	.insn	2, 0x0908
     da2:	0010                	.insn	2, 0x0010
     da4:	0501                	.insn	2, 0x0501
     da6:	030a                	.insn	2, 0x030a
     da8:	097f 0010 0501 0305 	.insn	10, 0x0901030505010010097f
     db0:	0901 
     db2:	0004                	.insn	2, 0x0004
     db4:	0601                	.insn	2, 0x0601
     db6:	08090003          	lb	zero,128(s2)
     dba:	0100                	.insn	2, 0x0100
     dbc:	0a05                	.insn	2, 0x0a05
     dbe:	04097f03          	.insn	4, 0x04097f03
     dc2:	0100                	.insn	2, 0x0100
     dc4:	0705                	.insn	2, 0x0705
     dc6:	08093703          	.insn	4, 0x08093703
     dca:	0100                	.insn	2, 0x0100
     dcc:	1205                	.insn	2, 0x1205
     dce:	0306                	.insn	2, 0x0306
     dd0:	0900                	.insn	2, 0x0900
     dd2:	0000                	.insn	2, 0x
     dd4:	0501                	.insn	2, 0x0501
     dd6:	030e                	.insn	2, 0x030e
     dd8:	0900                	.insn	2, 0x0900
     dda:	0008                	.insn	2, 0x0008
     ddc:	0501                	.insn	2, 0x0501
     dde:	0312                	.insn	2, 0x0312
     de0:	0900                	.insn	2, 0x0900
     de2:	0004                	.insn	2, 0x0004
     de4:	0501                	.insn	2, 0x0501
     de6:	0619                	.insn	2, 0x0619
     de8:	0c096003          	.insn	4, 0x0c096003
     dec:	0100                	.insn	2, 0x0100
     dee:	0305                	.insn	2, 0x0305
     df0:	0c090903          	lb	s2,192(s2)
     df4:	0100                	.insn	2, 0x0100
     df6:	0605                	.insn	2, 0x0605
     df8:	0306                	.insn	2, 0x0306
     dfa:	0900                	.insn	2, 0x0900
     dfc:	0000                	.insn	2, 0x
     dfe:	0501                	.insn	2, 0x0501
     e00:	0605                	.insn	2, 0x0605
     e02:	04090103          	lb	sp,64(s2)
     e06:	0100                	.insn	2, 0x0100
     e08:	0805                	.insn	2, 0x0805
     e0a:	0306                	.insn	2, 0x0306
     e0c:	0900                	.insn	2, 0x0900
     e0e:	0000                	.insn	2, 0x
     e10:	0501                	.insn	2, 0x0501
     e12:	0900032b          	.insn	4, 0x0900032b
     e16:	0008                	.insn	2, 0x0008
     e18:	0501                	.insn	2, 0x0501
     e1a:	033d                	.insn	2, 0x033d
     e1c:	0900                	.insn	2, 0x0900
     e1e:	0004                	.insn	2, 0x0004
     e20:	0501                	.insn	2, 0x0501
     e22:	01030607          	.insn	4, 0x01030607
     e26:	0409                	.insn	2, 0x0409
     e28:	0100                	.insn	2, 0x0100
     e2a:	0a05                	.insn	2, 0x0a05
     e2c:	0306                	.insn	2, 0x0306
     e2e:	0900                	.insn	2, 0x0900
     e30:	0000                	.insn	2, 0x
     e32:	0501                	.insn	2, 0x0501
     e34:	01030607          	.insn	4, 0x01030607
     e38:	0409                	.insn	2, 0x0409
     e3a:	0100                	.insn	2, 0x0100
     e3c:	0a05                	.insn	2, 0x0a05
     e3e:	0306                	.insn	2, 0x0306
     e40:	0900                	.insn	2, 0x0900
     e42:	0000                	.insn	2, 0x
     e44:	0501                	.insn	2, 0x0501
     e46:	0605                	.insn	2, 0x0605
     e48:	04090403          	lb	s0,64(s2)
     e4c:	0100                	.insn	2, 0x0100
     e4e:	0805                	.insn	2, 0x0805
     e50:	0306                	.insn	2, 0x0306
     e52:	0900                	.insn	2, 0x0900
     e54:	0000                	.insn	2, 0x
     e56:	0501                	.insn	2, 0x0501
     e58:	09000317          	auipc	t1,0x9000
     e5c:	0008                	.insn	2, 0x0008
     e5e:	0501                	.insn	2, 0x0501
     e60:	0312                	.insn	2, 0x0312
     e62:	0901                	.insn	2, 0x0901
     e64:	000c                	.insn	2, 0x000c
     e66:	0501                	.insn	2, 0x0501
     e68:	09030607          	.insn	4, 0x09030607
     e6c:	0409                	.insn	2, 0x0409
     e6e:	0100                	.insn	2, 0x0100
     e70:	0305                	.insn	2, 0x0305
     e72:	00090403          	lb	s0,0(s2)
     e76:	0100                	.insn	2, 0x0100
     e78:	1205                	.insn	2, 0x1205
     e7a:	0306                	.insn	2, 0x0306
     e7c:	097c                	.insn	2, 0x097c
     e7e:	0000                	.insn	2, 0x
     e80:	0501                	.insn	2, 0x0501
     e82:	097c031b          	.insn	4, 0x097c031b
     e86:	0014                	.insn	2, 0x0014
     e88:	0501                	.insn	2, 0x0501
     e8a:	0326                	.insn	2, 0x0326
     e8c:	094d                	.insn	2, 0x094d
     e8e:	0008                	.insn	2, 0x0008
     e90:	0501                	.insn	2, 0x0501
     e92:	34030607          	.insn	4, 0x34030607
     e96:	0809                	.insn	2, 0x0809
     e98:	0100                	.insn	2, 0x0100
     e9a:	1205                	.insn	2, 0x1205
     e9c:	0306                	.insn	2, 0x0306
     e9e:	0900                	.insn	2, 0x0900
     ea0:	0000                	.insn	2, 0x
     ea2:	0501                	.insn	2, 0x0501
     ea4:	67030607          	.insn	4, 0x67030607
     ea8:	1409                	.insn	2, 0x1409
     eaa:	0100                	.insn	2, 0x0100
     eac:	0c05                	.insn	2, 0x0c05
     eae:	0306                	.insn	2, 0x0306
     eb0:	0900                	.insn	2, 0x0900
     eb2:	0000                	.insn	2, 0x
     eb4:	0501                	.insn	2, 0x0501
     eb6:	0b030603          	lb	a2,176(t1) # 9000f08 <_peripheral_PLIC_end+0x1000f08>
     eba:	0809                	.insn	2, 0x0809
     ebc:	0100                	.insn	2, 0x0100
     ebe:	0605                	.insn	2, 0x0605
     ec0:	0306                	.insn	2, 0x0306
     ec2:	0900                	.insn	2, 0x0900
     ec4:	0000                	.insn	2, 0x
     ec6:	0501                	.insn	2, 0x0501
     ec8:	0605                	.insn	2, 0x0605
     eca:	04090103          	lb	sp,64(s2)
     ece:	0100                	.insn	2, 0x0100
     ed0:	0805                	.insn	2, 0x0805
     ed2:	0306                	.insn	2, 0x0306
     ed4:	0900                	.insn	2, 0x0900
     ed6:	0000                	.insn	2, 0x
     ed8:	0501                	.insn	2, 0x0501
     eda:	0322                	.insn	2, 0x0322
     edc:	0906                	.insn	2, 0x0906
     ede:	0010                	.insn	2, 0x0010
     ee0:	0501                	.insn	2, 0x0501
     ee2:	09000317          	auipc	t1,0x9000
     ee6:	0004                	.insn	2, 0x0004
     ee8:	0501                	.insn	2, 0x0501
     eea:	060a                	.insn	2, 0x060a
     eec:	04090303          	lb	t1,64(s2)
     ef0:	0100                	.insn	2, 0x0100
     ef2:	3905                	.insn	2, 0x3905
     ef4:	0306                	.insn	2, 0x0306
     ef6:	0900                	.insn	2, 0x0900
     ef8:	0000                	.insn	2, 0x
     efa:	0501                	.insn	2, 0x0501
     efc:	01030607          	.insn	4, 0x01030607
     f00:	0809                	.insn	2, 0x0809
     f02:	0100                	.insn	2, 0x0100
     f04:	1205                	.insn	2, 0x1205
     f06:	0306                	.insn	2, 0x0306
     f08:	0900                	.insn	2, 0x0900
     f0a:	0000                	.insn	2, 0x
     f0c:	0501                	.insn	2, 0x0501
     f0e:	060a                	.insn	2, 0x060a
     f10:	18091103          	lh	sp,384(s2)
     f14:	0100                	.insn	2, 0x0100
     f16:	1405                	.insn	2, 0x1405
     f18:	0306                	.insn	2, 0x0306
     f1a:	0900                	.insn	2, 0x0900
     f1c:	0000                	.insn	2, 0x
     f1e:	0501                	.insn	2, 0x0501
     f20:	030d                	.insn	2, 0x030d
     f22:	0900                	.insn	2, 0x0900
     f24:	0004                	.insn	2, 0x0004
     f26:	0501                	.insn	2, 0x0501
     f28:	05030603          	lb	a2,80(t1) # 9000f32 <_peripheral_PLIC_end+0x1000f32>
     f2c:	0409                	.insn	2, 0x0409
     f2e:	0100                	.insn	2, 0x0100
     f30:	097fb503          	.insn	4, 0x097fb503
     f34:	0000                	.insn	2, 0x
     f36:	0301                	.insn	2, 0x0301
     f38:	00000903          	lb	s2,0(zero) # 0 <_vector_table_start>
     f3c:	0501                	.insn	2, 0x0501
     f3e:	061c                	.insn	2, 0x061c
     f40:	00090103          	lb	sp,0(s2)
     f44:	0100                	.insn	2, 0x0100
     f46:	0605                	.insn	2, 0x0605
     f48:	04097f03          	.insn	4, 0x04097f03
     f4c:	0100                	.insn	2, 0x0100
     f4e:	1c05                	.insn	2, 0x1c05
     f50:	0306                	.insn	2, 0x0306
     f52:	0901                	.insn	2, 0x0901
     f54:	0004                	.insn	2, 0x0004
     f56:	0501                	.insn	2, 0x0501
     f58:	030a                	.insn	2, 0x030a
     f5a:	0906                	.insn	2, 0x0906
     f5c:	0008                	.insn	2, 0x0008
     f5e:	0501                	.insn	2, 0x0501
     f60:	0606                	.insn	2, 0x0606
     f62:	08092003          	lw	zero,128(s2)
     f66:	0100                	.insn	2, 0x0100
     f68:	3505                	.insn	2, 0x3505
     f6a:	18090703          	lb	a4,384(s2)
     f6e:	0100                	.insn	2, 0x0100
     f70:	0705                	.insn	2, 0x0705
     f72:	0306                	.insn	2, 0x0306
     f74:	0901                	.insn	2, 0x0901
     f76:	0008                	.insn	2, 0x0008
     f78:	0501                	.insn	2, 0x0501
     f7a:	0612                	.insn	2, 0x0612
     f7c:	00090003          	lb	zero,0(s2)
     f80:	0100                	.insn	2, 0x0100
     f82:	0705                	.insn	2, 0x0705
     f84:	0306                	.insn	2, 0x0306
     f86:	0915                	.insn	2, 0x0915
     f88:	0018                	.insn	2, 0x0018
     f8a:	0501                	.insn	2, 0x0501
     f8c:	0612                	.insn	2, 0x0612
     f8e:	00090003          	lb	zero,0(s2)
     f92:	0100                	.insn	2, 0x0100
     f94:	0e05                	.insn	2, 0x0e05
     f96:	08090003          	lb	zero,128(s2)
     f9a:	0100                	.insn	2, 0x0100
     f9c:	1205                	.insn	2, 0x1205
     f9e:	04090003          	lb	zero,64(s2)
     fa2:	0100                	.insn	2, 0x0100
     fa4:	0805                	.insn	2, 0x0805
     fa6:	0c096403          	.insn	4, 0x0c096403
     faa:	0100                	.insn	2, 0x0100
     fac:	2b05                	.insn	2, 0x2b05
     fae:	08090003          	lb	zero,128(s2)
     fb2:	0100                	.insn	2, 0x0100
     fb4:	0905                	.insn	2, 0x0905
     fb6:	0306                	.insn	2, 0x0306
     fb8:	00080903          	lb	s2,0(a6)
     fbc:	0501                	.insn	2, 0x0501
     fbe:	0622                	.insn	2, 0x0622
     fc0:	00090303          	lb	t1,0(s2)
     fc4:	0100                	.insn	2, 0x0100
     fc6:	0c05                	.insn	2, 0x0c05
     fc8:	04097d03          	.insn	4, 0x04097d03
     fcc:	0100                	.insn	2, 0x0100
     fce:	0505                	.insn	2, 0x0505
     fd0:	0306                	.insn	2, 0x0306
     fd2:	00040903          	lb	s2,0(s0)
     fd6:	0501                	.insn	2, 0x0501
     fd8:	00030617          	auipc	a2,0x30
     fdc:	0009                	.insn	2, 0x0009
     fde:	0100                	.insn	2, 0x0100
     fe0:	0705                	.insn	2, 0x0705
     fe2:	0306                	.insn	2, 0x0306
     fe4:	0901                	.insn	2, 0x0901
     fe6:	0004                	.insn	2, 0x0004
     fe8:	0501                	.insn	2, 0x0501
     fea:	0612                	.insn	2, 0x0612
     fec:	00090003          	lb	zero,0(s2)
     ff0:	0100                	.insn	2, 0x0100
     ff2:	0505                	.insn	2, 0x0505
     ff4:	0306                	.insn	2, 0x0306
     ff6:	0908                	.insn	2, 0x0908
     ff8:	0010                	.insn	2, 0x0010
     ffa:	0501                	.insn	2, 0x0501
     ffc:	0612                	.insn	2, 0x0612
     ffe:	00097803          	.insn	4, 0x00097803
    1002:	0100                	.insn	2, 0x0100
    1004:	2605                	.insn	2, 0x2605
    1006:	04095203          	lhu	tp,64(s2)
    100a:	0100                	.insn	2, 0x0100
    100c:	2205                	.insn	2, 0x2205
    100e:	0c092d03          	lw	s10,192(s2)
    1012:	0100                	.insn	2, 0x0100
    1014:	1705                	.insn	2, 0x1705
    1016:	04090003          	lb	zero,64(s2)
    101a:	0100                	.insn	2, 0x0100
    101c:	0705                	.insn	2, 0x0705
    101e:	0306                	.insn	2, 0x0306
    1020:	0904                	.insn	2, 0x0904
    1022:	0004                	.insn	2, 0x0004
    1024:	0501                	.insn	2, 0x0501
    1026:	0612                	.insn	2, 0x0612
    1028:	00090003          	lb	zero,0(s2)
    102c:	0100                	.insn	2, 0x0100
    102e:	0505                	.insn	2, 0x0505
    1030:	0306                	.insn	2, 0x0306
    1032:	0905                	.insn	2, 0x0905
    1034:	0008                	.insn	2, 0x0008
    1036:	0501                	.insn	2, 0x0501
    1038:	09010307          	.insn	4, 0x09010307
    103c:	0000                	.insn	2, 0x
    103e:	0501                	.insn	2, 0x0501
    1040:	09040303          	lb	t1,144(s0)
    1044:	0000                	.insn	2, 0x
    1046:	0501                	.insn	2, 0x0501
    1048:	060d                	.insn	2, 0x060d
    104a:	04097803          	.insn	4, 0x04097803
    104e:	0100                	.insn	2, 0x0100
    1050:	1705                	.insn	2, 0x1705
    1052:	08097a03          	.insn	4, 0x08097a03
    1056:	0100                	.insn	2, 0x0100
    1058:	3505                	.insn	2, 0x3505
    105a:	0306                	.insn	2, 0x0306
    105c:	00080973          	.insn	4, 0x00080973
    1060:	0501                	.insn	2, 0x0501
    1062:	09110307          	.insn	4, 0x09110307
    1066:	0010                	.insn	2, 0x0010
    1068:	0501                	.insn	2, 0x0501
    106a:	0612                	.insn	2, 0x0612
    106c:	00090003          	lb	zero,0(s2)
    1070:	0100                	.insn	2, 0x0100
    1072:	0505                	.insn	2, 0x0505
    1074:	0306                	.insn	2, 0x0306
    1076:	0905                	.insn	2, 0x0905
    1078:	0010                	.insn	2, 0x0010
    107a:	0501                	.insn	2, 0x0501
    107c:	0612                	.insn	2, 0x0612
    107e:	00097b03          	.insn	4, 0x00097b03
    1082:	0100                	.insn	2, 0x0100
    1084:	0305                	.insn	2, 0x0305
    1086:	0306                	.insn	2, 0x0306
    1088:	0975                	.insn	2, 0x0975
    108a:	0008                	.insn	2, 0x0008
    108c:	0501                	.insn	2, 0x0501
    108e:	0606                	.insn	2, 0x0606
    1090:	00090003          	lb	zero,0(s2)
    1094:	0100                	.insn	2, 0x0100
    1096:	0505                	.insn	2, 0x0505
    1098:	0306                	.insn	2, 0x0306
    109a:	0901                	.insn	2, 0x0901
    109c:	0004                	.insn	2, 0x0004
    109e:	0501                	.insn	2, 0x0501
    10a0:	0608                	.insn	2, 0x0608
    10a2:	00090003          	lb	zero,0(s2)
    10a6:	0100                	.insn	2, 0x0100
    10a8:	3d05                	.insn	2, 0x3d05
    10aa:	04090003          	lb	zero,64(s2)
    10ae:	0100                	.insn	2, 0x0100
    10b0:	0605                	.insn	2, 0x0605
    10b2:	08097f03          	.insn	4, 0x08097f03
    10b6:	0100                	.insn	2, 0x0100
    10b8:	0105                	.insn	2, 0x0105
    10ba:	0306                	.insn	2, 0x0306
    10bc:	08097fa3          	.insn	4, 0x08097fa3
    10c0:	0100                	.insn	2, 0x0100
    10c2:	0305                	.insn	2, 0x0305
    10c4:	00090103          	lb	sp,0(s2)
    10c8:	0100                	.insn	2, 0x0100
    10ca:	1105                	.insn	2, 0x1105
    10cc:	00090003          	lb	zero,0(s2)
    10d0:	0100                	.insn	2, 0x0100
    10d2:	1c05                	.insn	2, 0x1c05
    10d4:	00090003          	lb	zero,0(s2)
    10d8:	0100                	.insn	2, 0x0100
    10da:	0305                	.insn	2, 0x0305
    10dc:	00090103          	lb	sp,0(s2)
    10e0:	0100                	.insn	2, 0x0100
    10e2:	0605                	.insn	2, 0x0605
    10e4:	0306                	.insn	2, 0x0306
    10e6:	0900                	.insn	2, 0x0900
    10e8:	0000                	.insn	2, 0x
    10ea:	0501                	.insn	2, 0x0501
    10ec:	0301                	.insn	2, 0x0301
    10ee:	00040903          	lb	s2,0(s0)
    10f2:	0501                	.insn	2, 0x0501
    10f4:	0605                	.insn	2, 0x0605
    10f6:	04097e03          	.insn	4, 0x04097e03
    10fa:	0100                	.insn	2, 0x0100
    10fc:	00097603          	.insn	4, 0x00097603
    1100:	0100                	.insn	2, 0x0100
    1102:	0105                	.insn	2, 0x0105
    1104:	04091103          	lh	sp,64(s2)
    1108:	0100                	.insn	2, 0x0100
    110a:	0305                	.insn	2, 0x0305
    110c:	00090103          	lb	sp,0(s2)
    1110:	0100                	.insn	2, 0x0100
    1112:	0e05                	.insn	2, 0x0e05
    1114:	00090003          	lb	zero,0(s2)
    1118:	0100                	.insn	2, 0x0100
    111a:	0305                	.insn	2, 0x0305
    111c:	00090103          	lb	sp,0(s2)
    1120:	0100                	.insn	2, 0x0100
    1122:	0605                	.insn	2, 0x0605
    1124:	0306                	.insn	2, 0x0306
    1126:	0900                	.insn	2, 0x0900
    1128:	0000                	.insn	2, 0x
    112a:	0501                	.insn	2, 0x0501
    112c:	0605                	.insn	2, 0x0605
    112e:	04090203          	lb	tp,64(s2)
    1132:	0100                	.insn	2, 0x0100
    1134:	0605                	.insn	2, 0x0605
    1136:	0306                	.insn	2, 0x0306
    1138:	0900                	.insn	2, 0x0900
    113a:	0000                	.insn	2, 0x
    113c:	0501                	.insn	2, 0x0501
    113e:	0301                	.insn	2, 0x0301
    1140:	0902                	.insn	2, 0x0902
    1142:	000c                	.insn	2, 0x000c
    1144:	0601                	.insn	2, 0x0601
    1146:	09039b03          	lh	s6,144(t2)
    114a:	0004                	.insn	2, 0x0004
    114c:	0601                	.insn	2, 0x0601
    114e:	38090003          	lb	zero,896(s2)
    1152:	0100                	.insn	2, 0x0100
    1154:	0305                	.insn	2, 0x0305
    1156:	0306                	.insn	2, 0x0306
    1158:	0901                	.insn	2, 0x0901
    115a:	0008                	.insn	2, 0x0008
    115c:	0301                	.insn	2, 0x0301
    115e:	0901                	.insn	2, 0x0901
    1160:	0000                	.insn	2, 0x
    1162:	0301                	.insn	2, 0x0301
    1164:	0902                	.insn	2, 0x0902
    1166:	0000                	.insn	2, 0x
    1168:	0501                	.insn	2, 0x0501
    116a:	0601                	.insn	2, 0x0601
    116c:	00097c03          	.insn	4, 0x00097c03
    1170:	0100                	.insn	2, 0x0100
    1172:	0605                	.insn	2, 0x0605
    1174:	0c090403          	lb	s0,192(s2)
    1178:	0100                	.insn	2, 0x0100
    117a:	0a05                	.insn	2, 0x0a05
    117c:	0306                	.insn	2, 0x0306
    117e:	0905                	.insn	2, 0x0905
    1180:	0004                	.insn	2, 0x0004
    1182:	0501                	.insn	2, 0x0501
    1184:	0605                	.insn	2, 0x0605
    1186:	0900e003          	.insn	4, 0x0900e003
    118a:	000c                	.insn	2, 0x000c
    118c:	0501                	.insn	2, 0x0501
    118e:	7fb10307          	.insn	4, 0x7fb10307
    1192:	0409                	.insn	2, 0x0409
    1194:	0100                	.insn	2, 0x0100
    1196:	0505                	.insn	2, 0x0505
    1198:	0900cf03          	lbu	t5,144(ra)
    119c:	0004                	.insn	2, 0x0004
    119e:	0501                	.insn	2, 0x0501
    11a0:	7fb10307          	.insn	4, 0x7fb10307
    11a4:	0409                	.insn	2, 0x0409
    11a6:	0100                	.insn	2, 0x0100
    11a8:	0505                	.insn	2, 0x0505
    11aa:	0900cf03          	lbu	t5,144(ra)
    11ae:	0008                	.insn	2, 0x0008
    11b0:	0501                	.insn	2, 0x0501
    11b2:	0609                	.insn	2, 0x0609
    11b4:	0901a303          	lw	t1,144(gp) # 4090912 <_peripheral_PLIC_start+0x90912>
    11b8:	0008                	.insn	2, 0x0008
    11ba:	0301                	.insn	2, 0x0301
    11bc:	0901                	.insn	2, 0x0901
    11be:	0014                	.insn	2, 0x0014
    11c0:	0301                	.insn	2, 0x0301
    11c2:	0901                	.insn	2, 0x0901
    11c4:	0000                	.insn	2, 0x
    11c6:	0501                	.insn	2, 0x0501
    11c8:	030a                	.insn	2, 0x030a
    11ca:	00097dfb          	.insn	4, 0x00097dfb
    11ce:	0100                	.insn	2, 0x0100
    11d0:	0505                	.insn	2, 0x0505
    11d2:	08090303          	lb	t1,128(s2)
    11d6:	0100                	.insn	2, 0x0100
    11d8:	0805                	.insn	2, 0x0805
    11da:	0306                	.insn	2, 0x0306
    11dc:	0900                	.insn	2, 0x0900
    11de:	0000                	.insn	2, 0x
    11e0:	0501                	.insn	2, 0x0501
    11e2:	030d                	.insn	2, 0x030d
    11e4:	00040903          	lb	s2,0(s0)
    11e8:	0501                	.insn	2, 0x0501
    11ea:	0308                	.insn	2, 0x0308
    11ec:	097d                	.insn	2, 0x097d
    11ee:	0004                	.insn	2, 0x0004
    11f0:	0501                	.insn	2, 0x0501
    11f2:	090c030b          	.insn	4, 0x090c030b
    11f6:	0004                	.insn	2, 0x0004
    11f8:	0501                	.insn	2, 0x0501
    11fa:	0605                	.insn	2, 0x0605
    11fc:	04090103          	lb	sp,64(s2)
    1200:	0100                	.insn	2, 0x0100
    1202:	0705                	.insn	2, 0x0705
    1204:	00090103          	lb	sp,0(s2)
    1208:	0100                	.insn	2, 0x0100
    120a:	0f05                	.insn	2, 0x0f05
    120c:	0306                	.insn	2, 0x0306
    120e:	0900                	.insn	2, 0x0900
    1210:	0000                	.insn	2, 0x
    1212:	0501                	.insn	2, 0x0501
    1214:	030d                	.insn	2, 0x030d
    1216:	0918                	.insn	2, 0x0918
    1218:	0004                	.insn	2, 0x0004
    121a:	0501                	.insn	2, 0x0501
    121c:	09680307          	.insn	4, 0x09680307
    1220:	0004                	.insn	2, 0x0004
    1222:	0501                	.insn	2, 0x0501
    1224:	060e                	.insn	2, 0x060e
    1226:	1c090803          	lb	a6,448(s2)
    122a:	0100                	.insn	2, 0x0100
    122c:	0505                	.insn	2, 0x0505
    122e:	00090303          	lb	t1,0(s2)
    1232:	0100                	.insn	2, 0x0100
    1234:	00090103          	lb	sp,0(s2)
    1238:	0100                	.insn	2, 0x0100
    123a:	0305                	.insn	2, 0x0305
    123c:	097cd003          	lhu	zero,151(s9)
    1240:	0000                	.insn	2, 0x
    1242:	0501                	.insn	2, 0x0501
    1244:	0616                	.insn	2, 0x0616
    1246:	00090003          	lb	zero,0(s2)
    124a:	0100                	.insn	2, 0x0100
    124c:	0805                	.insn	2, 0x0805
    124e:	0903b003          	.insn	4, 0x0903b003
    1252:	0004                	.insn	2, 0x0004
    1254:	0501                	.insn	2, 0x0501
    1256:	060a                	.insn	2, 0x060a
    1258:	0c090303          	lb	t1,192(s2)
    125c:	0100                	.insn	2, 0x0100
    125e:	0d05                	.insn	2, 0x0d05
    1260:	0306                	.insn	2, 0x0306
    1262:	0900                	.insn	2, 0x0900
    1264:	0000                	.insn	2, 0x
    1266:	0501                	.insn	2, 0x0501
    1268:	097c030b          	.insn	4, 0x097c030b
    126c:	0004                	.insn	2, 0x0004
    126e:	0501                	.insn	2, 0x0501
    1270:	030d                	.insn	2, 0x030d
    1272:	0904                	.insn	2, 0x0904
    1274:	0004                	.insn	2, 0x0004
    1276:	0501                	.insn	2, 0x0501
    1278:	0605                	.insn	2, 0x0605
    127a:	04090d03          	lb	s10,64(s2)
    127e:	0100                	.insn	2, 0x0100
    1280:	00090103          	lb	sp,0(s2)
    1284:	0100                	.insn	2, 0x0100
    1286:	0805                	.insn	2, 0x0805
    1288:	0306                	.insn	2, 0x0306
    128a:	0900                	.insn	2, 0x0900
    128c:	0000                	.insn	2, 0x
    128e:	0501                	.insn	2, 0x0501
    1290:	097f030f          	.insn	4, 0x097f030f
    1294:	0004                	.insn	2, 0x0004
    1296:	0501                	.insn	2, 0x0501
    1298:	0308                	.insn	2, 0x0308
    129a:	0901                	.insn	2, 0x0901
    129c:	0004                	.insn	2, 0x0004
    129e:	0501                	.insn	2, 0x0501
    12a0:	0605                	.insn	2, 0x0605
    12a2:	04090e03          	lb	t3,64(s2)
    12a6:	0100                	.insn	2, 0x0100
    12a8:	0f05                	.insn	2, 0x0f05
    12aa:	0306                	.insn	2, 0x0306
    12ac:	00040903          	lb	s2,0(s0)
    12b0:	0501                	.insn	2, 0x0501
    12b2:	0305                	.insn	2, 0x0305
    12b4:	097d                	.insn	2, 0x097d
    12b6:	0004                	.insn	2, 0x0004
    12b8:	0501                	.insn	2, 0x0501
    12ba:	0609                	.insn	2, 0x0609
    12bc:	18091803          	lh	a6,384(s2)
    12c0:	0100                	.insn	2, 0x0100
    12c2:	0d05                	.insn	2, 0x0d05
    12c4:	0306                	.insn	2, 0x0306
    12c6:	096c                	.insn	2, 0x096c
    12c8:	0000                	.insn	2, 0x
    12ca:	0501                	.insn	2, 0x0501
    12cc:	0914030f          	.insn	4, 0x0914030f
    12d0:	0004                	.insn	2, 0x0004
    12d2:	0501                	.insn	2, 0x0501
    12d4:	0609                	.insn	2, 0x0609
    12d6:	04090103          	lb	sp,64(s2)
    12da:	0100                	.insn	2, 0x0100
    12dc:	00090103          	lb	sp,0(s2)
    12e0:	0100                	.insn	2, 0x0100
    12e2:	0505                	.insn	2, 0x0505
    12e4:	00090a03          	lb	s4,0(s2)
    12e8:	0100                	.insn	2, 0x0100
    12ea:	0f05                	.insn	2, 0x0f05
    12ec:	0306                	.insn	2, 0x0306
    12ee:	040900c7          	.insn	4, 0x040900c7
    12f2:	0100                	.insn	2, 0x0100
    12f4:	0505                	.insn	2, 0x0505
    12f6:	097fb903          	.insn	4, 0x097fb903
    12fa:	0004                	.insn	2, 0x0004
    12fc:	0501                	.insn	2, 0x0501
    12fe:	0609                	.insn	2, 0x0609
    1300:	0900de03          	lhu	t3,144(ra)
    1304:	0018                	.insn	2, 0x0018
    1306:	0301                	.insn	2, 0x0301
    1308:	0902                	.insn	2, 0x0902
    130a:	0000                	.insn	2, 0x
    130c:	0501                	.insn	2, 0x0501
    130e:	0615                	.insn	2, 0x0615
    1310:	00090003          	lb	zero,0(s2)
    1314:	0100                	.insn	2, 0x0100
    1316:	1805                	.insn	2, 0x1805
    1318:	04095003          	lhu	zero,64(s2)
    131c:	0100                	.insn	2, 0x0100
    131e:	0705                	.insn	2, 0x0705
    1320:	097ef503          	.insn	4, 0x097ef503
    1324:	0004                	.insn	2, 0x0004
    1326:	0501                	.insn	2, 0x0501
    1328:	030c                	.insn	2, 0x030c
    132a:	040901bb          	.insn	4, 0x040901bb
    132e:	0100                	.insn	2, 0x0100
    1330:	0905                	.insn	2, 0x0905
    1332:	0306                	.insn	2, 0x0306
    1334:	0906                	.insn	2, 0x0906
    1336:	0004                	.insn	2, 0x0004
    1338:	0301                	.insn	2, 0x0301
    133a:	0902                	.insn	2, 0x0902
    133c:	0014                	.insn	2, 0x0014
    133e:	0501                	.insn	2, 0x0501
    1340:	0316                	.insn	2, 0x0316
    1342:	0901                	.insn	2, 0x0901
    1344:	0000                	.insn	2, 0x
    1346:	0501                	.insn	2, 0x0501
    1348:	030d                	.insn	2, 0x030d
    134a:	0901                	.insn	2, 0x0901
    134c:	000c                	.insn	2, 0x000c
    134e:	0501                	.insn	2, 0x0501
    1350:	0316                	.insn	2, 0x0316
    1352:	097f 0018 0501 0309 	.insn	10, 0x0904030905010018097f
    135a:	0904 
    135c:	0004                	.insn	2, 0x0004
    135e:	0301                	.insn	2, 0x0301
    1360:	0901                	.insn	2, 0x0901
    1362:	0000                	.insn	2, 0x
    1364:	0501                	.insn	2, 0x0501
    1366:	030a                	.insn	2, 0x030a
    1368:	7eb2                	.insn	2, 0x7eb2
    136a:	0409                	.insn	2, 0x0409
    136c:	0100                	.insn	2, 0x0100
    136e:	0306                	.insn	2, 0x0306
    1370:	028d                	.insn	2, 0x028d
    1372:	0809                	.insn	2, 0x0809
    1374:	0100                	.insn	2, 0x0100
    1376:	0305                	.insn	2, 0x0305
    1378:	0306                	.insn	2, 0x0306
    137a:	097d                	.insn	2, 0x097d
    137c:	0004                	.insn	2, 0x0004
    137e:	0001                	.insn	2, 0x0001
    1380:	0402                	.insn	2, 0x0402
    1382:	0601                	.insn	2, 0x0601
    1384:	04090003          	lb	zero,64(s2)
    1388:	0100                	.insn	2, 0x0100
    138a:	0200                	.insn	2, 0x0200
    138c:	0404                	.insn	2, 0x0404
    138e:	04090003          	lb	zero,64(s2)
    1392:	0100                	.insn	2, 0x0100
    1394:	0200                	.insn	2, 0x0200
    1396:	0404                	.insn	2, 0x0404
    1398:	0306                	.insn	2, 0x0306
    139a:	00140903          	lb	s2,1(s0)
    139e:	0501                	.insn	2, 0x0501
    13a0:	0001                	.insn	2, 0x0001
    13a2:	0402                	.insn	2, 0x0402
    13a4:	0604                	.insn	2, 0x0604
    13a6:	00090103          	lb	sp,0(s2)
    13aa:	0100                	.insn	2, 0x0100
    13ac:	1305                	.insn	2, 0x1305
    13ae:	0306                	.insn	2, 0x0306
    13b0:	7e84                	.insn	2, 0x7e84
    13b2:	4009                	.insn	2, 0x4009
    13b4:	0100                	.insn	2, 0x0100
    13b6:	1905                	.insn	2, 0x1905
    13b8:	0306                	.insn	2, 0x0306
    13ba:	0900                	.insn	2, 0x0900
    13bc:	0000                	.insn	2, 0x
    13be:	0501                	.insn	2, 0x0501
    13c0:	0003062b          	.insn	4, 0x0003062b
    13c4:	0409                	.insn	2, 0x0409
    13c6:	0100                	.insn	2, 0x0100
    13c8:	3505                	.insn	2, 0x3505
    13ca:	00090003          	lb	zero,0(s2)
    13ce:	0100                	.insn	2, 0x0100
    13d0:	3d05                	.insn	2, 0x3d05
    13d2:	00090003          	lb	zero,0(s2)
    13d6:	0100                	.insn	2, 0x0100
    13d8:	0d05                	.insn	2, 0x0d05
    13da:	0306                	.insn	2, 0x0306
    13dc:	00000917          	auipc	s2,0x0
    13e0:	0501                	.insn	2, 0x0501
    13e2:	6a030613          	addi	a2,t1,1696
    13e6:	0809                	.insn	2, 0x0809
    13e8:	0100                	.insn	2, 0x0100
    13ea:	1905                	.insn	2, 0x1905
    13ec:	0306                	.insn	2, 0x0306
    13ee:	0900                	.insn	2, 0x0900
    13f0:	0000                	.insn	2, 0x
    13f2:	0501                	.insn	2, 0x0501
    13f4:	0003062b          	.insn	4, 0x0003062b
    13f8:	0409                	.insn	2, 0x0409
    13fa:	0100                	.insn	2, 0x0100
    13fc:	3505                	.insn	2, 0x3505
    13fe:	00090003          	lb	zero,0(s2) # 13dc <vsnprintf_+0xc>
    1402:	0100                	.insn	2, 0x0100
    1404:	3d05                	.insn	2, 0x3d05
    1406:	00090003          	lb	zero,0(s2)
    140a:	0100                	.insn	2, 0x0100
    140c:	0d05                	.insn	2, 0x0d05
    140e:	0306                	.insn	2, 0x0306
    1410:	0916                	.insn	2, 0x0916
    1412:	0000                	.insn	2, 0x
    1414:	0501                	.insn	2, 0x0501
    1416:	6b030613          	addi	a2,t1,1712
    141a:	0809                	.insn	2, 0x0809
    141c:	0100                	.insn	2, 0x0100
    141e:	1905                	.insn	2, 0x1905
    1420:	0306                	.insn	2, 0x0306
    1422:	0900                	.insn	2, 0x0900
    1424:	0000                	.insn	2, 0x
    1426:	0501                	.insn	2, 0x0501
    1428:	0003062b          	.insn	4, 0x0003062b
    142c:	0409                	.insn	2, 0x0409
    142e:	0100                	.insn	2, 0x0100
    1430:	3505                	.insn	2, 0x3505
    1432:	00090003          	lb	zero,0(s2)
    1436:	0100                	.insn	2, 0x0100
    1438:	3d05                	.insn	2, 0x3d05
    143a:	00090003          	lb	zero,0(s2)
    143e:	0100                	.insn	2, 0x0100
    1440:	0d05                	.insn	2, 0x0d05
    1442:	0306                	.insn	2, 0x0306
    1444:	0915                	.insn	2, 0x0915
    1446:	0000                	.insn	2, 0x
    1448:	0501                	.insn	2, 0x0501
    144a:	6d030613          	addi	a2,t1,1744
    144e:	0809                	.insn	2, 0x0809
    1450:	0100                	.insn	2, 0x0100
    1452:	1905                	.insn	2, 0x1905
    1454:	0306                	.insn	2, 0x0306
    1456:	0900                	.insn	2, 0x0900
    1458:	0000                	.insn	2, 0x
    145a:	0501                	.insn	2, 0x0501
    145c:	0003062b          	.insn	4, 0x0003062b
    1460:	0409                	.insn	2, 0x0409
    1462:	0100                	.insn	2, 0x0100
    1464:	3505                	.insn	2, 0x3505
    1466:	00090003          	lb	zero,0(s2)
    146a:	0100                	.insn	2, 0x0100
    146c:	3d05                	.insn	2, 0x3d05
    146e:	00090003          	lb	zero,0(s2)
    1472:	0100                	.insn	2, 0x0100
    1474:	0d05                	.insn	2, 0x0d05
    1476:	0306                	.insn	2, 0x0306
    1478:	00000913          	li	s2,0
    147c:	0501                	.insn	2, 0x0501
    147e:	6c030613          	addi	a2,t1,1728
    1482:	0809                	.insn	2, 0x0809
    1484:	0100                	.insn	2, 0x0100
    1486:	1905                	.insn	2, 0x1905
    1488:	0306                	.insn	2, 0x0306
    148a:	0900                	.insn	2, 0x0900
    148c:	0000                	.insn	2, 0x
    148e:	0501                	.insn	2, 0x0501
    1490:	0003062b          	.insn	4, 0x0003062b
    1494:	0409                	.insn	2, 0x0409
    1496:	0100                	.insn	2, 0x0100
    1498:	3505                	.insn	2, 0x3505
    149a:	00090003          	lb	zero,0(s2)
    149e:	0100                	.insn	2, 0x0100
    14a0:	3d05                	.insn	2, 0x3d05
    14a2:	00090003          	lb	zero,0(s2)
    14a6:	0100                	.insn	2, 0x0100
    14a8:	0d05                	.insn	2, 0x0d05
    14aa:	0306                	.insn	2, 0x0306
    14ac:	0914                	.insn	2, 0x0914
    14ae:	0000                	.insn	2, 0x
    14b0:	0501                	.insn	2, 0x0501
    14b2:	0605                	.insn	2, 0x0605
    14b4:	08093703          	.insn	4, 0x08093703
    14b8:	0100                	.insn	2, 0x0100
    14ba:	0f05                	.insn	2, 0x0f05
    14bc:	0306                	.insn	2, 0x0306
    14be:	040900c7          	.insn	4, 0x040900c7
    14c2:	0100                	.insn	2, 0x0100
    14c4:	0505                	.insn	2, 0x0505
    14c6:	097fb903          	.insn	4, 0x097fb903
    14ca:	0004                	.insn	2, 0x0004
    14cc:	0501                	.insn	2, 0x0501
    14ce:	0609                	.insn	2, 0x0609
    14d0:	09018c03          	lb	s8,144(gp)
    14d4:	002c                	.insn	2, 0x002c
    14d6:	0301                	.insn	2, 0x0301
    14d8:	0901                	.insn	2, 0x0901
    14da:	0000                	.insn	2, 0x
    14dc:	0501                	.insn	2, 0x0501
    14de:	0908030b          	.insn	4, 0x0908030b
    14e2:	0000                	.insn	2, 0x
    14e4:	0501                	.insn	2, 0x0501
    14e6:	0611                	.insn	2, 0x0611
    14e8:	00090003          	lb	zero,0(s2)
    14ec:	0100                	.insn	2, 0x0100
    14ee:	0f05                	.insn	2, 0x0f05
    14f0:	08097803          	.insn	4, 0x08097803
    14f4:	0100                	.insn	2, 0x0100
    14f6:	1105                	.insn	2, 0x1105
    14f8:	04090803          	lb	a6,64(s2)
    14fc:	0100                	.insn	2, 0x0100
    14fe:	5105                	.insn	2, 0x5105
    1500:	28090003          	lb	zero,640(s2)
    1504:	0100                	.insn	2, 0x0100
    1506:	1105                	.insn	2, 0x1105
    1508:	04090003          	lb	zero,64(s2)
    150c:	0100                	.insn	2, 0x0100
    150e:	0905                	.insn	2, 0x0905
    1510:	0306                	.insn	2, 0x0306
    1512:	0904                	.insn	2, 0x0904
    1514:	0004                	.insn	2, 0x0004
    1516:	0301                	.insn	2, 0x0301
    1518:	0901                	.insn	2, 0x0901
    151a:	0000                	.insn	2, 0x
    151c:	0501                	.insn	2, 0x0501
    151e:	0605                	.insn	2, 0x0605
    1520:	097ee603          	.insn	4, 0x097ee603
    1524:	0004                	.insn	2, 0x0004
    1526:	0501                	.insn	2, 0x0501
    1528:	0609                	.insn	2, 0x0609
    152a:	09019e03          	lh	t3,144(gp)
    152e:	0008                	.insn	2, 0x0008
    1530:	0301                	.insn	2, 0x0301
    1532:	0901                	.insn	2, 0x0901
    1534:	0018                	.insn	2, 0x0018
    1536:	0301                	.insn	2, 0x0301
    1538:	0901                	.insn	2, 0x0901
    153a:	0000                	.insn	2, 0x
    153c:	0501                	.insn	2, 0x0501
    153e:	0605                	.insn	2, 0x0605
    1540:	097ee003          	.insn	4, 0x097ee003
    1544:	0004                	.insn	2, 0x0004
    1546:	0501                	.insn	2, 0x0501
    1548:	0609                	.insn	2, 0x0609
    154a:	08091803          	lh	a6,128(s2)
    154e:	0100                	.insn	2, 0x0100
    1550:	0b05                	.insn	2, 0x0b05
    1552:	00090103          	lb	sp,0(s2)
    1556:	0100                	.insn	2, 0x0100
    1558:	0905                	.insn	2, 0x0905
    155a:	00090403          	lb	s0,0(s2)
    155e:	0100                	.insn	2, 0x0100
    1560:	0b05                	.insn	2, 0x0b05
    1562:	00090103          	lb	sp,0(s2)
    1566:	0100                	.insn	2, 0x0100
    1568:	0905                	.insn	2, 0x0905
    156a:	00090403          	lb	s0,0(s2)
    156e:	0100                	.insn	2, 0x0100
    1570:	0c05                	.insn	2, 0x0c05
    1572:	0306                	.insn	2, 0x0306
    1574:	0900                	.insn	2, 0x0900
    1576:	0000                	.insn	2, 0x
    1578:	0501                	.insn	2, 0x0501
    157a:	0103060b          	.insn	4, 0x0103060b
    157e:	0809                	.insn	2, 0x0809
    1580:	0100                	.insn	2, 0x0100
    1582:	1105                	.insn	2, 0x1105
    1584:	0306                	.insn	2, 0x0306
    1586:	0900                	.insn	2, 0x0900
    1588:	0004                	.insn	2, 0x0004
    158a:	0501                	.insn	2, 0x0501
    158c:	0609                	.insn	2, 0x0609
    158e:	04090403          	lb	s0,64(s2)
    1592:	0100                	.insn	2, 0x0100
    1594:	1105                	.insn	2, 0x1105
    1596:	0306                	.insn	2, 0x0306
    1598:	097c                	.insn	2, 0x097c
    159a:	0000                	.insn	2, 0x
    159c:	0501                	.insn	2, 0x0501
    159e:	1703060b          	.insn	4, 0x1703060b
    15a2:	0409                	.insn	2, 0x0409
    15a4:	0100                	.insn	2, 0x0100
    15a6:	1505                	.insn	2, 0x1505
    15a8:	0306                	.insn	2, 0x0306
    15aa:	0900                	.insn	2, 0x0900
    15ac:	0000                	.insn	2, 0x
    15ae:	0501                	.insn	2, 0x0501
    15b0:	030e                	.insn	2, 0x030e
    15b2:	0900                	.insn	2, 0x0900
    15b4:	0004                	.insn	2, 0x0004
    15b6:	0501                	.insn	2, 0x0501
    15b8:	0610                	.insn	2, 0x0610
    15ba:	04090503          	lb	a0,64(s2)
    15be:	0100                	.insn	2, 0x0100
    15c0:	1a05                	.insn	2, 0x1a05
    15c2:	0306                	.insn	2, 0x0306
    15c4:	0900                	.insn	2, 0x0900
    15c6:	0000                	.insn	2, 0x
    15c8:	0501                	.insn	2, 0x0501
    15ca:	0318                	.insn	2, 0x0318
    15cc:	0971                	.insn	2, 0x0971
    15ce:	0004                	.insn	2, 0x0004
    15d0:	0501                	.insn	2, 0x0501
    15d2:	090f0313          	addi	t1,t5,144
    15d6:	0004                	.insn	2, 0x0004
    15d8:	0501                	.insn	2, 0x0501
    15da:	060d                	.insn	2, 0x060d
    15dc:	04090403          	lb	s0,64(s2)
    15e0:	0100                	.insn	2, 0x0100
    15e2:	2f05                	.insn	2, 0x2f05
    15e4:	0306                	.insn	2, 0x0306
    15e6:	0900                	.insn	2, 0x0900
    15e8:	0000                	.insn	2, 0x
    15ea:	0501                	.insn	2, 0x0501
    15ec:	09000367          	jalr	t1,144(zero) # 90 <_reset_handler+0x10>
    15f0:	0004                	.insn	2, 0x0004
    15f2:	0501                	.insn	2, 0x0501
    15f4:	000d                	.insn	2, 0x000d
    15f6:	0402                	.insn	2, 0x0402
    15f8:	0608                	.insn	2, 0x0608
    15fa:	08090103          	lb	sp,128(s2)
    15fe:	0100                	.insn	2, 0x0100
    1600:	1305                	.insn	2, 0x1305
    1602:	0200                	.insn	2, 0x0200
    1604:	0804                	.insn	2, 0x0804
    1606:	0306                	.insn	2, 0x0306
    1608:	0900                	.insn	2, 0x0900
    160a:	0000                	.insn	2, 0x
    160c:	0501                	.insn	2, 0x0501
    160e:	0009                	.insn	2, 0x0009
    1610:	0402                	.insn	2, 0x0402
    1612:	0608                	.insn	2, 0x0608
    1614:	2c090303          	lb	t1,704(s2)
    1618:	0100                	.insn	2, 0x0100
    161a:	0200                	.insn	2, 0x0200
    161c:	0804                	.insn	2, 0x0804
    161e:	00090103          	lb	sp,0(s2)
    1622:	0100                	.insn	2, 0x0100
    1624:	1005                	.insn	2, 0x1005
    1626:	0306                	.insn	2, 0x0306
    1628:	7bcc                	.insn	2, 0x7bcc
    162a:	0409                	.insn	2, 0x0409
    162c:	0100                	.insn	2, 0x0100
    162e:	0505                	.insn	2, 0x0505
    1630:	0306                	.insn	2, 0x0306
    1632:	0902                	.insn	2, 0x0902
    1634:	0004                	.insn	2, 0x0004
    1636:	0501                	.insn	2, 0x0501
    1638:	0003060b          	.insn	4, 0x0003060b
    163c:	0009                	.insn	2, 0x0009
    163e:	0100                	.insn	2, 0x0100
    1640:	1105                	.insn	2, 0x1105
    1642:	0c090003          	lb	zero,192(s2)
    1646:	0100                	.insn	2, 0x0100
    1648:	0a05                	.insn	2, 0x0a05
    164a:	04097f03          	.insn	4, 0x04097f03
    164e:	0100                	.insn	2, 0x0100
    1650:	0705                	.insn	2, 0x0705
    1652:	04090103          	lb	sp,64(s2)
    1656:	0100                	.insn	2, 0x0100
    1658:	0a05                	.insn	2, 0x0a05
    165a:	04097f03          	.insn	4, 0x04097f03
    165e:	0100                	.insn	2, 0x0100
    1660:	1605                	.insn	2, 0x1605
    1662:	04097803          	.insn	4, 0x04097803
    1666:	0100                	.insn	2, 0x0100
    1668:	0a05                	.insn	2, 0x0a05
    166a:	04090803          	lb	a6,64(s2)
    166e:	0100                	.insn	2, 0x0100
    1670:	2a05                	.insn	2, 0x2a05
    1672:	04090103          	lb	sp,64(s2)
    1676:	0100                	.insn	2, 0x0100
    1678:	0a05                	.insn	2, 0x0a05
    167a:	0306                	.insn	2, 0x0306
    167c:	097f 0004 0501 0303 	.insn	10, 0x0978030305010004097f
    1684:	0978 
    1686:	0000                	.insn	2, 0x
    1688:	0501                	.insn	2, 0x0501
    168a:	060a                	.insn	2, 0x060a
    168c:	04090803          	lb	a6,64(s2)
    1690:	0100                	.insn	2, 0x0100
    1692:	0505                	.insn	2, 0x0505
    1694:	0306                	.insn	2, 0x0306
    1696:	03b8                	.insn	2, 0x03b8
    1698:	0409                	.insn	2, 0x0409
    169a:	0100                	.insn	2, 0x0100
    169c:	00090103          	lb	sp,0(s2)
    16a0:	0100                	.insn	2, 0x0100
    16a2:	0805                	.insn	2, 0x0805
    16a4:	0306                	.insn	2, 0x0306
    16a6:	0900                	.insn	2, 0x0900
    16a8:	0000                	.insn	2, 0x
    16aa:	0501                	.insn	2, 0x0501
    16ac:	097f030f          	.insn	4, 0x097f030f
    16b0:	0004                	.insn	2, 0x0004
    16b2:	0501                	.insn	2, 0x0501
    16b4:	0308                	.insn	2, 0x0308
    16b6:	0901                	.insn	2, 0x0901
    16b8:	0004                	.insn	2, 0x0004
    16ba:	0501                	.insn	2, 0x0501
    16bc:	0903030b          	.insn	4, 0x0903030b
    16c0:	0004                	.insn	2, 0x0004
    16c2:	0501                	.insn	2, 0x0501
    16c4:	030a                	.insn	2, 0x030a
    16c6:	0900                	.insn	2, 0x0900
    16c8:	0004                	.insn	2, 0x0004
    16ca:	0501                	.insn	2, 0x0501
    16cc:	030d                	.insn	2, 0x030d
    16ce:	097f 0004 0501 0607 	.insn	10, 0x7f03060705010004097f
    16d6:	7f03 
    16d8:	0409                	.insn	2, 0x0409
    16da:	0100                	.insn	2, 0x0100
    16dc:	1605                	.insn	2, 0x1605
    16de:	0306                	.insn	2, 0x0306
    16e0:	7cbe                	.insn	2, 0x7cbe
    16e2:	0009                	.insn	2, 0x0009
    16e4:	0100                	.insn	2, 0x0100
    16e6:	0a05                	.insn	2, 0x0a05
    16e8:	0903c403          	lbu	s0,144(t2)
    16ec:	0004                	.insn	2, 0x0004
    16ee:	0501                	.insn	2, 0x0501
    16f0:	030d                	.insn	2, 0x030d
    16f2:	097e                	.insn	2, 0x097e
    16f4:	0004                	.insn	2, 0x0004
    16f6:	0501                	.insn	2, 0x0501
    16f8:	01030607          	.insn	4, 0x01030607
    16fc:	0409                	.insn	2, 0x0409
    16fe:	0100                	.insn	2, 0x0100
    1700:	00090103          	lb	sp,0(s2)
    1704:	0100                	.insn	2, 0x0100
    1706:	0305                	.insn	2, 0x0305
    1708:	097cbc03          	.insn	4, 0x097cbc03
    170c:	0000                	.insn	2, 0x
    170e:	0501                	.insn	2, 0x0501
    1710:	060a                	.insn	2, 0x060a
    1712:	0903c403          	lbu	s0,144(t2)
    1716:	0000                	.insn	2, 0x
    1718:	0501                	.insn	2, 0x0501
    171a:	060c                	.insn	2, 0x060c
    171c:	04090303          	lb	t1,64(s2)
    1720:	0100                	.insn	2, 0x0100
    1722:	0f05                	.insn	2, 0x0f05
    1724:	0306                	.insn	2, 0x0306
    1726:	0900                	.insn	2, 0x0900
    1728:	0000                	.insn	2, 0x
    172a:	0501                	.insn	2, 0x0501
    172c:	030d                	.insn	2, 0x030d
    172e:	097c                	.insn	2, 0x097c
    1730:	0008                	.insn	2, 0x0008
    1732:	0501                	.insn	2, 0x0501
    1734:	0305                	.insn	2, 0x0305
    1736:	090c                	.insn	2, 0x090c
    1738:	0004                	.insn	2, 0x0004
    173a:	0601                	.insn	2, 0x0601
    173c:	08090003          	lb	zero,128(s2)
    1740:	0100                	.insn	2, 0x0100
    1742:	0f05                	.insn	2, 0x0f05
    1744:	0306                	.insn	2, 0x0306
    1746:	00000903          	lb	s2,0(zero) # 0 <_vector_table_start>
    174a:	0501                	.insn	2, 0x0501
    174c:	0305                	.insn	2, 0x0305
    174e:	097d                	.insn	2, 0x097d
    1750:	0004                	.insn	2, 0x0004
    1752:	0501                	.insn	2, 0x0501
    1754:	0609                	.insn	2, 0x0609
    1756:	04090203          	lb	tp,64(s2)
    175a:	0100                	.insn	2, 0x0100
    175c:	00090103          	lb	sp,0(s2)
    1760:	0100                	.insn	2, 0x0100
    1762:	00090103          	lb	sp,0(s2)
    1766:	0100                	.insn	2, 0x0100
    1768:	0d05                	.insn	2, 0x0d05
    176a:	0306                	.insn	2, 0x0306
    176c:	0900                	.insn	2, 0x0900
    176e:	0000                	.insn	2, 0x
    1770:	0501                	.insn	2, 0x0501
    1772:	030c                	.insn	2, 0x030c
    1774:	0900                	.insn	2, 0x0900
    1776:	0004                	.insn	2, 0x0004
    1778:	0501                	.insn	2, 0x0501
    177a:	0918030f          	.insn	4, 0x0918030f
    177e:	0004                	.insn	2, 0x0004
    1780:	0501                	.insn	2, 0x0501
    1782:	0609                	.insn	2, 0x0609
    1784:	04090103          	lb	sp,64(s2)
    1788:	0100                	.insn	2, 0x0100
    178a:	00090103          	lb	sp,0(s2)
    178e:	0100                	.insn	2, 0x0100
    1790:	0505                	.insn	2, 0x0505
    1792:	0306                	.insn	2, 0x0306
    1794:	0962                	.insn	2, 0x0962
    1796:	0004                	.insn	2, 0x0004
    1798:	0501                	.insn	2, 0x0501
    179a:	0609                	.insn	2, 0x0609
    179c:	08091c03          	lh	s8,128(s2)
    17a0:	0100                	.insn	2, 0x0100
    17a2:	0d05                	.insn	2, 0x0d05
    17a4:	0306                	.insn	2, 0x0306
    17a6:	0968                	.insn	2, 0x0968
    17a8:	0000                	.insn	2, 0x
    17aa:	0501                	.insn	2, 0x0501
    17ac:	0918030f          	.insn	4, 0x0918030f
    17b0:	0004                	.insn	2, 0x0004
    17b2:	0501                	.insn	2, 0x0501
    17b4:	0609                	.insn	2, 0x0609
    17b6:	04090103          	lb	sp,64(s2)
    17ba:	0100                	.insn	2, 0x0100
    17bc:	00090103          	lb	sp,0(s2)
    17c0:	0100                	.insn	2, 0x0100
    17c2:	0705                	.insn	2, 0x0705
    17c4:	04094703          	lbu	a4,64(s2)
    17c8:	0100                	.insn	2, 0x0100
    17ca:	1105                	.insn	2, 0x1105
    17cc:	0306                	.insn	2, 0x0306
    17ce:	0900                	.insn	2, 0x0900
    17d0:	0000                	.insn	2, 0x
    17d2:	0501                	.insn	2, 0x0501
    17d4:	01030607          	.insn	4, 0x01030607
    17d8:	0809                	.insn	2, 0x0809
    17da:	0100                	.insn	2, 0x0100
    17dc:	0a05                	.insn	2, 0x0a05
    17de:	0306                	.insn	2, 0x0306
    17e0:	0900                	.insn	2, 0x0900
    17e2:	0000                	.insn	2, 0x
    17e4:	0501                	.insn	2, 0x0501
    17e6:	07030607          	.insn	4, 0x07030607
    17ea:	0409                	.insn	2, 0x0409
    17ec:	0100                	.insn	2, 0x0100
    17ee:	0905                	.insn	2, 0x0905
    17f0:	0306                	.insn	2, 0x0306
    17f2:	0905                	.insn	2, 0x0905
    17f4:	0000                	.insn	2, 0x
    17f6:	0501                	.insn	2, 0x0501
    17f8:	030d                	.insn	2, 0x030d
    17fa:	0004097b          	.insn	4, 0x0004097b
    17fe:	0501                	.insn	2, 0x0501
    1800:	0609                	.insn	2, 0x0609
    1802:	0c097a03          	.insn	4, 0x0c097a03
    1806:	0100                	.insn	2, 0x0100
    1808:	0306                	.insn	2, 0x0306
    180a:	0000090b          	.insn	4, 0x090b
    180e:	0501                	.insn	2, 0x0501
    1810:	0975030f          	.insn	4, 0x0975030f
    1814:	0004                	.insn	2, 0x0004
    1816:	0501                	.insn	2, 0x0501
    1818:	0609                	.insn	2, 0x0609
    181a:	04090103          	lb	sp,64(s2)
    181e:	0100                	.insn	2, 0x0100
    1820:	0d05                	.insn	2, 0x0d05
    1822:	0306                	.insn	2, 0x0306
    1824:	0905                	.insn	2, 0x0905
    1826:	0000                	.insn	2, 0x
    1828:	0501                	.insn	2, 0x0501
    182a:	031f 097b 0004      	.insn	6, 0x0004097b031f
    1830:	0501                	.insn	2, 0x0501
    1832:	05030607          	.insn	4, 0x05030607
    1836:	0409                	.insn	2, 0x0409
    1838:	0100                	.insn	2, 0x0100
    183a:	0905                	.insn	2, 0x0905
    183c:	08091d03          	lh	s10,128(s2)
    1840:	0100                	.insn	2, 0x0100
    1842:	00090103          	lb	sp,0(s2)
    1846:	0100                	.insn	2, 0x0100
    1848:	00090103          	lb	sp,0(s2)
    184c:	0100                	.insn	2, 0x0100
    184e:	0d05                	.insn	2, 0x0d05
    1850:	0306                	.insn	2, 0x0306
    1852:	0900                	.insn	2, 0x0900
    1854:	0000                	.insn	2, 0x
    1856:	0501                	.insn	2, 0x0501
    1858:	030c                	.insn	2, 0x030c
    185a:	0900                	.insn	2, 0x0900
    185c:	0004                	.insn	2, 0x0004
    185e:	0501                	.insn	2, 0x0501
    1860:	097e030f          	.insn	4, 0x097e030f
    1864:	0004                	.insn	2, 0x0004
    1866:	0501                	.insn	2, 0x0501
    1868:	0609                	.insn	2, 0x0609
    186a:	09018c03          	lb	s8,144(gp)
    186e:	0008                	.insn	2, 0x0008
    1870:	0501                	.insn	2, 0x0501
    1872:	0615                	.insn	2, 0x0615
    1874:	00090003          	lb	zero,0(s2)
    1878:	0100                	.insn	2, 0x0100
    187a:	0905                	.insn	2, 0x0905
    187c:	0306                	.insn	2, 0x0306
    187e:	0901                	.insn	2, 0x0901
    1880:	000c                	.insn	2, 0x000c
    1882:	0501                	.insn	2, 0x0501
    1884:	0611                	.insn	2, 0x0611
    1886:	097b9103          	lh	sp,151(s7)
    188a:	0000                	.insn	2, 0x
    188c:	0501                	.insn	2, 0x0501
    188e:	0315                	.insn	2, 0x0315
    1890:	04ee                	.insn	2, 0x04ee
    1892:	0409                	.insn	2, 0x0409
    1894:	0100                	.insn	2, 0x0100
    1896:	1105                	.insn	2, 0x1105
    1898:	097b9203          	lh	tp,151(s7)
    189c:	0004                	.insn	2, 0x0004
    189e:	0501                	.insn	2, 0x0501
    18a0:	031a                	.insn	2, 0x031a
    18a2:	040904ef          	jal	s1,918e2 <_peripheral_HLS_CONTROL_end+0x518e2>
    18a6:	0100                	.insn	2, 0x0100
    18a8:	1405                	.insn	2, 0x1405
    18aa:	0306                	.insn	2, 0x0306
    18ac:	7b91                	.insn	2, 0x7b91
    18ae:	0409                	.insn	2, 0x0409
    18b0:	0100                	.insn	2, 0x0100
    18b2:	1e05                	.insn	2, 0x1e05
    18b4:	0306                	.insn	2, 0x0306
    18b6:	0900                	.insn	2, 0x0900
    18b8:	0000                	.insn	2, 0x
    18ba:	0501                	.insn	2, 0x0501
    18bc:	0314                	.insn	2, 0x0314
    18be:	0900                	.insn	2, 0x0900
    18c0:	0004                	.insn	2, 0x0004
    18c2:	0501                	.insn	2, 0x0501
    18c4:	0622                	.insn	2, 0x0622
    18c6:	18090003          	lb	zero,384(s2)
    18ca:	0100                	.insn	2, 0x0100
    18cc:	1405                	.insn	2, 0x1405
    18ce:	0306                	.insn	2, 0x0306
    18d0:	0900                	.insn	2, 0x0900
    18d2:	0000                	.insn	2, 0x
    18d4:	0501                	.insn	2, 0x0501
    18d6:	0322                	.insn	2, 0x0322
    18d8:	0900                	.insn	2, 0x0900
    18da:	0004                	.insn	2, 0x0004
    18dc:	0501                	.insn	2, 0x0501
    18de:	0614                	.insn	2, 0x0614
    18e0:	04090003          	lb	zero,64(s2)
    18e4:	0100                	.insn	2, 0x0100
    18e6:	1b05                	.insn	2, 0x1b05
    18e8:	0306                	.insn	2, 0x0306
    18ea:	0901                	.insn	2, 0x0901
    18ec:	0004                	.insn	2, 0x0004
    18ee:	0501                	.insn	2, 0x0501
    18f0:	00030603          	lb	a2,0(t1)
    18f4:	0809                	.insn	2, 0x0809
    18f6:	0100                	.insn	2, 0x0100
    18f8:	0905                	.insn	2, 0x0905
    18fa:	0904f003          	.insn	4, 0x0904f003
    18fe:	0000                	.insn	2, 0x
    1900:	0501                	.insn	2, 0x0501
    1902:	00030613          	mv	a2,t1
    1906:	0009                	.insn	2, 0x0009
    1908:	0100                	.insn	2, 0x0100
    190a:	0c05                	.insn	2, 0x0c05
    190c:	04090003          	lb	zero,64(s2)
    1910:	0100                	.insn	2, 0x0100
    1912:	0b05                	.insn	2, 0x0b05
    1914:	0306                	.insn	2, 0x0306
    1916:	0901                	.insn	2, 0x0901
    1918:	0004                	.insn	2, 0x0004
    191a:	0501                	.insn	2, 0x0501
    191c:	060d                	.insn	2, 0x060d
    191e:	00090003          	lb	zero,0(s2)
    1922:	0100                	.insn	2, 0x0100
    1924:	0905                	.insn	2, 0x0905
    1926:	0306                	.insn	2, 0x0306
    1928:	0902                	.insn	2, 0x0902
    192a:	0008                	.insn	2, 0x0008
    192c:	0501                	.insn	2, 0x0501
    192e:	0615                	.insn	2, 0x0615
    1930:	00090003          	lb	zero,0(s2)
    1934:	0100                	.insn	2, 0x0100
    1936:	0c05                	.insn	2, 0x0c05
    1938:	08090003          	lb	zero,128(s2)
    193c:	0100                	.insn	2, 0x0100
    193e:	1a05                	.insn	2, 0x1a05
    1940:	0306                	.insn	2, 0x0306
    1942:	0906                	.insn	2, 0x0906
    1944:	0004                	.insn	2, 0x0004
    1946:	0501                	.insn	2, 0x0501
    1948:	0103060b          	.insn	4, 0x0103060b
    194c:	0409                	.insn	2, 0x0409
    194e:	0100                	.insn	2, 0x0100
    1950:	1a05                	.insn	2, 0x1a05
    1952:	0200                	.insn	2, 0x0200
    1954:	0104                	.insn	2, 0x0104
    1956:	04097f03          	.insn	4, 0x04097f03
    195a:	0100                	.insn	2, 0x0100
    195c:	4505                	.insn	2, 0x4505
    195e:	0200                	.insn	2, 0x0200
    1960:	0204                	.insn	2, 0x0204
    1962:	04090003          	lb	zero,64(s2)
    1966:	0100                	.insn	2, 0x0100
    1968:	3905                	.insn	2, 0x3905
    196a:	0200                	.insn	2, 0x0200
    196c:	0204                	.insn	2, 0x0204
    196e:	04090003          	lb	zero,64(s2)
    1972:	0100                	.insn	2, 0x0100
    1974:	0b05                	.insn	2, 0x0b05
    1976:	0306                	.insn	2, 0x0306
    1978:	0901                	.insn	2, 0x0901
    197a:	0008                	.insn	2, 0x0008
    197c:	0501                	.insn	2, 0x0501
    197e:	031a                	.insn	2, 0x031a
    1980:	097f 0010 0501 0611 	.insn	10, 0x0003061105010010097f
    1988:	0003 
    198a:	0009                	.insn	2, 0x0009
    198c:	0100                	.insn	2, 0x0100
    198e:	1a05                	.insn	2, 0x1a05
    1990:	10090003          	lb	zero,256(s2)
    1994:	0100                	.insn	2, 0x0100
    1996:	0b05                	.insn	2, 0x0b05
    1998:	04090103          	lb	sp,64(s2)
    199c:	0100                	.insn	2, 0x0100
    199e:	0a05                	.insn	2, 0x0a05
    19a0:	097ea103          	lw	sp,151(t4)
    19a4:	0008                	.insn	2, 0x0008
    19a6:	0501                	.insn	2, 0x0501
    19a8:	0309                	.insn	2, 0x0309
    19aa:	097d                	.insn	2, 0x097d
    19ac:	0004                	.insn	2, 0x0004
    19ae:	0501                	.insn	2, 0x0501
    19b0:	060a                	.insn	2, 0x060a
    19b2:	04090303          	lb	t1,64(s2)
    19b6:	0100                	.insn	2, 0x0100
    19b8:	0305                	.insn	2, 0x0305
    19ba:	09028a03          	lb	s4,144(t0)
    19be:	000c                	.insn	2, 0x000c
    19c0:	0501                	.insn	2, 0x0501
    19c2:	060a                	.insn	2, 0x060a
    19c4:	097aeb03          	.insn	4, 0x097aeb03
    19c8:	0008                	.insn	2, 0x0008
    19ca:	0501                	.insn	2, 0x0501
    19cc:	0605                	.insn	2, 0x0605
    19ce:	04090103          	lb	sp,64(s2)
    19d2:	0100                	.insn	2, 0x0100
    19d4:	0b05                	.insn	2, 0x0b05
    19d6:	0306                	.insn	2, 0x0306
    19d8:	0900                	.insn	2, 0x0900
    19da:	0000                	.insn	2, 0x
    19dc:	0501                	.insn	2, 0x0501
    19de:	032a                	.insn	2, 0x032a
    19e0:	0900                	.insn	2, 0x0900
    19e2:	0008                	.insn	2, 0x0008
    19e4:	0501                	.insn	2, 0x0501
    19e6:	0900030b          	.insn	4, 0x0900030b
    19ea:	0004                	.insn	2, 0x0004
    19ec:	0501                	.insn	2, 0x0501
    19ee:	0311                	.insn	2, 0x0311
    19f0:	0900                	.insn	2, 0x0900
    19f2:	0004                	.insn	2, 0x0004
    19f4:	0501                	.insn	2, 0x0501
    19f6:	030a                	.insn	2, 0x030a
    19f8:	097f 0004 0501 0307 	.insn	10, 0x0901030705010004097f
    1a00:	0901 
    1a02:	0004                	.insn	2, 0x0004
    1a04:	0501                	.insn	2, 0x0501
    1a06:	060a                	.insn	2, 0x060a
    1a08:	04097f03          	.insn	4, 0x04097f03
    1a0c:	0100                	.insn	2, 0x0100
    1a0e:	0305                	.insn	2, 0x0305
    1a10:	00097803          	.insn	4, 0x00097803
    1a14:	0100                	.insn	2, 0x0100
    1a16:	1605                	.insn	2, 0x1605
    1a18:	0306                	.insn	2, 0x0306
    1a1a:	0900                	.insn	2, 0x0900
    1a1c:	0000                	.insn	2, 0x
    1a1e:	0501                	.insn	2, 0x0501
    1a20:	030a                	.insn	2, 0x030a
    1a22:	0908                	.insn	2, 0x0908
    1a24:	0004                	.insn	2, 0x0004
    1a26:	0501                	.insn	2, 0x0501
    1a28:	032a                	.insn	2, 0x032a
    1a2a:	0901                	.insn	2, 0x0901
    1a2c:	0008                	.insn	2, 0x0008
    1a2e:	0501                	.insn	2, 0x0501
    1a30:	0614                	.insn	2, 0x0614
    1a32:	0c096e03          	.insn	4, 0x0c096e03
    1a36:	0100                	.insn	2, 0x0100
    1a38:	1e05                	.insn	2, 0x1e05
    1a3a:	0306                	.insn	2, 0x0306
    1a3c:	0900                	.insn	2, 0x0900
    1a3e:	0004                	.insn	2, 0x0004
    1a40:	0501                	.insn	2, 0x0501
    1a42:	0609                	.insn	2, 0x0609
    1a44:	0903d103          	lhu	sp,144(t2)
    1a48:	0008                	.insn	2, 0x0008
    1a4a:	0301                	.insn	2, 0x0301
    1a4c:	0901                	.insn	2, 0x0901
    1a4e:	0000                	.insn	2, 0x
    1a50:	0501                	.insn	2, 0x0501
    1a52:	00030633          	add	a2,t1,zero
    1a56:	0009                	.insn	2, 0x0009
    1a58:	0100                	.insn	2, 0x0100
    1a5a:	0d05                	.insn	2, 0x0d05
    1a5c:	04090603          	lb	a2,64(s2)
    1a60:	0100                	.insn	2, 0x0100
    1a62:	0f05                	.insn	2, 0x0f05
    1a64:	04097b03          	.insn	4, 0x04097b03
    1a68:	0100                	.insn	2, 0x0100
    1a6a:	3305                	.insn	2, 0x3305
    1a6c:	04097f03          	.insn	4, 0x04097f03
    1a70:	0100                	.insn	2, 0x0100
    1a72:	0905                	.insn	2, 0x0905
    1a74:	0306                	.insn	2, 0x0306
    1a76:	0901                	.insn	2, 0x0901
    1a78:	000c                	.insn	2, 0x000c
    1a7a:	0501                	.insn	2, 0x0501
    1a7c:	7e030613          	addi	a2,t1,2016
    1a80:	0009                	.insn	2, 0x0009
    1a82:	0100                	.insn	2, 0x0100
    1a84:	0b05                	.insn	2, 0x0b05
    1a86:	0306                	.insn	2, 0x0306
    1a88:	090c                	.insn	2, 0x090c
    1a8a:	000c                	.insn	2, 0x000c
    1a8c:	0501                	.insn	2, 0x0501
    1a8e:	060d                	.insn	2, 0x060d
    1a90:	00091f03          	lh	t5,0(s2)
    1a94:	0100                	.insn	2, 0x0100
    1a96:	1105                	.insn	2, 0x1105
    1a98:	04096103          	.insn	4, 0x04096103
    1a9c:	0100                	.insn	2, 0x0100
    1a9e:	0b05                	.insn	2, 0x0b05
    1aa0:	0306                	.insn	2, 0x0306
    1aa2:	0901                	.insn	2, 0x0901
    1aa4:	0004                	.insn	2, 0x0004
    1aa6:	0501                	.insn	2, 0x0501
    1aa8:	0611                	.insn	2, 0x0611
    1aaa:	00090003          	lb	zero,0(s2)
    1aae:	0100                	.insn	2, 0x0100
    1ab0:	1605                	.insn	2, 0x1605
    1ab2:	0306                	.insn	2, 0x0306
    1ab4:	00ff 0809 0100 0d05 	.insn	10, 0x01030d050100080900ff
    1abc:	0103 
    1abe:	1409                	.insn	2, 0x1409
    1ac0:	0100                	.insn	2, 0x0100
    1ac2:	1605                	.insn	2, 0x1605
    1ac4:	18097f03          	.insn	4, 0x18097f03
    1ac8:	0100                	.insn	2, 0x0100
    1aca:	0905                	.insn	2, 0x0905
    1acc:	04090503          	lb	a0,64(s2)
    1ad0:	0100                	.insn	2, 0x0100
    1ad2:	18090203          	lb	tp,384(s2)
    1ad6:	0100                	.insn	2, 0x0100
    1ad8:	00090503          	lb	a0,0(s2)
    1adc:	0100                	.insn	2, 0x0100
    1ade:	00090103          	lb	sp,0(s2)
    1ae2:	0100                	.insn	2, 0x0100
    1ae4:	0c091403          	lh	s0,192(s2)
    1ae8:	0100                	.insn	2, 0x0100
    1aea:	0c05                	.insn	2, 0x0c05
    1aec:	0306                	.insn	2, 0x0306
    1aee:	0900                	.insn	2, 0x0900
    1af0:	0000                	.insn	2, 0x
    1af2:	0501                	.insn	2, 0x0501
    1af4:	0616                	.insn	2, 0x0616
    1af6:	0c090103          	lb	sp,192(s2)
    1afa:	0100                	.insn	2, 0x0100
    1afc:	0d05                	.insn	2, 0x0d05
    1afe:	0c090103          	lb	sp,192(s2)
    1b02:	0100                	.insn	2, 0x0100
    1b04:	1605                	.insn	2, 0x1605
    1b06:	18097f03          	.insn	4, 0x18097f03
    1b0a:	0100                	.insn	2, 0x0100
    1b0c:	0905                	.insn	2, 0x0905
    1b0e:	04090403          	lb	s0,64(s2)
    1b12:	0100                	.insn	2, 0x0100
    1b14:	00090103          	lb	sp,0(s2)
    1b18:	0100                	.insn	2, 0x0100
    1b1a:	1505                	.insn	2, 0x1505
    1b1c:	0306                	.insn	2, 0x0306
    1b1e:	096a                	.insn	2, 0x096a
    1b20:	0000                	.insn	2, 0x
    1b22:	0501                	.insn	2, 0x0501
    1b24:	0309                	.insn	2, 0x0309
    1b26:	0916                	.insn	2, 0x0916
    1b28:	0004                	.insn	2, 0x0004
    1b2a:	0501                	.insn	2, 0x0501
    1b2c:	7afd031b          	.insn	4, 0x7afd031b
    1b30:	0809                	.insn	2, 0x0809
    1b32:	0100                	.insn	2, 0x0100
    1b34:	0b05                	.insn	2, 0x0b05
    1b36:	0306                	.insn	2, 0x0306
    1b38:	03e4                	.insn	2, 0x03e4
    1b3a:	0c09                	.insn	2, 0x0c09
    1b3c:	0100                	.insn	2, 0x0100
    1b3e:	0d05                	.insn	2, 0x0d05
    1b40:	0306                	.insn	2, 0x0306
    1b42:	00000917          	auipc	s2,0x0
    1b46:	0501                	.insn	2, 0x0501
    1b48:	0311                	.insn	2, 0x0311
    1b4a:	0969                	.insn	2, 0x0969
    1b4c:	0004                	.insn	2, 0x0004
    1b4e:	0501                	.insn	2, 0x0501
    1b50:	0103060b          	.insn	4, 0x0103060b
    1b54:	0409                	.insn	2, 0x0409
    1b56:	0100                	.insn	2, 0x0100
    1b58:	1105                	.insn	2, 0x1105
    1b5a:	0306                	.insn	2, 0x0306
    1b5c:	0900                	.insn	2, 0x0900
    1b5e:	0000                	.insn	2, 0x
    1b60:	0501                	.insn	2, 0x0501
    1b62:	0616                	.insn	2, 0x0616
    1b64:	09018f03          	lb	t5,144(gp)
    1b68:	0008                	.insn	2, 0x0008
    1b6a:	0501                	.insn	2, 0x0501
    1b6c:	030d                	.insn	2, 0x030d
    1b6e:	0901                	.insn	2, 0x0901
    1b70:	000c                	.insn	2, 0x000c
    1b72:	0501                	.insn	2, 0x0501
    1b74:	0316                	.insn	2, 0x0316
    1b76:	097f 0018 0501 0613 	.insn	10, 0x0003061305010018097f
    1b7e:	0003 
    1b80:	0809                	.insn	2, 0x0809
    1b82:	0100                	.insn	2, 0x0100
    1b84:	1a05                	.insn	2, 0x1a05
    1b86:	0306                	.insn	2, 0x0306
    1b88:	0905                	.insn	2, 0x0905
    1b8a:	0008                	.insn	2, 0x0008
    1b8c:	0501                	.insn	2, 0x0501
    1b8e:	0611                	.insn	2, 0x0611
    1b90:	00090003          	lb	zero,0(s2) # 1b42 <global_uart+0x5de>
    1b94:	0100                	.insn	2, 0x0100
    1b96:	1a05                	.insn	2, 0x1a05
    1b98:	04090003          	lb	zero,64(s2)
    1b9c:	0100                	.insn	2, 0x0100
    1b9e:	1605                	.insn	2, 0x1605
    1ba0:	04090503          	lb	a0,64(s2)
    1ba4:	0100                	.insn	2, 0x0100
    1ba6:	0b05                	.insn	2, 0x0b05
    1ba8:	0306                	.insn	2, 0x0306
    1baa:	08097f9b          	.insn	4, 0x08097f9b
    1bae:	0100                	.insn	2, 0x0100
    1bb0:	0905                	.insn	2, 0x0905
    1bb2:	00090403          	lb	s0,0(s2)
    1bb6:	0100                	.insn	2, 0x0100
    1bb8:	1305                	.insn	2, 0x1305
    1bba:	0306                	.insn	2, 0x0306
    1bbc:	0900                	.insn	2, 0x0900
    1bbe:	0000                	.insn	2, 0x
    1bc0:	0501                	.insn	2, 0x0501
    1bc2:	030c                	.insn	2, 0x030c
    1bc4:	0900                	.insn	2, 0x0900
    1bc6:	0004                	.insn	2, 0x0004
    1bc8:	0501                	.insn	2, 0x0501
    1bca:	0103060b          	.insn	4, 0x0103060b
    1bce:	0409                	.insn	2, 0x0409
    1bd0:	0100                	.insn	2, 0x0100
    1bd2:	1105                	.insn	2, 0x1105
    1bd4:	0306                	.insn	2, 0x0306
    1bd6:	0900                	.insn	2, 0x0900
    1bd8:	0000                	.insn	2, 0x
    1bda:	0501                	.insn	2, 0x0501
    1bdc:	0609                	.insn	2, 0x0609
    1bde:	04090403          	lb	s0,64(s2)
    1be2:	0100                	.insn	2, 0x0100
    1be4:	1105                	.insn	2, 0x1105
    1be6:	0306                	.insn	2, 0x0306
    1be8:	097c                	.insn	2, 0x097c
    1bea:	0000                	.insn	2, 0x
    1bec:	0301                	.insn	2, 0x0301
    1bee:	0008097b          	.insn	4, 0x0008097b
    1bf2:	0301                	.insn	2, 0x0301
    1bf4:	000c097b          	.insn	4, 0x000c097b
    1bf8:	0301                	.insn	2, 0x0301
    1bfa:	0905                	.insn	2, 0x0905
    1bfc:	0004                	.insn	2, 0x0004
    1bfe:	0501                	.insn	2, 0x0501
    1c00:	01ae                	.insn	2, 0x01ae
    1c02:	0c092503          	lw	a0,192(s2)
    1c06:	0100                	.insn	2, 0x0100
    1c08:	7005                	.insn	2, 0x7005
    1c0a:	0200                	.insn	2, 0x0200
    1c0c:	0204                	.insn	2, 0x0204
    1c0e:	08090003          	lb	zero,128(s2)
    1c12:	0100                	.insn	2, 0x0100
    1c14:	ae05                	.insn	2, 0xae05
    1c16:	0001                	.insn	2, 0x0001
    1c18:	0402                	.insn	2, 0x0402
    1c1a:	0302                	.insn	2, 0x0302
    1c1c:	0900                	.insn	2, 0x0900
    1c1e:	0004                	.insn	2, 0x0004
    1c20:	0501                	.insn	2, 0x0501
    1c22:	09360313          	addi	t1,a2,147 # 3106b <_peripheral_HLS_CONTROL_start+0x106b>
    1c26:	000c                	.insn	2, 0x000c
    1c28:	0501                	.insn	2, 0x0501
    1c2a:	0609                	.insn	2, 0x0609
    1c2c:	08096d03          	.insn	4, 0x08096d03
    1c30:	0100                	.insn	2, 0x0100
    1c32:	14090203          	lb	tp,320(s2)
    1c36:	0100                	.insn	2, 0x0100
    1c38:	1605                	.insn	2, 0x1605
    1c3a:	0306                	.insn	2, 0x0306
    1c3c:	0979                	.insn	2, 0x0979
    1c3e:	0000                	.insn	2, 0x
    1c40:	0501                	.insn	2, 0x0501
    1c42:	0609                	.insn	2, 0x0609
    1c44:	04090c03          	lb	s8,64(s2)
    1c48:	0100                	.insn	2, 0x0100
    1c4a:	00090103          	lb	sp,0(s2)
    1c4e:	0100                	.insn	2, 0x0100
    1c50:	097f9b03          	lh	s6,151(t6)
    1c54:	0008                	.insn	2, 0x0008
    1c56:	0301                	.insn	2, 0x0301
    1c58:	0901                	.insn	2, 0x0901
    1c5a:	0000                	.insn	2, 0x
    1c5c:	0501                	.insn	2, 0x0501
    1c5e:	060c                	.insn	2, 0x060c
    1c60:	00090003          	lb	zero,0(s2)
    1c64:	0100                	.insn	2, 0x0100
    1c66:	0b05                	.insn	2, 0x0b05
    1c68:	0306                	.insn	2, 0x0306
    1c6a:	090a                	.insn	2, 0x090a
    1c6c:	0010                	.insn	2, 0x0010
    1c6e:	0301                	.insn	2, 0x0301
    1c70:	0901                	.insn	2, 0x0901
    1c72:	0000                	.insn	2, 0x
    1c74:	0501                	.insn	2, 0x0501
    1c76:	060c                	.insn	2, 0x060c
    1c78:	00090803          	lb	a6,0(s2)
    1c7c:	0100                	.insn	2, 0x0100
    1c7e:	1105                	.insn	2, 0x1105
    1c80:	04097803          	.insn	4, 0x04097803
    1c84:	0100                	.insn	2, 0x0100
    1c86:	0905                	.insn	2, 0x0905
    1c88:	0306                	.insn	2, 0x0306
    1c8a:	00040903          	lb	s2,0(s0)
    1c8e:	0301                	.insn	2, 0x0301
    1c90:	0905                	.insn	2, 0x0905
    1c92:	0000                	.insn	2, 0x
    1c94:	0501                	.insn	2, 0x0501
    1c96:	060c                	.insn	2, 0x060c
    1c98:	00090003          	lb	zero,0(s2)
    1c9c:	0100                	.insn	2, 0x0100
    1c9e:	0905                	.insn	2, 0x0905
    1ca0:	0306                	.insn	2, 0x0306
    1ca2:	0905                	.insn	2, 0x0905
    1ca4:	0004                	.insn	2, 0x0004
    1ca6:	0501                	.insn	2, 0x0501
    1ca8:	00030613          	mv	a2,t1
    1cac:	0009                	.insn	2, 0x0009
    1cae:	0100                	.insn	2, 0x0100
    1cb0:	0c05                	.insn	2, 0x0c05
    1cb2:	04090003          	lb	zero,64(s2)
    1cb6:	0100                	.insn	2, 0x0100
    1cb8:	0b05                	.insn	2, 0x0b05
    1cba:	0306                	.insn	2, 0x0306
    1cbc:	0901                	.insn	2, 0x0901
    1cbe:	0004                	.insn	2, 0x0004
    1cc0:	0501                	.insn	2, 0x0501
    1cc2:	0611                	.insn	2, 0x0611
    1cc4:	00090003          	lb	zero,0(s2)
    1cc8:	0100                	.insn	2, 0x0100
    1cca:	0905                	.insn	2, 0x0905
    1ccc:	0306                	.insn	2, 0x0306
    1cce:	0904                	.insn	2, 0x0904
    1cd0:	0004                	.insn	2, 0x0004
    1cd2:	0501                	.insn	2, 0x0501
    1cd4:	0902030b          	.insn	4, 0x0902030b
    1cd8:	0000                	.insn	2, 0x
    1cda:	0501                	.insn	2, 0x0501
    1cdc:	0615                	.insn	2, 0x0615
    1cde:	00090003          	lb	zero,0(s2)
    1ce2:	0100                	.insn	2, 0x0100
    1ce4:	0e05                	.insn	2, 0x0e05
    1ce6:	04090003          	lb	zero,64(s2)
    1cea:	0100                	.insn	2, 0x0100
    1cec:	1005                	.insn	2, 0x1005
    1cee:	0306                	.insn	2, 0x0306
    1cf0:	0906                	.insn	2, 0x0906
    1cf2:	0004                	.insn	2, 0x0004
    1cf4:	0501                	.insn	2, 0x0501
    1cf6:	061a                	.insn	2, 0x061a
    1cf8:	00090003          	lb	zero,0(s2)
    1cfc:	0100                	.insn	2, 0x0100
    1cfe:	1805                	.insn	2, 0x1805
    1d00:	04090103          	lb	sp,64(s2)
    1d04:	0100                	.insn	2, 0x0100
    1d06:	1305                	.insn	2, 0x1305
    1d08:	04097f03          	.insn	4, 0x04097f03
    1d0c:	0100                	.insn	2, 0x0100
    1d0e:	0d05                	.insn	2, 0x0d05
    1d10:	0306                	.insn	2, 0x0306
    1d12:	0905                	.insn	2, 0x0905
    1d14:	0004                	.insn	2, 0x0004
    1d16:	0501                	.insn	2, 0x0501
    1d18:	0626                	.insn	2, 0x0626
    1d1a:	00090003          	lb	zero,0(s2)
    1d1e:	0100                	.insn	2, 0x0100
    1d20:	4c05                	.insn	2, 0x4c05
    1d22:	04090003          	lb	zero,64(s2)
    1d26:	0100                	.insn	2, 0x0100
    1d28:	0d05                	.insn	2, 0x0d05
    1d2a:	0200                	.insn	2, 0x0200
    1d2c:	0804                	.insn	2, 0x0804
    1d2e:	0306                	.insn	2, 0x0306
    1d30:	0901                	.insn	2, 0x0901
    1d32:	000c                	.insn	2, 0x000c
    1d34:	0501                	.insn	2, 0x0501
    1d36:	04020013          	addi	zero,tp,64 # 40 <_vector_table_start+0x40>
    1d3a:	0608                	.insn	2, 0x0608
    1d3c:	00090003          	lb	zero,0(s2)
    1d40:	0100                	.insn	2, 0x0100
    1d42:	0b05                	.insn	2, 0x0b05
    1d44:	0306                	.insn	2, 0x0306
    1d46:	0969                	.insn	2, 0x0969
    1d48:	0034                	.insn	2, 0x0034
    1d4a:	0501                	.insn	2, 0x0501
    1d4c:	0309                	.insn	2, 0x0309
    1d4e:	0904                	.insn	2, 0x0904
    1d50:	0000                	.insn	2, 0x
    1d52:	0501                	.insn	2, 0x0501
    1d54:	00030613          	mv	a2,t1
    1d58:	0009                	.insn	2, 0x0009
    1d5a:	0100                	.insn	2, 0x0100
    1d5c:	0c05                	.insn	2, 0x0c05
    1d5e:	04090003          	lb	zero,64(s2)
    1d62:	0100                	.insn	2, 0x0100
    1d64:	0b05                	.insn	2, 0x0b05
    1d66:	0306                	.insn	2, 0x0306
    1d68:	0901                	.insn	2, 0x0901
    1d6a:	0008                	.insn	2, 0x0008
    1d6c:	0501                	.insn	2, 0x0501
    1d6e:	0611                	.insn	2, 0x0611
    1d70:	00090003          	lb	zero,0(s2)
    1d74:	0100                	.insn	2, 0x0100
    1d76:	0905                	.insn	2, 0x0905
    1d78:	0306                	.insn	2, 0x0306
    1d7a:	0904                	.insn	2, 0x0904
    1d7c:	0004                	.insn	2, 0x0004
    1d7e:	0501                	.insn	2, 0x0501
    1d80:	0611                	.insn	2, 0x0611
    1d82:	04097703          	.insn	4, 0x04097703
    1d86:	0100                	.insn	2, 0x0100
    1d88:	0905                	.insn	2, 0x0905
    1d8a:	0306                	.insn	2, 0x0306
    1d8c:	0909                	.insn	2, 0x0909
    1d8e:	0004                	.insn	2, 0x0004
    1d90:	0501                	.insn	2, 0x0501
    1d92:	0055                	.insn	2, 0x0055
    1d94:	0402                	.insn	2, 0x0402
    1d96:	0602                	.insn	2, 0x0602
    1d98:	04090d03          	lb	s10,64(s2)
    1d9c:	0100                	.insn	2, 0x0100
    1d9e:	8105                	.insn	2, 0x8105
    1da0:	0001                	.insn	2, 0x0001
    1da2:	0402                	.insn	2, 0x0402
    1da4:	0302                	.insn	2, 0x0302
    1da6:	0900                	.insn	2, 0x0900
    1da8:	0004                	.insn	2, 0x0004
    1daa:	0501                	.insn	2, 0x0501
    1dac:	0366                	.insn	2, 0x0366
    1dae:	0900                	.insn	2, 0x0900
    1db0:	0004                	.insn	2, 0x0004
    1db2:	0501                	.insn	2, 0x0501
    1db4:	0338                	.insn	2, 0x0338
    1db6:	0901                	.insn	2, 0x0901
    1db8:	0004                	.insn	2, 0x0004
    1dba:	0501                	.insn	2, 0x0501
    1dbc:	060d                	.insn	2, 0x060d
    1dbe:	18097b03          	.insn	4, 0x18097b03
    1dc2:	0100                	.insn	2, 0x0100
    1dc4:	1805                	.insn	2, 0x1805
    1dc6:	0306                	.insn	2, 0x0306
    1dc8:	0900                	.insn	2, 0x0900
    1dca:	0000                	.insn	2, 0x
    1dcc:	0501                	.insn	2, 0x0501
    1dce:	060d                	.insn	2, 0x060d
    1dd0:	04090103          	lb	sp,64(s2)
    1dd4:	0100                	.insn	2, 0x0100
    1dd6:	1305                	.insn	2, 0x1305
    1dd8:	0306                	.insn	2, 0x0306
    1dda:	0900                	.insn	2, 0x0900
    1ddc:	0000                	.insn	2, 0x
    1dde:	0501                	.insn	2, 0x0501
    1de0:	0338                	.insn	2, 0x0338
    1de2:	0900                	.insn	2, 0x0900
    1de4:	0008                	.insn	2, 0x0008
    1de6:	0501                	.insn	2, 0x0501
    1de8:	09000313          	li	t1,144
    1dec:	0008                	.insn	2, 0x0008
    1dee:	0501                	.insn	2, 0x0501
    1df0:	0181                	.insn	2, 0x0181
    1df2:	18090303          	lb	t1,384(s2)
    1df6:	0100                	.insn	2, 0x0100
    1df8:	3805                	.insn	2, 0x3805
    1dfa:	04090103          	lb	sp,64(s2)
    1dfe:	0100                	.insn	2, 0x0100
    1e00:	1e05                	.insn	2, 0x1e05
    1e02:	0200                	.insn	2, 0x0200
    1e04:	0104                	.insn	2, 0x0104
    1e06:	10096803          	.insn	4, 0x10096803
    1e0a:	0100                	.insn	2, 0x0100
    1e0c:	0b05                	.insn	2, 0x0b05
    1e0e:	0306                	.insn	2, 0x0306
    1e10:	0901                	.insn	2, 0x0901
    1e12:	0008                	.insn	2, 0x0008
    1e14:	0501                	.insn	2, 0x0501
    1e16:	0309                	.insn	2, 0x0309
    1e18:	0904                	.insn	2, 0x0904
    1e1a:	0000                	.insn	2, 0x
    1e1c:	0501                	.insn	2, 0x0501
    1e1e:	00030613          	mv	a2,t1
    1e22:	0009                	.insn	2, 0x0009
    1e24:	0100                	.insn	2, 0x0100
    1e26:	0c05                	.insn	2, 0x0c05
    1e28:	04090003          	lb	zero,64(s2)
    1e2c:	0100                	.insn	2, 0x0100
    1e2e:	1105                	.insn	2, 0x1105
    1e30:	04097303          	.insn	4, 0x04097303
    1e34:	0100                	.insn	2, 0x0100
    1e36:	1005                	.insn	2, 0x1005
    1e38:	04097f03          	.insn	4, 0x04097f03
    1e3c:	0100                	.insn	2, 0x0100
    1e3e:	0b05                	.insn	2, 0x0b05
    1e40:	0306                	.insn	2, 0x0306
    1e42:	0004090f          	.insn	4, 0x0004090f
    1e46:	0501                	.insn	2, 0x0501
    1e48:	0611                	.insn	2, 0x0611
    1e4a:	00090003          	lb	zero,0(s2)
    1e4e:	0100                	.insn	2, 0x0100
    1e50:	0905                	.insn	2, 0x0905
    1e52:	0306                	.insn	2, 0x0306
    1e54:	0904                	.insn	2, 0x0904
    1e56:	0004                	.insn	2, 0x0004
    1e58:	0501                	.insn	2, 0x0501
    1e5a:	0611                	.insn	2, 0x0611
    1e5c:	04097703          	.insn	4, 0x04097703
    1e60:	0100                	.insn	2, 0x0100
    1e62:	0905                	.insn	2, 0x0905
    1e64:	0306                	.insn	2, 0x0306
    1e66:	0909                	.insn	2, 0x0909
    1e68:	0004                	.insn	2, 0x0004
    1e6a:	0501                	.insn	2, 0x0501
    1e6c:	0610                	.insn	2, 0x0610
    1e6e:	00096d03          	.insn	4, 0x00096d03
    1e72:	0100                	.insn	2, 0x0100
    1e74:	0b05                	.insn	2, 0x0b05
    1e76:	0306                	.insn	2, 0x0306
    1e78:	090a                	.insn	2, 0x090a
    1e7a:	0008                	.insn	2, 0x0008
    1e7c:	0501                	.insn	2, 0x0501
    1e7e:	0309                	.insn	2, 0x0309
    1e80:	0904                	.insn	2, 0x0904
    1e82:	0000                	.insn	2, 0x
    1e84:	0501                	.insn	2, 0x0501
    1e86:	00030613          	mv	a2,t1
    1e8a:	0009                	.insn	2, 0x0009
    1e8c:	0100                	.insn	2, 0x0100
    1e8e:	0c05                	.insn	2, 0x0c05
    1e90:	04090003          	lb	zero,64(s2)
    1e94:	0100                	.insn	2, 0x0100
    1e96:	0b05                	.insn	2, 0x0b05
    1e98:	0306                	.insn	2, 0x0306
    1e9a:	0901                	.insn	2, 0x0901
    1e9c:	0004                	.insn	2, 0x0004
    1e9e:	0501                	.insn	2, 0x0501
    1ea0:	0611                	.insn	2, 0x0611
    1ea2:	00090003          	lb	zero,0(s2)
    1ea6:	0100                	.insn	2, 0x0100
    1ea8:	0905                	.insn	2, 0x0905
    1eaa:	0306                	.insn	2, 0x0306
    1eac:	0904                	.insn	2, 0x0904
    1eae:	0004                	.insn	2, 0x0004
    1eb0:	0501                	.insn	2, 0x0501
    1eb2:	0611                	.insn	2, 0x0611
    1eb4:	00097c03          	.insn	4, 0x00097c03
    1eb8:	0100                	.insn	2, 0x0100
    1eba:	0f05                	.insn	2, 0x0f05
    1ebc:	08092403          	lw	s0,128(s2)
    1ec0:	0100                	.insn	2, 0x0100
    1ec2:	2205                	.insn	2, 0x2205
    1ec4:	0306                	.insn	2, 0x0306
    1ec6:	7b9c                	.insn	2, 0x7b9c
    1ec8:	0809                	.insn	2, 0x0809
    1eca:	0100                	.insn	2, 0x0100
    1ecc:	0505                	.insn	2, 0x0505
    1ece:	00090203          	lb	tp,0(s2)
    1ed2:	0100                	.insn	2, 0x0100
    1ed4:	2205                	.insn	2, 0x2205
    1ed6:	0306                	.insn	2, 0x0306
    1ed8:	097e                	.insn	2, 0x097e
    1eda:	0000                	.insn	2, 0x
    1edc:	0501                	.insn	2, 0x0501
    1ede:	0305                	.insn	2, 0x0305
    1ee0:	0902                	.insn	2, 0x0902
    1ee2:	0008                	.insn	2, 0x0008
    1ee4:	0601                	.insn	2, 0x0601
    1ee6:	04090103          	lb	sp,64(s2)
    1eea:	0100                	.insn	2, 0x0100
    1eec:	0105                	.insn	2, 0x0105
    1eee:	0306                	.insn	2, 0x0306
    1ef0:	0902                	.insn	2, 0x0902
    1ef2:	0000                	.insn	2, 0x
    1ef4:	0601                	.insn	2, 0x0601
    1ef6:	0905cc03          	lbu	s8,144(a1)
    1efa:	0010                	.insn	2, 0x0010
    1efc:	0501                	.insn	2, 0x0501
    1efe:	09010303          	lb	t1,144(sp)
    1f02:	0000                	.insn	2, 0x
    1f04:	0301                	.insn	2, 0x0301
    1f06:	0901                	.insn	2, 0x0901
    1f08:	0000                	.insn	2, 0x
    1f0a:	0501                	.insn	2, 0x0501
    1f0c:	0601                	.insn	2, 0x0601
    1f0e:	00097e03          	.insn	4, 0x00097e03
    1f12:	0100                	.insn	2, 0x0100
    1f14:	0305                	.insn	2, 0x0305
    1f16:	04090203          	lb	tp,64(s2)
    1f1a:	0100                	.insn	2, 0x0100
    1f1c:	0105                	.insn	2, 0x0105
    1f1e:	04097e03          	.insn	4, 0x04097e03
    1f22:	0100                	.insn	2, 0x0100
    1f24:	1305                	.insn	2, 0x1305
    1f26:	04090403          	lb	s0,64(s2)
    1f2a:	0100                	.insn	2, 0x0100
    1f2c:	0105                	.insn	2, 0x0105
    1f2e:	08097c03          	.insn	4, 0x08097c03
    1f32:	0100                	.insn	2, 0x0100
    1f34:	1305                	.insn	2, 0x1305
    1f36:	0c090403          	lb	s0,192(s2)
    1f3a:	0100                	.insn	2, 0x0100
    1f3c:	0105                	.insn	2, 0x0105
    1f3e:	10097c03          	.insn	4, 0x10097c03
    1f42:	0100                	.insn	2, 0x0100
    1f44:	04090003          	lb	zero,64(s2)
    1f48:	0100                	.insn	2, 0x0100
    1f4a:	0305                	.insn	2, 0x0305
    1f4c:	0c090203          	lb	tp,192(s2)
    1f50:	0100                	.insn	2, 0x0100
    1f52:	0306                	.insn	2, 0x0306
    1f54:	0901                	.insn	2, 0x0901
    1f56:	0004                	.insn	2, 0x0004
    1f58:	0301                	.insn	2, 0x0301
    1f5a:	0901                	.insn	2, 0x0901
    1f5c:	0000                	.insn	2, 0x
    1f5e:	0501                	.insn	2, 0x0501
    1f60:	00030613          	mv	a2,t1
    1f64:	0009                	.insn	2, 0x0009
    1f66:	0100                	.insn	2, 0x0100
    1f68:	0305                	.insn	2, 0x0305
    1f6a:	0306                	.insn	2, 0x0306
    1f6c:	0901                	.insn	2, 0x0901
    1f6e:	0004                	.insn	2, 0x0004
    1f70:	0301                	.insn	2, 0x0301
    1f72:	0901                	.insn	2, 0x0901
    1f74:	0000                	.insn	2, 0x
    1f76:	0501                	.insn	2, 0x0501
    1f78:	0601                	.insn	2, 0x0601
    1f7a:	00090103          	lb	sp,0(s2)
    1f7e:	0100                	.insn	2, 0x0100
    1f80:	0306                	.insn	2, 0x0306
    1f82:	0904                	.insn	2, 0x0904
    1f84:	000c                	.insn	2, 0x000c
    1f86:	0501                	.insn	2, 0x0501
    1f88:	09010303          	lb	t1,144(sp)
    1f8c:	0000                	.insn	2, 0x
    1f8e:	0301                	.insn	2, 0x0301
    1f90:	0901                	.insn	2, 0x0901
    1f92:	0000                	.insn	2, 0x
    1f94:	0501                	.insn	2, 0x0501
    1f96:	0601                	.insn	2, 0x0601
    1f98:	00097e03          	.insn	4, 0x00097e03
    1f9c:	0100                	.insn	2, 0x0100
    1f9e:	0305                	.insn	2, 0x0305
    1fa0:	04090203          	lb	tp,64(s2)
    1fa4:	0100                	.insn	2, 0x0100
    1fa6:	0105                	.insn	2, 0x0105
    1fa8:	04097e03          	.insn	4, 0x04097e03
    1fac:	0100                	.insn	2, 0x0100
    1fae:	1305                	.insn	2, 0x1305
    1fb0:	04090303          	lb	t1,64(s2)
    1fb4:	0100                	.insn	2, 0x0100
    1fb6:	0105                	.insn	2, 0x0105
    1fb8:	08097d03          	.insn	4, 0x08097d03
    1fbc:	0100                	.insn	2, 0x0100
    1fbe:	1305                	.insn	2, 0x1305
    1fc0:	08090303          	lb	t1,128(s2)
    1fc4:	0100                	.insn	2, 0x0100
    1fc6:	0105                	.insn	2, 0x0105
    1fc8:	0c097d03          	.insn	4, 0x0c097d03
    1fcc:	0100                	.insn	2, 0x0100
    1fce:	04090003          	lb	zero,64(s2)
    1fd2:	0100                	.insn	2, 0x0100
    1fd4:	0305                	.insn	2, 0x0305
    1fd6:	0c090203          	lb	tp,192(s2)
    1fda:	0100                	.insn	2, 0x0100
    1fdc:	0306                	.insn	2, 0x0306
    1fde:	0901                	.insn	2, 0x0901
    1fe0:	0004                	.insn	2, 0x0004
    1fe2:	0501                	.insn	2, 0x0501
    1fe4:	00030613          	mv	a2,t1
    1fe8:	0009                	.insn	2, 0x0009
    1fea:	0100                	.insn	2, 0x0100
    1fec:	0305                	.insn	2, 0x0305
    1fee:	0306                	.insn	2, 0x0306
    1ff0:	0901                	.insn	2, 0x0901
    1ff2:	0004                	.insn	2, 0x0004
    1ff4:	0301                	.insn	2, 0x0301
    1ff6:	0901                	.insn	2, 0x0901
    1ff8:	0000                	.insn	2, 0x
    1ffa:	0501                	.insn	2, 0x0501
    1ffc:	0601                	.insn	2, 0x0601
    1ffe:	00090103          	lb	sp,0(s2)
    2002:	0100                	.insn	2, 0x0100
    2004:	0306                	.insn	2, 0x0306
    2006:	0904                	.insn	2, 0x0904
    2008:	000c                	.insn	2, 0x000c
    200a:	0501                	.insn	2, 0x0501
    200c:	09010303          	lb	t1,144(sp)
    2010:	0000                	.insn	2, 0x
    2012:	0301                	.insn	2, 0x0301
    2014:	0901                	.insn	2, 0x0901
    2016:	0000                	.insn	2, 0x
    2018:	0501                	.insn	2, 0x0501
    201a:	0601                	.insn	2, 0x0601
    201c:	00097e03          	.insn	4, 0x00097e03
    2020:	0100                	.insn	2, 0x0100
    2022:	0305                	.insn	2, 0x0305
    2024:	04090203          	lb	tp,64(s2)
    2028:	0100                	.insn	2, 0x0100
    202a:	0105                	.insn	2, 0x0105
    202c:	04097e03          	.insn	4, 0x04097e03
    2030:	0100                	.insn	2, 0x0100
    2032:	1305                	.insn	2, 0x1305
    2034:	04090303          	lb	t1,64(s2)
    2038:	0100                	.insn	2, 0x0100
    203a:	0105                	.insn	2, 0x0105
    203c:	0c097d03          	.insn	4, 0x0c097d03
    2040:	0100                	.insn	2, 0x0100
    2042:	1305                	.insn	2, 0x1305
    2044:	04090303          	lb	t1,64(s2)
    2048:	0100                	.insn	2, 0x0100
    204a:	0105                	.insn	2, 0x0105
    204c:	08097d03          	.insn	4, 0x08097d03
    2050:	0100                	.insn	2, 0x0100
    2052:	04090003          	lb	zero,64(s2)
    2056:	0100                	.insn	2, 0x0100
    2058:	0305                	.insn	2, 0x0305
    205a:	0c090203          	lb	tp,192(s2)
    205e:	0100                	.insn	2, 0x0100
    2060:	0306                	.insn	2, 0x0306
    2062:	0901                	.insn	2, 0x0901
    2064:	0004                	.insn	2, 0x0004
    2066:	0501                	.insn	2, 0x0501
    2068:	00030613          	mv	a2,t1
    206c:	0009                	.insn	2, 0x0009
    206e:	0100                	.insn	2, 0x0100
    2070:	0305                	.insn	2, 0x0305
    2072:	0306                	.insn	2, 0x0306
    2074:	0901                	.insn	2, 0x0901
    2076:	0004                	.insn	2, 0x0004
    2078:	0301                	.insn	2, 0x0301
    207a:	0901                	.insn	2, 0x0901
    207c:	0000                	.insn	2, 0x
    207e:	0501                	.insn	2, 0x0501
    2080:	0601                	.insn	2, 0x0601
    2082:	00090103          	lb	sp,0(s2)
    2086:	0100                	.insn	2, 0x0100
    2088:	0306                	.insn	2, 0x0306
    208a:	0904                	.insn	2, 0x0904
    208c:	000c                	.insn	2, 0x000c
    208e:	0501                	.insn	2, 0x0501
    2090:	09010303          	lb	t1,144(sp)
    2094:	0000                	.insn	2, 0x
    2096:	0301                	.insn	2, 0x0301
    2098:	0901                	.insn	2, 0x0901
    209a:	0000                	.insn	2, 0x
    209c:	0501                	.insn	2, 0x0501
    209e:	0601                	.insn	2, 0x0601
    20a0:	00097e03          	.insn	4, 0x00097e03
    20a4:	0100                	.insn	2, 0x0100
    20a6:	0a05                	.insn	2, 0x0a05
    20a8:	08090203          	lb	tp,128(s2)
    20ac:	0100                	.insn	2, 0x0100
    20ae:	0105                	.insn	2, 0x0105
    20b0:	04097e03          	.insn	4, 0x04097e03
    20b4:	0100                	.insn	2, 0x0100
    20b6:	0a05                	.insn	2, 0x0a05
    20b8:	04090203          	lb	tp,64(s2)
    20bc:	0100                	.insn	2, 0x0100
    20be:	0105                	.insn	2, 0x0105
    20c0:	0c097e03          	.insn	4, 0x0c097e03
    20c4:	0100                	.insn	2, 0x0100
    20c6:	0a05                	.insn	2, 0x0a05
    20c8:	04090203          	lb	tp,64(s2)
    20cc:	0100                	.insn	2, 0x0100
    20ce:	0105                	.insn	2, 0x0105
    20d0:	04090103          	lb	sp,64(s2)
    20d4:	0100                	.insn	2, 0x0100
    20d6:	0306                	.insn	2, 0x0306
    20d8:	0904                	.insn	2, 0x0904
    20da:	000c                	.insn	2, 0x000c
    20dc:	0501                	.insn	2, 0x0501
    20de:	09010303          	lb	t1,144(sp)
    20e2:	0000                	.insn	2, 0x
    20e4:	0501                	.insn	2, 0x0501
    20e6:	0601                	.insn	2, 0x0601
    20e8:	00097f03          	.insn	4, 0x00097f03
    20ec:	0100                	.insn	2, 0x0100
    20ee:	0a05                	.insn	2, 0x0a05
    20f0:	04090103          	lb	sp,64(s2)
    20f4:	0100                	.insn	2, 0x0100
    20f6:	0105                	.insn	2, 0x0105
    20f8:	0306                	.insn	2, 0x0306
    20fa:	0905                	.insn	2, 0x0905
    20fc:	0014                	.insn	2, 0x0014
    20fe:	0501                	.insn	2, 0x0501
    2100:	09010303          	lb	t1,144(sp)
    2104:	0000                	.insn	2, 0x
    2106:	0301                	.insn	2, 0x0301
    2108:	0901                	.insn	2, 0x0901
    210a:	0000                	.insn	2, 0x
    210c:	0501                	.insn	2, 0x0501
    210e:	0601                	.insn	2, 0x0601
    2110:	00097e03          	.insn	4, 0x00097e03
    2114:	0100                	.insn	2, 0x0100
    2116:	0305                	.insn	2, 0x0305
    2118:	04090203          	lb	tp,64(s2)
    211c:	0100                	.insn	2, 0x0100
    211e:	0105                	.insn	2, 0x0105
    2120:	04097e03          	.insn	4, 0x04097e03
    2124:	0100                	.insn	2, 0x0100
    2126:	1305                	.insn	2, 0x1305
    2128:	04090403          	lb	s0,64(s2)
    212c:	0100                	.insn	2, 0x0100
    212e:	0105                	.insn	2, 0x0105
    2130:	04097c03          	.insn	4, 0x04097c03
    2134:	0100                	.insn	2, 0x0100
    2136:	1305                	.insn	2, 0x1305
    2138:	0c090403          	lb	s0,192(s2)
    213c:	0100                	.insn	2, 0x0100
    213e:	0105                	.insn	2, 0x0105
    2140:	14097c03          	.insn	4, 0x14097c03
    2144:	0100                	.insn	2, 0x0100
    2146:	04090003          	lb	zero,64(s2)
    214a:	0100                	.insn	2, 0x0100
    214c:	0305                	.insn	2, 0x0305
    214e:	0c090203          	lb	tp,192(s2)
    2152:	0100                	.insn	2, 0x0100
    2154:	0306                	.insn	2, 0x0306
    2156:	0901                	.insn	2, 0x0901
    2158:	0004                	.insn	2, 0x0004
    215a:	0501                	.insn	2, 0x0501
    215c:	0003061b          	.insn	4, 0x0003061b
    2160:	0009                	.insn	2, 0x0009
    2162:	0100                	.insn	2, 0x0100
    2164:	0305                	.insn	2, 0x0305
    2166:	0306                	.insn	2, 0x0306
    2168:	0901                	.insn	2, 0x0901
    216a:	0008                	.insn	2, 0x0008
    216c:	0501                	.insn	2, 0x0501
    216e:	00030613          	mv	a2,t1
    2172:	0009                	.insn	2, 0x0009
    2174:	0100                	.insn	2, 0x0100
    2176:	0305                	.insn	2, 0x0305
    2178:	0306                	.insn	2, 0x0306
    217a:	0901                	.insn	2, 0x0901
    217c:	0004                	.insn	2, 0x0004
    217e:	0301                	.insn	2, 0x0301
    2180:	0901                	.insn	2, 0x0901
    2182:	0000                	.insn	2, 0x
    2184:	0501                	.insn	2, 0x0501
    2186:	0601                	.insn	2, 0x0601
    2188:	00090103          	lb	sp,0(s2)
    218c:	0100                	.insn	2, 0x0100
    218e:	0c09                	.insn	2, 0x0c09
    2190:	0000                	.insn	2, 0x
    2192:	0101                	.insn	2, 0x0101
    2194:	0069                	.insn	2, 0x0069
    2196:	0000                	.insn	2, 0x
    2198:	0005                	.insn	2, 0x0005
    219a:	0004                	.insn	2, 0x0004
    219c:	0049                	.insn	2, 0x0049
    219e:	0000                	.insn	2, 0x
    21a0:	0101                	.insn	2, 0x0101
    21a2:	fb01                	.insn	2, 0xfb01
    21a4:	0d0e                	.insn	2, 0x0d0e
    21a6:	0100                	.insn	2, 0x0100
    21a8:	0101                	.insn	2, 0x0101
    21aa:	0001                	.insn	2, 0x0001
    21ac:	0000                	.insn	2, 0x
    21ae:	0001                	.insn	2, 0x0001
    21b0:	0100                	.insn	2, 0x0100
    21b2:	0101                	.insn	2, 0x0101
    21b4:	051f 0253 0000      	.insn	6, 0x0253051f
    21ba:	006d                	.insn	2, 0x006d
    21bc:	0000                	.insn	2, 0x
    21be:	02c8                	.insn	2, 0x02c8
    21c0:	0000                	.insn	2, 0x
    21c2:	02f6                	.insn	2, 0x02f6
    21c4:	0000                	.insn	2, 0x
    21c6:	0199                	.insn	2, 0x0199
    21c8:	0000                	.insn	2, 0x
    21ca:	0102                	.insn	2, 0x0102
    21cc:	021f 050f 033d      	.insn	6, 0x033d050f021f
    21d2:	0000                	.insn	2, 0x
    21d4:	3d01                	.insn	2, 0x3d01
    21d6:	01000003          	lb	zero,16(zero) # 10 <_vector_table_start+0x10>
    21da:	0101                	.insn	2, 0x0101
    21dc:	0000                	.insn	2, 0x
    21de:	1202                	.insn	2, 0x1202
    21e0:	0001                	.insn	2, 0x0001
    21e2:	0300                	.insn	2, 0x0300
    21e4:	0332                	.insn	2, 0x0332
    21e6:	0000                	.insn	2, 0x
    21e8:	0504                	.insn	2, 0x0504
    21ea:	0205002b          	.insn	4, 0x0205002b
    21ee:	1444                	.insn	2, 0x1444
    21f0:	0000                	.insn	2, 0x
    21f2:	0516                	.insn	2, 0x0516
    21f4:	0305                	.insn	2, 0x0305
    21f6:	0902                	.insn	2, 0x0902
    21f8:	0000                	.insn	2, 0x
    21fa:	0901                	.insn	2, 0x0901
    21fc:	0004                	.insn	2, 0x0004
    21fe:	0100                	.insn	2, 0x0100
    2200:	d001                	.insn	2, 0xd001
    2202:	0001                	.insn	2, 0x0001
    2204:	0500                	.insn	2, 0x0500
    2206:	0400                	.insn	2, 0x0400
    2208:	4900                	.insn	2, 0x4900
    220a:	0000                	.insn	2, 0x
    220c:	0100                	.insn	2, 0x0100
    220e:	0101                	.insn	2, 0x0101
    2210:	000d0efb          	.insn	4, 0x000d0efb
    2214:	0101                	.insn	2, 0x0101
    2216:	0101                	.insn	2, 0x0101
    2218:	0000                	.insn	2, 0x
    221a:	0100                	.insn	2, 0x0100
    221c:	0000                	.insn	2, 0x
    221e:	0101                	.insn	2, 0x0101
    2220:	1f01                	.insn	2, 0x1f01
    2222:	5305                	.insn	2, 0x5305
    2224:	0002                	.insn	2, 0x0002
    2226:	6d00                	.insn	2, 0x6d00
    2228:	0000                	.insn	2, 0x
    222a:	c800                	.insn	2, 0xc800
    222c:	0002                	.insn	2, 0x0002
    222e:	f600                	.insn	2, 0xf600
    2230:	0002                	.insn	2, 0x0002
    2232:	9900                	.insn	2, 0x9900
    2234:	0001                	.insn	2, 0x0001
    2236:	0200                	.insn	2, 0x0200
    2238:	1f01                	.insn	2, 0x1f01
    223a:	0f02                	.insn	2, 0x0f02
    223c:	4a05                	.insn	2, 0x4a05
    223e:	01000003          	lb	zero,16(zero) # 10 <_vector_table_start+0x10>
    2242:	034a                	.insn	2, 0x034a
    2244:	0000                	.insn	2, 0x
    2246:	0101                	.insn	2, 0x0101
    2248:	0001                	.insn	2, 0x0001
    224a:	0200                	.insn	2, 0x0200
    224c:	0112                	.insn	2, 0x0112
    224e:	0000                	.insn	2, 0x
    2250:	00033203          	.insn	4, 0x00033203
    2254:	0400                	.insn	2, 0x0400
    2256:	2305                	.insn	2, 0x2305
    2258:	0500                	.insn	2, 0x0500
    225a:	4802                	.insn	2, 0x4802
    225c:	0014                	.insn	2, 0x0014
    225e:	1700                	.insn	2, 0x1700
    2260:	0205                	.insn	2, 0x0205
    2262:	00090203          	lb	tp,0(s2)
    2266:	0100                	.insn	2, 0x0100
    2268:	0e05                	.insn	2, 0x0e05
    226a:	0306                	.insn	2, 0x0306
    226c:	0900                	.insn	2, 0x0900
    226e:	0000                	.insn	2, 0x
    2270:	0501                	.insn	2, 0x0501
    2272:	0602                	.insn	2, 0x0602
    2274:	08090103          	lb	sp,128(s2)
    2278:	0100                	.insn	2, 0x0100
    227a:	1805                	.insn	2, 0x1805
    227c:	0306                	.insn	2, 0x0306
    227e:	0900                	.insn	2, 0x0900
    2280:	0000                	.insn	2, 0x
    2282:	0501                	.insn	2, 0x0501
    2284:	0301                	.insn	2, 0x0301
    2286:	0902                	.insn	2, 0x0902
    2288:	0008                	.insn	2, 0x0008
    228a:	0501                	.insn	2, 0x0501
    228c:	0642                	.insn	2, 0x0642
    228e:	04090303          	lb	t1,64(s2)
    2292:	0100                	.insn	2, 0x0100
    2294:	0205                	.insn	2, 0x0205
    2296:	00090103          	lb	sp,0(s2)
    229a:	0100                	.insn	2, 0x0100
    229c:	1505                	.insn	2, 0x1505
    229e:	0306                	.insn	2, 0x0306
    22a0:	0900                	.insn	2, 0x0900
    22a2:	0000                	.insn	2, 0x
    22a4:	0501                	.insn	2, 0x0501
    22a6:	0900033f 0501000c 	.insn	8, 0x0501000c0900033f
    22ae:	0301                	.insn	2, 0x0301
    22b0:	0901                	.insn	2, 0x0901
    22b2:	0004                	.insn	2, 0x0004
    22b4:	0501                	.insn	2, 0x0501
    22b6:	0642                	.insn	2, 0x0642
    22b8:	08090303          	lb	t1,128(s2)
    22bc:	0100                	.insn	2, 0x0100
    22be:	0205                	.insn	2, 0x0205
    22c0:	00090103          	lb	sp,0(s2)
    22c4:	0100                	.insn	2, 0x0100
    22c6:	1505                	.insn	2, 0x1505
    22c8:	0306                	.insn	2, 0x0306
    22ca:	0900                	.insn	2, 0x0900
    22cc:	0000                	.insn	2, 0x
    22ce:	0501                	.insn	2, 0x0501
    22d0:	0336                	.insn	2, 0x0336
    22d2:	0900                	.insn	2, 0x0900
    22d4:	000c                	.insn	2, 0x000c
    22d6:	0501                	.insn	2, 0x0501
    22d8:	0301                	.insn	2, 0x0301
    22da:	0901                	.insn	2, 0x0901
    22dc:	0004                	.insn	2, 0x0004
    22de:	0501                	.insn	2, 0x0501
    22e0:	0621                	.insn	2, 0x0621
    22e2:	08090403          	lb	s0,128(s2)
    22e6:	0100                	.insn	2, 0x0100
    22e8:	0505                	.insn	2, 0x0505
    22ea:	00090203          	lb	tp,0(s2)
    22ee:	0100                	.insn	2, 0x0100
    22f0:	0d05                	.insn	2, 0x0d05
    22f2:	0306                	.insn	2, 0x0306
    22f4:	0900                	.insn	2, 0x0900
    22f6:	0000                	.insn	2, 0x
    22f8:	0501                	.insn	2, 0x0501
    22fa:	0005                	.insn	2, 0x0005
    22fc:	0402                	.insn	2, 0x0402
    22fe:	0601                	.insn	2, 0x0601
    2300:	08090203          	lb	tp,128(s2)
    2304:	0100                	.insn	2, 0x0100
    2306:	0c05                	.insn	2, 0x0c05
    2308:	0200                	.insn	2, 0x0200
    230a:	0104                	.insn	2, 0x0104
    230c:	00097e03          	.insn	4, 0x00097e03
    2310:	0100                	.insn	2, 0x0100
    2312:	0205                	.insn	2, 0x0205
    2314:	0200                	.insn	2, 0x0200
    2316:	0104                	.insn	2, 0x0104
    2318:	00097903          	.insn	4, 0x00097903
    231c:	0100                	.insn	2, 0x0100
    231e:	1505                	.insn	2, 0x1505
    2320:	0200                	.insn	2, 0x0200
    2322:	0104                	.insn	2, 0x0104
    2324:	0306                	.insn	2, 0x0306
    2326:	0900                	.insn	2, 0x0900
    2328:	0000                	.insn	2, 0x
    232a:	0501                	.insn	2, 0x0501
    232c:	0021                	.insn	2, 0x0021
    232e:	0402                	.insn	2, 0x0402
    2330:	0301                	.insn	2, 0x0301
    2332:	0900                	.insn	2, 0x0900
    2334:	0004                	.insn	2, 0x0004
    2336:	0501                	.insn	2, 0x0501
    2338:	000c                	.insn	2, 0x000c
    233a:	0402                	.insn	2, 0x0402
    233c:	0301                	.insn	2, 0x0301
    233e:	00040907          	.insn	4, 0x00040907
    2342:	0501                	.insn	2, 0x0501
    2344:	0605                	.insn	2, 0x0605
    2346:	04090503          	lb	a0,64(s2)
    234a:	0100                	.insn	2, 0x0100
    234c:	1505                	.insn	2, 0x1505
    234e:	0306                	.insn	2, 0x0306
    2350:	0900                	.insn	2, 0x0900
    2352:	0000                	.insn	2, 0x
    2354:	0501                	.insn	2, 0x0501
    2356:	0301                	.insn	2, 0x0301
    2358:	00040903          	lb	s2,0(s0)
    235c:	0501                	.insn	2, 0x0501
    235e:	0619                	.insn	2, 0x0619
    2360:	04090203          	lb	tp,64(s2)
    2364:	0100                	.insn	2, 0x0100
    2366:	0505                	.insn	2, 0x0505
    2368:	00090203          	lb	tp,0(s2)
    236c:	0100                	.insn	2, 0x0100
    236e:	0b05                	.insn	2, 0x0b05
    2370:	0306                	.insn	2, 0x0306
    2372:	0900                	.insn	2, 0x0900
    2374:	0000                	.insn	2, 0x
    2376:	0501                	.insn	2, 0x0501
    2378:	0005                	.insn	2, 0x0005
    237a:	0402                	.insn	2, 0x0402
    237c:	0601                	.insn	2, 0x0601
    237e:	08090203          	lb	tp,128(s2)
    2382:	0100                	.insn	2, 0x0100
    2384:	0b05                	.insn	2, 0x0b05
    2386:	0200                	.insn	2, 0x0200
    2388:	0104                	.insn	2, 0x0104
    238a:	00097e03          	.insn	4, 0x00097e03
    238e:	0100                	.insn	2, 0x0100
    2390:	0205                	.insn	2, 0x0205
    2392:	0200                	.insn	2, 0x0200
    2394:	0104                	.insn	2, 0x0104
    2396:	00096803          	.insn	4, 0x00096803
    239a:	0100                	.insn	2, 0x0100
    239c:	1505                	.insn	2, 0x1505
    239e:	0200                	.insn	2, 0x0200
    23a0:	0104                	.insn	2, 0x0104
    23a2:	0306                	.insn	2, 0x0306
    23a4:	0900                	.insn	2, 0x0900
    23a6:	0000                	.insn	2, 0x
    23a8:	0501                	.insn	2, 0x0501
    23aa:	0402000b          	.insn	4, 0x0402000b
    23ae:	0301                	.insn	2, 0x0301
    23b0:	0918                	.insn	2, 0x0918
    23b2:	0004                	.insn	2, 0x0004
    23b4:	0501                	.insn	2, 0x0501
    23b6:	0605                	.insn	2, 0x0605
    23b8:	08090303          	lb	t1,128(s2)
    23bc:	0100                	.insn	2, 0x0100
    23be:	1705                	.insn	2, 0x1705
    23c0:	0306                	.insn	2, 0x0306
    23c2:	0900                	.insn	2, 0x0900
    23c4:	0000                	.insn	2, 0x
    23c6:	0501                	.insn	2, 0x0501
    23c8:	0301                	.insn	2, 0x0301
    23ca:	0902                	.insn	2, 0x0902
    23cc:	0004                	.insn	2, 0x0004
    23ce:	0901                	.insn	2, 0x0901
    23d0:	0004                	.insn	2, 0x0004
    23d2:	0100                	.insn	2, 0x0100
    23d4:	Address 0x23d4 is out of bounds.


Disassembly of section .debug_str:

00000000 <.debug_str>:
   0:	20554e47          	.insn	4, 0x20554e47
   4:	20373143          	.insn	4, 0x20373143
   8:	3331                	.insn	2, 0x3331
   a:	322e                	.insn	2, 0x322e
   c:	302e                	.insn	2, 0x302e
   e:	2d20                	.insn	2, 0x2d20
  10:	616d                	.insn	2, 0x616d
  12:	6962                	.insn	2, 0x6962
  14:	693d                	.insn	2, 0x693d
  16:	706c                	.insn	2, 0x706c
  18:	2d203233          	.insn	4, 0x2d203233
  1c:	746d                	.insn	2, 0x746d
  1e:	6e75                	.insn	2, 0x6e75
  20:	3d65                	.insn	2, 0x3d65
  22:	6f72                	.insn	2, 0x6f72
  24:	74656b63          	bltu	a0,t1,77a <_ntoa_long+0x222>
  28:	2d20                	.insn	2, 0x2d20
  2a:	696d                	.insn	2, 0x696d
  2c:	732d6173          	csrrsi	sp,mhpmevent18h,26
  30:	6570                	.insn	2, 0x6570
  32:	30323d63          	.insn	4, 0x30323d63
  36:	3931                	.insn	2, 0x3931
  38:	3231                	.insn	2, 0x3231
  3a:	3331                	.insn	2, 0x3331
  3c:	2d20                	.insn	2, 0x2d20
  3e:	616d                	.insn	2, 0x616d
  40:	6372                	.insn	2, 0x6372
  42:	3d68                	.insn	2, 0x3d68
  44:	7672                	.insn	2, 0x7672
  46:	6d693233          	.insn	4, 0x6d693233
  4a:	6361                	.insn	2, 0x6361
  4c:	7a5f 6369 7273      	.insn	6, 0x727363697a5f
  52:	7a5f 6669 6e65      	.insn	6, 0x6e6566697a5f
  58:	20696563          	bltu	s2,t1,262 <_ext_handler+0x2a>
  5c:	672d                	.insn	2, 0x672d
  5e:	2d20                	.insn	2, 0x2d20
  60:	6f00304f          	.insn	4, 0x6f00304f
  64:	6666                	.insn	2, 0x6666
  66:	00746573          	csrrsi	a0,0x7,8
  6a:	5f5f 6e69 3374      	.insn	6, 0x33746e695f5f
  70:	5f32                	.insn	2, 0x5f32
  72:	0074                	.insn	2, 0x0074
  74:	6576                	.insn	2, 0x6576
  76:	726f7463          	bgeu	t5,t1,79e <_ntoa_long+0x246>
  7a:	745f 6261 656c      	.insn	6, 0x656c6261745f
  80:	655f 746e 7972      	.insn	6, 0x7972746e655f
  86:	5f00                	.insn	2, 0x5f00
  88:	6974                	.insn	2, 0x6974
  8a:	656d                	.insn	2, 0x656d
  8c:	5f72                	.insn	2, 0x5f72
  8e:	6168                	.insn	2, 0x6168
  90:	646e                	.insn	2, 0x646e
  92:	656c                	.insn	2, 0x656c
  94:	0072                	.insn	2, 0x0072
  96:	6e69                	.insn	2, 0x6e69
  98:	6c617473          	csrrci	s0,0x6c6,2
  9c:	5f6c                	.insn	2, 0x5f6c
  9e:	7865                	.insn	2, 0x7865
  a0:	74706563          	bltu	zero,t2,7ea <_ntoa_long+0x292>
  a4:	6f69                	.insn	2, 0x6f69
  a6:	5f6e                	.insn	2, 0x5f6e
  a8:	6168                	.insn	2, 0x6168
  aa:	646e                	.insn	2, 0x646e
  ac:	656c                	.insn	2, 0x656c
  ae:	0072                	.insn	2, 0x0072
  b0:	6168                	.insn	2, 0x6168
  b2:	646e                	.insn	2, 0x646e
  b4:	656c                	.insn	2, 0x656c
  b6:	5f72                	.insn	2, 0x5f72
  b8:	6e66                	.insn	2, 0x6e66
  ba:	7500                	.insn	2, 0x7500
  bc:	736e                	.insn	2, 0x736e
  be:	6769                	.insn	2, 0x6769
  c0:	656e                	.insn	2, 0x656e
  c2:	2064                	.insn	2, 0x2064
  c4:	72616863          	bltu	sp,t1,7f4 <_ntoa_long+0x29c>
  c8:	7300                	.insn	2, 0x7300
  ca:	6f68                	.insn	2, 0x6f68
  cc:	7472                	.insn	2, 0x7472
  ce:	7520                	.insn	2, 0x7520
  d0:	736e                	.insn	2, 0x736e
  d2:	6769                	.insn	2, 0x6769
  d4:	656e                	.insn	2, 0x656e
  d6:	2064                	.insn	2, 0x2064
  d8:	6e69                	.insn	2, 0x6e69
  da:	0074                	.insn	2, 0x0074
  dc:	6e69                	.insn	2, 0x6e69
  de:	6574                	.insn	2, 0x6574
  e0:	7272                	.insn	2, 0x7272
  e2:	7075                	.insn	2, 0x7075
  e4:	5f74                	.insn	2, 0x5f74
  e6:	6469                	.insn	2, 0x6469
  e8:	7000                	.insn	2, 0x7000
  ea:	696c                	.insn	2, 0x696c
  ec:	64615f63          	bge	sp,t1,74a <_ntoa_long+0x1f2>
  f0:	7264                	.insn	2, 0x7264
  f2:	5f00                	.insn	2, 0x5f00
  f4:	755f 6e69 3374      	.insn	6, 0x33746e69755f
  fa:	5f32                	.insn	2, 0x5f32
  fc:	0074                	.insn	2, 0x0074
  fe:	765f 6365 6f74      	.insn	6, 0x6f746365765f
 104:	5f72                	.insn	2, 0x5f72
 106:	6174                	.insn	2, 0x6174
 108:	6c62                	.insn	2, 0x6c62
 10a:	5f65                	.insn	2, 0x5f65
 10c:	72617473          	csrrci	s0,mhpmevent6h,2
 110:	0074                	.insn	2, 0x0074
 112:	705f 7265 7069      	.insn	6, 0x70697265705f
 118:	6568                	.insn	2, 0x6568
 11a:	6172                	.insn	2, 0x6172
 11c:	5f6c                	.insn	2, 0x5f6c
 11e:	4c50                	.insn	2, 0x4c50
 120:	4349                	.insn	2, 0x4349
 122:	735f 6174 7472      	.insn	6, 0x74726174735f
 128:	6f00                	.insn	2, 0x6f00
 12a:	6666                	.insn	2, 0x6666
 12c:	5f746573          	csrrsi	a0,0x5f7,8
 130:	6975                	.insn	2, 0x6975
 132:	6d6d                	.insn	2, 0x6d6d
 134:	6c00                	.insn	2, 0x6c00
 136:	20676e6f          	jal	t3,7633c <_peripheral_HLS_CONTROL_end+0x3633c>
 13a:	6f6c                	.insn	2, 0x6f6c
 13c:	676e                	.insn	2, 0x676e
 13e:	7520                	.insn	2, 0x7520
 140:	736e                	.insn	2, 0x736e
 142:	6769                	.insn	2, 0x6769
 144:	656e                	.insn	2, 0x656e
 146:	2064                	.insn	2, 0x2064
 148:	6e69                	.insn	2, 0x6e69
 14a:	0074                	.insn	2, 0x0074
 14c:	735f 5f77 6168      	.insn	6, 0x61685f77735f
 152:	646e                	.insn	2, 0x646e
 154:	656c                	.insn	2, 0x656c
 156:	0072                	.insn	2, 0x0072
 158:	6f6c                	.insn	2, 0x6f6c
 15a:	676e                	.insn	2, 0x676e
 15c:	6c20                	.insn	2, 0x6c20
 15e:	20676e6f          	jal	t3,76364 <_peripheral_HLS_CONTROL_end+0x36364>
 162:	6e69                	.insn	2, 0x6e69
 164:	0074                	.insn	2, 0x0074
 166:	6d6a                	.insn	2, 0x6d6a
 168:	5f70                	.insn	2, 0x5f70
 16a:	6e69                	.insn	2, 0x6e69
 16c:	69740073          	.insn	4, 0x69740073
 170:	5f6d                	.insn	2, 0x5f6d
 172:	6168                	.insn	2, 0x6168
 174:	646e                	.insn	2, 0x646e
 176:	656c                	.insn	2, 0x656c
 178:	0072                	.insn	2, 0x0072
 17a:	726f6873          	csrrsi	a6,mhpmevent6h,30
 17e:	2074                	.insn	2, 0x2074
 180:	6e69                	.insn	2, 0x6e69
 182:	0074                	.insn	2, 0x0074
 184:	6576                	.insn	2, 0x6576
 186:	726f7463          	bgeu	t5,t1,8ae <_ntoa_long+0x356>
 18a:	6e5f 6d75 5f00      	.insn	6, 0x5f006d756e5f
 190:	7865                	.insn	2, 0x7865
 192:	5f74                	.insn	2, 0x5f74
 194:	6168                	.insn	2, 0x6168
 196:	646e                	.insn	2, 0x646e
 198:	656c                	.insn	2, 0x656c
 19a:	0072                	.insn	2, 0x0072
 19c:	6c70                	.insn	2, 0x6c70
 19e:	6369                	.insn	2, 0x6369
 1a0:	635f 6e6f 6966      	.insn	6, 0x69666e6f635f
 1a6:	65727567          	.insn	4, 0x65727567
 1aa:	7000                	.insn	2, 0x7000
 1ac:	696c                	.insn	2, 0x696c
 1ae:	6e655f63          	bge	a0,t1,8ac <_ntoa_long+0x354>
 1b2:	6261                	.insn	2, 0x6261
 1b4:	656c                	.insn	2, 0x656c
 1b6:	7400                	.insn	2, 0x7400
 1b8:	6d69                	.insn	2, 0x6d69
 1ba:	635f 6e6f 6966      	.insn	6, 0x69666e6f635f
 1c0:	65727567          	.insn	4, 0x65727567
 1c4:	7400                	.insn	2, 0x7400
 1c6:	6d69                	.insn	2, 0x6d69
 1c8:	655f 616e 6c62      	.insn	6, 0x6c62616e655f
 1ce:	5f65                	.insn	2, 0x5f65
 1d0:	6e69                	.insn	2, 0x6e69
 1d2:	0074                	.insn	2, 0x0074
 1d4:	616d                	.insn	2, 0x616d
 1d6:	6e69                	.insn	2, 0x6e69
 1d8:	7300                	.insn	2, 0x7300
 1da:	7265                	.insn	2, 0x7265
 1dc:	6169                	.insn	2, 0x6169
 1de:	5f6c                	.insn	2, 0x5f6c
 1e0:	6e69                	.insn	2, 0x6e69
 1e2:	7469                	.insn	2, 0x7469
 1e4:	7400                	.insn	2, 0x7400
 1e6:	6d69                	.insn	2, 0x6d69
 1e8:	655f 616e 6c62      	.insn	6, 0x6c62616e655f
 1ee:	0065                	.insn	2, 0x0065
 1f0:	6f6c                	.insn	2, 0x6f6c
 1f2:	676e                	.insn	2, 0x676e
 1f4:	6420                	.insn	2, 0x6420
 1f6:	6c62756f          	jal	a0,278bc <_peripheral_TIM1_end+0x727c>
 1fa:	0065                	.insn	2, 0x0065
 1fc:	6974                	.insn	2, 0x6974
 1fe:	796e                	.insn	2, 0x796e
 200:	4f49                	.insn	2, 0x4f49
 202:	695f 696e 0074      	.insn	6, 0x0074696e695f
 208:	705f 7265 7069      	.insn	6, 0x70697265705f
 20e:	6568                	.insn	2, 0x6568
 210:	6172                	.insn	2, 0x6172
 212:	5f6c                	.insn	2, 0x5f6c
 214:	4155                	.insn	2, 0x4155
 216:	5452                	.insn	2, 0x5452
 218:	735f 6174 7472      	.insn	6, 0x74726174735f
 21e:	7500                	.insn	2, 0x7500
 220:	7261                	.insn	2, 0x7261
 222:	5f74                	.insn	2, 0x5f74
 224:	6162                	.insn	2, 0x6162
 226:	615f6573          	csrrsi	a0,htimedeltah,30
 22a:	6464                	.insn	2, 0x6464
 22c:	6572                	.insn	2, 0x6572
 22e:	67007373          	csrrci	t1,0x670,0
 232:	6970                	.insn	2, 0x6970
 234:	756f5f6f          	jal	t5,f598a <_peripheral_HLS_CONTROL_end+0xb598a>
 238:	5f74                	.insn	2, 0x5f74
 23a:	6461                	.insn	2, 0x6461
 23c:	7264                	.insn	2, 0x7264
 23e:	5f00                	.insn	2, 0x5f00
 240:	6570                	.insn	2, 0x6570
 242:	6972                	.insn	2, 0x6972
 244:	6870                	.insn	2, 0x6870
 246:	7265                	.insn	2, 0x7265
 248:	6c61                	.insn	2, 0x6c61
 24a:	475f 4950 5f4f      	.insn	6, 0x5f4f4950475f
 250:	5f74756f          	jal	a0,48046 <_peripheral_HLS_CONTROL_end+0x8046>
 254:	72617473          	csrrci	s0,mhpmevent6h,2
 258:	0074                	.insn	2, 0x0074
 25a:	6f697067          	.insn	4, 0x6f697067
 25e:	685f 6e61 6c64      	.insn	6, 0x6c646e61685f
 264:	7265                	.insn	2, 0x7265
 266:	6700                	.insn	2, 0x6700
 268:	6970                	.insn	2, 0x6970
 26a:	6e695f6f          	jal	t5,95950 <_peripheral_HLS_CONTROL_end+0x55950>
 26e:	655f 616e 6c62      	.insn	6, 0x6c62616e655f
 274:	5f65                	.insn	2, 0x5f65
 276:	6e69                	.insn	2, 0x6e69
 278:	0074                	.insn	2, 0x0074
 27a:	6f697067          	.insn	4, 0x6f697067
 27e:	695f 5f6e 6f63      	.insn	6, 0x6f635f6e695f
 284:	666e                	.insn	2, 0x666e
 286:	6769                	.insn	2, 0x6769
 288:	7275                	.insn	2, 0x7275
 28a:	0065                	.insn	2, 0x0065
 28c:	705f 7265 7069      	.insn	6, 0x70697265705f
 292:	6568                	.insn	2, 0x6568
 294:	6172                	.insn	2, 0x6172
 296:	5f6c                	.insn	2, 0x5f6c
 298:	4f495047          	.insn	4, 0x4f495047
 29c:	695f 5f6e 7473      	.insn	6, 0x74735f6e695f
 2a2:	7261                	.insn	2, 0x7261
 2a4:	0074                	.insn	2, 0x0074
 2a6:	6f697067          	.insn	4, 0x6f697067
 2aa:	695f 5f6e 6461      	.insn	6, 0x64615f6e695f
 2b0:	7264                	.insn	2, 0x7264
 2b2:	7400                	.insn	2, 0x7400
 2b4:	6d69                	.insn	2, 0x6d69
 2b6:	615f 6464 0072      	.insn	6, 0x00726464615f
 2bc:	705f 7265 7069      	.insn	6, 0x70697265705f
 2c2:	6568                	.insn	2, 0x6568
 2c4:	6172                	.insn	2, 0x6172
 2c6:	5f6c                	.insn	2, 0x5f6c
 2c8:	4954                	.insn	2, 0x4954
 2ca:	304d                	.insn	2, 0x304d
 2cc:	735f 6174 7472      	.insn	6, 0x74726174735f
 2d2:	2f00                	.insn	2, 0x2f00
 2d4:	6f68                	.insn	2, 0x6f68
 2d6:	656d                	.insn	2, 0x656d
 2d8:	6e69762f          	.insn	4, 0x6e69762f
 2dc:	7a6e6563          	bltu	t3,t1,a86 <_out_char+0x6>
 2e0:	49522f6f          	jal	t5,22f74 <_peripheral_TIM1_end+0x2934>
 2e4:	562d4353          	.insn	4, 0x562d4353
 2e8:	6a72702f          	.insn	4, 0x6a72702f
 2ec:	6e552f73          	csrrs	t5,0x6e5,a0
 2f0:	6e69                	.insn	2, 0x6e69
 2f2:	5361                	.insn	2, 0x5361
 2f4:	442f436f          	jal	t1,f4736 <_peripheral_HLS_CONTROL_end+0xb4736>
 2f8:	30324453          	.insn	4, 0x30324453
 2fc:	3532                	.insn	2, 0x3532
 2fe:	436f532f          	.insn	4, 0x436f532f
 302:	4453442f          	.insn	4, 0x4453442f
 306:	3032                	.insn	2, 0x3032
 308:	3532                	.insn	2, 0x3532
 30a:	685f 736c 675f      	.insn	6, 0x675f736c685f
 310:	6d65                	.insn	2, 0x6d65
 312:	2f6d                	.insn	2, 0x2f6d
 314:	532f7773          	csrrci	a4,0x532,30
 318:	632f436f          	jal	t1,f494a <_peripheral_HLS_CONTROL_end+0xb494a>
 31c:	6f6d6d6f          	jal	s10,d6a12 <_peripheral_HLS_CONTROL_end+0x96a12>
 320:	2f6e                	.insn	2, 0x2f6e
 322:	72617473          	csrrci	s0,mhpmevent6h,2
 326:	7574                	.insn	2, 0x7574
 328:	2e70                	.insn	2, 0x2e70
 32a:	682f0073          	.insn	4, 0x682f0073
 32e:	2f656d6f          	jal	s10,56624 <_peripheral_HLS_CONTROL_end+0x16624>
 332:	6976                	.insn	2, 0x6976
 334:	636e                	.insn	2, 0x636e
 336:	6e65                	.insn	2, 0x6e65
 338:	6f7a                	.insn	2, 0x6f7a
 33a:	5349522f          	.insn	4, 0x5349522f
 33e:	2f562d43          	.insn	4, 0x2f562d43
 342:	7270                	.insn	2, 0x7270
 344:	736a                	.insn	2, 0x736a
 346:	696e552f          	.insn	4, 0x696e552f
 34a:	616e                	.insn	2, 0x616e
 34c:	2f436f53          	.insn	4, 0x2f436f53
 350:	5344                	.insn	2, 0x5344
 352:	3244                	.insn	2, 0x3244
 354:	3230                	.insn	2, 0x3230
 356:	2f35                	.insn	2, 0x2f35
 358:	2f436f53          	.insn	4, 0x2f436f53
 35c:	5344                	.insn	2, 0x5344
 35e:	3244                	.insn	2, 0x3244
 360:	3230                	.insn	2, 0x3230
 362:	5f35                	.insn	2, 0x5f35
 364:	6c68                	.insn	2, 0x6c68
 366:	65675f73          	csrrwi	t5,hviprio1h,14
 36a:	6d6d                	.insn	2, 0x6d6d
 36c:	2f77732f          	.insn	4, 0x2f77732f
 370:	2f436f53          	.insn	4, 0x2f436f53
 374:	7865                	.insn	2, 0x7865
 376:	6d61                	.insn	2, 0x6d61
 378:	6c70                	.insn	2, 0x6c70
 37a:	7365                	.insn	2, 0x7365
 37c:	746e692f          	.insn	4, 0x746e692f
 380:	7265                	.insn	2, 0x7265
 382:	7572                	.insn	2, 0x7572
 384:	7470                	.insn	2, 0x7470
 386:	4e470073          	.insn	4, 0x4e470073
 38a:	2055                	.insn	2, 0x2055
 38c:	5341                	.insn	2, 0x5341
 38e:	3220                	.insn	2, 0x3220
 390:	342e                	.insn	2, 0x342e
 392:	0032                	.insn	2, 0x0032
 394:	5f74756f          	jal	a0,4818a <_peripheral_HLS_CONTROL_end+0x818a>
 398:	6366                	.insn	2, 0x6366
 39a:	5f74                	.insn	2, 0x5f74
 39c:	70617277          	.insn	4, 0x70617277
 3a0:	5f00                	.insn	2, 0x5f00
 3a2:	5f74756f          	jal	a0,48198 <_peripheral_HLS_CONTROL_end+0x8198>
 3a6:	7562                	.insn	2, 0x7562
 3a8:	6666                	.insn	2, 0x6666
 3aa:	7265                	.insn	2, 0x7265
 3ac:	7300                	.insn	2, 0x7300
 3ae:	7a69                	.insn	2, 0x7a69
 3b0:	5f65                	.insn	2, 0x5f65
 3b2:	0074                	.insn	2, 0x0074
 3b4:	6f5f 7475 6e5f      	.insn	6, 0x6e5f74756f5f
 3ba:	6c75                	.insn	2, 0x6c75
 3bc:	006c                	.insn	2, 0x006c
 3be:	6f5f 7475 635f      	.insn	6, 0x635f74756f5f
 3c4:	6168                	.insn	2, 0x6168
 3c6:	0072                	.insn	2, 0x0072
 3c8:	616d                	.insn	2, 0x616d
 3ca:	7378                	.insn	2, 0x7378
 3cc:	7a69                	.insn	2, 0x7a69
 3ce:	0065                	.insn	2, 0x0065
 3d0:	6176                	.insn	2, 0x6176
 3d2:	756c                	.insn	2, 0x756c
 3d4:	0065                	.insn	2, 0x0065
 3d6:	6f5f 7475 665f      	.insn	6, 0x665f74756f5f
 3dc:	73007463          	bgeu	zero,a6,b04 <_vsnprintf+0x64>
 3e0:	6174                	.insn	2, 0x6174
 3e2:	7472                	.insn	2, 0x7472
 3e4:	695f 7864 7700      	.insn	6, 0x77007864695f
 3ea:	6469                	.insn	2, 0x6469
 3ec:	6874                	.insn	2, 0x6874
 3ee:	6600                	.insn	2, 0x6600
 3f0:	72707463          	bgeu	zero,t2,b18 <_vsnprintf+0x78>
 3f4:	6e69                	.insn	2, 0x6e69
 3f6:	6674                	.insn	2, 0x6674
 3f8:	6e00                	.insn	2, 0x6e00
 3fa:	6765                	.insn	2, 0x6765
 3fc:	7461                	.insn	2, 0x7461
 3fe:	7669                	.insn	2, 0x7669
 400:	0065                	.insn	2, 0x0065
 402:	6e5f 6f74 5f61      	.insn	6, 0x5f616f746e5f
 408:	6f66                	.insn	2, 0x6f66
 40a:	6d72                	.insn	2, 0x6d72
 40c:	7461                	.insn	2, 0x7461
 40e:	5f00                	.insn	2, 0x5f00
 410:	7376                	.insn	2, 0x7376
 412:	706e                	.insn	2, 0x706e
 414:	6972                	.insn	2, 0x6972
 416:	746e                	.insn	2, 0x746e
 418:	0066                	.insn	2, 0x0066
 41a:	5f5f 6975 746e      	.insn	6, 0x746e69755f5f
 420:	5f38                	.insn	2, 0x5f38
 422:	0074                	.insn	2, 0x0074
 424:	5f74756f          	jal	a0,4821a <_peripheral_HLS_CONTROL_end+0x821a>
 428:	6366                	.insn	2, 0x6366
 42a:	5f74                	.insn	2, 0x5f74
 42c:	7974                	.insn	2, 0x7974
 42e:	6570                	.insn	2, 0x6570
 430:	5f00                	.insn	2, 0x5f00
 432:	746e                	.insn	2, 0x746e
 434:	6c5f616f          	jal	sp,f72f8 <_peripheral_HLS_CONTROL_end+0xb72f8>
 438:	00676e6f          	jal	t3,7643e <_peripheral_HLS_CONTROL_end+0x3643e>
 43c:	6c66                	.insn	2, 0x6c66
 43e:	6761                	.insn	2, 0x6761
 440:	73760073          	.insn	4, 0x73760073
 444:	706e                	.insn	2, 0x706e
 446:	6972                	.insn	2, 0x6972
 448:	746e                	.insn	2, 0x746e
 44a:	5f66                	.insn	2, 0x5f66
 44c:	6d00                	.insn	2, 0x6d00
 44e:	7861                	.insn	2, 0x7861
 450:	656c                	.insn	2, 0x656c
 452:	006e                	.insn	2, 0x006e
 454:	615f 6f74 0069      	.insn	6, 0x00696f74615f
 45a:	735f 7274 6c6e      	.insn	6, 0x6c6e7274735f
 460:	6e65                	.insn	2, 0x6e65
 462:	735f 5f00 6f42      	.insn	6, 0x6f425f00735f
 468:	73006c6f          	jal	s8,6b98 <global_uart+0x5634>
 46c:	7270                	.insn	2, 0x7270
 46e:	6e69                	.insn	2, 0x6e69
 470:	6674                	.insn	2, 0x6674
 472:	005f 695f 5f73      	.insn	6, 0x5f73695f005f
 478:	6964                	.insn	2, 0x6964
 47a:	00746967          	.insn	4, 0x00746967
 47e:	20554e47          	.insn	4, 0x20554e47
 482:	20373143          	.insn	4, 0x20373143
 486:	3231                	.insn	2, 0x3231
 488:	322e                	.insn	2, 0x322e
 48a:	302e                	.insn	2, 0x302e
 48c:	2d20                	.insn	2, 0x2d20
 48e:	616d                	.insn	2, 0x616d
 490:	6962                	.insn	2, 0x6962
 492:	693d                	.insn	2, 0x693d
 494:	706c                	.insn	2, 0x706c
 496:	2d203233          	.insn	4, 0x2d203233
 49a:	746d                	.insn	2, 0x746d
 49c:	6e75                	.insn	2, 0x6e75
 49e:	3d65                	.insn	2, 0x3d65
 4a0:	6f72                	.insn	2, 0x6f72
 4a2:	74656b63          	bltu	a0,t1,bf8 <_vsnprintf+0x158>
 4a6:	2d20                	.insn	2, 0x2d20
 4a8:	696d                	.insn	2, 0x696d
 4aa:	732d6173          	csrrsi	sp,mhpmevent18h,26
 4ae:	6570                	.insn	2, 0x6570
 4b0:	30323d63          	.insn	4, 0x30323d63
 4b4:	3931                	.insn	2, 0x3931
 4b6:	3231                	.insn	2, 0x3231
 4b8:	3331                	.insn	2, 0x3331
 4ba:	2d20                	.insn	2, 0x2d20
 4bc:	616d                	.insn	2, 0x616d
 4be:	6372                	.insn	2, 0x6372
 4c0:	3d68                	.insn	2, 0x3d68
 4c2:	7672                	.insn	2, 0x7672
 4c4:	6d693233          	.insn	4, 0x6d693233
 4c8:	7a5f 6369 7273      	.insn	6, 0x727363697a5f
 4ce:	7a5f 6669 6e65      	.insn	6, 0x6e6566697a5f
 4d4:	20696563          	bltu	s2,t1,6de <_ntoa_long+0x186>
 4d8:	672d                	.insn	2, 0x672d
 4da:	2d20                	.insn	2, 0x2d20
 4dc:	5f00324f          	.insn	4, 0x5f00324f
 4e0:	625f 6975 746c      	.insn	6, 0x746c6975625f
 4e6:	6e69                	.insn	2, 0x6e69
 4e8:	765f 5f61 696c      	.insn	6, 0x696c5f61765f
 4ee:	5f007473          	csrrci	s0,0x5f0,0
 4f2:	755f 6e69 7074      	.insn	6, 0x70746e69755f
 4f8:	7274                	.insn	2, 0x7274
 4fa:	745f 6300 6168      	.insn	6, 0x61686300745f
 500:	6172                	.insn	2, 0x6172
 502:	72657463          	bgeu	a0,t1,c2a <_vsnprintf+0x18a>
 506:	5f00                	.insn	2, 0x5f00
 508:	5f74756f          	jal	a0,482fe <_peripheral_HLS_CONTROL_end+0x82fe>
 50c:	6572                	.insn	2, 0x6572
 50e:	0076                	.insn	2, 0x0076
 510:	6e756f63          	bltu	a0,t2,c0e <_vsnprintf+0x16e>
 514:	0074                	.insn	2, 0x0074
 516:	705f 7475 6863      	.insn	6, 0x68637475705f
 51c:	7261                	.insn	2, 0x7261
 51e:	6f00                	.insn	2, 0x6f00
 520:	7475                	.insn	2, 0x7475
 522:	665f 7463 775f      	.insn	6, 0x775f7463665f
 528:	6172                	.insn	2, 0x6172
 52a:	5f70                	.insn	2, 0x5f70
 52c:	7974                	.insn	2, 0x7974
 52e:	6570                	.insn	2, 0x6570
 530:	7000                	.insn	2, 0x7000
 532:	6572                	.insn	2, 0x6572
 534:	5f5f0063          	beq	t5,s5,b14 <_vsnprintf+0x74>
 538:	63756e67          	.insn	4, 0x63756e67
 53c:	765f 5f61 696c      	.insn	6, 0x696c5f61765f
 542:	75007473          	csrrci	s0,0x750,0
 546:	7261                	.insn	2, 0x7261
 548:	5f74                	.insn	2, 0x5f74
 54a:	646e6573          	csrrsi	a0,hviprio1,28
 54e:	635f 6168 0072      	.insn	6, 0x00726168635f
 554:	6162                	.insn	2, 0x6162
 556:	70006573          	csrrsi	a0,0x700,0
 55a:	6572                	.insn	2, 0x6572
 55c:	69736963          	bltu	t1,s7,bee <_vsnprintf+0x14e>
 560:	76006e6f          	jal	t3,6cc0 <global_uart+0x575c>
 564:	7270                	.insn	2, 0x7270
 566:	6e69                	.insn	2, 0x6e69
 568:	6674                	.insn	2, 0x6674
 56a:	005f 6175 7472      	.insn	6, 0x74726175005f
 570:	695f 696e 0074      	.insn	6, 0x0074696e695f
 576:	6175                	.insn	2, 0x6175
 578:	7472                	.insn	2, 0x7472
 57a:	625f 7361 5f65      	.insn	6, 0x5f657361625f
 580:	6461                	.insn	2, 0x6461
 582:	7264                	.insn	2, 0x7264
 584:	5f00                	.insn	2, 0x5f00
 586:	695f 746e 7470      	.insn	6, 0x7470746e695f
 58c:	5f72                	.insn	2, 0x5f72
 58e:	0074                	.insn	2, 0x0074
 590:	6175                	.insn	2, 0x6175
 592:	7472                	.insn	2, 0x7472
 594:	745f 6200 7361      	.insn	6, 0x73616200745f
 59a:	6165                	.insn	2, 0x6165
 59c:	6464                	.insn	2, 0x6464
 59e:	0072                	.insn	2, 0x0072
 5a0:	6c727463          	bgeu	tp,t2,c68 <_vsnprintf+0x1c8>
 5a4:	725f 6765 6700      	.insn	6, 0x67006765725f
 5aa:	6f6c                	.insn	2, 0x6f6c
 5ac:	6162                	.insn	2, 0x6162
 5ae:	5f6c                	.insn	2, 0x5f6c
 5b0:	6175                	.insn	2, 0x6175
 5b2:	7472                	.insn	2, 0x7472
 5b4:	7500                	.insn	2, 0x7500
 5b6:	7261                	.insn	2, 0x7261
 5b8:	5f74                	.insn	2, 0x5f74
 5ba:	7369                	.insn	2, 0x7369
 5bc:	745f 5f78 6d65      	.insn	6, 0x6d655f78745f
 5c2:	7470                	.insn	2, 0x7470
 5c4:	0079                	.insn	2, 0x0079
 5c6:	6175                	.insn	2, 0x6175
 5c8:	7472                	.insn	2, 0x7472
 5ca:	675f 7465 635f      	.insn	6, 0x635f7465675f
 5d0:	6168                	.insn	2, 0x6168
 5d2:	0072                	.insn	2, 0x0072
 5d4:	74617473          	csrrci	s0,0x746,2
 5d8:	5f65                	.insn	2, 0x5f65
 5da:	6572                	.insn	2, 0x6572
 5dc:	61750067          	jr	1559(a0)
 5e0:	7472                	.insn	2, 0x7472
 5e2:	695f 5f73 7872      	.insn	6, 0x78725f73695f
 5e8:	655f 706d 7974      	.insn	6, 0x7974706d655f
	...

Disassembly of section .debug_line_str:

00000000 <.debug_line_str>:
   0:	2f637273          	csrrci	tp,0x2f6,6
   4:	6e69                	.insn	2, 0x6e69
   6:	6574                	.insn	2, 0x6574
   8:	7272                	.insn	2, 0x7272
   a:	7075                	.insn	2, 0x7075
   c:	7374                	.insn	2, 0x7374
   e:	632e                	.insn	2, 0x632e
  10:	2f00                	.insn	2, 0x2f00
  12:	6f68                	.insn	2, 0x6f68
  14:	656d                	.insn	2, 0x656d
  16:	6e69762f          	.insn	4, 0x6e69762f
  1a:	7a6e6563          	bltu	t3,t1,7c4 <_ntoa_long+0x26c>
  1e:	49522f6f          	jal	t5,22cb2 <_peripheral_TIM1_end+0x2672>
  22:	562d4353          	.insn	4, 0x562d4353
  26:	6a72702f          	.insn	4, 0x6a72702f
  2a:	6e552f73          	csrrs	t5,0x6e5,a0
  2e:	6e69                	.insn	2, 0x6e69
  30:	5361                	.insn	2, 0x5361
  32:	442f436f          	jal	t1,f4474 <_peripheral_HLS_CONTROL_end+0xb4474>
  36:	30324453          	.insn	4, 0x30324453
  3a:	3532                	.insn	2, 0x3532
  3c:	436f532f          	.insn	4, 0x436f532f
  40:	4453442f          	.insn	4, 0x4453442f
  44:	3032                	.insn	2, 0x3032
  46:	3532                	.insn	2, 0x3532
  48:	685f 736c 675f      	.insn	6, 0x675f736c685f
  4e:	6d65                	.insn	2, 0x6d65
  50:	2f6d                	.insn	2, 0x2f6d
  52:	532f7773          	csrrci	a4,0x532,30
  56:	652f436f          	jal	t1,f46a8 <_peripheral_HLS_CONTROL_end+0xb46a8>
  5a:	6178                	.insn	2, 0x6178
  5c:	706d                	.insn	2, 0x706d
  5e:	656c                	.insn	2, 0x656c
  60:	6e692f73          	csrrs	t5,0x6e6,s2
  64:	6574                	.insn	2, 0x6574
  66:	7272                	.insn	2, 0x7272
  68:	7075                	.insn	2, 0x7075
  6a:	7374                	.insn	2, 0x7374
  6c:	7300                	.insn	2, 0x7300
  6e:	6372                	.insn	2, 0x6372
  70:	2f00                	.insn	2, 0x2f00
  72:	6f68                	.insn	2, 0x6f68
  74:	656d                	.insn	2, 0x656d
  76:	6e69762f          	.insn	4, 0x6e69762f
  7a:	7a6e6563          	bltu	t3,t1,824 <_ntoa_long+0x2cc>
  7e:	49522f6f          	jal	t5,22d12 <_peripheral_TIM1_end+0x26d2>
  82:	562d4353          	.insn	4, 0x562d4353
  86:	756e672f          	.insn	4, 0x756e672f
  8a:	742d                	.insn	2, 0x742d
  8c:	636c6f6f          	jal	t5,c66c2 <_peripheral_HLS_CONTROL_end+0x866c2>
  90:	6168                	.insn	2, 0x6168
  92:	6e69                	.insn	2, 0x6e69
  94:	722f3233          	.insn	4, 0x722f3233
  98:	7369                	.insn	2, 0x7369
  9a:	32337663          	bgeu	t1,gp,3c6 <gpio_in_configure+0xc>
  9e:	752d                	.insn	2, 0x752d
  a0:	6b6e                	.insn	2, 0x6b6e
  a2:	6f6e                	.insn	2, 0x6f6e
  a4:	652d6e77          	.insn	4, 0x652d6e77
  a8:	666c                	.insn	2, 0x666c
  aa:	636e692f          	.insn	4, 0x636e692f
  ae:	756c                	.insn	2, 0x756c
  b0:	6564                	.insn	2, 0x6564
  b2:	63616d2f          	.insn	4, 0x63616d2f
  b6:	6968                	.insn	2, 0x6968
  b8:	656e                	.insn	2, 0x656e
  ba:	2f00                	.insn	2, 0x2f00
  bc:	6f68                	.insn	2, 0x6f68
  be:	656d                	.insn	2, 0x656d
  c0:	6e69762f          	.insn	4, 0x6e69762f
  c4:	7a6e6563          	bltu	t3,t1,86e <_ntoa_long+0x316>
  c8:	49522f6f          	jal	t5,22d5c <_peripheral_TIM1_end+0x271c>
  cc:	562d4353          	.insn	4, 0x562d4353
  d0:	756e672f          	.insn	4, 0x756e672f
  d4:	742d                	.insn	2, 0x742d
  d6:	636c6f6f          	jal	t5,c670c <_peripheral_HLS_CONTROL_end+0x8670c>
  da:	6168                	.insn	2, 0x6168
  dc:	6e69                	.insn	2, 0x6e69
  de:	722f3233          	.insn	4, 0x722f3233
  e2:	7369                	.insn	2, 0x7369
  e4:	32337663          	bgeu	t1,gp,410 <gpio_in_enable_int+0x32>
  e8:	752d                	.insn	2, 0x752d
  ea:	6b6e                	.insn	2, 0x6b6e
  ec:	6f6e                	.insn	2, 0x6f6e
  ee:	652d6e77          	.insn	4, 0x652d6e77
  f2:	666c                	.insn	2, 0x666c
  f4:	636e692f          	.insn	4, 0x636e692f
  f8:	756c                	.insn	2, 0x756c
  fa:	6564                	.insn	2, 0x6564
  fc:	7379732f          	.insn	4, 0x7379732f
 100:	5f00                	.insn	2, 0x5f00
 102:	6564                	.insn	2, 0x6564
 104:	6166                	.insn	2, 0x6166
 106:	6c75                	.insn	2, 0x6c75
 108:	5f74                	.insn	2, 0x5f74
 10a:	7974                	.insn	2, 0x7974
 10c:	6570                	.insn	2, 0x6570
 10e:	00682e73          	csrrs	t3,0x6,a6
 112:	735f 6474 6e69      	.insn	6, 0x6e696474735f
 118:	2e74                	.insn	2, 0x2e74
 11a:	0068                	.insn	2, 0x0068
 11c:	6e69                	.insn	2, 0x6e69
 11e:	6574                	.insn	2, 0x6574
 120:	7272                	.insn	2, 0x7272
 122:	7075                	.insn	2, 0x7075
 124:	7374                	.insn	2, 0x7374
 126:	682e                	.insn	2, 0x682e
 128:	7000                	.insn	2, 0x7000
 12a:	696c                	.insn	2, 0x696c
 12c:	00682e63          	.insn	4, 0x00682e63
 130:	6c78                	.insn	2, 0x6c78
 132:	786e                	.insn	2, 0x786e
 134:	745f 6d69 682e      	.insn	6, 0x682e6d69745f
 13a:	7300                	.insn	2, 0x7300
 13c:	6372                	.insn	2, 0x6372
 13e:	69616d2f          	.insn	4, 0x69616d2f
 142:	2e6e                	.insn	2, 0x2e6e
 144:	682f0063          	beq	t5,sp,7c4 <_ntoa_long+0x26c>
 148:	2f656d6f          	jal	s10,5643e <_peripheral_HLS_CONTROL_end+0x1643e>
 14c:	6976                	.insn	2, 0x6976
 14e:	636e                	.insn	2, 0x636e
 150:	6e65                	.insn	2, 0x6e65
 152:	6f7a                	.insn	2, 0x6f7a
 154:	5349522f          	.insn	4, 0x5349522f
 158:	2f562d43          	.insn	4, 0x2f562d43
 15c:	7270                	.insn	2, 0x7270
 15e:	736a                	.insn	2, 0x736a
 160:	696e552f          	.insn	4, 0x696e552f
 164:	616e                	.insn	2, 0x616e
 166:	2f436f53          	.insn	4, 0x2f436f53
 16a:	5344                	.insn	2, 0x5344
 16c:	3244                	.insn	2, 0x3244
 16e:	3230                	.insn	2, 0x3230
 170:	2f35                	.insn	2, 0x2f35
 172:	2f436f53          	.insn	4, 0x2f436f53
 176:	5344                	.insn	2, 0x5344
 178:	3244                	.insn	2, 0x3244
 17a:	3230                	.insn	2, 0x3230
 17c:	5f35                	.insn	2, 0x5f35
 17e:	6c68                	.insn	2, 0x6c68
 180:	65675f73          	csrrwi	t5,hviprio1h,14
 184:	6d6d                	.insn	2, 0x6d6d
 186:	2f77732f          	.insn	4, 0x2f77732f
 18a:	2f436f53          	.insn	4, 0x2f436f53
 18e:	696c                	.insn	2, 0x696c
 190:	2f62                	.insn	2, 0x2f62
 192:	6974                	.insn	2, 0x6974
 194:	796e                	.insn	2, 0x796e
 196:	6f69                	.insn	2, 0x6f69
 198:	636e692f          	.insn	4, 0x636e692f
 19c:	7300                	.insn	2, 0x7300
 19e:	7265                	.insn	2, 0x7265
 1a0:	6169                	.insn	2, 0x6169
 1a2:	2e6c                	.insn	2, 0x2e6c
 1a4:	0068                	.insn	2, 0x0068
 1a6:	7270                	.insn	2, 0x7270
 1a8:	6e69                	.insn	2, 0x6e69
 1aa:	2e74                	.insn	2, 0x2e74
 1ac:	0068                	.insn	2, 0x0068
 1ae:	2f637273          	csrrci	tp,0x2f6,6
 1b2:	6c70                	.insn	2, 0x6c70
 1b4:	6369                	.insn	2, 0x6369
 1b6:	632e                	.insn	2, 0x632e
 1b8:	7300                	.insn	2, 0x7300
 1ba:	6372                	.insn	2, 0x6372
 1bc:	7265732f          	.insn	4, 0x7265732f
 1c0:	6169                	.insn	2, 0x6169
 1c2:	2e6c                	.insn	2, 0x2e6c
 1c4:	69740063          	beq	s0,s7,844 <_ntoa_long+0x2ec>
 1c8:	796e                	.insn	2, 0x796e
 1ca:	4f49                	.insn	2, 0x4f49
 1cc:	682e                	.insn	2, 0x682e
 1ce:	7300                	.insn	2, 0x7300
 1d0:	6372                	.insn	2, 0x6372
 1d2:	6e6c782f          	.insn	4, 0x6e6c782f
 1d6:	5f78                	.insn	2, 0x5f78
 1d8:	6f697067          	.insn	4, 0x6f697067
 1dc:	632e                	.insn	2, 0x632e
 1de:	7800                	.insn	2, 0x7800
 1e0:	6e6c                	.insn	2, 0x6e6c
 1e2:	5f78                	.insn	2, 0x5f78
 1e4:	6f697067          	.insn	4, 0x6f697067
 1e8:	682e                	.insn	2, 0x682e
 1ea:	7300                	.insn	2, 0x7300
 1ec:	6372                	.insn	2, 0x6372
 1ee:	6e6c782f          	.insn	4, 0x6e6c782f
 1f2:	5f78                	.insn	2, 0x5f78
 1f4:	6974                	.insn	2, 0x6974
 1f6:	2e6d                	.insn	2, 0x2e6d
 1f8:	682f0063          	beq	t5,sp,878 <_ntoa_long+0x320>
 1fc:	2f656d6f          	jal	s10,564f2 <_peripheral_HLS_CONTROL_end+0x164f2>
 200:	6976                	.insn	2, 0x6976
 202:	636e                	.insn	2, 0x636e
 204:	6e65                	.insn	2, 0x6e65
 206:	6f7a                	.insn	2, 0x6f7a
 208:	5349522f          	.insn	4, 0x5349522f
 20c:	2f562d43          	.insn	4, 0x2f562d43
 210:	7270                	.insn	2, 0x7270
 212:	736a                	.insn	2, 0x736a
 214:	696e552f          	.insn	4, 0x696e552f
 218:	616e                	.insn	2, 0x616e
 21a:	2f436f53          	.insn	4, 0x2f436f53
 21e:	5344                	.insn	2, 0x5344
 220:	3244                	.insn	2, 0x3244
 222:	3230                	.insn	2, 0x3230
 224:	2f35                	.insn	2, 0x2f35
 226:	2f436f53          	.insn	4, 0x2f436f53
 22a:	5344                	.insn	2, 0x5344
 22c:	3244                	.insn	2, 0x3244
 22e:	3230                	.insn	2, 0x3230
 230:	5f35                	.insn	2, 0x5f35
 232:	6c68                	.insn	2, 0x6c68
 234:	65675f73          	csrrwi	t5,hviprio1h,14
 238:	6d6d                	.insn	2, 0x6d6d
 23a:	2f77732f          	.insn	4, 0x2f77732f
 23e:	2f436f53          	.insn	4, 0x2f436f53
 242:	6d6d6f63          	bltu	s10,s6,920 <_ntoa_long+0x3c8>
 246:	73006e6f          	jal	t3,6976 <global_uart+0x5412>
 24a:	6174                	.insn	2, 0x6174
 24c:	7472                	.insn	2, 0x7472
 24e:	7075                	.insn	2, 0x7075
 250:	732e                	.insn	2, 0x732e
 252:	2f00                	.insn	2, 0x2f00
 254:	6f68                	.insn	2, 0x6f68
 256:	656d                	.insn	2, 0x656d
 258:	6574732f          	.insn	4, 0x6574732f
 25c:	6166                	.insn	2, 0x6166
 25e:	6f6e                	.insn	2, 0x6f6e
 260:	7365442f          	.insn	4, 0x7365442f
 264:	706f746b          	.insn	4, 0x706f746b
 268:	726f572f          	.insn	4, 0x726f572f
 26c:	72502f6b          	.insn	4, 0x72502f6b
 270:	63656a6f          	jal	s4,568a6 <_peripheral_HLS_CONTROL_end+0x168a6>
 274:	7374                	.insn	2, 0x7374
 276:	7365762f          	.insn	4, 0x7365762f
 27a:	7675                	.insn	2, 0x7675
 27c:	7569                	.insn	2, 0x7569
 27e:	69742f73          	csrrs	t5,0x697,s0
 282:	796e                	.insn	2, 0x796e
 284:	6f69                	.insn	2, 0x6f69
 286:	7300                	.insn	2, 0x7300
 288:	6372                	.insn	2, 0x6372
 28a:	6972702f          	.insn	4, 0x6972702f
 28e:	746e                	.insn	2, 0x746e
 290:	632e                	.insn	2, 0x632e
 292:	2f00                	.insn	2, 0x2f00
 294:	2f74706f          	j	47d8a <_peripheral_HLS_CONTROL_end+0x7d8a>
 298:	7672                	.insn	2, 0x7672
 29a:	6c2f3233          	.insn	4, 0x6c2f3233
 29e:	6269                	.insn	2, 0x6269
 2a0:	6363672f          	.insn	4, 0x6363672f
 2a4:	7369722f          	.insn	4, 0x7369722f
 2a8:	32337663          	bgeu	t1,gp,5d4 <_ntoa_long+0x7c>
 2ac:	752d                	.insn	2, 0x752d
 2ae:	6b6e                	.insn	2, 0x6b6e
 2b0:	6f6e                	.insn	2, 0x6f6e
 2b2:	652d6e77          	.insn	4, 0x652d6e77
 2b6:	666c                	.insn	2, 0x666c
 2b8:	2e32312f          	.insn	4, 0x2e32312f
 2bc:	2e32                	.insn	2, 0x2e32
 2be:	2f30                	.insn	2, 0x2f30
 2c0:	6e69                	.insn	2, 0x6e69
 2c2:	64756c63          	bltu	a0,t2,91a <_ntoa_long+0x3c2>
 2c6:	0065                	.insn	2, 0x0065
 2c8:	74706f2f          	.insn	4, 0x74706f2f
 2cc:	3376722f          	.insn	4, 0x3376722f
 2d0:	2f32                	.insn	2, 0x2f32
 2d2:	6972                	.insn	2, 0x6972
 2d4:	33766373          	csrrsi	t1,mhpmevent23,12
 2d8:	2d32                	.insn	2, 0x2d32
 2da:	6e75                	.insn	2, 0x6e75
 2dc:	776f6e6b          	.insn	4, 0x776f6e6b
 2e0:	2d6e                	.insn	2, 0x2d6e
 2e2:	6c65                	.insn	2, 0x6c65
 2e4:	2f66                	.insn	2, 0x2f66
 2e6:	6e69                	.insn	2, 0x6e69
 2e8:	64756c63          	bltu	a0,t2,940 <_ntoa_long+0x3e8>
 2ec:	2f65                	.insn	2, 0x2f65
 2ee:	616d                	.insn	2, 0x616d
 2f0:	6e696863          	bltu	s2,t1,9e0 <_ntoa_long+0x488>
 2f4:	0065                	.insn	2, 0x0065
 2f6:	74706f2f          	.insn	4, 0x74706f2f
 2fa:	3376722f          	.insn	4, 0x3376722f
 2fe:	2f32                	.insn	2, 0x2f32
 300:	6972                	.insn	2, 0x6972
 302:	33766373          	csrrsi	t1,mhpmevent23,12
 306:	2d32                	.insn	2, 0x2d32
 308:	6e75                	.insn	2, 0x6e75
 30a:	776f6e6b          	.insn	4, 0x776f6e6b
 30e:	2d6e                	.insn	2, 0x2d6e
 310:	6c65                	.insn	2, 0x6c65
 312:	2f66                	.insn	2, 0x2f66
 314:	6e69                	.insn	2, 0x6e69
 316:	64756c63          	bltu	a0,t2,96e <_ntoa_long+0x416>
 31a:	2f65                	.insn	2, 0x2f65
 31c:	00737973          	csrrci	s2,0x7,6
 320:	61647473          	csrrci	s0,0x616,8
 324:	6772                	.insn	2, 0x6772
 326:	682e                	.insn	2, 0x682e
 328:	7300                	.insn	2, 0x7300
 32a:	6474                	.insn	2, 0x6474
 32c:	6564                	.insn	2, 0x6564
 32e:	2e66                	.insn	2, 0x2e66
 330:	0068                	.insn	2, 0x0068
 332:	6175                	.insn	2, 0x6175
 334:	7472                	.insn	2, 0x7472
 336:	682e                	.insn	2, 0x682e
 338:	7300                	.insn	2, 0x7300
 33a:	6372                	.insn	2, 0x6372
 33c:	6e69742f          	.insn	4, 0x6e69742f
 340:	4979                	.insn	2, 0x4979
 342:	00632e4f          	.insn	4, 0x00632e4f
 346:	2f637273          	csrrci	tp,0x2f6,6
 34a:	6175                	.insn	2, 0x6175
 34c:	7472                	.insn	2, 0x7472
 34e:	632e                	.insn	2, 0x632e
	...

Disassembly of section .comment:

00000000 <.comment>:
   0:	3a434347          	.insn	4, 0x3a434347
   4:	2820                	.insn	2, 0x2820
   6:	39386367          	.insn	4, 0x39386367
   a:	6431                	.insn	2, 0x6431
   c:	6438                	.insn	2, 0x6438
   e:	20293263          	.insn	4, 0x20293263
  12:	3331                	.insn	2, 0x3331
  14:	322e                	.insn	2, 0x322e
  16:	302e                	.insn	2, 0x302e
  18:	4700                	.insn	2, 0x4700
  1a:	203a4343          	.insn	4, 0x203a4343
  1e:	6728                	.insn	2, 0x6728
  20:	6532                	.insn	2, 0x6532
  22:	3565                	.insn	2, 0x3565
  24:	3465                	.insn	2, 0x3465
  26:	31303033          	.insn	4, 0x31303033
  2a:	2938                	.insn	2, 0x2938
  2c:	3120                	.insn	2, 0x3120
  2e:	2e32                	.insn	2, 0x2e32
  30:	2e32                	.insn	2, 0x2e32
  32:	0030                	.insn	2, 0x0030

Disassembly of section .riscv.attributes:

00000000 <.riscv.attributes>:
   0:	4c41                	.insn	2, 0x4c41
   2:	0000                	.insn	2, 0x
   4:	7200                	.insn	2, 0x7200
   6:	7369                	.insn	2, 0x7369
   8:	01007663          	bgeu	zero,a6,14 <_vector_table_start+0x14>
   c:	0042                	.insn	2, 0x0042
   e:	0000                	.insn	2, 0x
  10:	1004                	.insn	2, 0x1004
  12:	7205                	.insn	2, 0x7205
  14:	3376                	.insn	2, 0x3376
  16:	6932                	.insn	2, 0x6932
  18:	7032                	.insn	2, 0x7032
  1a:	5f31                	.insn	2, 0x5f31
  1c:	326d                	.insn	2, 0x326d
  1e:	3070                	.insn	2, 0x3070
  20:	615f 7032 5f31      	.insn	6, 0x5f317032615f
  26:	30703263          	.insn	4, 0x30703263
  2a:	7a5f 6369 7273      	.insn	6, 0x727363697a5f
  30:	7032                	.insn	2, 0x7032
  32:	5f30                	.insn	2, 0x5f30
  34:	697a                	.insn	2, 0x697a
  36:	6566                	.insn	2, 0x6566
  38:	636e                	.insn	2, 0x636e
  3a:	6965                	.insn	2, 0x6965
  3c:	7032                	.insn	2, 0x7032
  3e:	5f30                	.insn	2, 0x5f30
  40:	6d7a                	.insn	2, 0x6d7a
  42:	756d                	.insn	2, 0x756d
  44:	316c                	.insn	2, 0x316c
  46:	3070                	.insn	2, 0x3070
  48:	0800                	.insn	2, 0x0800
  4a:	0a01                	.insn	2, 0x0a01
  4c:	Address 0x4c is out of bounds.


Disassembly of section .debug_frame:

00000000 <.debug_frame>:
   0:	000c                	.insn	2, 0x000c
   2:	0000                	.insn	2, 0x
   4:	ffff                	.insn	2, 0xffff
   6:	ffff                	.insn	2, 0xffff
   8:	7c010003          	lb	zero,1984(sp)
   c:	0d01                	.insn	2, 0x0d01
   e:	0002                	.insn	2, 0x0002
  10:	0020                	.insn	2, 0x0020
  12:	0000                	.insn	2, 0x
  14:	0000                	.insn	2, 0x
  16:	0000                	.insn	2, 0x
  18:	0160                	.insn	2, 0x0160
  1a:	0000                	.insn	2, 0x
  1c:	00b8                	.insn	2, 0x00b8
  1e:	0000                	.insn	2, 0x
  20:	0e42                	.insn	2, 0x0e42
  22:	4230                	.insn	2, 0x4230
  24:	0188                	.insn	2, 0x0188
  26:	0c42                	.insn	2, 0x0c42
  28:	0008                	.insn	2, 0x0008
  2a:	ae02                	.insn	2, 0xae02
  2c:	0cc8                	.insn	2, 0x0cc8
  2e:	3002                	.insn	2, 0x3002
  30:	0e42                	.insn	2, 0x0e42
  32:	0000                	.insn	2, 0x
  34:	0020                	.insn	2, 0x0020
  36:	0000                	.insn	2, 0x
  38:	0000                	.insn	2, 0x
  3a:	0000                	.insn	2, 0x
  3c:	0218                	.insn	2, 0x0218
  3e:	0000                	.insn	2, 0x
  40:	0010                	.insn	2, 0x0010
  42:	0000                	.insn	2, 0x
  44:	0e42                	.insn	2, 0x0e42
  46:	4210                	.insn	2, 0x4210
  48:	0188                	.insn	2, 0x0188
  4a:	0c42                	.insn	2, 0x0c42
  4c:	0008                	.insn	2, 0x0008
  4e:	c844                	.insn	2, 0xc844
  50:	020c                	.insn	2, 0x020c
  52:	4210                	.insn	2, 0x4210
  54:	000e                	.insn	2, 0x000e
  56:	0000                	.insn	2, 0x
  58:	0020                	.insn	2, 0x0020
  5a:	0000                	.insn	2, 0x
  5c:	0000                	.insn	2, 0x
  5e:	0000                	.insn	2, 0x
  60:	0228                	.insn	2, 0x0228
  62:	0000                	.insn	2, 0x
  64:	0010                	.insn	2, 0x0010
  66:	0000                	.insn	2, 0x
  68:	0e42                	.insn	2, 0x0e42
  6a:	4210                	.insn	2, 0x4210
  6c:	0188                	.insn	2, 0x0188
  6e:	0c42                	.insn	2, 0x0c42
  70:	0008                	.insn	2, 0x0008
  72:	c844                	.insn	2, 0xc844
  74:	020c                	.insn	2, 0x020c
  76:	4210                	.insn	2, 0x4210
  78:	000e                	.insn	2, 0x000e
  7a:	0000                	.insn	2, 0x
  7c:	0060                	.insn	2, 0x0060
  7e:	0000                	.insn	2, 0x
  80:	0000                	.insn	2, 0x
  82:	0000                	.insn	2, 0x
  84:	0238                	.insn	2, 0x0238
  86:	0000                	.insn	2, 0x
  88:	00b2                	.insn	2, 0x00b2
  8a:	0000                	.insn	2, 0x
  8c:	0e42                	.insn	2, 0x0e42
  8e:	6260                	.insn	2, 0x6260
  90:	0181                	.insn	2, 0x0181
  92:	0285                	.insn	2, 0x0285
  94:	0386                	.insn	2, 0x0386
  96:	05880487          	.insn	4, 0x05880487
  9a:	068a                	.insn	2, 0x068a
  9c:	088c078b          	.insn	4, 0x088c078b
  a0:	098d                	.insn	2, 0x098d
  a2:	0a8e                	.insn	2, 0x0a8e
  a4:	0c900b8f          	.insn	4, 0x0c900b8f
  a8:	0d91                	.insn	2, 0x0d91
  aa:	0e9c                	.insn	2, 0x0e9c
  ac:	0f9d                	.insn	2, 0x0f9d
  ae:	109e                	.insn	2, 0x109e
  b0:	119f 0c42 0008      	.insn	6, 0x00080c42119f
  b6:	6602                	.insn	2, 0x6602
  b8:	42c1                	.insn	2, 0x42c1
  ba:	42c5                	.insn	2, 0x42c5
  bc:	42c6                	.insn	2, 0x42c6
  be:	0cc842c7          	.insn	4, 0x0cc842c7
  c2:	6002                	.insn	2, 0x6002
  c4:	ca42                	.insn	2, 0xca42
  c6:	cb42                	.insn	2, 0xcb42
  c8:	cc42                	.insn	2, 0xcc42
  ca:	cd42                	.insn	2, 0xcd42
  cc:	ce42                	.insn	2, 0xce42
  ce:	cf42                	.insn	2, 0xcf42
  d0:	d042                	.insn	2, 0xd042
  d2:	d142                	.insn	2, 0xd142
  d4:	dc42                	.insn	2, 0xdc42
  d6:	dd42                	.insn	2, 0xdd42
  d8:	de42                	.insn	2, 0xde42
  da:	df42                	.insn	2, 0xdf42
  dc:	0e42                	.insn	2, 0x0e42
  de:	0000                	.insn	2, 0x
  e0:	000c                	.insn	2, 0x000c
  e2:	0000                	.insn	2, 0x
  e4:	ffff                	.insn	2, 0xffff
  e6:	ffff                	.insn	2, 0xffff
  e8:	7c010003          	lb	zero,1984(sp)
  ec:	0d01                	.insn	2, 0x0d01
  ee:	0002                	.insn	2, 0x0002
  f0:	0018                	.insn	2, 0x0018
  f2:	0000                	.insn	2, 0x
  f4:	00e0                	.insn	2, 0x00e0
  f6:	0000                	.insn	2, 0x
  f8:	02ea                	.insn	2, 0x02ea
  fa:	0000                	.insn	2, 0x
  fc:	0038                	.insn	2, 0x0038
  fe:	0000                	.insn	2, 0x
 100:	0e42                	.insn	2, 0x0e42
 102:	4410                	.insn	2, 0x4410
 104:	0181                	.insn	2, 0x0181
 106:	0288                	.insn	2, 0x0288
 108:	0c42                	.insn	2, 0x0c42
 10a:	0008                	.insn	2, 0x0008
 10c:	000c                	.insn	2, 0x000c
 10e:	0000                	.insn	2, 0x
 110:	ffff                	.insn	2, 0xffff
 112:	ffff                	.insn	2, 0xffff
 114:	7c010003          	lb	zero,1984(sp)
 118:	0d01                	.insn	2, 0x0d01
 11a:	0002                	.insn	2, 0x0002
 11c:	0020                	.insn	2, 0x0020
 11e:	0000                	.insn	2, 0x
 120:	010c                	.insn	2, 0x010c
 122:	0000                	.insn	2, 0x
 124:	0322                	.insn	2, 0x0322
 126:	0000                	.insn	2, 0x
 128:	004a                	.insn	2, 0x004a
 12a:	0000                	.insn	2, 0x
 12c:	0e42                	.insn	2, 0x0e42
 12e:	4220                	.insn	2, 0x4220
 130:	0188                	.insn	2, 0x0188
 132:	0c42                	.insn	2, 0x0c42
 134:	0008                	.insn	2, 0x0008
 136:	4002                	.insn	2, 0x4002
 138:	0cc8                	.insn	2, 0x0cc8
 13a:	2002                	.insn	2, 0x2002
 13c:	0e42                	.insn	2, 0x0e42
 13e:	0000                	.insn	2, 0x
 140:	0020                	.insn	2, 0x0020
 142:	0000                	.insn	2, 0x
 144:	010c                	.insn	2, 0x010c
 146:	0000                	.insn	2, 0x
 148:	036c                	.insn	2, 0x036c
 14a:	0000                	.insn	2, 0x
 14c:	0026                	.insn	2, 0x0026
 14e:	0000                	.insn	2, 0x
 150:	0e42                	.insn	2, 0x0e42
 152:	4220                	.insn	2, 0x4220
 154:	0188                	.insn	2, 0x0188
 156:	0c42                	.insn	2, 0x0c42
 158:	0008                	.insn	2, 0x0008
 15a:	c85c                	.insn	2, 0xc85c
 15c:	020c                	.insn	2, 0x020c
 15e:	4220                	.insn	2, 0x4220
 160:	000e                	.insn	2, 0x000e
 162:	0000                	.insn	2, 0x
 164:	000c                	.insn	2, 0x000c
 166:	0000                	.insn	2, 0x
 168:	ffff                	.insn	2, 0xffff
 16a:	ffff                	.insn	2, 0xffff
 16c:	7c010003          	lb	zero,1984(sp)
 170:	0d01                	.insn	2, 0x0d01
 172:	0002                	.insn	2, 0x0002
 174:	0024                	.insn	2, 0x0024
 176:	0000                	.insn	2, 0x
 178:	0164                	.insn	2, 0x0164
 17a:	0000                	.insn	2, 0x
 17c:	0392                	.insn	2, 0x0392
 17e:	0000                	.insn	2, 0x
 180:	0028                	.insn	2, 0x0028
 182:	0000                	.insn	2, 0x
 184:	0e42                	.insn	2, 0x0e42
 186:	4420                	.insn	2, 0x4420
 188:	0181                	.insn	2, 0x0181
 18a:	0288                	.insn	2, 0x0288
 18c:	0c42                	.insn	2, 0x0c42
 18e:	0008                	.insn	2, 0x0008
 190:	c15a                	.insn	2, 0xc15a
 192:	c842                	.insn	2, 0xc842
 194:	020c                	.insn	2, 0x020c
 196:	4220                	.insn	2, 0x4220
 198:	000e                	.insn	2, 0x000e
 19a:	0000                	.insn	2, 0x
 19c:	000c                	.insn	2, 0x000c
 19e:	0000                	.insn	2, 0x
 1a0:	ffff                	.insn	2, 0xffff
 1a2:	ffff                	.insn	2, 0xffff
 1a4:	7c010003          	lb	zero,1984(sp)
 1a8:	0d01                	.insn	2, 0x0d01
 1aa:	0002                	.insn	2, 0x0002
 1ac:	0020                	.insn	2, 0x0020
 1ae:	0000                	.insn	2, 0x
 1b0:	019c                	.insn	2, 0x019c
 1b2:	0000                	.insn	2, 0x
 1b4:	03ba                	.insn	2, 0x03ba
 1b6:	0000                	.insn	2, 0x
 1b8:	0024                	.insn	2, 0x0024
 1ba:	0000                	.insn	2, 0x
 1bc:	0e42                	.insn	2, 0x0e42
 1be:	4220                	.insn	2, 0x4220
 1c0:	0188                	.insn	2, 0x0188
 1c2:	0c42                	.insn	2, 0x0c42
 1c4:	0008                	.insn	2, 0x0008
 1c6:	c85a                	.insn	2, 0xc85a
 1c8:	020c                	.insn	2, 0x020c
 1ca:	4220                	.insn	2, 0x4220
 1cc:	000e                	.insn	2, 0x000e
 1ce:	0000                	.insn	2, 0x
 1d0:	0020                	.insn	2, 0x0020
 1d2:	0000                	.insn	2, 0x
 1d4:	019c                	.insn	2, 0x019c
 1d6:	0000                	.insn	2, 0x
 1d8:	03de                	.insn	2, 0x03de
 1da:	0000                	.insn	2, 0x
 1dc:	0034                	.insn	2, 0x0034
 1de:	0000                	.insn	2, 0x
 1e0:	0e42                	.insn	2, 0x0e42
 1e2:	4220                	.insn	2, 0x4220
 1e4:	0188                	.insn	2, 0x0188
 1e6:	0c42                	.insn	2, 0x0c42
 1e8:	0008                	.insn	2, 0x0008
 1ea:	c86a                	.insn	2, 0xc86a
 1ec:	020c                	.insn	2, 0x020c
 1ee:	4220                	.insn	2, 0x4220
 1f0:	000e                	.insn	2, 0x000e
 1f2:	0000                	.insn	2, 0x
 1f4:	0020                	.insn	2, 0x0020
 1f6:	0000                	.insn	2, 0x
 1f8:	019c                	.insn	2, 0x019c
 1fa:	0000                	.insn	2, 0x
 1fc:	0412                	.insn	2, 0x0412
 1fe:	0000                	.insn	2, 0x
 200:	003e                	.insn	2, 0x003e
 202:	0000                	.insn	2, 0x
 204:	0e42                	.insn	2, 0x0e42
 206:	4220                	.insn	2, 0x4220
 208:	0188                	.insn	2, 0x0188
 20a:	0c42                	.insn	2, 0x0c42
 20c:	0008                	.insn	2, 0x0008
 20e:	c874                	.insn	2, 0xc874
 210:	020c                	.insn	2, 0x020c
 212:	4220                	.insn	2, 0x4220
 214:	000e                	.insn	2, 0x000e
 216:	0000                	.insn	2, 0x
 218:	000c                	.insn	2, 0x000c
 21a:	0000                	.insn	2, 0x
 21c:	ffff                	.insn	2, 0xffff
 21e:	ffff                	.insn	2, 0xffff
 220:	7c010003          	lb	zero,1984(sp)
 224:	0d01                	.insn	2, 0x0d01
 226:	0002                	.insn	2, 0x0002
 228:	0020                	.insn	2, 0x0020
 22a:	0000                	.insn	2, 0x
 22c:	0218                	.insn	2, 0x0218
 22e:	0000                	.insn	2, 0x
 230:	0450                	.insn	2, 0x0450
 232:	0000                	.insn	2, 0x
 234:	0064                	.insn	2, 0x0064
 236:	0000                	.insn	2, 0x
 238:	0e42                	.insn	2, 0x0e42
 23a:	4220                	.insn	2, 0x4220
 23c:	0188                	.insn	2, 0x0188
 23e:	0c42                	.insn	2, 0x0c42
 240:	0008                	.insn	2, 0x0008
 242:	5a02                	.insn	2, 0x5a02
 244:	0cc8                	.insn	2, 0x0cc8
 246:	2002                	.insn	2, 0x2002
 248:	0e42                	.insn	2, 0x0e42
 24a:	0000                	.insn	2, 0x
 24c:	0020                	.insn	2, 0x0020
 24e:	0000                	.insn	2, 0x
 250:	0218                	.insn	2, 0x0218
 252:	0000                	.insn	2, 0x
 254:	04b4                	.insn	2, 0x04b4
 256:	0000                	.insn	2, 0x
 258:	002a                	.insn	2, 0x002a
 25a:	0000                	.insn	2, 0x
 25c:	0e42                	.insn	2, 0x0e42
 25e:	4220                	.insn	2, 0x4220
 260:	0188                	.insn	2, 0x0188
 262:	0c42                	.insn	2, 0x0c42
 264:	0008                	.insn	2, 0x0008
 266:	c860                	.insn	2, 0xc860
 268:	020c                	.insn	2, 0x020c
 26a:	4220                	.insn	2, 0x4220
 26c:	000e                	.insn	2, 0x000e
 26e:	0000                	.insn	2, 0x
 270:	0020                	.insn	2, 0x0020
 272:	0000                	.insn	2, 0x
 274:	0218                	.insn	2, 0x0218
 276:	0000                	.insn	2, 0x
 278:	04de                	.insn	2, 0x04de
 27a:	0000                	.insn	2, 0x
 27c:	002a                	.insn	2, 0x002a
 27e:	0000                	.insn	2, 0x
 280:	0e42                	.insn	2, 0x0e42
 282:	4220                	.insn	2, 0x4220
 284:	0188                	.insn	2, 0x0188
 286:	0c42                	.insn	2, 0x0c42
 288:	0008                	.insn	2, 0x0008
 28a:	c860                	.insn	2, 0xc860
 28c:	020c                	.insn	2, 0x020c
 28e:	4220                	.insn	2, 0x4220
 290:	000e                	.insn	2, 0x000e
 292:	0000                	.insn	2, 0x
 294:	0024                	.insn	2, 0x0024
 296:	0000                	.insn	2, 0x
 298:	0218                	.insn	2, 0x0218
 29a:	0000                	.insn	2, 0x
 29c:	0508                	.insn	2, 0x0508
 29e:	0000                	.insn	2, 0x
 2a0:	003c                	.insn	2, 0x003c
 2a2:	0000                	.insn	2, 0x
 2a4:	0e42                	.insn	2, 0x0e42
 2a6:	4420                	.insn	2, 0x4420
 2a8:	0181                	.insn	2, 0x0181
 2aa:	0288                	.insn	2, 0x0288
 2ac:	0c42                	.insn	2, 0x0c42
 2ae:	0008                	.insn	2, 0x0008
 2b0:	c16e                	.insn	2, 0xc16e
 2b2:	c842                	.insn	2, 0xc842
 2b4:	020c                	.insn	2, 0x020c
 2b6:	4220                	.insn	2, 0x4220
 2b8:	000e                	.insn	2, 0x000e
 2ba:	0000                	.insn	2, 0x
 2bc:	000c                	.insn	2, 0x000c
 2be:	0000                	.insn	2, 0x
 2c0:	ffff                	.insn	2, 0xffff
 2c2:	ffff                	.insn	2, 0xffff
 2c4:	7c010003          	lb	zero,1984(sp)
 2c8:	0d01                	.insn	2, 0x0d01
 2ca:	0002                	.insn	2, 0x0002
 2cc:	000c                	.insn	2, 0x000c
 2ce:	0000                	.insn	2, 0x
 2d0:	02bc                	.insn	2, 0x02bc
 2d2:	0000                	.insn	2, 0x
 2d4:	0544                	.insn	2, 0x0544
 2d6:	0000                	.insn	2, 0x
 2d8:	0010                	.insn	2, 0x0010
 2da:	0000                	.insn	2, 0x
 2dc:	000c                	.insn	2, 0x000c
 2de:	0000                	.insn	2, 0x
 2e0:	02bc                	.insn	2, 0x02bc
 2e2:	0000                	.insn	2, 0x
 2e4:	0554                	.insn	2, 0x0554
 2e6:	0000                	.insn	2, 0x
 2e8:	0004                	.insn	2, 0x0004
 2ea:	0000                	.insn	2, 0x
 2ec:	0044                	.insn	2, 0x0044
 2ee:	0000                	.insn	2, 0x
 2f0:	02bc                	.insn	2, 0x02bc
 2f2:	0000                	.insn	2, 0x
 2f4:	0558                	.insn	2, 0x0558
 2f6:	0000                	.insn	2, 0x
 2f8:	0528                	.insn	2, 0x0528
 2fa:	0000                	.insn	2, 0x
 2fc:	0e44                	.insn	2, 0x0e44
 2fe:	7050                	.insn	2, 0x7050
 300:	0389                	.insn	2, 0x0389
 302:	0492                	.insn	2, 0x0492
 304:	06940593          	addi	a1,s0,105
 308:	0795                	.insn	2, 0x0795
 30a:	0181                	.insn	2, 0x0181
 30c:	0288                	.insn	2, 0x0288
 30e:	0896                	.insn	2, 0x0896
 310:	0a980997          	auipc	s3,0xa980
 314:	0b99                	.insn	2, 0x0b99
 316:	0a025803          	lhu	a6,160(tp) # a0 <_reset_handler+0x20>
 31a:	44c1                	.insn	2, 0x44c1
 31c:	44c8                	.insn	2, 0x44c8
 31e:	44c9                	.insn	2, 0x44c9
 320:	44d2                	.insn	2, 0x44d2
 322:	44d444d3          	.insn	4, 0x44d444d3
 326:	44d5                	.insn	2, 0x44d5
 328:	44d6                	.insn	2, 0x44d6
 32a:	44d8                	.insn	2, 0x44d8
 32c:	48d9                	.insn	2, 0x48d9
 32e:	000e44d7          	.insn	4, 0x000e44d7
 332:	0b44                	.insn	2, 0x0b44
 334:	000c                	.insn	2, 0x000c
 336:	0000                	.insn	2, 0x
 338:	02bc                	.insn	2, 0x02bc
 33a:	0000                	.insn	2, 0x
 33c:	0a80                	.insn	2, 0x0a80
 33e:	0000                	.insn	2, 0x
 340:	000c                	.insn	2, 0x000c
 342:	0000                	.insn	2, 0x
 344:	000c                	.insn	2, 0x000c
 346:	0000                	.insn	2, 0x
 348:	02bc                	.insn	2, 0x02bc
 34a:	0000                	.insn	2, 0x
 34c:	0a8c                	.insn	2, 0x0a8c
 34e:	0000                	.insn	2, 0x
 350:	0014                	.insn	2, 0x0014
 352:	0000                	.insn	2, 0x
 354:	004c                	.insn	2, 0x004c
 356:	0000                	.insn	2, 0x
 358:	02bc                	.insn	2, 0x02bc
 35a:	0000                	.insn	2, 0x
 35c:	0aa0                	.insn	2, 0x0aa0
 35e:	0000                	.insn	2, 0x
 360:	07fc                	.insn	2, 0x07fc
 362:	0000                	.insn	2, 0x
 364:	0e44                	.insn	2, 0x0e44
 366:	7460                	.insn	2, 0x7460
 368:	06940593          	addi	a1,s0,105
 36c:	0795                	.insn	2, 0x0795
 36e:	0a98                	.insn	2, 0x0a98
 370:	0c9a                	.insn	2, 0x0c9a
 372:	0181                	.insn	2, 0x0181
 374:	0288                	.insn	2, 0x0288
 376:	0389                	.insn	2, 0x0389
 378:	0492                	.insn	2, 0x0492
 37a:	0896                	.insn	2, 0x0896
 37c:	0b990997          	auipc	s3,0xb990
 380:	7c030d9b          	.insn	4, 0x7c030d9b
 384:	0a01                	.insn	2, 0x0a01
 386:	48c1                	.insn	2, 0x48c1
 388:	44c8                	.insn	2, 0x44c8
 38a:	44c9                	.insn	2, 0x44c9
 38c:	44d2                	.insn	2, 0x44d2
 38e:	44d444d3          	.insn	4, 0x44d444d3
 392:	44d5                	.insn	2, 0x44d5
 394:	44d6                	.insn	2, 0x44d6
 396:	44d844d7          	.insn	4, 0x44d844d7
 39a:	44d9                	.insn	2, 0x44d9
 39c:	44da                	.insn	2, 0x44da
 39e:	000e44db          	.insn	4, 0x000e44db
 3a2:	0b44                	.insn	2, 0x0b44
 3a4:	0018                	.insn	2, 0x0018
 3a6:	0000                	.insn	2, 0x
 3a8:	02bc                	.insn	2, 0x02bc
 3aa:	0000                	.insn	2, 0x
 3ac:	129c                	.insn	2, 0x129c
 3ae:	0000                	.insn	2, 0x
 3b0:	001c                	.insn	2, 0x001c
 3b2:	0000                	.insn	2, 0x
 3b4:	0e44                	.insn	2, 0x0e44
 3b6:	4410                	.insn	2, 0x4410
 3b8:	0181                	.insn	2, 0x0181
 3ba:	c148                	.insn	2, 0xc148
 3bc:	0e48                	.insn	2, 0x0e48
 3be:	0000                	.insn	2, 0x
 3c0:	0018                	.insn	2, 0x0018
 3c2:	0000                	.insn	2, 0x
 3c4:	02bc                	.insn	2, 0x02bc
 3c6:	0000                	.insn	2, 0x
 3c8:	12b8                	.insn	2, 0x12b8
 3ca:	0000                	.insn	2, 0x
 3cc:	0054                	.insn	2, 0x0054
 3ce:	0000                	.insn	2, 0x
 3d0:	0e44                	.insn	2, 0x0e44
 3d2:	7040                	.insn	2, 0x7040
 3d4:	0981                	.insn	2, 0x0981
 3d6:	c158                	.insn	2, 0xc158
 3d8:	0e44                	.insn	2, 0x0e44
 3da:	0000                	.insn	2, 0x
 3dc:	0018                	.insn	2, 0x0018
 3de:	0000                	.insn	2, 0x
 3e0:	02bc                	.insn	2, 0x02bc
 3e2:	0000                	.insn	2, 0x
 3e4:	130c                	.insn	2, 0x130c
 3e6:	0000                	.insn	2, 0x
 3e8:	004c                	.insn	2, 0x004c
 3ea:	0000                	.insn	2, 0x
 3ec:	0e44                	.insn	2, 0x0e44
 3ee:	6840                	.insn	2, 0x6840
 3f0:	0981                	.insn	2, 0x0981
 3f2:	c158                	.insn	2, 0xc158
 3f4:	0e44                	.insn	2, 0x0e44
 3f6:	0000                	.insn	2, 0x
 3f8:	0018                	.insn	2, 0x0018
 3fa:	0000                	.insn	2, 0x
 3fc:	02bc                	.insn	2, 0x02bc
 3fe:	0000                	.insn	2, 0x
 400:	1358                	.insn	2, 0x1358
 402:	0000                	.insn	2, 0x
 404:	0048                	.insn	2, 0x0048
 406:	0000                	.insn	2, 0x
 408:	0e44                	.insn	2, 0x0e44
 40a:	6440                	.insn	2, 0x6440
 40c:	0981                	.insn	2, 0x0981
 40e:	c158                	.insn	2, 0xc158
 410:	0e44                	.insn	2, 0x0e44
 412:	0000                	.insn	2, 0x
 414:	0018                	.insn	2, 0x0018
 416:	0000                	.insn	2, 0x
 418:	02bc                	.insn	2, 0x02bc
 41a:	0000                	.insn	2, 0x
 41c:	13a0                	.insn	2, 0x13a0
 41e:	0000                	.insn	2, 0x
 420:	0030                	.insn	2, 0x0030
 422:	0000                	.insn	2, 0x
 424:	0e44                	.insn	2, 0x0e44
 426:	5c20                	.insn	2, 0x5c20
 428:	0181                	.insn	2, 0x0181
 42a:	c148                	.insn	2, 0xc148
 42c:	0e44                	.insn	2, 0x0e44
 42e:	0000                	.insn	2, 0x
 430:	000c                	.insn	2, 0x000c
 432:	0000                	.insn	2, 0x
 434:	02bc                	.insn	2, 0x02bc
 436:	0000                	.insn	2, 0x
 438:	13d0                	.insn	2, 0x13d0
 43a:	0000                	.insn	2, 0x
 43c:	0018                	.insn	2, 0x0018
 43e:	0000                	.insn	2, 0x
 440:	0018                	.insn	2, 0x0018
 442:	0000                	.insn	2, 0x
 444:	02bc                	.insn	2, 0x02bc
 446:	0000                	.insn	2, 0x
 448:	13e8                	.insn	2, 0x13e8
 44a:	0000                	.insn	2, 0x
 44c:	005c                	.insn	2, 0x005c
 44e:	0000                	.insn	2, 0x
 450:	0e44                	.insn	2, 0x0e44
 452:	7040                	.insn	2, 0x7040
 454:	0981                	.insn	2, 0x0981
 456:	c160                	.insn	2, 0xc160
 458:	0e44                	.insn	2, 0x0e44
 45a:	0000                	.insn	2, 0x
 45c:	000c                	.insn	2, 0x000c
 45e:	0000                	.insn	2, 0x
 460:	ffff                	.insn	2, 0xffff
 462:	ffff                	.insn	2, 0xffff
 464:	7c010003          	lb	zero,1984(sp)
 468:	0d01                	.insn	2, 0x0d01
 46a:	0002                	.insn	2, 0x0002
 46c:	000c                	.insn	2, 0x000c
 46e:	0000                	.insn	2, 0x
 470:	045c                	.insn	2, 0x045c
 472:	0000                	.insn	2, 0x
 474:	1444                	.insn	2, 0x1444
 476:	0000                	.insn	2, 0x
 478:	0004                	.insn	2, 0x0004
 47a:	0000                	.insn	2, 0x
 47c:	000c                	.insn	2, 0x000c
 47e:	0000                	.insn	2, 0x
 480:	ffff                	.insn	2, 0xffff
 482:	ffff                	.insn	2, 0xffff
 484:	7c010003          	lb	zero,1984(sp)
 488:	0d01                	.insn	2, 0x0d01
 48a:	0002                	.insn	2, 0x0002
 48c:	000c                	.insn	2, 0x000c
 48e:	0000                	.insn	2, 0x
 490:	047c                	.insn	2, 0x047c
 492:	0000                	.insn	2, 0x
 494:	1448                	.insn	2, 0x1448
 496:	0000                	.insn	2, 0x
 498:	0014                	.insn	2, 0x0014
 49a:	0000                	.insn	2, 0x
 49c:	000c                	.insn	2, 0x000c
 49e:	0000                	.insn	2, 0x
 4a0:	047c                	.insn	2, 0x047c
 4a2:	0000                	.insn	2, 0x
 4a4:	145c                	.insn	2, 0x145c
 4a6:	0000                	.insn	2, 0x
 4a8:	0018                	.insn	2, 0x0018
 4aa:	0000                	.insn	2, 0x
 4ac:	000c                	.insn	2, 0x000c
 4ae:	0000                	.insn	2, 0x
 4b0:	047c                	.insn	2, 0x047c
 4b2:	0000                	.insn	2, 0x
 4b4:	1474                	.insn	2, 0x1474
 4b6:	0000                	.insn	2, 0x
 4b8:	0018                	.insn	2, 0x0018
 4ba:	0000                	.insn	2, 0x
 4bc:	000c                	.insn	2, 0x000c
 4be:	0000                	.insn	2, 0x
 4c0:	047c                	.insn	2, 0x047c
 4c2:	0000                	.insn	2, 0x
 4c4:	148c                	.insn	2, 0x148c
 4c6:	0000                	.insn	2, 0x
 4c8:	001c                	.insn	2, 0x001c
 4ca:	0000                	.insn	2, 0x
 4cc:	000c                	.insn	2, 0x000c
 4ce:	0000                	.insn	2, 0x
 4d0:	047c                	.insn	2, 0x047c
 4d2:	0000                	.insn	2, 0x
 4d4:	14a8                	.insn	2, 0x14a8
 4d6:	0000                	.insn	2, 0x
 4d8:	001c                	.insn	2, 0x001c
	...

Disassembly of section .debug_rnglists:

00000000 <.debug_rnglists>:
   0:	001d                	.insn	2, 0x001d
   2:	0000                	.insn	2, 0x
   4:	0005                	.insn	2, 0x0005
   6:	0004                	.insn	2, 0x0004
   8:	0000                	.insn	2, 0x
   a:	0000                	.insn	2, 0x
   c:	00000007          	.insn	4, 0x0007
  10:	8000                	.insn	2, 0x8000
  12:	0701                	.insn	2, 0x0701
  14:	0080                	.insn	2, 0x0080
  16:	0000                	.insn	2, 0x
  18:	01b0                	.insn	2, 0x01b0
  1a:	00012c07          	.insn	4, 0x00012c07
  1e:	3400                	.insn	2, 0x3400
  20:	6900                	.insn	2, 0x6900
  22:	0002                	.insn	2, 0x0002
  24:	0500                	.insn	2, 0x0500
  26:	0400                	.insn	2, 0x0400
  28:	0000                	.insn	2, 0x
  2a:	0000                	.insn	2, 0x
  2c:	0600                	.insn	2, 0x0600
  2e:	05a4                	.insn	2, 0x05a4
  30:	0000                	.insn	2, 0x
  32:	05a8                	.insn	2, 0x05a8
  34:	0000                	.insn	2, 0x
  36:	1806                	.insn	2, 0x1806
  38:	0006                	.insn	2, 0x0006
  3a:	8000                	.insn	2, 0x8000
  3c:	0006                	.insn	2, 0x0006
  3e:	0600                	.insn	2, 0x0600
  40:	0680                	.insn	2, 0x0680
  42:	0000                	.insn	2, 0x
  44:	0690                	.insn	2, 0x0690
  46:	0000                	.insn	2, 0x
  48:	9406                	.insn	2, 0x9406
  4a:	0006                	.insn	2, 0x0006
  4c:	e000                	.insn	2, 0xe000
  4e:	06000007          	.insn	4, 0x06000007
  52:	0818                	.insn	2, 0x0818
  54:	0000                	.insn	2, 0x
  56:	0a80                	.insn	2, 0x0a80
  58:	0000                	.insn	2, 0x
  5a:	0600                	.insn	2, 0x0600
  5c:	064c                	.insn	2, 0x064c
  5e:	0000                	.insn	2, 0x
  60:	0650                	.insn	2, 0x0650
  62:	0000                	.insn	2, 0x
  64:	7006                	.insn	2, 0x7006
  66:	0006                	.insn	2, 0x0006
  68:	8000                	.insn	2, 0x8000
  6a:	0006                	.insn	2, 0x0006
  6c:	0600                	.insn	2, 0x0600
  6e:	0760                	.insn	2, 0x0760
  70:	0000                	.insn	2, 0x
  72:	07e0                	.insn	2, 0x07e0
  74:	0000                	.insn	2, 0x
  76:	4c06                	.insn	2, 0x4c06
  78:	0008                	.insn	2, 0x0008
  7a:	5000                	.insn	2, 0x5000
  7c:	0008                	.insn	2, 0x0008
  7e:	0600                	.insn	2, 0x0600
  80:	0864                	.insn	2, 0x0864
  82:	0000                	.insn	2, 0x
  84:	089c                	.insn	2, 0x089c
  86:	0000                	.insn	2, 0x
  88:	1006                	.insn	2, 0x1006
  8a:	0009                	.insn	2, 0x0009
  8c:	1800                	.insn	2, 0x1800
  8e:	0009                	.insn	2, 0x0009
  90:	0600                	.insn	2, 0x0600
  92:	0978                	.insn	2, 0x0978
  94:	0000                	.insn	2, 0x
  96:	0990                	.insn	2, 0x0990
  98:	0000                	.insn	2, 0x
  9a:	1006                	.insn	2, 0x1006
  9c:	000a                	.insn	2, 0x000a
  9e:	1c00                	.insn	2, 0x1c00
  a0:	000a                	.insn	2, 0x000a
  a2:	0000                	.insn	2, 0x
  a4:	7806                	.insn	2, 0x7806
  a6:	0006                	.insn	2, 0x0006
  a8:	8000                	.insn	2, 0x8000
  aa:	0006                	.insn	2, 0x0006
  ac:	0600                	.insn	2, 0x0600
  ae:	0768                	.insn	2, 0x0768
  b0:	0000                	.insn	2, 0x
  b2:	07b0                	.insn	2, 0x07b0
  b4:	0000                	.insn	2, 0x
  b6:	1006                	.insn	2, 0x1006
  b8:	0009                	.insn	2, 0x0009
  ba:	1800                	.insn	2, 0x1800
  bc:	0009                	.insn	2, 0x0009
  be:	0600                	.insn	2, 0x0600
  c0:	0978                	.insn	2, 0x0978
  c2:	0000                	.insn	2, 0x
  c4:	097c                	.insn	2, 0x097c
  c6:	0000                	.insn	2, 0x
  c8:	8006                	.insn	2, 0x8006
  ca:	0009                	.insn	2, 0x0009
  cc:	8800                	.insn	2, 0x8800
  ce:	0009                	.insn	2, 0x0009
  d0:	0600                	.insn	2, 0x0600
  d2:	0a10                	.insn	2, 0x0a10
  d4:	0000                	.insn	2, 0x
  d6:	0a1c                	.insn	2, 0x0a1c
  d8:	0000                	.insn	2, 0x
  da:	0600                	.insn	2, 0x0600
  dc:	05bc                	.insn	2, 0x05bc
  de:	0000                	.insn	2, 0x
  e0:	05d8                	.insn	2, 0x05d8
  e2:	0000                	.insn	2, 0x
  e4:	e406                	.insn	2, 0xe406
  e6:	0005                	.insn	2, 0x0005
  e8:	e800                	.insn	2, 0xe800
  ea:	0005                	.insn	2, 0x0005
  ec:	0600                	.insn	2, 0x0600
  ee:	05e8                	.insn	2, 0x05e8
  f0:	0000                	.insn	2, 0x
  f2:	0614                	.insn	2, 0x0614
  f4:	0000                	.insn	2, 0x
  f6:	0600                	.insn	2, 0x0600
  f8:	0b48                	.insn	2, 0x0b48
  fa:	0000                	.insn	2, 0x
  fc:	0b4c                	.insn	2, 0x0b4c
  fe:	0000                	.insn	2, 0x
 100:	9406                	.insn	2, 0x9406
 102:	000c                	.insn	2, 0x000c
 104:	9c00                	.insn	2, 0x9c00
 106:	000c                	.insn	2, 0x000c
 108:	0600                	.insn	2, 0x0600
 10a:	0ca0                	.insn	2, 0x0ca0
 10c:	0000                	.insn	2, 0x
 10e:	0ca8                	.insn	2, 0x0ca8
 110:	0000                	.insn	2, 0x
 112:	ac06                	.insn	2, 0xac06
 114:	000c                	.insn	2, 0x000c
 116:	b400                	.insn	2, 0xb400
 118:	000c                	.insn	2, 0x000c
 11a:	0600                	.insn	2, 0x0600
 11c:	0cb8                	.insn	2, 0x0cb8
 11e:	0000                	.insn	2, 0x
 120:	0cc0                	.insn	2, 0x0cc0
 122:	0000                	.insn	2, 0x
 124:	c406                	.insn	2, 0xc406
 126:	000c                	.insn	2, 0x000c
 128:	cc00                	.insn	2, 0xcc00
 12a:	000c                	.insn	2, 0x000c
 12c:	0600                	.insn	2, 0x0600
 12e:	0e6c                	.insn	2, 0x0e6c
 130:	0000                	.insn	2, 0x
 132:	0e78                	.insn	2, 0x0e78
 134:	0000                	.insn	2, 0x
 136:	7c06                	.insn	2, 0x7c06
 138:	000e                	.insn	2, 0x000e
 13a:	8800                	.insn	2, 0x8800
 13c:	000e                	.insn	2, 0x000e
 13e:	0600                	.insn	2, 0x0600
 140:	0e8c                	.insn	2, 0x0e8c
 142:	0000                	.insn	2, 0x
 144:	0ea0                	.insn	2, 0x0ea0
 146:	0000                	.insn	2, 0x
 148:	0600                	.insn	2, 0x0600
 14a:	0bbc                	.insn	2, 0x0bbc
 14c:	0000                	.insn	2, 0x
 14e:	0bc0                	.insn	2, 0x0bc0
 150:	0000                	.insn	2, 0x
 152:	dc06                	.insn	2, 0xdc06
 154:	e000000b          	.insn	4, 0xe000000b
 158:	0600000b          	.insn	4, 0x0600000b
 15c:	0cd0                	.insn	2, 0x0cd0
 15e:	0000                	.insn	2, 0x
 160:	0cd4                	.insn	2, 0x0cd4
 162:	0000                	.insn	2, 0x
 164:	6c06                	.insn	2, 0x6c06
 166:	000d                	.insn	2, 0x000d
 168:	d000                	.insn	2, 0xd000
 16a:	000d                	.insn	2, 0x000d
 16c:	0600                	.insn	2, 0x0600
 16e:	10e4                	.insn	2, 0x10e4
 170:	0000                	.insn	2, 0x
 172:	112c                	.insn	2, 0x112c
 174:	0000                	.insn	2, 0x
 176:	5406                	.insn	2, 0x5406
 178:	0011                	.insn	2, 0x0011
 17a:	9c00                	.insn	2, 0x9c00
 17c:	0012                	.insn	2, 0x0012
 17e:	0000                	.insn	2, 0x
 180:	dc06                	.insn	2, 0xdc06
 182:	e000000b          	.insn	4, 0xe000000b
 186:	0600000b          	.insn	4, 0x0600000b
 18a:	0d8c                	.insn	2, 0x0d8c
 18c:	0000                	.insn	2, 0x
 18e:	0d90                	.insn	2, 0x0d90
 190:	0000                	.insn	2, 0x
 192:	8806                	.insn	2, 0x8806
 194:	0011                	.insn	2, 0x0011
 196:	8c00                	.insn	2, 0x8c00
 198:	0011                	.insn	2, 0x0011
 19a:	0600                	.insn	2, 0x0600
 19c:	1214                	.insn	2, 0x1214
 19e:	0000                	.insn	2, 0x
 1a0:	1240                	.insn	2, 0x1240
 1a2:	0000                	.insn	2, 0x
 1a4:	0600                	.insn	2, 0x0600
 1a6:	0d94                	.insn	2, 0x0d94
 1a8:	0000                	.insn	2, 0x
 1aa:	0dcc                	.insn	2, 0x0dcc
 1ac:	0000                	.insn	2, 0x
 1ae:	1406                	.insn	2, 0x1406
 1b0:	0011                	.insn	2, 0x0011
 1b2:	2c00                	.insn	2, 0x2c00
 1b4:	0011                	.insn	2, 0x0011
 1b6:	0000                	.insn	2, 0x
 1b8:	9006                	.insn	2, 0x9006
 1ba:	0011                	.insn	2, 0x0011
 1bc:	d400                	.insn	2, 0xd400
 1be:	0011                	.insn	2, 0x0011
 1c0:	0600                	.insn	2, 0x0600
 1c2:	11f0                	.insn	2, 0x11f0
 1c4:	0000                	.insn	2, 0x
 1c6:	1214                	.insn	2, 0x1214
 1c8:	0000                	.insn	2, 0x
 1ca:	4006                	.insn	2, 0x4006
 1cc:	0012                	.insn	2, 0x0012
 1ce:	5400                	.insn	2, 0x5400
 1d0:	0012                	.insn	2, 0x0012
 1d2:	0000                	.insn	2, 0x
 1d4:	d806                	.insn	2, 0xd806
 1d6:	dc00000b          	.insn	4, 0xdc00000b
 1da:	0600000b          	.insn	4, 0x0600000b
 1de:	0be4                	.insn	2, 0x0be4
 1e0:	0000                	.insn	2, 0x
 1e2:	0c28                	.insn	2, 0x0c28
 1e4:	0000                	.insn	2, 0x
 1e6:	f006                	.insn	2, 0xf006
 1e8:	4000000f          	.insn	4, 0x4000000f
 1ec:	0010                	.insn	2, 0x0010
 1ee:	0600                	.insn	2, 0x0600
 1f0:	1134                	.insn	2, 0x1134
 1f2:	0000                	.insn	2, 0x
 1f4:	1154                	.insn	2, 0x1154
 1f6:	0000                	.insn	2, 0x
 1f8:	0600                	.insn	2, 0x0600
 1fa:	0df0                	.insn	2, 0x0df0
 1fc:	0000                	.insn	2, 0x
 1fe:	0df4                	.insn	2, 0x0df4
 200:	0000                	.insn	2, 0x
 202:	fc06                	.insn	2, 0xfc06
 204:	000d                	.insn	2, 0x000d
 206:	0000                	.insn	2, 0x
 208:	000e                	.insn	2, 0x000e
 20a:	0000                	.insn	2, 0x
 20c:	1c06                	.insn	2, 0x1c06
 20e:	000e                	.insn	2, 0x000e
 210:	2000                	.insn	2, 0x2000
 212:	000e                	.insn	2, 0x000e
 214:	0600                	.insn	2, 0x0600
 216:	0e28                	.insn	2, 0x0e28
 218:	0000                	.insn	2, 0x
 21a:	0e28                	.insn	2, 0x0e28
 21c:	0000                	.insn	2, 0x
 21e:	0600                	.insn	2, 0x0600
 220:	0eb0                	.insn	2, 0x0eb0
 222:	0000                	.insn	2, 0x
 224:	0f5c                	.insn	2, 0x0f5c
 226:	0000                	.insn	2, 0x
 228:	b006                	.insn	2, 0xb006
 22a:	bc00000f          	.insn	4, 0xbc00000f
 22e:	0600000f          	fence	or,unknown
 232:	1040                	.insn	2, 0x1040
 234:	0000                	.insn	2, 0x
 236:	1090                	.insn	2, 0x1090
 238:	0000                	.insn	2, 0x
 23a:	a006                	.insn	2, 0xa006
 23c:	0010                	.insn	2, 0x0010
 23e:	e400                	.insn	2, 0xe400
 240:	0010                	.insn	2, 0x0010
 242:	0600                	.insn	2, 0x0600
 244:	112c                	.insn	2, 0x112c
 246:	0000                	.insn	2, 0x
 248:	1134                	.insn	2, 0x1134
 24a:	0000                	.insn	2, 0x
 24c:	0600                	.insn	2, 0x0600
 24e:	0ebc                	.insn	2, 0x0ebc
 250:	0000                	.insn	2, 0x
 252:	0ec0                	.insn	2, 0x0ec0
 254:	0000                	.insn	2, 0x
 256:	c406                	.insn	2, 0xc406
 258:	000e                	.insn	2, 0x000e
 25a:	c800                	.insn	2, 0xc800
 25c:	000e                	.insn	2, 0x000e
 25e:	0600                	.insn	2, 0x0600
 260:	0ecc                	.insn	2, 0x0ecc
 262:	0000                	.insn	2, 0x
 264:	0efc                	.insn	2, 0x0efc
 266:	0000                	.insn	2, 0x
 268:	b006                	.insn	2, 0xb006
 26a:	bc00000f          	.insn	4, 0xbc00000f
 26e:	0600000f          	fence	or,unknown
 272:	1084                	.insn	2, 0x1084
 274:	0000                	.insn	2, 0x
 276:	1090                	.insn	2, 0x1090
 278:	0000                	.insn	2, 0x
 27a:	0600                	.insn	2, 0x0600
 27c:	0fbc                	.insn	2, 0x0fbc
 27e:	0000                	.insn	2, 0x
 280:	0fc0                	.insn	2, 0x0fc0
 282:	0000                	.insn	2, 0x
 284:	c406                	.insn	2, 0xc406
 286:	e000000f          	.insn	4, 0xe000000f
 28a:	0000000f          	fence	unknown,unknown

Disassembly of section .debug_loclists:

00000000 <.debug_loclists>:
       0:	18bc                	.insn	2, 0x18bc
       2:	0000                	.insn	2, 0x
       4:	0005                	.insn	2, 0x0005
       6:	0004                	.insn	2, 0x0004
       8:	0000                	.insn	2, 0x
       a:	0000                	.insn	2, 0x
       c:	0013e807          	.insn	4, 0x0013e807
      10:	f800                	.insn	2, 0xf800
      12:	01000013          	li	zero,16
      16:	075a                	.insn	2, 0x075a
      18:	13f8                	.insn	2, 0x13f8
      1a:	0000                	.insn	2, 0x
      1c:	00001437          	lui	s0,0x1
      20:	6d01                	.insn	2, 0x6d01
      22:	00143707          	.insn	4, 0x00143707
      26:	4400                	.insn	2, 0x4400
      28:	0014                	.insn	2, 0x0014
      2a:	0400                	.insn	2, 0x0400
      2c:	9f5a01a3          	sb	s5,-1565(s4)
      30:	0700                	.insn	2, 0x0700
      32:	13e8                	.insn	2, 0x13e8
      34:	0000                	.insn	2, 0x
      36:	140c                	.insn	2, 0x140c
      38:	0000                	.insn	2, 0x
      3a:	5b01                	.insn	2, 0x5b01
      3c:	00140c07          	.insn	4, 0x00140c07
      40:	3700                	.insn	2, 0x3700
      42:	0014                	.insn	2, 0x0014
      44:	0100                	.insn	2, 0x0100
      46:	076c                	.insn	2, 0x076c
      48:	00001437          	lui	s0,0x1
      4c:	1444                	.insn	2, 0x1444
      4e:	0000                	.insn	2, 0x
      50:	a304                	.insn	2, 0xa304
      52:	5b01                	.insn	2, 0x5b01
      54:	009f e807 0013      	.insn	6, 0x0013e807009f
      5a:	1400                	.insn	2, 0x1400
      5c:	0014                	.insn	2, 0x0014
      5e:	0100                	.insn	2, 0x0100
      60:	075c                	.insn	2, 0x075c
      62:	1414                	.insn	2, 0x1414
      64:	0000                	.insn	2, 0x
      66:	00001437          	lui	s0,0x1
      6a:	5d01                	.insn	2, 0x5d01
      6c:	00143707          	.insn	4, 0x00143707
      70:	4400                	.insn	2, 0x4400
      72:	0014                	.insn	2, 0x0014
      74:	0400                	.insn	2, 0x0400
      76:	9f5c01a3          	sb	s5,-1565(s8)
      7a:	0700                	.insn	2, 0x0700
      7c:	13d0                	.insn	2, 0x13d0
      7e:	0000                	.insn	2, 0x
      80:	13e0                	.insn	2, 0x13e0
      82:	0000                	.insn	2, 0x
      84:	5a01                	.insn	2, 0x5a01
      86:	0013e007          	.insn	4, 0x0013e007
      8a:	e700                	.insn	2, 0xe700
      8c:	01000013          	li	zero,16
      90:	13e7075b          	.insn	4, 0x13e7075b
      94:	0000                	.insn	2, 0x
      96:	13e8                	.insn	2, 0x13e8
      98:	0000                	.insn	2, 0x
      9a:	a304                	.insn	2, 0xa304
      9c:	5a01                	.insn	2, 0x5a01
      9e:	009f d007 0013      	.insn	6, 0x0013d007009f
      a4:	e000                	.insn	2, 0xe000
      a6:	01000013          	li	zero,16
      aa:	13e0075b          	.insn	4, 0x13e0075b
      ae:	0000                	.insn	2, 0x
      b0:	000013e7          	.insn	4, 0x13e7
      b4:	5c01                	.insn	2, 0x5c01
      b6:	0013e707          	.insn	4, 0x0013e707
      ba:	e800                	.insn	2, 0xe800
      bc:	04000013          	li	zero,64
      c0:	9f5b01a3          	sb	s5,-1565(s6)
      c4:	0700                	.insn	2, 0x0700
      c6:	13d0                	.insn	2, 0x13d0
      c8:	0000                	.insn	2, 0x
      ca:	13dc                	.insn	2, 0x13dc
      cc:	0000                	.insn	2, 0x
      ce:	5c01                	.insn	2, 0x5c01
      d0:	0013dc07          	.insn	4, 0x0013dc07
      d4:	e700                	.insn	2, 0xe700
      d6:	01000013          	li	zero,16
      da:	075d                	.insn	2, 0x075d
      dc:	000013e7          	.insn	4, 0x13e7
      e0:	13e8                	.insn	2, 0x13e8
      e2:	0000                	.insn	2, 0x
      e4:	a304                	.insn	2, 0xa304
      e6:	5c01                	.insn	2, 0x5c01
      e8:	009f d007 0013      	.insn	6, 0x0013d007009f
      ee:	d800                	.insn	2, 0xd800
      f0:	01000013          	li	zero,16
      f4:	075d                	.insn	2, 0x075d
      f6:	13d8                	.insn	2, 0x13d8
      f8:	0000                	.insn	2, 0x
      fa:	000013e7          	.insn	4, 0x13e7
      fe:	5e01                	.insn	2, 0x5e01
     100:	0013e707          	.insn	4, 0x0013e707
     104:	e800                	.insn	2, 0xe800
     106:	04000013          	li	zero,64
     10a:	9f5d01a3          	sb	s5,-1565(s10) # 4ff5b <_peripheral_HLS_CONTROL_end+0xff5b>
     10e:	0700                	.insn	2, 0x0700
     110:	13a0                	.insn	2, 0x13a0
     112:	0000                	.insn	2, 0x
     114:	13ac                	.insn	2, 0x13ac
     116:	0000                	.insn	2, 0x
     118:	5a01                	.insn	2, 0x5a01
     11a:	0013ac07          	.insn	4, 0x0013ac07
     11e:	c300                	.insn	2, 0xc300
     120:	01000013          	li	zero,16
     124:	075d                	.insn	2, 0x075d
     126:	000013c3          	.insn	4, 0x13c3
     12a:	13d0                	.insn	2, 0x13d0
     12c:	0000                	.insn	2, 0x
     12e:	a304                	.insn	2, 0xa304
     130:	5a01                	.insn	2, 0x5a01
     132:	009f a007 0013      	.insn	6, 0x0013a007009f
     138:	b800                	.insn	2, 0xb800
     13a:	01000013          	li	zero,16
     13e:	13b8075b          	.insn	4, 0x13b8075b
     142:	0000                	.insn	2, 0x
     144:	000013c3          	.insn	4, 0x13c3
     148:	5e01                	.insn	2, 0x5e01
     14a:	0013c307          	.insn	4, 0x0013c307
     14e:	d000                	.insn	2, 0xd000
     150:	04000013          	li	zero,64
     154:	9f5b01a3          	sb	s5,-1565(s6)
     158:	0700                	.insn	2, 0x0700
     15a:	1358                	.insn	2, 0x1358
     15c:	0000                	.insn	2, 0x
     15e:	1370                	.insn	2, 0x1370
     160:	0000                	.insn	2, 0x
     162:	5a01                	.insn	2, 0x5a01
     164:	00137007          	.insn	4, 0x00137007
     168:	9300                	.insn	2, 0x9300
     16a:	01000013          	li	zero,16
     16e:	1393075b          	.insn	4, 0x1393075b
     172:	0000                	.insn	2, 0x
     174:	13a0                	.insn	2, 0x13a0
     176:	0000                	.insn	2, 0x
     178:	a304                	.insn	2, 0xa304
     17a:	5a01                	.insn	2, 0x5a01
     17c:	009f 5807 0013      	.insn	6, 0x00135807009f
     182:	7000                	.insn	2, 0x7000
     184:	01000013          	li	zero,16
     188:	1370075b          	.insn	4, 0x1370075b
     18c:	0000                	.insn	2, 0x
     18e:	00001393          	slli	t2,zero,0x0
     192:	5c01                	.insn	2, 0x5c01
     194:	00139307          	.insn	4, 0x00139307
     198:	a000                	.insn	2, 0xa000
     19a:	04000013          	li	zero,64
     19e:	9f5b01a3          	sb	s5,-1565(s6)
     1a2:	0700                	.insn	2, 0x0700
     1a4:	1358                	.insn	2, 0x1358
     1a6:	0000                	.insn	2, 0x
     1a8:	136c                	.insn	2, 0x136c
     1aa:	0000                	.insn	2, 0x
     1ac:	5c01                	.insn	2, 0x5c01
     1ae:	00136c07          	.insn	4, 0x00136c07
     1b2:	9300                	.insn	2, 0x9300
     1b4:	01000013          	li	zero,16
     1b8:	075d                	.insn	2, 0x075d
     1ba:	00001393          	slli	t2,zero,0x0
     1be:	13a0                	.insn	2, 0x13a0
     1c0:	0000                	.insn	2, 0x
     1c2:	a304                	.insn	2, 0xa304
     1c4:	5c01                	.insn	2, 0x5c01
     1c6:	009f 0c07 0013      	.insn	6, 0x00130c07009f
     1cc:	2000                	.insn	2, 0x2000
     1ce:	01000013          	li	zero,16
     1d2:	075a                	.insn	2, 0x075a
     1d4:	1320                	.insn	2, 0x1320
     1d6:	0000                	.insn	2, 0x
     1d8:	0000134b          	.insn	4, 0x134b
     1dc:	5b01                	.insn	2, 0x5b01
     1de:	00134b07          	.insn	4, 0x00134b07
     1e2:	5800                	.insn	2, 0x5800
     1e4:	04000013          	li	zero,64
     1e8:	9f5a01a3          	sb	s5,-1565(s4)
     1ec:	0700                	.insn	2, 0x0700
     1ee:	130c                	.insn	2, 0x130c
     1f0:	0000                	.insn	2, 0x
     1f2:	1320                	.insn	2, 0x1320
     1f4:	0000                	.insn	2, 0x
     1f6:	5b01                	.insn	2, 0x5b01
     1f8:	00132007          	.insn	4, 0x00132007
     1fc:	4b00                	.insn	2, 0x4b00
     1fe:	01000013          	li	zero,16
     202:	075d                	.insn	2, 0x075d
     204:	0000134b          	.insn	4, 0x134b
     208:	1358                	.insn	2, 0x1358
     20a:	0000                	.insn	2, 0x
     20c:	a304                	.insn	2, 0xa304
     20e:	5b01                	.insn	2, 0x5b01
     210:	009f b807 0012      	.insn	6, 0x0012b807009f
     216:	cc00                	.insn	2, 0xcc00
     218:	0012                	.insn	2, 0x0012
     21a:	0100                	.insn	2, 0x0100
     21c:	075a                	.insn	2, 0x075a
     21e:	12cc                	.insn	2, 0x12cc
     220:	0000                	.insn	2, 0x
     222:	000012ff ff075d01 	.insn	12, 0x0c000012ff075d01000012ff
     22a:	0c000012 
     22e:	04000013          	li	zero,64
     232:	9f5a01a3          	sb	s5,-1565(s4)
     236:	0700                	.insn	2, 0x0700
     238:	0aa0                	.insn	2, 0x0aa0
     23a:	0000                	.insn	2, 0x
     23c:	0af4                	.insn	2, 0x0af4
     23e:	0000                	.insn	2, 0x
     240:	5a01                	.insn	2, 0x5a01
     242:	000af407          	.insn	4, 0x000af407
     246:	7000                	.insn	2, 0x7000
     248:	000c                	.insn	2, 0x000c
     24a:	0100                	.insn	2, 0x0100
     24c:	0765                	.insn	2, 0x0765
     24e:	0c90                	.insn	2, 0x0c90
     250:	0000                	.insn	2, 0x
     252:	0f5c                	.insn	2, 0x0f5c
     254:	0000                	.insn	2, 0x
     256:	6501                	.insn	2, 0x6501
     258:	000f5c07          	.insn	4, 0x000f5c07
     25c:	6000                	.insn	2, 0x6000
     25e:	0100000f          	fence	w,unknown
     262:	075a                	.insn	2, 0x075a
     264:	0f60                	.insn	2, 0x0f60
     266:	0000                	.insn	2, 0x
     268:	0f60                	.insn	2, 0x0f60
     26a:	0000                	.insn	2, 0x
     26c:	6501                	.insn	2, 0x6501
     26e:	000f6007          	.insn	4, 0x000f6007
     272:	6400                	.insn	2, 0x6400
     274:	0400000f          	fence	o,unknown
     278:	9f5a01a3          	sb	s5,-1565(s4)
     27c:	000f6407          	.insn	4, 0x000f6407
     280:	9c00                	.insn	2, 0x9c00
     282:	0012                	.insn	2, 0x0012
     284:	0100                	.insn	2, 0x0100
     286:	0065                	.insn	2, 0x0065
     288:	000aa007          	.insn	4, 0x000aa007
     28c:	1800                	.insn	2, 0x1800
     28e:	0100000b          	.insn	4, 0x0100000b
     292:	0b18075b          	.insn	4, 0x0b18075b
     296:	0000                	.insn	2, 0x
     298:	0c6c                	.insn	2, 0x0c6c
     29a:	0000                	.insn	2, 0x
     29c:	6401                	.insn	2, 0x6401
     29e:	000c6c07          	.insn	4, 0x000c6c07
     2a2:	9000                	.insn	2, 0x9000
     2a4:	000c                	.insn	2, 0x000c
     2a6:	0400                	.insn	2, 0x0400
     2a8:	9f5b01a3          	sb	s5,-1565(s6)
     2ac:	000c9007          	.insn	4, 0x000c9007
     2b0:	5c00                	.insn	2, 0x5c00
     2b2:	0100000f          	fence	w,unknown
     2b6:	0764                	.insn	2, 0x0764
     2b8:	0f5c                	.insn	2, 0x0f5c
     2ba:	0000                	.insn	2, 0x
     2bc:	0f78                	.insn	2, 0x0f78
     2be:	0000                	.insn	2, 0x
     2c0:	5b01                	.insn	2, 0x5b01
     2c2:	000f7807          	.insn	4, 0x000f7807
     2c6:	9c00                	.insn	2, 0x9c00
     2c8:	0012                	.insn	2, 0x0012
     2ca:	0100                	.insn	2, 0x0100
     2cc:	0064                	.insn	2, 0x0064
     2ce:	000aa007          	.insn	4, 0x000aa007
     2d2:	1800                	.insn	2, 0x1800
     2d4:	0100000b          	.insn	4, 0x0100000b
     2d8:	075c                	.insn	2, 0x075c
     2da:	0b18                	.insn	2, 0x0b18
     2dc:	0000                	.insn	2, 0x
     2de:	0c68                	.insn	2, 0x0c68
     2e0:	0000                	.insn	2, 0x
     2e2:	6301                	.insn	2, 0x6301
     2e4:	000c6807          	.insn	4, 0x000c6807
     2e8:	9000                	.insn	2, 0x9000
     2ea:	000c                	.insn	2, 0x000c
     2ec:	0400                	.insn	2, 0x0400
     2ee:	9f5c01a3          	sb	s5,-1565(s8)
     2f2:	000c9007          	.insn	4, 0x000c9007
     2f6:	5c00                	.insn	2, 0x5c00
     2f8:	0100000f          	fence	w,unknown
     2fc:	0f5c0763          	beq	s8,s5,3ea <gpio_in_enable_int+0xc>
     300:	0000                	.insn	2, 0x
     302:	0f78                	.insn	2, 0x0f78
     304:	0000                	.insn	2, 0x
     306:	5c01                	.insn	2, 0x5c01
     308:	000f7807          	.insn	4, 0x000f7807
     30c:	9c00                	.insn	2, 0x9c00
     30e:	0012                	.insn	2, 0x0012
     310:	0100                	.insn	2, 0x0100
     312:	a0070063          	beqz	a4,fffff512 <_peripheral_PLIC_end+0xf7fff512>
     316:	000a                	.insn	2, 0x000a
     318:	1800                	.insn	2, 0x1800
     31a:	0100000b          	.insn	4, 0x0100000b
     31e:	075d                	.insn	2, 0x075d
     320:	0b34                	.insn	2, 0x0b34
     322:	0000                	.insn	2, 0x
     324:	0b3c                	.insn	2, 0x0b3c
     326:	0000                	.insn	2, 0x
     328:	9f028803          	lb	a6,-1552(t0)
     32c:	000b3c07          	.insn	4, 0x000b3c07
     330:	4400                	.insn	2, 0x4400
     332:	0300000b          	.insn	4, 0x0300000b
     336:	0188                	.insn	2, 0x0188
     338:	079f 0bb8 0000      	.insn	6, 0x0bb8079f
     33e:	0bc4                	.insn	2, 0x0bc4
     340:	0000                	.insn	2, 0x
     342:	5d01                	.insn	2, 0x5d01
     344:	000c2807          	.insn	4, 0x000c2807
     348:	3000                	.insn	2, 0x3000
     34a:	000c                	.insn	2, 0x000c
     34c:	0100                	.insn	2, 0x0100
     34e:	0768                	.insn	2, 0x0768
     350:	0c94                	.insn	2, 0x0c94
     352:	0000                	.insn	2, 0x
     354:	0c9c                	.insn	2, 0x0c9c
     356:	0000                	.insn	2, 0x
     358:	9f017e03          	.insn	4, 0x9f017e03
     35c:	000ca007          	.insn	4, 0x000ca007
     360:	a800                	.insn	2, 0xa800
     362:	000c                	.insn	2, 0x000c
     364:	0300                	.insn	2, 0x0300
     366:	017e                	.insn	2, 0x017e
     368:	079f 0cac 0000      	.insn	6, 0x0cac079f
     36e:	0cb4                	.insn	2, 0x0cb4
     370:	0000                	.insn	2, 0x
     372:	9f017e03          	.insn	4, 0x9f017e03
     376:	000cb807          	.insn	4, 0x000cb807
     37a:	c000                	.insn	2, 0xc000
     37c:	000c                	.insn	2, 0x000c
     37e:	0300                	.insn	2, 0x0300
     380:	017e                	.insn	2, 0x017e
     382:	079f 0cc4 0000      	.insn	6, 0x0cc4079f
     388:	0ccc                	.insn	2, 0x0ccc
     38a:	0000                	.insn	2, 0x
     38c:	9f017e03          	.insn	4, 0x9f017e03
     390:	000dd407          	.insn	4, 0x000dd407
     394:	0000                	.insn	2, 0x
     396:	000e                	.insn	2, 0x000e
     398:	0300                	.insn	2, 0x0300
     39a:	017e                	.insn	2, 0x017e
     39c:	079f 0e00 0000      	.insn	6, 0x0e00079f
     3a2:	0e10                	.insn	2, 0x0e10
     3a4:	0000                	.insn	2, 0x
     3a6:	9f018803          	lb	a6,-1552(gp)
     3aa:	000e3407          	.insn	4, 0x000e3407
     3ae:	4000                	.insn	2, 0x4000
     3b0:	000e                	.insn	2, 0x000e
     3b2:	0300                	.insn	2, 0x0300
     3b4:	017d                	.insn	2, 0x017d
     3b6:	079f 0e40 0000      	.insn	6, 0x0e40079f
     3bc:	0e44                	.insn	2, 0x0e44
     3be:	0000                	.insn	2, 0x
     3c0:	5d01                	.insn	2, 0x5d01
     3c2:	000e4407          	.insn	4, 0x000e4407
     3c6:	4800                	.insn	2, 0x4800
     3c8:	000e                	.insn	2, 0x000e
     3ca:	0100                	.insn	2, 0x0100
     3cc:	0768                	.insn	2, 0x0768
     3ce:	0e7c                	.insn	2, 0x0e7c
     3d0:	0000                	.insn	2, 0x
     3d2:	0e84                	.insn	2, 0x0e84
     3d4:	0000                	.insn	2, 0x
     3d6:	9f017e03          	.insn	4, 0x9f017e03
     3da:	000e8407          	.insn	4, 0x000e8407
     3de:	8800                	.insn	2, 0x8800
     3e0:	000e                	.insn	2, 0x000e
     3e2:	0300                	.insn	2, 0x0300
     3e4:	0188                	.insn	2, 0x0188
     3e6:	079f 0e98 0000      	.insn	6, 0x0e98079f
     3ec:	0ea0                	.insn	2, 0x0ea0
     3ee:	0000                	.insn	2, 0x
     3f0:	9f018803          	lb	a6,-1552(gp)
     3f4:	000f5c07          	.insn	4, 0x000f5c07
     3f8:	7800                	.insn	2, 0x7800
     3fa:	0100000f          	fence	w,unknown
     3fe:	075d                	.insn	2, 0x075d
     400:	0f7c                	.insn	2, 0x0f7c
     402:	0000                	.insn	2, 0x
     404:	0fb0                	.insn	2, 0x0fb0
     406:	0000                	.insn	2, 0x
     408:	5d01                	.insn	2, 0x5d01
     40a:	000fec07          	.insn	4, 0x000fec07
     40e:	f000                	.insn	2, 0xf000
     410:	0100000f          	fence	w,unknown
     414:	075d                	.insn	2, 0x075d
     416:	109c                	.insn	2, 0x109c
     418:	0000                	.insn	2, 0x
     41a:	10a0                	.insn	2, 0x10a0
     41c:	0000                	.insn	2, 0x
     41e:	5d01                	.insn	2, 0x5d01
     420:	00129407          	.insn	4, 0x00129407
     424:	9c00                	.insn	2, 0x9c00
     426:	0012                	.insn	2, 0x0012
     428:	0100                	.insn	2, 0x0100
     42a:	005e                	.insn	2, 0x005e
     42c:	000aa007          	.insn	4, 0x000aa007
     430:	1800                	.insn	2, 0x1800
     432:	0100000b          	.insn	4, 0x0100000b
     436:	075e                	.insn	2, 0x075e
     438:	0b18                	.insn	2, 0x0b18
     43a:	0000                	.insn	2, 0x
     43c:	0be8                	.insn	2, 0x0be8
     43e:	0000                	.insn	2, 0x
     440:	6a01                	.insn	2, 0x6a01
     442:	000be807          	.insn	4, 0x000be807
     446:	fc00                	.insn	2, 0xfc00
     448:	0100000b          	.insn	4, 0x0100000b
     44c:	0759                	.insn	2, 0x0759
     44e:	0c28                	.insn	2, 0x0c28
     450:	0000                	.insn	2, 0x
     452:	0c30                	.insn	2, 0x0c30
     454:	0000                	.insn	2, 0x
     456:	5901                	.insn	2, 0x5901
     458:	000c3007          	.insn	4, 0x000c3007
     45c:	8400                	.insn	2, 0x8400
     45e:	000c                	.insn	2, 0x000c
     460:	0100                	.insn	2, 0x0100
     462:	076a                	.insn	2, 0x076a
     464:	0c90                	.insn	2, 0x0c90
     466:	0000                	.insn	2, 0x
     468:	0d9c                	.insn	2, 0x0d9c
     46a:	0000                	.insn	2, 0x
     46c:	6a01                	.insn	2, 0x6a01
     46e:	000d9c07          	.insn	4, 0x000d9c07
     472:	d000                	.insn	2, 0xd000
     474:	000d                	.insn	2, 0x000d
     476:	0100                	.insn	2, 0x0100
     478:	0759                	.insn	2, 0x0759
     47a:	0dd0                	.insn	2, 0x0dd0
     47c:	0000                	.insn	2, 0x
     47e:	0ebc                	.insn	2, 0x0ebc
     480:	0000                	.insn	2, 0x
     482:	6a01                	.insn	2, 0x6a01
     484:	000ebc07          	.insn	4, 0x000ebc07
     488:	d000                	.insn	2, 0xd000
     48a:	000e                	.insn	2, 0x000e
     48c:	0100                	.insn	2, 0x0100
     48e:	075e                	.insn	2, 0x075e
     490:	0ed0                	.insn	2, 0x0ed0
     492:	0000                	.insn	2, 0x
     494:	0f5c                	.insn	2, 0x0f5c
     496:	0000                	.insn	2, 0x
     498:	7fb89103          	lh	sp,2043(a7)
     49c:	000f5c07          	.insn	4, 0x000f5c07
     4a0:	7800                	.insn	2, 0x7800
     4a2:	0100000f          	fence	w,unknown
     4a6:	075e                	.insn	2, 0x075e
     4a8:	0f78                	.insn	2, 0x0f78
     4aa:	0000                	.insn	2, 0x
     4ac:	0fb0                	.insn	2, 0x0fb0
     4ae:	0000                	.insn	2, 0x
     4b0:	6a01                	.insn	2, 0x6a01
     4b2:	000fb007          	.insn	4, 0x000fb007
     4b6:	b800                	.insn	2, 0xb800
     4b8:	0100000f          	fence	w,unknown
     4bc:	075e                	.insn	2, 0x075e
     4be:	0fb8                	.insn	2, 0x0fb8
     4c0:	0000                	.insn	2, 0x
     4c2:	0fbc                	.insn	2, 0x0fbc
     4c4:	0000                	.insn	2, 0x
     4c6:	7fb89103          	lh	sp,2043(a7)
     4ca:	000fbc07          	.insn	4, 0x000fbc07
     4ce:	d800                	.insn	2, 0xd800
     4d0:	0300000f          	fence	rw,unknown
     4d4:	048a                	.insn	2, 0x048a
     4d6:	079f 0fd8 0000      	.insn	6, 0x0fd8079f
     4dc:	1020                	.insn	2, 0x1020
     4de:	0000                	.insn	2, 0x
     4e0:	6a01                	.insn	2, 0x6a01
     4e2:	00102007          	.insn	4, 0x00102007
     4e6:	3c00                	.insn	2, 0x3c00
     4e8:	0010                	.insn	2, 0x0010
     4ea:	0300                	.insn	2, 0x0300
     4ec:	048a                	.insn	2, 0x048a
     4ee:	079f 103c 0000      	.insn	6, 0x103c079f
     4f4:	1040                	.insn	2, 0x1040
     4f6:	0000                	.insn	2, 0x
     4f8:	5901                	.insn	2, 0x5901
     4fa:	00104007          	.insn	4, 0x00104007
     4fe:	9000                	.insn	2, 0x9000
     500:	0010                	.insn	2, 0x0010
     502:	0300                	.insn	2, 0x0300
     504:	b891                	.insn	2, 0xb891
     506:	077f 1090 0000 10a0 	.insn	10, 0x10a000001090077f
     50e:	0000 
     510:	6a01                	.insn	2, 0x6a01
     512:	0010a007          	.insn	4, 0x0010a007
     516:	e400                	.insn	2, 0xe400
     518:	0010                	.insn	2, 0x0010
     51a:	0300                	.insn	2, 0x0300
     51c:	b891                	.insn	2, 0xb891
     51e:	077f 10e4 0000 1114 	.insn	10, 0x1114000010e4077f
     526:	0000 
     528:	6a01                	.insn	2, 0x6a01
     52a:	00111407          	.insn	4, 0x00111407
     52e:	1c00                	.insn	2, 0x1c00
     530:	0011                	.insn	2, 0x0011
     532:	0300                	.insn	2, 0x0300
     534:	048a                	.insn	2, 0x048a
     536:	079f 111c 0000      	.insn	6, 0x111c079f
     53c:	1124                	.insn	2, 0x1124
     53e:	0000                	.insn	2, 0x
     540:	6a01                	.insn	2, 0x6a01
     542:	00112407          	.insn	4, 0x00112407
     546:	2c00                	.insn	2, 0x2c00
     548:	0011                	.insn	2, 0x0011
     54a:	0300                	.insn	2, 0x0300
     54c:	048a                	.insn	2, 0x048a
     54e:	079f 112c 0000      	.insn	6, 0x112c079f
     554:	1134                	.insn	2, 0x1134
     556:	0000                	.insn	2, 0x
     558:	7fb89103          	lh	sp,2043(a7)
     55c:	00113407          	.insn	4, 0x00113407
     560:	4800                	.insn	2, 0x4800
     562:	0011                	.insn	2, 0x0011
     564:	0300                	.insn	2, 0x0300
     566:	048a                	.insn	2, 0x048a
     568:	079f 1154 0000      	.insn	6, 0x1154079f
     56e:	1198                	.insn	2, 0x1198
     570:	0000                	.insn	2, 0x
     572:	6a01                	.insn	2, 0x6a01
     574:	00119807          	.insn	4, 0x00119807
     578:	b800                	.insn	2, 0xb800
     57a:	0011                	.insn	2, 0x0011
     57c:	0100                	.insn	2, 0x0100
     57e:	0758                	.insn	2, 0x0758
     580:	11d4                	.insn	2, 0x11d4
     582:	0000                	.insn	2, 0x
     584:	11f8                	.insn	2, 0x11f8
     586:	0000                	.insn	2, 0x
     588:	6a01                	.insn	2, 0x6a01
     58a:	0011f807          	.insn	4, 0x0011f807
     58e:	5400                	.insn	2, 0x5400
     590:	0012                	.insn	2, 0x0012
     592:	0300                	.insn	2, 0x0300
     594:	048a                	.insn	2, 0x048a
     596:	079f 1254 0000      	.insn	6, 0x1254079f
     59c:	129c                	.insn	2, 0x129c
     59e:	0000                	.insn	2, 0x
     5a0:	6a01                	.insn	2, 0x6a01
     5a2:	0700                	.insn	2, 0x0700
     5a4:	0b44                	.insn	2, 0x0b44
     5a6:	0000                	.insn	2, 0x
     5a8:	0bc4                	.insn	2, 0x0bc4
     5aa:	0000                	.insn	2, 0x
     5ac:	5801                	.insn	2, 0x5801
     5ae:	000c9007          	.insn	4, 0x000c9007
     5b2:	d800                	.insn	2, 0xd800
     5b4:	000c                	.insn	2, 0x000c
     5b6:	0100                	.insn	2, 0x0100
     5b8:	0758                	.insn	2, 0x0758
     5ba:	0d00                	.insn	2, 0x0d00
     5bc:	0000                	.insn	2, 0x
     5be:	0d0c                	.insn	2, 0x0d0c
     5c0:	0000                	.insn	2, 0x
     5c2:	7806                	.insn	2, 0x7806
     5c4:	0800                	.insn	2, 0x0800
     5c6:	2121                	.insn	2, 0x2121
     5c8:	079f 0d0c 0000      	.insn	6, 0x0d0c079f
     5ce:	0d40                	.insn	2, 0x0d40
     5d0:	0000                	.insn	2, 0x
     5d2:	5801                	.insn	2, 0x5801
     5d4:	000d6c07          	.insn	4, 0x000d6c07
     5d8:	7800                	.insn	2, 0x7800
     5da:	000d                	.insn	2, 0x000d
     5dc:	0900                	.insn	2, 0x0900
     5de:	0078                	.insn	2, 0x0078
     5e0:	f309                	.insn	2, 0xf309
     5e2:	081a                	.insn	2, 0x081a
     5e4:	2120                	.insn	2, 0x2120
     5e6:	079f 0d7c 0000      	.insn	6, 0x0d7c079f
     5ec:	0d80                	.insn	2, 0x0d80
     5ee:	0000                	.insn	2, 0x
     5f0:	5801                	.insn	2, 0x5801
     5f2:	000dd007          	.insn	4, 0x000dd007
     5f6:	4800                	.insn	2, 0x4800
     5f8:	000e                	.insn	2, 0x000e
     5fa:	0100                	.insn	2, 0x0100
     5fc:	0758                	.insn	2, 0x0758
     5fe:	0e48                	.insn	2, 0x0e48
     600:	0000                	.insn	2, 0x
     602:	0e54                	.insn	2, 0x0e54
     604:	0000                	.insn	2, 0x
     606:	0a007807          	.insn	4, 0x0a007807
     60a:	0100                	.insn	2, 0x0100
     60c:	9f21                	.insn	2, 0x9f21
     60e:	000e5407          	.insn	4, 0x000e5407
     612:	a000                	.insn	2, 0xa000
     614:	000e                	.insn	2, 0x000e
     616:	0100                	.insn	2, 0x0100
     618:	0758                	.insn	2, 0x0758
     61a:	0ea0                	.insn	2, 0x0ea0
     61c:	0000                	.insn	2, 0x
     61e:	0eac                	.insn	2, 0x0eac
     620:	0000                	.insn	2, 0x
     622:	7806                	.insn	2, 0x7806
     624:	0800                	.insn	2, 0x0800
     626:	2180                	.insn	2, 0x2180
     628:	079f 0eac 0000      	.insn	6, 0x0eac079f
     62e:	0eb0                	.insn	2, 0x0eb0
     630:	0000                	.insn	2, 0x
     632:	5801                	.insn	2, 0x5801
     634:	000f7807          	.insn	4, 0x000f7807
     638:	b000                	.insn	2, 0xb000
     63a:	0100000f          	fence	w,unknown
     63e:	0758                	.insn	2, 0x0758
     640:	0fbc                	.insn	2, 0x0fbc
     642:	0000                	.insn	2, 0x
     644:	0fe0                	.insn	2, 0x0fe0
     646:	0000                	.insn	2, 0x
     648:	5801                	.insn	2, 0x5801
     64a:	000fe007          	.insn	4, 0x000fe007
     64e:	e800                	.insn	2, 0xe800
     650:	0700000f          	fence	orw,unknown
     654:	0078                	.insn	2, 0x0078
     656:	000a                	.insn	2, 0x000a
     658:	2101                	.insn	2, 0x2101
     65a:	079f 0fe8 0000      	.insn	6, 0x0fe8079f
     660:	0ff0                	.insn	2, 0x0ff0
     662:	0000                	.insn	2, 0x
     664:	5801                	.insn	2, 0x5801
     666:	00109007          	.insn	4, 0x00109007
     66a:	9800                	.insn	2, 0x9800
     66c:	0010                	.insn	2, 0x0010
     66e:	0600                	.insn	2, 0x0600
     670:	0078                	.insn	2, 0x0078
     672:	8008                	.insn	2, 0x8008
     674:	9f21                	.insn	2, 0x9f21
     676:	00109807          	.insn	4, 0x00109807
     67a:	a000                	.insn	2, 0xa000
     67c:	0010                	.insn	2, 0x0010
     67e:	0100                	.insn	2, 0x0100
     680:	0758                	.insn	2, 0x0758
     682:	10e4                	.insn	2, 0x10e4
     684:	0000                	.insn	2, 0x
     686:	10f0                	.insn	2, 0x10f0
     688:	0000                	.insn	2, 0x
     68a:	7806                	.insn	2, 0x7806
     68c:	0900                	.insn	2, 0x0900
     68e:	079f1af3          	csrrw	s5,0x79,t5
     692:	10f0                	.insn	2, 0x10f0
     694:	0000                	.insn	2, 0x
     696:	10f8                	.insn	2, 0x10f8
     698:	0000                	.insn	2, 0x
     69a:	5801                	.insn	2, 0x5801
     69c:	0010f807          	.insn	4, 0x0010f807
     6a0:	fc00                	.insn	2, 0xfc00
     6a2:	0010                	.insn	2, 0x0010
     6a4:	0600                	.insn	2, 0x0600
     6a6:	0078                	.insn	2, 0x0078
     6a8:	f309                	.insn	2, 0xf309
     6aa:	9f1a                	.insn	2, 0x9f1a
     6ac:	00110407          	.insn	4, 0x00110407
     6b0:	0800                	.insn	2, 0x0800
     6b2:	0011                	.insn	2, 0x0011
     6b4:	0900                	.insn	2, 0x0900
     6b6:	0078                	.insn	2, 0x0078
     6b8:	f309                	.insn	2, 0xf309
     6ba:	081a                	.insn	2, 0x081a
     6bc:	2120                	.insn	2, 0x2120
     6be:	079f 116c 0000      	.insn	6, 0x116c079f
     6c4:	117c                	.insn	2, 0x117c
     6c6:	0000                	.insn	2, 0x
     6c8:	5d01                	.insn	2, 0x5d01
     6ca:	0011d407          	.insn	4, 0x0011d407
     6ce:	e400                	.insn	2, 0xe400
     6d0:	0011                	.insn	2, 0x0011
     6d2:	0600                	.insn	2, 0x0600
     6d4:	0078                	.insn	2, 0x0078
     6d6:	f309                	.insn	2, 0xf309
     6d8:	9f1a                	.insn	2, 0x9f1a
     6da:	0011e407          	.insn	4, 0x0011e407
     6de:	e800                	.insn	2, 0xe800
     6e0:	0011                	.insn	2, 0x0011
     6e2:	0100                	.insn	2, 0x0100
     6e4:	0758                	.insn	2, 0x0758
     6e6:	11e8                	.insn	2, 0x11e8
     6e8:	0000                	.insn	2, 0x
     6ea:	11ec                	.insn	2, 0x11ec
     6ec:	0000                	.insn	2, 0x
     6ee:	7806                	.insn	2, 0x7806
     6f0:	0900                	.insn	2, 0x0900
     6f2:	079f1af3          	csrrw	s5,0x79,t5
     6f6:	125c                	.insn	2, 0x125c
     6f8:	0000                	.insn	2, 0x
     6fa:	1270                	.insn	2, 0x1270
     6fc:	0000                	.insn	2, 0x
     6fe:	7d06                	.insn	2, 0x7d06
     700:	0900                	.insn	2, 0x0900
     702:	079f1af3          	csrrw	s5,0x79,t5
     706:	1270                	.insn	2, 0x1270
     708:	0000                	.insn	2, 0x
     70a:	1274                	.insn	2, 0x1274
     70c:	0000                	.insn	2, 0x
     70e:	5801                	.insn	2, 0x5801
     710:	00127407          	.insn	4, 0x00127407
     714:	8000                	.insn	2, 0x8000
     716:	0012                	.insn	2, 0x0012
     718:	0600                	.insn	2, 0x0600
     71a:	007d                	.insn	2, 0x007d
     71c:	f309                	.insn	2, 0xf309
     71e:	9f1a                	.insn	2, 0x9f1a
     720:	00128007          	.insn	4, 0x00128007
     724:	8c00                	.insn	2, 0x8c00
     726:	0012                	.insn	2, 0x0012
     728:	0600                	.insn	2, 0x0600
     72a:	0078                	.insn	2, 0x0078
     72c:	f309                	.insn	2, 0xf309
     72e:	9f1a                	.insn	2, 0x9f1a
     730:	00128c07          	.insn	4, 0x00128c07
     734:	9c00                	.insn	2, 0x9c00
     736:	0012                	.insn	2, 0x0012
     738:	0100                	.insn	2, 0x0100
     73a:	0058                	.insn	2, 0x0058
     73c:	000b6807          	.insn	4, 0x000b6807
     740:	8400                	.insn	2, 0x8400
     742:	0200000b          	.insn	4, 0x0200000b
     746:	9f30                	.insn	2, 0x9f30
     748:	000b8407          	.insn	4, 0x000b8407
     74c:	3000                	.insn	2, 0x3000
     74e:	000c                	.insn	2, 0x000c
     750:	0100                	.insn	2, 0x0100
     752:	0ccc0767          	jalr	a4,204(s8)
     756:	0000                	.insn	2, 0x
     758:	0d00                	.insn	2, 0x0d00
     75a:	0000                	.insn	2, 0x
     75c:	6701                	.insn	2, 0x6701
     75e:	000d0007          	.insn	4, 0x000d0007
     762:	4000                	.insn	2, 0x4000
     764:	000d                	.insn	2, 0x000d
     766:	0200                	.insn	2, 0x0200
     768:	9f38                	.insn	2, 0x9f38
     76a:	000d4007          	.insn	4, 0x000d4007
     76e:	d000                	.insn	2, 0xd000
     770:	000d                	.insn	2, 0x000d
     772:	0100                	.insn	2, 0x0100
     774:	0dd00767          	jalr	a4,221(zero) # dd <_reset_handler+0x5d>
     778:	0000                	.insn	2, 0x
     77a:	0e04                	.insn	2, 0x0e04
     77c:	0000                	.insn	2, 0x
     77e:	3002                	.insn	2, 0x3002
     780:	079f 0e04 0000      	.insn	6, 0x0e04079f
     786:	0e6c                	.insn	2, 0x0e6c
     788:	0000                	.insn	2, 0x
     78a:	6701                	.insn	2, 0x6701
     78c:	000e6c07          	.insn	4, 0x000e6c07
     790:	7800                	.insn	2, 0x7800
     792:	000e                	.insn	2, 0x000e
     794:	0200                	.insn	2, 0x0200
     796:	9f30                	.insn	2, 0x9f30
     798:	000e7807          	.insn	4, 0x000e7807
     79c:	8800                	.insn	2, 0x8800
     79e:	000e                	.insn	2, 0x000e
     7a0:	0100                	.insn	2, 0x0100
     7a2:	0e880767          	jalr	a4,232(a6)
     7a6:	0000                	.insn	2, 0x
     7a8:	0e98                	.insn	2, 0x0e98
     7aa:	0000                	.insn	2, 0x
     7ac:	3002                	.insn	2, 0x3002
     7ae:	079f 0e98 0000      	.insn	6, 0x0e98079f
     7b4:	0f5c                	.insn	2, 0x0f5c
     7b6:	0000                	.insn	2, 0x
     7b8:	6701                	.insn	2, 0x6701
     7ba:	000f7807          	.insn	4, 0x000f7807
     7be:	9c00                	.insn	2, 0x9c00
     7c0:	0012                	.insn	2, 0x0012
     7c2:	0100                	.insn	2, 0x0100
     7c4:	84070067          	jr	-1984(a4)
     7c8:	9000000b          	.insn	4, 0x9000000b
     7cc:	0200000b          	.insn	4, 0x0200000b
     7d0:	9f30                	.insn	2, 0x9f30
     7d2:	000b9007          	.insn	4, 0x000b9007
     7d6:	e400                	.insn	2, 0xe400
     7d8:	0100000b          	.insn	4, 0x0100000b
     7dc:	0769                	.insn	2, 0x0769
     7de:	0ccc                	.insn	2, 0x0ccc
     7e0:	0000                	.insn	2, 0x
     7e2:	0dd0                	.insn	2, 0x0dd0
     7e4:	0000                	.insn	2, 0x
     7e6:	6901                	.insn	2, 0x6901
     7e8:	000e0407          	.insn	4, 0x000e0407
     7ec:	4000                	.insn	2, 0x4000
     7ee:	000e                	.insn	2, 0x000e
     7f0:	0200                	.insn	2, 0x0200
     7f2:	9f30                	.insn	2, 0x9f30
     7f4:	000e4007          	.insn	4, 0x000e4007
     7f8:	6c00                	.insn	2, 0x6c00
     7fa:	000e                	.insn	2, 0x000e
     7fc:	0100                	.insn	2, 0x0100
     7fe:	0769                	.insn	2, 0x0769
     800:	0ea0                	.insn	2, 0x0ea0
     802:	0000                	.insn	2, 0x
     804:	0f28                	.insn	2, 0x0f28
     806:	0000                	.insn	2, 0x
     808:	6901                	.insn	2, 0x6901
     80a:	000f2807          	.insn	4, 0x000f2807
     80e:	3000                	.insn	2, 0x3000
     810:	0100000f          	fence	w,unknown
     814:	075f 0f30 0000      	.insn	6, 0x0f30075f
     81a:	0f5c                	.insn	2, 0x0f5c
     81c:	0000                	.insn	2, 0x
     81e:	6901                	.insn	2, 0x6901
     820:	000f7807          	.insn	4, 0x000f7807
     824:	b000                	.insn	2, 0xb000
     826:	0200000f          	fence	r,unknown
     82a:	9f30                	.insn	2, 0x9f30
     82c:	000fb007          	.insn	4, 0x000fb007
     830:	bc00                	.insn	2, 0xbc00
     832:	0100000f          	fence	w,unknown
     836:	0769                	.insn	2, 0x0769
     838:	0fbc                	.insn	2, 0x0fbc
     83a:	0000                	.insn	2, 0x
     83c:	0fd4                	.insn	2, 0x0fd4
     83e:	0000                	.insn	2, 0x
     840:	3002                	.insn	2, 0x3002
     842:	079f 0fd4 0000      	.insn	6, 0x0fd4079f
     848:	0ff0                	.insn	2, 0x0ff0
     84a:	0000                	.insn	2, 0x
     84c:	6901                	.insn	2, 0x6901
     84e:	00104007          	.insn	4, 0x00104007
     852:	4400                	.insn	2, 0x4400
     854:	0010                	.insn	2, 0x0010
     856:	0100                	.insn	2, 0x0100
     858:	075f 1084 0000      	.insn	6, 0x1084075f
     85e:	10dc                	.insn	2, 0x10dc
     860:	0000                	.insn	2, 0x
     862:	6901                	.insn	2, 0x6901
     864:	0010e407          	.insn	4, 0x0010e407
     868:	3400                	.insn	2, 0x3400
     86a:	0011                	.insn	2, 0x0011
     86c:	0100                	.insn	2, 0x0100
     86e:	0769                	.insn	2, 0x0769
     870:	1154                	.insn	2, 0x1154
     872:	0000                	.insn	2, 0x
     874:	11b8                	.insn	2, 0x11b8
     876:	0000                	.insn	2, 0x
     878:	6901                	.insn	2, 0x6901
     87a:	0011b807          	.insn	4, 0x0011b807
     87e:	c700                	.insn	2, 0xc700
     880:	0011                	.insn	2, 0x0011
     882:	0100                	.insn	2, 0x0100
     884:	0761                	.insn	2, 0x0761
     886:	000011c7          	.insn	4, 0x11c7
     88a:	129c                	.insn	2, 0x129c
     88c:	0000                	.insn	2, 0x
     88e:	6901                	.insn	2, 0x6901
     890:	0700                	.insn	2, 0x0700
     892:	0b68                	.insn	2, 0x0b68
     894:	0000                	.insn	2, 0x
     896:	0c30                	.insn	2, 0x0c30
     898:	0000                	.insn	2, 0x
     89a:	3002                	.insn	2, 0x3002
     89c:	079f 0c94 0000      	.insn	6, 0x0c94079f
     8a2:	0c9c                	.insn	2, 0x0c9c
     8a4:	0000                	.insn	2, 0x
     8a6:	3102                	.insn	2, 0x3102
     8a8:	079f 0ca0 0000      	.insn	6, 0x0ca0079f
     8ae:	0ca8                	.insn	2, 0x0ca8
     8b0:	0000                	.insn	2, 0x
     8b2:	3102                	.insn	2, 0x3102
     8b4:	079f 0cac 0000      	.insn	6, 0x0cac079f
     8ba:	0cb4                	.insn	2, 0x0cb4
     8bc:	0000                	.insn	2, 0x
     8be:	3102                	.insn	2, 0x3102
     8c0:	079f 0cb8 0000      	.insn	6, 0x0cb8079f
     8c6:	0cc0                	.insn	2, 0x0cc0
     8c8:	0000                	.insn	2, 0x
     8ca:	3102                	.insn	2, 0x3102
     8cc:	079f 0cc4 0000      	.insn	6, 0x0cc4079f
     8d2:	0ccc                	.insn	2, 0x0ccc
     8d4:	0000                	.insn	2, 0x
     8d6:	3102                	.insn	2, 0x3102
     8d8:	079f 0ccc 0000      	.insn	6, 0x0ccc079f
     8de:	0f5c                	.insn	2, 0x0f5c
     8e0:	0000                	.insn	2, 0x
     8e2:	3002                	.insn	2, 0x3002
     8e4:	079f 0f78 0000      	.insn	6, 0x0f78079f
     8ea:	129c                	.insn	2, 0x129c
     8ec:	0000                	.insn	2, 0x
     8ee:	3002                	.insn	2, 0x3002
     8f0:	009f e007 000a      	.insn	6, 0x000ae007009f
     8f6:	1800                	.insn	2, 0x1800
     8f8:	0200000b          	.insn	4, 0x0200000b
     8fc:	9f30                	.insn	2, 0x9f30
     8fe:	000b1807          	.insn	4, 0x000b1807
     902:	e800                	.insn	2, 0xe800
     904:	0100000b          	.insn	4, 0x0100000b
     908:	0be8076b          	.insn	4, 0x0be8076b
     90c:	0000                	.insn	2, 0x
     90e:	0bfc                	.insn	2, 0x0bfc
     910:	0000                	.insn	2, 0x
     912:	6901                	.insn	2, 0x6901
     914:	000c0807          	.insn	4, 0x000c0807
     918:	2400                	.insn	2, 0x2400
     91a:	000c                	.insn	2, 0x000c
     91c:	0100                	.insn	2, 0x0100
     91e:	0769                	.insn	2, 0x0769
     920:	0c24                	.insn	2, 0x0c24
     922:	0000                	.insn	2, 0x
     924:	0c38                	.insn	2, 0x0c38
     926:	0000                	.insn	2, 0x
     928:	6b01                	.insn	2, 0x6b01
     92a:	000c9007          	.insn	4, 0x000c9007
     92e:	3c00                	.insn	2, 0x3c00
     930:	000d                	.insn	2, 0x000d
     932:	0100                	.insn	2, 0x0100
     934:	0d3c076b          	.insn	4, 0x0d3c076b
     938:	0000                	.insn	2, 0x
     93a:	0d40                	.insn	2, 0x0d40
     93c:	0000                	.insn	2, 0x
     93e:	5a01                	.insn	2, 0x5a01
     940:	000d4007          	.insn	4, 0x000d4007
     944:	c800                	.insn	2, 0xc800
     946:	000d                	.insn	2, 0x000d
     948:	0100                	.insn	2, 0x0100
     94a:	0dc8076b          	.insn	4, 0x0dc8076b
     94e:	0000                	.insn	2, 0x
     950:	0dd0                	.insn	2, 0x0dd0
     952:	0000                	.insn	2, 0x
     954:	5a01                	.insn	2, 0x5a01
     956:	000dd007          	.insn	4, 0x000dd007
     95a:	2000                	.insn	2, 0x2000
     95c:	0100000f          	fence	w,unknown
     960:	0f20076b          	.insn	4, 0x0f20076b
     964:	0000                	.insn	2, 0x
     966:	0f3c                	.insn	2, 0x0f3c
     968:	0000                	.insn	2, 0x
     96a:	5c01                	.insn	2, 0x5c01
     96c:	000f3c07          	.insn	4, 0x000f3c07
     970:	5c00                	.insn	2, 0x5c00
     972:	0100000f          	fence	w,unknown
     976:	0758                	.insn	2, 0x0758
     978:	0f5c                	.insn	2, 0x0f5c
     97a:	0000                	.insn	2, 0x
     97c:	0f78                	.insn	2, 0x0f78
     97e:	0000                	.insn	2, 0x
     980:	3002                	.insn	2, 0x3002
     982:	079f 0f78 0000      	.insn	6, 0x0f78079f
     988:	1004                	.insn	2, 0x1004
     98a:	0000                	.insn	2, 0x
     98c:	6b01                	.insn	2, 0x6b01
     98e:	00100407          	.insn	4, 0x00100407
     992:	2000                	.insn	2, 0x2000
     994:	0010                	.insn	2, 0x0010
     996:	0100                	.insn	2, 0x0100
     998:	0769                	.insn	2, 0x0769
     99a:	1020                	.insn	2, 0x1020
     99c:	0000                	.insn	2, 0x
     99e:	1034                	.insn	2, 0x1034
     9a0:	0000                	.insn	2, 0x
     9a2:	5801                	.insn	2, 0x5801
     9a4:	00103407          	.insn	4, 0x00103407
     9a8:	4000                	.insn	2, 0x4000
     9aa:	0010                	.insn	2, 0x0010
     9ac:	0100                	.insn	2, 0x0100
     9ae:	1040076b          	.insn	4, 0x1040076b
     9b2:	0000                	.insn	2, 0x
     9b4:	1044                	.insn	2, 0x1044
     9b6:	0000                	.insn	2, 0x
     9b8:	5c01                	.insn	2, 0x5c01
     9ba:	00104407          	.insn	4, 0x00104407
     9be:	5000                	.insn	2, 0x5000
     9c0:	0010                	.insn	2, 0x0010
     9c2:	0100                	.insn	2, 0x0100
     9c4:	0758                	.insn	2, 0x0758
     9c6:	1050                	.insn	2, 0x1050
     9c8:	0000                	.insn	2, 0x
     9ca:	1078                	.insn	2, 0x1078
     9cc:	0000                	.insn	2, 0x
     9ce:	6b01                	.insn	2, 0x6b01
     9d0:	00107807          	.insn	4, 0x00107807
     9d4:	8400                	.insn	2, 0x8400
     9d6:	0010                	.insn	2, 0x0010
     9d8:	0100                	.insn	2, 0x0100
     9da:	0758                	.insn	2, 0x0758
     9dc:	1084                	.insn	2, 0x1084
     9de:	0000                	.insn	2, 0x
     9e0:	1134                	.insn	2, 0x1134
     9e2:	0000                	.insn	2, 0x
     9e4:	6b01                	.insn	2, 0x6b01
     9e6:	00113407          	.insn	4, 0x00113407
     9ea:	4800                	.insn	2, 0x4800
     9ec:	0011                	.insn	2, 0x0011
     9ee:	0300                	.insn	2, 0x0300
     9f0:	079f018b          	.insn	4, 0x079f018b
     9f4:	114c                	.insn	2, 0x114c
     9f6:	0000                	.insn	2, 0x
     9f8:	11b8                	.insn	2, 0x11b8
     9fa:	0000                	.insn	2, 0x
     9fc:	6b01                	.insn	2, 0x6b01
     9fe:	0011b807          	.insn	4, 0x0011b807
     a02:	c700                	.insn	2, 0xc700
     a04:	0011                	.insn	2, 0x0011
     a06:	0100                	.insn	2, 0x0100
     a08:	075c                	.insn	2, 0x075c
     a0a:	000011c7          	.insn	4, 0x11c7
     a0e:	11cc                	.insn	2, 0x11cc
     a10:	0000                	.insn	2, 0x
     a12:	6b01                	.insn	2, 0x6b01
     a14:	0011cc07          	.insn	4, 0x0011cc07
     a18:	d400                	.insn	2, 0xd400
     a1a:	0011                	.insn	2, 0x0011
     a1c:	0100                	.insn	2, 0x0100
     a1e:	075a                	.insn	2, 0x075a
     a20:	11d4                	.insn	2, 0x11d4
     a22:	0000                	.insn	2, 0x
     a24:	129c                	.insn	2, 0x129c
     a26:	0000                	.insn	2, 0x
     a28:	6b01                	.insn	2, 0x6b01
     a2a:	0700                	.insn	2, 0x0700
     a2c:	1164                	.insn	2, 0x1164
     a2e:	0000                	.insn	2, 0x
     a30:	1170                	.insn	2, 0x1170
     a32:	0000                	.insn	2, 0x
     a34:	3a02                	.insn	2, 0x3a02
     a36:	009f a007 0011      	.insn	6, 0x0011a007009f
     a3c:	b800                	.insn	2, 0xb800
     a3e:	0011                	.insn	2, 0x0011
     a40:	0100                	.insn	2, 0x0100
     a42:	005f a007 000d      	.insn	6, 0x000da007005f
     a48:	c300                	.insn	2, 0xc300
     a4a:	000d                	.insn	2, 0x000d
     a4c:	0100                	.insn	2, 0x0100
     a4e:	005e                	.insn	2, 0x005e
     a50:	000bd807          	.insn	4, 0x000bd807
     a54:	fc00                	.insn	2, 0xfc00
     a56:	0200000b          	.insn	4, 0x0200000b
     a5a:	9f31                	.insn	2, 0x9f31
     a5c:	000bfc07          	.insn	4, 0x000bfc07
     a60:	0800                	.insn	2, 0x0800
     a62:	000c                	.insn	2, 0x000c
     a64:	0200                	.insn	2, 0x0200
     a66:	9f32                	.insn	2, 0x9f32
     a68:	000c0807          	.insn	4, 0x000c0807
     a6c:	1400                	.insn	2, 0x1400
     a6e:	000c                	.insn	2, 0x000c
     a70:	0800                	.insn	2, 0x0800
     a72:	0089                	.insn	2, 0x0089
     a74:	231c008b          	.insn	4, 0x231c008b
     a78:	9f01                	.insn	2, 0x9f01
     a7a:	000c1407          	.insn	4, 0x000c1407
     a7e:	1f00                	.insn	2, 0x1f00
     a80:	000c                	.insn	2, 0x000c
     a82:	0800                	.insn	2, 0x0800
     a84:	007c                	.insn	2, 0x007c
     a86:	231c008b          	.insn	4, 0x231c008b
     a8a:	9f01                	.insn	2, 0x9f01
     a8c:	000c1f07          	.insn	4, 0x000c1f07
     a90:	2000                	.insn	2, 0x2000
     a92:	000c                	.insn	2, 0x000c
     a94:	0600                	.insn	2, 0x0600
     a96:	0089                	.insn	2, 0x0089
     a98:	9f1c008b          	.insn	4, 0x9f1c008b
     a9c:	000c2007          	.insn	4, 0x000c2007
     aa0:	2800                	.insn	2, 0x2800
     aa2:	000c                	.insn	2, 0x000c
     aa4:	0800                	.insn	2, 0x0800
     aa6:	0089                	.insn	2, 0x0089
     aa8:	231c008b          	.insn	4, 0x231c008b
     aac:	9f01                	.insn	2, 0x9f01
     aae:	000ff007          	.insn	4, 0x000ff007
     ab2:	0400                	.insn	2, 0x0400
     ab4:	0010                	.insn	2, 0x0010
     ab6:	0200                	.insn	2, 0x0200
     ab8:	9f32                	.insn	2, 0x9f32
     aba:	00100407          	.insn	4, 0x00100407
     abe:	1000                	.insn	2, 0x1000
     ac0:	0010                	.insn	2, 0x0010
     ac2:	0800                	.insn	2, 0x0800
     ac4:	0089                	.insn	2, 0x0089
     ac6:	231c008b          	.insn	4, 0x231c008b
     aca:	9f02                	.insn	2, 0x9f02
     acc:	00101007          	.insn	4, 0x00101007
     ad0:	1b00                	.insn	2, 0x1b00
     ad2:	0010                	.insn	2, 0x0010
     ad4:	0800                	.insn	2, 0x0800
     ad6:	007c                	.insn	2, 0x007c
     ad8:	231c008b          	.insn	4, 0x231c008b
     adc:	9f02                	.insn	2, 0x9f02
     ade:	00101b07          	.insn	4, 0x00101b07
     ae2:	1c00                	.insn	2, 0x1c00
     ae4:	0010                	.insn	2, 0x0010
     ae6:	0800                	.insn	2, 0x0800
     ae8:	0089                	.insn	2, 0x0089
     aea:	231c008b          	.insn	4, 0x231c008b
     aee:	9f01                	.insn	2, 0x9f01
     af0:	00101c07          	.insn	4, 0x00101c07
     af4:	3400                	.insn	2, 0x3400
     af6:	0010                	.insn	2, 0x0010
     af8:	0800                	.insn	2, 0x0800
     afa:	0089                	.insn	2, 0x0089
     afc:	231c008b          	.insn	4, 0x231c008b
     b00:	9f02                	.insn	2, 0x9f02
     b02:	00113407          	.insn	4, 0x00113407
     b06:	5400                	.insn	2, 0x5400
     b08:	0011                	.insn	2, 0x0011
     b0a:	0200                	.insn	2, 0x0200
     b0c:	9f32                	.insn	2, 0x9f32
     b0e:	0700                	.insn	2, 0x0700
     b10:	0f18                	.insn	2, 0x0f18
     b12:	0000                	.insn	2, 0x
     b14:	0f20                	.insn	2, 0x0f20
     b16:	0000                	.insn	2, 0x
     b18:	7fb09103          	lh	sp,2043(ra)
     b1c:	000f2007          	.insn	4, 0x000f2007
     b20:	3000                	.insn	2, 0x3000
     b22:	0b00000f          	fence	irw,unknown
     b26:	b091                	.insn	2, 0xb091
     b28:	067f 007c 8b22 1c00 	.insn	10, 0x079f1c008b22007c067f
     b30:	079f 
     b32:	0f30                	.insn	2, 0x0f30
     b34:	0000                	.insn	2, 0x
     b36:	00000f3f 7fb0910d 	.insn	8, 0x7fb0910d00000f3f
     b3e:	7c06                	.insn	2, 0x7c06
     b40:	2200                	.insn	2, 0x2200
     b42:	231c008b          	.insn	4, 0x231c008b
     b46:	9f01                	.insn	2, 0x9f01
     b48:	000f3f07          	.insn	4, 0x000f3f07
     b4c:	5c00                	.insn	2, 0x5c00
     b4e:	0b00000f          	fence	irw,unknown
     b52:	b091                	.insn	2, 0xb091
     b54:	067f 008b 781c 2200 	.insn	10, 0x079f2200781c008b067f
     b5c:	079f 
     b5e:	1040                	.insn	2, 0x1040
     b60:	0000                	.insn	2, 0x
     b62:	1044                	.insn	2, 0x1044
     b64:	0000                	.insn	2, 0x
     b66:	7fb0910b          	.insn	4, 0x7fb0910b
     b6a:	7c06                	.insn	2, 0x7c06
     b6c:	2200                	.insn	2, 0x2200
     b6e:	9f1c008b          	.insn	4, 0x9f1c008b
     b72:	0010d407          	.insn	4, 0x0010d407
     b76:	dc00                	.insn	2, 0xdc00
     b78:	0010                	.insn	2, 0x0010
     b7a:	0300                	.insn	2, 0x0300
     b7c:	b091                	.insn	2, 0xb091
     b7e:	007f c807 0010 d000 	.insn	10, 0x0010d0000010c807007f
     b86:	0010 
     b88:	0300                	.insn	2, 0x0300
     b8a:	079f0287          	.insn	4, 0x079f0287
     b8e:	10d0                	.insn	2, 0x10d0
     b90:	0000                	.insn	2, 0x
     b92:	10d4                	.insn	2, 0x10d4
     b94:	0000                	.insn	2, 0x
     b96:	9f017903          	.insn	4, 0x9f017903
     b9a:	0010d407          	.insn	4, 0x0010d407
     b9e:	dc00                	.insn	2, 0xdc00
     ba0:	0010                	.insn	2, 0x0010
     ba2:	0100                	.insn	2, 0x0100
     ba4:	0759                	.insn	2, 0x0759
     ba6:	112c                	.insn	2, 0x112c
     ba8:	0000                	.insn	2, 0x
     baa:	1130                	.insn	2, 0x1130
     bac:	0000                	.insn	2, 0x
     bae:	9f027903          	.insn	4, 0x9f027903
     bb2:	00113007          	.insn	4, 0x00113007
     bb6:	3400                	.insn	2, 0x3400
     bb8:	0011                	.insn	2, 0x0011
     bba:	0300                	.insn	2, 0x0300
     bbc:	0179                	.insn	2, 0x0179
     bbe:	009f cc07 000e      	.insn	6, 0x000ecc07009f
     bc4:	d400                	.insn	2, 0xd400
     bc6:	000e                	.insn	2, 0x000e
     bc8:	0300                	.insn	2, 0x0300
     bca:	ff09                	.insn	2, 0xff09
     bcc:	079f 0fb0 0000      	.insn	6, 0x0fb0079f
     bd2:	0fb8                	.insn	2, 0x0fb8
     bd4:	0000                	.insn	2, 0x
     bd6:	6901                	.insn	2, 0x6901
     bd8:	000fb807          	.insn	4, 0x000fb807
     bdc:	bc00                	.insn	2, 0xbc00
     bde:	0100000f          	fence	w,unknown
     be2:	005e                	.insn	2, 0x005e
     be4:	000ecc07          	.insn	4, 0x000ecc07
     be8:	d400                	.insn	2, 0xd400
     bea:	000e                	.insn	2, 0x000e
     bec:	0100                	.insn	2, 0x0100
     bee:	075f 0ed4 0000      	.insn	6, 0x0ed4075f
     bf4:	0ee4                	.insn	2, 0x0ee4
     bf6:	0000                	.insn	2, 0x
     bf8:	7fb09103          	lh	sp,2043(ra)
     bfc:	000ee407          	.insn	4, 0x000ee407
     c00:	fc00                	.insn	2, 0xfc00
     c02:	000e                	.insn	2, 0x000e
     c04:	0100                	.insn	2, 0x0100
     c06:	0759                	.insn	2, 0x0759
     c08:	0fb0                	.insn	2, 0x0fb0
     c0a:	0000                	.insn	2, 0x
     c0c:	0fbc                	.insn	2, 0x0fbc
     c0e:	0000                	.insn	2, 0x
     c10:	7fb09103          	lh	sp,2043(ra)
     c14:	00108407          	.insn	4, 0x00108407
     c18:	8c00                	.insn	2, 0x8c00
     c1a:	0010                	.insn	2, 0x0010
     c1c:	0100                	.insn	2, 0x0100
     c1e:	0059                	.insn	2, 0x0059
     c20:	000dd407          	.insn	4, 0x000dd407
     c24:	ec00                	.insn	2, 0xec00
     c26:	000d                	.insn	2, 0x000d
     c28:	0100                	.insn	2, 0x0100
     c2a:	0dfc0767          	jalr	a4,223(s8)
     c2e:	0000                	.insn	2, 0x
     c30:	0e04                	.insn	2, 0x0e04
     c32:	0000                	.insn	2, 0x
     c34:	6701                	.insn	2, 0x6701
     c36:	0700                	.insn	2, 0x0700
     c38:	0f7c                	.insn	2, 0x0f7c
     c3a:	0000                	.insn	2, 0x
     c3c:	0fb0                	.insn	2, 0x0fb0
     c3e:	0000                	.insn	2, 0x
     c40:	6901                	.insn	2, 0x6901
     c42:	0700                	.insn	2, 0x0700
     c44:	0558                	.insn	2, 0x0558
     c46:	0000                	.insn	2, 0x
     c48:	05d4                	.insn	2, 0x05d4
     c4a:	0000                	.insn	2, 0x
     c4c:	5a01                	.insn	2, 0x5a01
     c4e:	0005d407          	.insn	4, 0x0005d407
     c52:	ec00                	.insn	2, 0xec00
     c54:	01000007          	.insn	4, 0x01000007
     c58:	0759                	.insn	2, 0x0759
     c5a:	07ec                	.insn	2, 0x07ec
     c5c:	0000                	.insn	2, 0x
     c5e:	0818                	.insn	2, 0x0818
     c60:	0000                	.insn	2, 0x
     c62:	a304                	.insn	2, 0xa304
     c64:	5a01                	.insn	2, 0x5a01
     c66:	079f 0818 0000      	.insn	6, 0x0818079f
     c6c:	0a80                	.insn	2, 0x0a80
     c6e:	0000                	.insn	2, 0x
     c70:	5901                	.insn	2, 0x5901
     c72:	0700                	.insn	2, 0x0700
     c74:	0558                	.insn	2, 0x0558
     c76:	0000                	.insn	2, 0x
     c78:	05c4                	.insn	2, 0x05c4
     c7a:	0000                	.insn	2, 0x
     c7c:	5b01                	.insn	2, 0x5b01
     c7e:	0005c407          	.insn	4, 0x0005c407
     c82:	8000                	.insn	2, 0x8000
     c84:	0006                	.insn	2, 0x0006
     c86:	0100                	.insn	2, 0x0100
     c88:	0762                	.insn	2, 0x0762
     c8a:	0680                	.insn	2, 0x0680
     c8c:	0000                	.insn	2, 0x
     c8e:	0694                	.insn	2, 0x0694
     c90:	0000                	.insn	2, 0x
     c92:	5b01                	.insn	2, 0x5b01
     c94:	00069407          	.insn	4, 0x00069407
     c98:	f000                	.insn	2, 0xf000
     c9a:	01000007          	.insn	4, 0x01000007
     c9e:	0762                	.insn	2, 0x0762
     ca0:	07f0                	.insn	2, 0x07f0
     ca2:	0000                	.insn	2, 0x
     ca4:	0818                	.insn	2, 0x0818
     ca6:	0000                	.insn	2, 0x
     ca8:	a304                	.insn	2, 0xa304
     caa:	5b01                	.insn	2, 0x5b01
     cac:	079f 0818 0000      	.insn	6, 0x0818079f
     cb2:	0a80                	.insn	2, 0x0a80
     cb4:	0000                	.insn	2, 0x
     cb6:	6201                	.insn	2, 0x6201
     cb8:	0700                	.insn	2, 0x0700
     cba:	0558                	.insn	2, 0x0558
     cbc:	0000                	.insn	2, 0x
     cbe:	05e0                	.insn	2, 0x05e0
     cc0:	0000                	.insn	2, 0x
     cc2:	5c01                	.insn	2, 0x5c01
     cc4:	0005e007          	.insn	4, 0x0005e007
     cc8:	8000                	.insn	2, 0x8000
     cca:	0006                	.insn	2, 0x0006
     ccc:	0100                	.insn	2, 0x0100
     cce:	0764                	.insn	2, 0x0764
     cd0:	0680                	.insn	2, 0x0680
     cd2:	0000                	.insn	2, 0x
     cd4:	0694                	.insn	2, 0x0694
     cd6:	0000                	.insn	2, 0x
     cd8:	5c01                	.insn	2, 0x5c01
     cda:	00069407          	.insn	4, 0x00069407
     cde:	0c00                	.insn	2, 0x0c00
     ce0:	01000007          	.insn	4, 0x01000007
     ce4:	0764                	.insn	2, 0x0764
     ce6:	070c                	.insn	2, 0x070c
     ce8:	0000                	.insn	2, 0x
     cea:	0714                	.insn	2, 0x0714
     cec:	0000                	.insn	2, 0x
     cee:	5c01                	.insn	2, 0x5c01
     cf0:	00071407          	.insn	4, 0x00071407
     cf4:	bc00                	.insn	2, 0xbc00
     cf6:	01000007          	.insn	4, 0x01000007
     cfa:	0764                	.insn	2, 0x0764
     cfc:	07bc                	.insn	2, 0x07bc
     cfe:	0000                	.insn	2, 0x
     d00:	0818                	.insn	2, 0x0818
     d02:	0000                	.insn	2, 0x
     d04:	a304                	.insn	2, 0xa304
     d06:	5c01                	.insn	2, 0x5c01
     d08:	079f 0818 0000      	.insn	6, 0x0818079f
     d0e:	0a80                	.insn	2, 0x0a80
     d10:	0000                	.insn	2, 0x
     d12:	6401                	.insn	2, 0x6401
     d14:	0700                	.insn	2, 0x0700
     d16:	0558                	.insn	2, 0x0558
     d18:	0000                	.insn	2, 0x
     d1a:	05b0                	.insn	2, 0x05b0
     d1c:	0000                	.insn	2, 0x
     d1e:	5d01                	.insn	2, 0x5d01
     d20:	0005b007          	.insn	4, 0x0005b007
     d24:	f400                	.insn	2, 0xf400
     d26:	01000007          	.insn	4, 0x01000007
     d2a:	07f40763          	beq	s0,t6,d98 <_vsnprintf+0x2f8>
     d2e:	0000                	.insn	2, 0x
     d30:	0818                	.insn	2, 0x0818
     d32:	0000                	.insn	2, 0x
     d34:	a304                	.insn	2, 0xa304
     d36:	5d01                	.insn	2, 0x5d01
     d38:	079f 0818 0000      	.insn	6, 0x0818079f
     d3e:	0a80                	.insn	2, 0x0a80
     d40:	0000                	.insn	2, 0x
     d42:	6301                	.insn	2, 0x6301
     d44:	0700                	.insn	2, 0x0700
     d46:	0558                	.insn	2, 0x0558
     d48:	0000                	.insn	2, 0x
     d4a:	05e0                	.insn	2, 0x05e0
     d4c:	0000                	.insn	2, 0x
     d4e:	5e01                	.insn	2, 0x5e01
     d50:	0005e007          	.insn	4, 0x0005e007
     d54:	e800                	.insn	2, 0xe800
     d56:	0005                	.insn	2, 0x0005
     d58:	0100                	.insn	2, 0x0100
     d5a:	075d                	.insn	2, 0x075d
     d5c:	05e8                	.insn	2, 0x05e8
     d5e:	0000                	.insn	2, 0x
     d60:	0614                	.insn	2, 0x0614
     d62:	0000                	.insn	2, 0x
     d64:	5e01                	.insn	2, 0x5e01
     d66:	00061407          	.insn	4, 0x00061407
     d6a:	2000                	.insn	2, 0x2000
     d6c:	0006                	.insn	2, 0x0006
     d6e:	0100                	.insn	2, 0x0100
     d70:	075d                	.insn	2, 0x075d
     d72:	0680                	.insn	2, 0x0680
     d74:	0000                	.insn	2, 0x
     d76:	0694                	.insn	2, 0x0694
     d78:	0000                	.insn	2, 0x
     d7a:	5e01                	.insn	2, 0x5e01
     d7c:	00070c07          	.insn	4, 0x00070c07
     d80:	1400                	.insn	2, 0x1400
     d82:	01000007          	.insn	4, 0x01000007
     d86:	005e                	.insn	2, 0x005e
     d88:	00055807          	.insn	4, 0x00055807
     d8c:	5800                	.insn	2, 0x5800
     d8e:	0006                	.insn	2, 0x0006
     d90:	0100                	.insn	2, 0x0100
     d92:	075f 0658 0000      	.insn	6, 0x0658075f
     d98:	0680                	.insn	2, 0x0680
     d9a:	0000                	.insn	2, 0x
     d9c:	a304                	.insn	2, 0xa304
     d9e:	5f01                	.insn	2, 0x5f01
     da0:	079f 0680 0000      	.insn	6, 0x0680079f
     da6:	076c                	.insn	2, 0x076c
     da8:	0000                	.insn	2, 0x
     daa:	5f01                	.insn	2, 0x5f01
     dac:	00076c07          	.insn	4, 0x00076c07
     db0:	1800                	.insn	2, 0x1800
     db2:	0008                	.insn	2, 0x0008
     db4:	0400                	.insn	2, 0x0400
     db6:	9f5f01a3          	sb	s5,-1565(t5)
     dba:	00081807          	.insn	4, 0x00081807
     dbe:	6c00                	.insn	2, 0x6c00
     dc0:	0008                	.insn	2, 0x0008
     dc2:	0100                	.insn	2, 0x0100
     dc4:	075f 086c 0000      	.insn	6, 0x086c075f
     dca:	089c                	.insn	2, 0x089c
     dcc:	0000                	.insn	2, 0x
     dce:	a304                	.insn	2, 0xa304
     dd0:	5f01                	.insn	2, 0x5f01
     dd2:	079f 089c 0000      	.insn	6, 0x089c079f
     dd8:	08a0                	.insn	2, 0x08a0
     dda:	0000                	.insn	2, 0x
     ddc:	5f01                	.insn	2, 0x5f01
     dde:	0008a007          	.insn	4, 0x0008a007
     de2:	b400                	.insn	2, 0xb400
     de4:	0008                	.insn	2, 0x0008
     de6:	0400                	.insn	2, 0x0400
     de8:	9f5f01a3          	sb	s5,-1565(t5)
     dec:	0008b407          	.insn	4, 0x0008b407
     df0:	7000                	.insn	2, 0x7000
     df2:	0009                	.insn	2, 0x0009
     df4:	0100                	.insn	2, 0x0100
     df6:	075f 0970 0000      	.insn	6, 0x0970075f
     dfc:	0990                	.insn	2, 0x0990
     dfe:	0000                	.insn	2, 0x
     e00:	a304                	.insn	2, 0xa304
     e02:	5f01                	.insn	2, 0x5f01
     e04:	079f 0990 0000      	.insn	6, 0x0990079f
     e0a:	09c8                	.insn	2, 0x09c8
     e0c:	0000                	.insn	2, 0x
     e0e:	5f01                	.insn	2, 0x5f01
     e10:	0009c807          	.insn	4, 0x0009c807
     e14:	e000                	.insn	2, 0xe000
     e16:	0009                	.insn	2, 0x0009
     e18:	0400                	.insn	2, 0x0400
     e1a:	9f5f01a3          	sb	s5,-1565(t5)
     e1e:	0009e007          	.insn	4, 0x0009e007
     e22:	8000                	.insn	2, 0x8000
     e24:	000a                	.insn	2, 0x000a
     e26:	0100                	.insn	2, 0x0100
     e28:	005f 5807 0005      	.insn	6, 0x00055807005f
     e2e:	7400                	.insn	2, 0x7400
     e30:	01000007          	.insn	4, 0x01000007
     e34:	0760                	.insn	2, 0x0760
     e36:	0774                	.insn	2, 0x0774
     e38:	0000                	.insn	2, 0x
     e3a:	0818                	.insn	2, 0x0818
     e3c:	0000                	.insn	2, 0x
     e3e:	a304                	.insn	2, 0xa304
     e40:	6001                	.insn	2, 0x6001
     e42:	079f 0818 0000      	.insn	6, 0x0818079f
     e48:	086c                	.insn	2, 0x086c
     e4a:	0000                	.insn	2, 0x
     e4c:	6001                	.insn	2, 0x6001
     e4e:	00086c07          	.insn	4, 0x00086c07
     e52:	9c00                	.insn	2, 0x9c00
     e54:	0008                	.insn	2, 0x0008
     e56:	0400                	.insn	2, 0x0400
     e58:	9f6001a3          	sb	s6,-1565(zero) # fffff9e3 <_peripheral_PLIC_end+0xf7fff9e3>
     e5c:	00089c07          	.insn	4, 0x00089c07
     e60:	8000                	.insn	2, 0x8000
     e62:	000a                	.insn	2, 0x000a
     e64:	0100                	.insn	2, 0x0100
     e66:	0060                	.insn	2, 0x0060
     e68:	00055807          	.insn	4, 0x00055807
     e6c:	7400                	.insn	2, 0x7400
     e6e:	01000007          	.insn	4, 0x01000007
     e72:	0761                	.insn	2, 0x0761
     e74:	0774                	.insn	2, 0x0774
     e76:	0000                	.insn	2, 0x
     e78:	0818                	.insn	2, 0x0818
     e7a:	0000                	.insn	2, 0x
     e7c:	a304                	.insn	2, 0xa304
     e7e:	6101                	.insn	2, 0x6101
     e80:	079f 0818 0000      	.insn	6, 0x0818079f
     e86:	086c                	.insn	2, 0x086c
     e88:	0000                	.insn	2, 0x
     e8a:	6101                	.insn	2, 0x6101
     e8c:	00086c07          	.insn	4, 0x00086c07
     e90:	9c00                	.insn	2, 0x9c00
     e92:	0008                	.insn	2, 0x0008
     e94:	0400                	.insn	2, 0x0400
     e96:	9f6101a3          	sb	s6,-1565(sp)
     e9a:	00089c07          	.insn	4, 0x00089c07
     e9e:	8000                	.insn	2, 0x8000
     ea0:	000a                	.insn	2, 0x000a
     ea2:	0100                	.insn	2, 0x0100
     ea4:	0061                	.insn	2, 0x0061
     ea6:	00055807          	.insn	4, 0x00055807
     eaa:	4c00                	.insn	2, 0x4c00
     eac:	0006                	.insn	2, 0x0006
     eae:	0200                	.insn	2, 0x0200
     eb0:	0091                	.insn	2, 0x0091
     eb2:	00068007          	.insn	4, 0x00068007
     eb6:	a800                	.insn	2, 0xa800
     eb8:	0006                	.insn	2, 0x0006
     eba:	0100                	.insn	2, 0x0100
     ebc:	0765                	.insn	2, 0x0765
     ebe:	06a8                	.insn	2, 0x06a8
     ec0:	0000                	.insn	2, 0x
     ec2:	070c                	.insn	2, 0x070c
     ec4:	0000                	.insn	2, 0x
     ec6:	9102                	.insn	2, 0x9102
     ec8:	0700                	.insn	2, 0x0700
     eca:	070c                	.insn	2, 0x070c
     ecc:	0000                	.insn	2, 0x
     ece:	0714                	.insn	2, 0x0714
     ed0:	0000                	.insn	2, 0x
     ed2:	6501                	.insn	2, 0x6501
     ed4:	00071407          	.insn	4, 0x00071407
     ed8:	4800                	.insn	2, 0x4800
     eda:	02000007          	.insn	4, 0x02000007
     ede:	0091                	.insn	2, 0x0091
     ee0:	00081807          	.insn	4, 0x00081807
     ee4:	2c00                	.insn	2, 0x2c00
     ee6:	0008                	.insn	2, 0x0008
     ee8:	0100                	.insn	2, 0x0100
     eea:	0765                	.insn	2, 0x0765
     eec:	082c                	.insn	2, 0x082c
     eee:	0000                	.insn	2, 0x
     ef0:	085c                	.insn	2, 0x085c
     ef2:	0000                	.insn	2, 0x
     ef4:	9102                	.insn	2, 0x9102
     ef6:	0700                	.insn	2, 0x0700
     ef8:	08b4                	.insn	2, 0x08b4
     efa:	0000                	.insn	2, 0x
     efc:	08cc                	.insn	2, 0x08cc
     efe:	0000                	.insn	2, 0x
     f00:	6501                	.insn	2, 0x6501
     f02:	0008cc07          	.insn	4, 0x0008cc07
     f06:	2c00                	.insn	2, 0x2c00
     f08:	0009                	.insn	2, 0x0009
     f0a:	0200                	.insn	2, 0x0200
     f0c:	0091                	.insn	2, 0x0091
     f0e:	00092c07          	.insn	4, 0x00092c07
     f12:	3000                	.insn	2, 0x3000
     f14:	0009                	.insn	2, 0x0009
     f16:	0100                	.insn	2, 0x0100
     f18:	0765                	.insn	2, 0x0765
     f1a:	0930                	.insn	2, 0x0930
     f1c:	0000                	.insn	2, 0x
     f1e:	0968                	.insn	2, 0x0968
     f20:	0000                	.insn	2, 0x
     f22:	9102                	.insn	2, 0x9102
     f24:	0700                	.insn	2, 0x0700
     f26:	0990                	.insn	2, 0x0990
     f28:	0000                	.insn	2, 0x
     f2a:	099c                	.insn	2, 0x099c
     f2c:	0000                	.insn	2, 0x
     f2e:	9102                	.insn	2, 0x9102
     f30:	0700                	.insn	2, 0x0700
     f32:	09a8                	.insn	2, 0x09a8
     f34:	0000                	.insn	2, 0x
     f36:	09c0                	.insn	2, 0x09c0
     f38:	0000                	.insn	2, 0x
     f3a:	9102                	.insn	2, 0x9102
     f3c:	0700                	.insn	2, 0x0700
     f3e:	09e0                	.insn	2, 0x09e0
     f40:	0000                	.insn	2, 0x
     f42:	0a0c                	.insn	2, 0x0a0c
     f44:	0000                	.insn	2, 0x
     f46:	9102                	.insn	2, 0x9102
     f48:	0700                	.insn	2, 0x0700
     f4a:	0a1c                	.insn	2, 0x0a1c
     f4c:	0000                	.insn	2, 0x
     f4e:	0a40                	.insn	2, 0x0a40
     f50:	0000                	.insn	2, 0x
     f52:	9102                	.insn	2, 0x9102
     f54:	0700                	.insn	2, 0x0700
     f56:	0a40                	.insn	2, 0x0a40
     f58:	0000                	.insn	2, 0x
     f5a:	0a48                	.insn	2, 0x0a48
     f5c:	0000                	.insn	2, 0x
     f5e:	6501                	.insn	2, 0x6501
     f60:	000a4807          	.insn	4, 0x000a4807
     f64:	6000                	.insn	2, 0x6000
     f66:	000a                	.insn	2, 0x000a
     f68:	0200                	.insn	2, 0x0200
     f6a:	0091                	.insn	2, 0x0091
     f6c:	000a6807          	.insn	4, 0x000a6807
     f70:	8000                	.insn	2, 0x8000
     f72:	000a                	.insn	2, 0x000a
     f74:	0200                	.insn	2, 0x0200
     f76:	0091                	.insn	2, 0x0091
     f78:	0700                	.insn	2, 0x0700
     f7a:	0558                	.insn	2, 0x0558
     f7c:	0000                	.insn	2, 0x
     f7e:	05b0                	.insn	2, 0x05b0
     f80:	0000                	.insn	2, 0x
     f82:	9102                	.insn	2, 0x9102
     f84:	0704                	.insn	2, 0x0704
     f86:	05b0                	.insn	2, 0x05b0
     f88:	0000                	.insn	2, 0x
     f8a:	05b8                	.insn	2, 0x05b8
     f8c:	0000                	.insn	2, 0x
     f8e:	06049107          	.insn	4, 0x06049107
     f92:	ef09                	.insn	2, 0xef09
     f94:	9f1a                	.insn	2, 0x9f1a
     f96:	0005b807          	.insn	4, 0x0005b807
     f9a:	bc00                	.insn	2, 0xbc00
     f9c:	0005                	.insn	2, 0x0005
     f9e:	0600                	.insn	2, 0x0600
     fa0:	007d                	.insn	2, 0x007d
     fa2:	ef09                	.insn	2, 0xef09
     fa4:	9f1a                	.insn	2, 0x9f1a
     fa6:	00068007          	.insn	4, 0x00068007
     faa:	8c00                	.insn	2, 0x8c00
     fac:	0006                	.insn	2, 0x0006
     fae:	0600                	.insn	2, 0x0600
     fb0:	008c                	.insn	2, 0x008c
     fb2:	ef09                	.insn	2, 0xef09
     fb4:	9f1a                	.insn	2, 0x9f1a
     fb6:	00068c07          	.insn	4, 0x00068c07
     fba:	9400                	.insn	2, 0x9400
     fbc:	0006                	.insn	2, 0x0006
     fbe:	0600                	.insn	2, 0x0600
     fc0:	007d                	.insn	2, 0x007d
     fc2:	ef09                	.insn	2, 0xef09
     fc4:	9f1a                	.insn	2, 0x9f1a
     fc6:	0700                	.insn	2, 0x0700
     fc8:	0590                	.insn	2, 0x0590
     fca:	0000                	.insn	2, 0x
     fcc:	05e0                	.insn	2, 0x05e0
     fce:	0000                	.insn	2, 0x
     fd0:	3002                	.insn	2, 0x3002
     fd2:	079f 05e0 0000      	.insn	6, 0x05e0079f
     fd8:	05e8                	.insn	2, 0x05e8
     fda:	0000                	.insn	2, 0x
     fdc:	5801                	.insn	2, 0x5801
     fde:	00060407          	.insn	4, 0x00060407
     fe2:	0800                	.insn	2, 0x0800
     fe4:	0006                	.insn	2, 0x0006
     fe6:	0300                	.insn	2, 0x0300
     fe8:	0178                	.insn	2, 0x0178
     fea:	079f 0608 0000      	.insn	6, 0x0608079f
     ff0:	0620                	.insn	2, 0x0620
     ff2:	0000                	.insn	2, 0x
     ff4:	5801                	.insn	2, 0x5801
     ff6:	00068007          	.insn	4, 0x00068007
     ffa:	9400                	.insn	2, 0x9400
     ffc:	0006                	.insn	2, 0x0006
     ffe:	0200                	.insn	2, 0x0200
    1000:	9f30                	.insn	2, 0x9f30
    1002:	00070c07          	.insn	4, 0x00070c07
    1006:	1400                	.insn	2, 0x1400
    1008:	02000007          	.insn	4, 0x02000007
    100c:	9f30                	.insn	2, 0x9f30
    100e:	0700                	.insn	2, 0x0700
    1010:	05e0                	.insn	2, 0x05e0
    1012:	0000                	.insn	2, 0x
    1014:	05e8                	.insn	2, 0x05e8
    1016:	0000                	.insn	2, 0x
    1018:	9f507c03          	.insn	4, 0x9f507c03
    101c:	0005f007          	.insn	4, 0x0005f007
    1020:	f800                	.insn	2, 0xf800
    1022:	0005                	.insn	2, 0x0005
    1024:	0100                	.insn	2, 0x0100
    1026:	0756                	.insn	2, 0x0756
    1028:	05f8                	.insn	2, 0x05f8
    102a:	0000                	.insn	2, 0x
    102c:	0620                	.insn	2, 0x0620
    102e:	0000                	.insn	2, 0x
    1030:	9f507c03          	.insn	4, 0x9f507c03
    1034:	0700                	.insn	2, 0x0700
    1036:	0618                	.insn	2, 0x0618
    1038:	0000                	.insn	2, 0x
    103a:	0620                	.insn	2, 0x0620
    103c:	0000                	.insn	2, 0x
    103e:	6c01                	.insn	2, 0x6c01
    1040:	00068007          	.insn	4, 0x00068007
    1044:	8c00                	.insn	2, 0x8c00
    1046:	0006                	.insn	2, 0x0006
    1048:	0600                	.insn	2, 0x0600
    104a:	008c                	.insn	2, 0x008c
    104c:	ef09                	.insn	2, 0xef09
    104e:	9f1a                	.insn	2, 0x9f1a
    1050:	00068c07          	.insn	4, 0x00068c07
    1054:	9400                	.insn	2, 0x9400
    1056:	0006                	.insn	2, 0x0006
    1058:	0600                	.insn	2, 0x0600
    105a:	007d                	.insn	2, 0x007d
    105c:	ef09                	.insn	2, 0xef09
    105e:	9f1a                	.insn	2, 0x9f1a
    1060:	0700                	.insn	2, 0x0700
    1062:	0618                	.insn	2, 0x0618
    1064:	0000                	.insn	2, 0x
    1066:	0620                	.insn	2, 0x0620
    1068:	0000                	.insn	2, 0x
    106a:	9102                	.insn	2, 0x9102
    106c:	0700                	.insn	2, 0x0700
    106e:	0620                	.insn	2, 0x0620
    1070:	0000                	.insn	2, 0x
    1072:	064c                	.insn	2, 0x064c
    1074:	0000                	.insn	2, 0x
    1076:	6501                	.insn	2, 0x6501
    1078:	00068007          	.insn	4, 0x00068007
    107c:	9800                	.insn	2, 0x9800
    107e:	0006                	.insn	2, 0x0006
    1080:	0100                	.insn	2, 0x0100
    1082:	0765                	.insn	2, 0x0765
    1084:	0698                	.insn	2, 0x0698
    1086:	0000                	.insn	2, 0x
    1088:	06a8                	.insn	2, 0x06a8
    108a:	0000                	.insn	2, 0x
    108c:	3002                	.insn	2, 0x3002
    108e:	079f 06b8 0000      	.insn	6, 0x06b8079f
    1094:	0700                	.insn	2, 0x0700
    1096:	0000                	.insn	2, 0x
    1098:	6501                	.insn	2, 0x6501
    109a:	00070407          	.insn	4, 0x00070407
    109e:	0c00                	.insn	2, 0x0c00
    10a0:	01000007          	.insn	4, 0x01000007
    10a4:	0765                	.insn	2, 0x0765
    10a6:	0714                	.insn	2, 0x0714
    10a8:	0000                	.insn	2, 0x
    10aa:	076c                	.insn	2, 0x076c
    10ac:	0000                	.insn	2, 0x
    10ae:	6501                	.insn	2, 0x6501
    10b0:	00081807          	.insn	4, 0x00081807
    10b4:	6c00                	.insn	2, 0x6c00
    10b6:	0008                	.insn	2, 0x0008
    10b8:	0100                	.insn	2, 0x0100
    10ba:	0765                	.insn	2, 0x0765
    10bc:	08b4                	.insn	2, 0x08b4
    10be:	0000                	.insn	2, 0x
    10c0:	0970                	.insn	2, 0x0970
    10c2:	0000                	.insn	2, 0x
    10c4:	6501                	.insn	2, 0x6501
    10c6:	00099007          	.insn	4, 0x00099007
    10ca:	c800                	.insn	2, 0xc800
    10cc:	0009                	.insn	2, 0x0009
    10ce:	0100                	.insn	2, 0x0100
    10d0:	0765                	.insn	2, 0x0765
    10d2:	09e0                	.insn	2, 0x09e0
    10d4:	0000                	.insn	2, 0x
    10d6:	0a40                	.insn	2, 0x0a40
    10d8:	0000                	.insn	2, 0x
    10da:	6501                	.insn	2, 0x6501
    10dc:	000a4007          	.insn	4, 0x000a4007
    10e0:	4800                	.insn	2, 0x4800
    10e2:	000a                	.insn	2, 0x000a
    10e4:	0200                	.insn	2, 0x0200
    10e6:	9f30                	.insn	2, 0x9f30
    10e8:	000a4807          	.insn	4, 0x000a4807
    10ec:	8000                	.insn	2, 0x8000
    10ee:	000a                	.insn	2, 0x000a
    10f0:	0100                	.insn	2, 0x0100
    10f2:	0065                	.insn	2, 0x0065
    10f4:	00061807          	.insn	4, 0x00061807
    10f8:	0c00                	.insn	2, 0x0c00
    10fa:	01000007          	.insn	4, 0x01000007
    10fe:	0761                	.insn	2, 0x0761
    1100:	0714                	.insn	2, 0x0714
    1102:	0000                	.insn	2, 0x
    1104:	0774                	.insn	2, 0x0774
    1106:	0000                	.insn	2, 0x
    1108:	6101                	.insn	2, 0x6101
    110a:	00077407          	.insn	4, 0x00077407
    110e:	1800                	.insn	2, 0x1800
    1110:	0008                	.insn	2, 0x0008
    1112:	0400                	.insn	2, 0x0400
    1114:	9f6101a3          	sb	s6,-1565(sp)
    1118:	00081807          	.insn	4, 0x00081807
    111c:	6c00                	.insn	2, 0x6c00
    111e:	0008                	.insn	2, 0x0008
    1120:	0100                	.insn	2, 0x0100
    1122:	0761                	.insn	2, 0x0761
    1124:	086c                	.insn	2, 0x086c
    1126:	0000                	.insn	2, 0x
    1128:	089c                	.insn	2, 0x089c
    112a:	0000                	.insn	2, 0x
    112c:	a304                	.insn	2, 0xa304
    112e:	6101                	.insn	2, 0x6101
    1130:	079f 089c 0000      	.insn	6, 0x089c079f
    1136:	0a80                	.insn	2, 0x0a80
    1138:	0000                	.insn	2, 0x
    113a:	6101                	.insn	2, 0x6101
    113c:	0700                	.insn	2, 0x0700
    113e:	0618                	.insn	2, 0x0618
    1140:	0000                	.insn	2, 0x
    1142:	070c                	.insn	2, 0x070c
    1144:	0000                	.insn	2, 0x
    1146:	6001                	.insn	2, 0x6001
    1148:	00071407          	.insn	4, 0x00071407
    114c:	7400                	.insn	2, 0x7400
    114e:	01000007          	.insn	4, 0x01000007
    1152:	0760                	.insn	2, 0x0760
    1154:	0774                	.insn	2, 0x0774
    1156:	0000                	.insn	2, 0x
    1158:	0818                	.insn	2, 0x0818
    115a:	0000                	.insn	2, 0x
    115c:	a304                	.insn	2, 0xa304
    115e:	6001                	.insn	2, 0x6001
    1160:	079f 0818 0000      	.insn	6, 0x0818079f
    1166:	086c                	.insn	2, 0x086c
    1168:	0000                	.insn	2, 0x
    116a:	6001                	.insn	2, 0x6001
    116c:	00086c07          	.insn	4, 0x00086c07
    1170:	9c00                	.insn	2, 0x9c00
    1172:	0008                	.insn	2, 0x0008
    1174:	0400                	.insn	2, 0x0400
    1176:	9f6001a3          	sb	s6,-1565(zero) # fffff9e3 <_peripheral_PLIC_end+0xf7fff9e3>
    117a:	00089c07          	.insn	4, 0x00089c07
    117e:	8000                	.insn	2, 0x8000
    1180:	000a                	.insn	2, 0x000a
    1182:	0100                	.insn	2, 0x0100
    1184:	0060                	.insn	2, 0x0060
    1186:	00061807          	.insn	4, 0x00061807
    118a:	5800                	.insn	2, 0x5800
    118c:	0006                	.insn	2, 0x0006
    118e:	0100                	.insn	2, 0x0100
    1190:	075f 0658 0000      	.insn	6, 0x0658075f
    1196:	0680                	.insn	2, 0x0680
    1198:	0000                	.insn	2, 0x
    119a:	a304                	.insn	2, 0xa304
    119c:	5f01                	.insn	2, 0x5f01
    119e:	079f 0680 0000      	.insn	6, 0x0680079f
    11a4:	070c                	.insn	2, 0x070c
    11a6:	0000                	.insn	2, 0x
    11a8:	5f01                	.insn	2, 0x5f01
    11aa:	00071407          	.insn	4, 0x00071407
    11ae:	6c00                	.insn	2, 0x6c00
    11b0:	01000007          	.insn	4, 0x01000007
    11b4:	075f 076c 0000      	.insn	6, 0x076c075f
    11ba:	0818                	.insn	2, 0x0818
    11bc:	0000                	.insn	2, 0x
    11be:	a304                	.insn	2, 0xa304
    11c0:	5f01                	.insn	2, 0x5f01
    11c2:	079f 0818 0000      	.insn	6, 0x0818079f
    11c8:	086c                	.insn	2, 0x086c
    11ca:	0000                	.insn	2, 0x
    11cc:	5f01                	.insn	2, 0x5f01
    11ce:	00086c07          	.insn	4, 0x00086c07
    11d2:	9c00                	.insn	2, 0x9c00
    11d4:	0008                	.insn	2, 0x0008
    11d6:	0400                	.insn	2, 0x0400
    11d8:	9f5f01a3          	sb	s5,-1565(t5)
    11dc:	00089c07          	.insn	4, 0x00089c07
    11e0:	a000                	.insn	2, 0xa000
    11e2:	0008                	.insn	2, 0x0008
    11e4:	0100                	.insn	2, 0x0100
    11e6:	075f 08a0 0000      	.insn	6, 0x08a0075f
    11ec:	08b4                	.insn	2, 0x08b4
    11ee:	0000                	.insn	2, 0x
    11f0:	a304                	.insn	2, 0xa304
    11f2:	5f01                	.insn	2, 0x5f01
    11f4:	079f 08b4 0000      	.insn	6, 0x08b4079f
    11fa:	0970                	.insn	2, 0x0970
    11fc:	0000                	.insn	2, 0x
    11fe:	5f01                	.insn	2, 0x5f01
    1200:	00097007          	.insn	4, 0x00097007
    1204:	9000                	.insn	2, 0x9000
    1206:	0009                	.insn	2, 0x0009
    1208:	0400                	.insn	2, 0x0400
    120a:	9f5f01a3          	sb	s5,-1565(t5)
    120e:	00099007          	.insn	4, 0x00099007
    1212:	c800                	.insn	2, 0xc800
    1214:	0009                	.insn	2, 0x0009
    1216:	0100                	.insn	2, 0x0100
    1218:	075f 09c8 0000      	.insn	6, 0x09c8075f
    121e:	09e0                	.insn	2, 0x09e0
    1220:	0000                	.insn	2, 0x
    1222:	a304                	.insn	2, 0xa304
    1224:	5f01                	.insn	2, 0x5f01
    1226:	079f 09e0 0000      	.insn	6, 0x09e0079f
    122c:	0a80                	.insn	2, 0x0a80
    122e:	0000                	.insn	2, 0x
    1230:	5f01                	.insn	2, 0x5f01
    1232:	0700                	.insn	2, 0x0700
    1234:	0618                	.insn	2, 0x0618
    1236:	0000                	.insn	2, 0x
    1238:	0620                	.insn	2, 0x0620
    123a:	0000                	.insn	2, 0x
    123c:	5801                	.insn	2, 0x5801
    123e:	00062c07          	.insn	4, 0x00062c07
    1242:	3c00                	.insn	2, 0x3c00
    1244:	0006                	.insn	2, 0x0006
    1246:	0200                	.insn	2, 0x0200
    1248:	9f30                	.insn	2, 0x9f30
    124a:	00063c07          	.insn	4, 0x00063c07
    124e:	4c00                	.insn	2, 0x4c00
    1250:	0006                	.insn	2, 0x0006
    1252:	0200                	.insn	2, 0x0200
    1254:	9f31                	.insn	2, 0x9f31
    1256:	00066807          	.insn	4, 0x00066807
    125a:	8000                	.insn	2, 0x8000
    125c:	0006                	.insn	2, 0x0006
    125e:	0100                	.insn	2, 0x0100
    1260:	0758                	.insn	2, 0x0758
    1262:	0680                	.insn	2, 0x0680
    1264:	0000                	.insn	2, 0x
    1266:	0694                	.insn	2, 0x0694
    1268:	0000                	.insn	2, 0x
    126a:	3002                	.insn	2, 0x3002
    126c:	079f 06b8 0000      	.insn	6, 0x06b8079f
    1272:	06bc                	.insn	2, 0x06bc
    1274:	0000                	.insn	2, 0x
    1276:	5801                	.insn	2, 0x5801
    1278:	0006bc07          	.insn	4, 0x0006bc07
    127c:	c000                	.insn	2, 0xc000
    127e:	0006                	.insn	2, 0x0006
    1280:	0300                	.insn	2, 0x0300
    1282:	0178                	.insn	2, 0x0178
    1284:	079f 06c0 0000      	.insn	6, 0x06c0079f
    128a:	06d0                	.insn	2, 0x06d0
    128c:	0000                	.insn	2, 0x
    128e:	5801                	.insn	2, 0x5801
    1290:	0006ec07          	.insn	4, 0x0006ec07
    1294:	f000                	.insn	2, 0xf000
    1296:	0006                	.insn	2, 0x0006
    1298:	0100                	.insn	2, 0x0100
    129a:	0758                	.insn	2, 0x0758
    129c:	06f0                	.insn	2, 0x06f0
    129e:	0000                	.insn	2, 0x
    12a0:	06f4                	.insn	2, 0x06f4
    12a2:	0000                	.insn	2, 0x
    12a4:	9f017803          	.insn	4, 0x9f017803
    12a8:	0006f407          	.insn	4, 0x0006f407
    12ac:	0000                	.insn	2, 0x
    12ae:	01000007          	.insn	4, 0x01000007
    12b2:	0758                	.insn	2, 0x0758
    12b4:	0714                	.insn	2, 0x0714
    12b6:	0000                	.insn	2, 0x
    12b8:	0738                	.insn	2, 0x0738
    12ba:	0000                	.insn	2, 0x
    12bc:	9f200803          	lb	a6,-1550(zero) # fffff9f2 <_peripheral_PLIC_end+0xf7fff9f2>
    12c0:	00074807          	.insn	4, 0x00074807
    12c4:	5000                	.insn	2, 0x5000
    12c6:	03000007          	.insn	4, 0x03000007
    12ca:	017d                	.insn	2, 0x017d
    12cc:	079f 0750 0000      	.insn	6, 0x0750079f
    12d2:	0754                	.insn	2, 0x0754
    12d4:	0000                	.insn	2, 0x
    12d6:	9f617e03          	.insn	4, 0x9f617e03
    12da:	00083807          	.insn	4, 0x00083807
    12de:	3c00                	.insn	2, 0x3c00
    12e0:	0008                	.insn	2, 0x0008
    12e2:	0300                	.insn	2, 0x0300
    12e4:	2008                	.insn	2, 0x2008
    12e6:	079f 0864 0000      	.insn	6, 0x0864079f
    12ec:	0868                	.insn	2, 0x0868
    12ee:	0000                	.insn	2, 0x
    12f0:	9f200803          	lb	a6,-1550(zero) # fffff9f2 <_peripheral_PLIC_end+0xf7fff9f2>
    12f4:	0008a807          	.insn	4, 0x0008a807
    12f8:	b400                	.insn	2, 0xb400
    12fa:	0008                	.insn	2, 0x0008
    12fc:	0100                	.insn	2, 0x0100
    12fe:	0758                	.insn	2, 0x0758
    1300:	08d8                	.insn	2, 0x08d8
    1302:	0000                	.insn	2, 0x
    1304:	08dc                	.insn	2, 0x08dc
    1306:	0000                	.insn	2, 0x
    1308:	5d01                	.insn	2, 0x5d01
    130a:	0008dc07          	.insn	4, 0x0008dc07
    130e:	f000                	.insn	2, 0xf000
    1310:	0008                	.insn	2, 0x0008
    1312:	0200                	.insn	2, 0x0200
    1314:	9f30                	.insn	2, 0x9f30
    1316:	0008f407          	.insn	4, 0x0008f407
    131a:	0800                	.insn	2, 0x0800
    131c:	0009                	.insn	2, 0x0009
    131e:	0200                	.insn	2, 0x0200
    1320:	9f32                	.insn	2, 0x9f32
    1322:	00091407          	.insn	4, 0x00091407
    1326:	1800                	.insn	2, 0x1800
    1328:	0009                	.insn	2, 0x0009
    132a:	0300                	.insn	2, 0x0300
    132c:	0178                	.insn	2, 0x0178
    132e:	079f 0918 0000      	.insn	6, 0x0918079f
    1334:	091c                	.insn	2, 0x091c
    1336:	0000                	.insn	2, 0x
    1338:	9f017d03          	.insn	4, 0x9f017d03
    133c:	00091c07          	.insn	4, 0x00091c07
    1340:	2000                	.insn	2, 0x2000
    1342:	0009                	.insn	2, 0x0009
    1344:	0300                	.insn	2, 0x0300
    1346:	617d                	.insn	2, 0x617d
    1348:	079f 0934 0000      	.insn	6, 0x0934079f
    134e:	0948                	.insn	2, 0x0948
    1350:	0000                	.insn	2, 0x
    1352:	9f200803          	lb	a6,-1550(zero) # fffff9f2 <_peripheral_PLIC_end+0xf7fff9f2>
    1356:	00097807          	.insn	4, 0x00097807
    135a:	9000                	.insn	2, 0x9000
    135c:	0009                	.insn	2, 0x0009
    135e:	0100                	.insn	2, 0x0100
    1360:	075e                	.insn	2, 0x075e
    1362:	0990                	.insn	2, 0x0990
    1364:	0000                	.insn	2, 0x
    1366:	099c                	.insn	2, 0x099c
    1368:	0000                	.insn	2, 0x
    136a:	9f200803          	lb	a6,-1550(zero) # fffff9f2 <_peripheral_PLIC_end+0xf7fff9f2>
    136e:	0009c007          	.insn	4, 0x0009c007
    1372:	c400                	.insn	2, 0xc400
    1374:	0009                	.insn	2, 0x0009
    1376:	0300                	.insn	2, 0x0300
    1378:	0278                	.insn	2, 0x0278
    137a:	079f 09c4 0000      	.insn	6, 0x09c4079f
    1380:	09c8                	.insn	2, 0x09c8
    1382:	0000                	.insn	2, 0x
    1384:	9f017803          	.insn	4, 0x9f017803
    1388:	0009d407          	.insn	4, 0x0009d407
    138c:	e000                	.insn	2, 0xe000
    138e:	0009                	.insn	2, 0x0009
    1390:	0100                	.insn	2, 0x0100
    1392:	0758                	.insn	2, 0x0758
    1394:	09e0                	.insn	2, 0x09e0
    1396:	0000                	.insn	2, 0x
    1398:	09f0                	.insn	2, 0x09f0
    139a:	0000                	.insn	2, 0x
    139c:	9f200803          	lb	a6,-1550(zero) # fffff9f2 <_peripheral_PLIC_end+0xf7fff9f2>
    13a0:	0009f807          	.insn	4, 0x0009f807
    13a4:	fc00                	.insn	2, 0xfc00
    13a6:	0009                	.insn	2, 0x0009
    13a8:	0100                	.insn	2, 0x0100
    13aa:	0758                	.insn	2, 0x0758
    13ac:	09fc                	.insn	2, 0x09fc
    13ae:	0000                	.insn	2, 0x
    13b0:	0a04                	.insn	2, 0x0a04
    13b2:	0000                	.insn	2, 0x
    13b4:	9f017803          	.insn	4, 0x9f017803
    13b8:	000a0407          	.insn	4, 0x000a0407
    13bc:	0800                	.insn	2, 0x0800
    13be:	000a                	.insn	2, 0x000a
    13c0:	0300                	.insn	2, 0x0300
    13c2:	617e                	.insn	2, 0x617e
    13c4:	079f 0a0c 0000      	.insn	6, 0x0a0c079f
    13ca:	0a10                	.insn	2, 0x0a10
    13cc:	0000                	.insn	2, 0x
    13ce:	5d01                	.insn	2, 0x5d01
    13d0:	000a1c07          	.insn	4, 0x000a1c07
    13d4:	2400                	.insn	2, 0x2400
    13d6:	000a                	.insn	2, 0x000a
    13d8:	0200                	.insn	2, 0x0200
    13da:	9f30                	.insn	2, 0x9f30
    13dc:	000a2c07          	.insn	4, 0x000a2c07
    13e0:	3000                	.insn	2, 0x3000
    13e2:	000a                	.insn	2, 0x000a
    13e4:	0200                	.insn	2, 0x0200
    13e6:	9f32                	.insn	2, 0x9f32
    13e8:	000a3007          	.insn	4, 0x000a3007
    13ec:	4000                	.insn	2, 0x4000
    13ee:	000a                	.insn	2, 0x000a
    13f0:	0200                	.insn	2, 0x0200
    13f2:	9f30                	.insn	2, 0x9f30
    13f4:	000a4007          	.insn	4, 0x000a4007
    13f8:	4800                	.insn	2, 0x4800
    13fa:	000a                	.insn	2, 0x000a
    13fc:	0300                	.insn	2, 0x0300
    13fe:	2008                	.insn	2, 0x2008
    1400:	079f 0a60 0000      	.insn	6, 0x0a60079f
    1406:	0a68                	.insn	2, 0x0a68
    1408:	0000                	.insn	2, 0x
    140a:	5d01                	.insn	2, 0x5d01
    140c:	000a6807          	.insn	4, 0x000a6807
    1410:	7800                	.insn	2, 0x7800
    1412:	000a                	.insn	2, 0x000a
    1414:	0300                	.insn	2, 0x0300
    1416:	2008                	.insn	2, 0x2008
    1418:	009f 1807 0006      	.insn	6, 0x00061807009f
    141e:	0c00                	.insn	2, 0x0c00
    1420:	01000007          	.insn	4, 0x01000007
    1424:	0752                	.insn	2, 0x0752
    1426:	0714                	.insn	2, 0x0714
    1428:	0000                	.insn	2, 0x
    142a:	0814                	.insn	2, 0x0814
    142c:	0000                	.insn	2, 0x
    142e:	5201                	.insn	2, 0x5201
    1430:	00081407          	.insn	4, 0x00081407
    1434:	1800                	.insn	2, 0x1800
    1436:	0008                	.insn	2, 0x0008
    1438:	0400                	.insn	2, 0x0400
    143a:	b072                	.insn	2, 0xb072
    143c:	18079f7f 80000008 	.insn	12, 0x0100000a8000000818079f7f
    1444:	0100000a 
    1448:	0052                	.insn	2, 0x0052
    144a:	00061807          	.insn	4, 0x00061807
    144e:	0c00                	.insn	2, 0x0c00
    1450:	01000007          	.insn	4, 0x01000007
    1454:	07140763          	beq	s0,a7,14c2 <uart_get_char+0x1a>
    1458:	0000                	.insn	2, 0x
    145a:	07f4                	.insn	2, 0x07f4
    145c:	0000                	.insn	2, 0x
    145e:	6301                	.insn	2, 0x6301
    1460:	0007f407          	.insn	4, 0x0007f407
    1464:	1800                	.insn	2, 0x1800
    1466:	0008                	.insn	2, 0x0008
    1468:	0400                	.insn	2, 0x0400
    146a:	9f5d01a3          	sb	s5,-1565(s10)
    146e:	00081807          	.insn	4, 0x00081807
    1472:	8000                	.insn	2, 0x8000
    1474:	000a                	.insn	2, 0x000a
    1476:	0100                	.insn	2, 0x0100
    1478:	18070063          	beqz	a4,15f8 <global_uart+0x94>
    147c:	0006                	.insn	2, 0x0006
    147e:	8000                	.insn	2, 0x8000
    1480:	0006                	.insn	2, 0x0006
    1482:	0100                	.insn	2, 0x0100
    1484:	0764                	.insn	2, 0x0764
    1486:	0680                	.insn	2, 0x0680
    1488:	0000                	.insn	2, 0x
    148a:	0694                	.insn	2, 0x0694
    148c:	0000                	.insn	2, 0x
    148e:	5c01                	.insn	2, 0x5c01
    1490:	00069407          	.insn	4, 0x00069407
    1494:	0c00                	.insn	2, 0x0c00
    1496:	01000007          	.insn	4, 0x01000007
    149a:	0764                	.insn	2, 0x0764
    149c:	0714                	.insn	2, 0x0714
    149e:	0000                	.insn	2, 0x
    14a0:	07bc                	.insn	2, 0x07bc
    14a2:	0000                	.insn	2, 0x
    14a4:	6401                	.insn	2, 0x6401
    14a6:	0007bc07          	.insn	4, 0x0007bc07
    14aa:	1800                	.insn	2, 0x1800
    14ac:	0008                	.insn	2, 0x0008
    14ae:	0400                	.insn	2, 0x0400
    14b0:	9f5c01a3          	sb	s5,-1565(s8)
    14b4:	00081807          	.insn	4, 0x00081807
    14b8:	8000                	.insn	2, 0x8000
    14ba:	000a                	.insn	2, 0x000a
    14bc:	0100                	.insn	2, 0x0100
    14be:	0064                	.insn	2, 0x0064
    14c0:	00061807          	.insn	4, 0x00061807
    14c4:	8000                	.insn	2, 0x8000
    14c6:	0006                	.insn	2, 0x0006
    14c8:	0100                	.insn	2, 0x0100
    14ca:	0762                	.insn	2, 0x0762
    14cc:	0680                	.insn	2, 0x0680
    14ce:	0000                	.insn	2, 0x
    14d0:	0694                	.insn	2, 0x0694
    14d2:	0000                	.insn	2, 0x
    14d4:	5b01                	.insn	2, 0x5b01
    14d6:	00069407          	.insn	4, 0x00069407
    14da:	0c00                	.insn	2, 0x0c00
    14dc:	01000007          	.insn	4, 0x01000007
    14e0:	0762                	.insn	2, 0x0762
    14e2:	0714                	.insn	2, 0x0714
    14e4:	0000                	.insn	2, 0x
    14e6:	07f0                	.insn	2, 0x07f0
    14e8:	0000                	.insn	2, 0x
    14ea:	6201                	.insn	2, 0x6201
    14ec:	0007f007          	.insn	4, 0x0007f007
    14f0:	1800                	.insn	2, 0x1800
    14f2:	0008                	.insn	2, 0x0008
    14f4:	0400                	.insn	2, 0x0400
    14f6:	9f5b01a3          	sb	s5,-1565(s6)
    14fa:	00081807          	.insn	4, 0x00081807
    14fe:	8000                	.insn	2, 0x8000
    1500:	000a                	.insn	2, 0x000a
    1502:	0100                	.insn	2, 0x0100
    1504:	0062                	.insn	2, 0x0062
    1506:	00061807          	.insn	4, 0x00061807
    150a:	0c00                	.insn	2, 0x0c00
    150c:	01000007          	.insn	4, 0x01000007
    1510:	0759                	.insn	2, 0x0759
    1512:	0714                	.insn	2, 0x0714
    1514:	0000                	.insn	2, 0x
    1516:	07ec                	.insn	2, 0x07ec
    1518:	0000                	.insn	2, 0x
    151a:	5901                	.insn	2, 0x5901
    151c:	0007ec07          	.insn	4, 0x0007ec07
    1520:	1800                	.insn	2, 0x1800
    1522:	0008                	.insn	2, 0x0008
    1524:	0400                	.insn	2, 0x0400
    1526:	9f5a01a3          	sb	s5,-1565(s4)
    152a:	00081807          	.insn	4, 0x00081807
    152e:	8000                	.insn	2, 0x8000
    1530:	000a                	.insn	2, 0x000a
    1532:	0100                	.insn	2, 0x0100
    1534:	0059                	.insn	2, 0x0059
    1536:	00076007          	.insn	4, 0x00076007
    153a:	6400                	.insn	2, 0x6400
    153c:	01000007          	.insn	4, 0x01000007
    1540:	076c                	.insn	2, 0x076c
    1542:	0864                	.insn	2, 0x0864
    1544:	0000                	.insn	2, 0x
    1546:	0868                	.insn	2, 0x0868
    1548:	0000                	.insn	2, 0x
    154a:	6c01                	.insn	2, 0x6c01
    154c:	0700                	.insn	2, 0x0700
    154e:	0670                	.insn	2, 0x0670
    1550:	0000                	.insn	2, 0x
    1552:	0680                	.insn	2, 0x0680
    1554:	0000                	.insn	2, 0x
    1556:	6501                	.insn	2, 0x6501
    1558:	00076007          	.insn	4, 0x00076007
    155c:	fc00                	.insn	2, 0xfc00
    155e:	01000007          	.insn	4, 0x01000007
    1562:	0765                	.insn	2, 0x0765
    1564:	0864                	.insn	2, 0x0864
    1566:	0000                	.insn	2, 0x
    1568:	089c                	.insn	2, 0x089c
    156a:	0000                	.insn	2, 0x
    156c:	6501                	.insn	2, 0x6501
    156e:	00097807          	.insn	4, 0x00097807
    1572:	9000                	.insn	2, 0x9000
    1574:	0009                	.insn	2, 0x0009
    1576:	0100                	.insn	2, 0x0100
    1578:	0065                	.insn	2, 0x0065
    157a:	00067007          	.insn	4, 0x00067007
    157e:	8000                	.insn	2, 0x8000
    1580:	0006                	.insn	2, 0x0006
    1582:	0100                	.insn	2, 0x0100
    1584:	0758                	.insn	2, 0x0758
    1586:	0864                	.insn	2, 0x0864
    1588:	0000                	.insn	2, 0x
    158a:	0868                	.insn	2, 0x0868
    158c:	0000                	.insn	2, 0x
    158e:	9f200803          	lb	a6,-1550(zero) # fffff9f2 <_peripheral_PLIC_end+0xf7fff9f2>
    1592:	00097807          	.insn	4, 0x00097807
    1596:	8800                	.insn	2, 0x8800
    1598:	0009                	.insn	2, 0x0009
    159a:	0100                	.insn	2, 0x0100
    159c:	005e                	.insn	2, 0x005e
    159e:	00067007          	.insn	4, 0x00067007
    15a2:	8000                	.insn	2, 0x8000
    15a4:	0006                	.insn	2, 0x0006
    15a6:	0100                	.insn	2, 0x0100
    15a8:	0752                	.insn	2, 0x0752
    15aa:	0760                	.insn	2, 0x0760
    15ac:	0000                	.insn	2, 0x
    15ae:	0814                	.insn	2, 0x0814
    15b0:	0000                	.insn	2, 0x
    15b2:	5201                	.insn	2, 0x5201
    15b4:	00081407          	.insn	4, 0x00081407
    15b8:	1800                	.insn	2, 0x1800
    15ba:	0008                	.insn	2, 0x0008
    15bc:	0400                	.insn	2, 0x0400
    15be:	b072                	.insn	2, 0xb072
    15c0:	64079f7f 9c000008 	.insn	12, 0x010000089c00000864079f7f
    15c8:	01000008 
    15cc:	0752                	.insn	2, 0x0752
    15ce:	0978                	.insn	2, 0x0978
    15d0:	0000                	.insn	2, 0x
    15d2:	0990                	.insn	2, 0x0990
    15d4:	0000                	.insn	2, 0x
    15d6:	5201                	.insn	2, 0x5201
    15d8:	0700                	.insn	2, 0x0700
    15da:	0670                	.insn	2, 0x0670
    15dc:	0000                	.insn	2, 0x
    15de:	0680                	.insn	2, 0x0680
    15e0:	0000                	.insn	2, 0x
    15e2:	6301                	.insn	2, 0x6301
    15e4:	00076007          	.insn	4, 0x00076007
    15e8:	f400                	.insn	2, 0xf400
    15ea:	01000007          	.insn	4, 0x01000007
    15ee:	07f40763          	beq	s0,t6,165c <global_uart+0xf8>
    15f2:	0000                	.insn	2, 0x
    15f4:	0818                	.insn	2, 0x0818
    15f6:	0000                	.insn	2, 0x
    15f8:	a304                	.insn	2, 0xa304
    15fa:	5d01                	.insn	2, 0x5d01
    15fc:	079f 0864 0000      	.insn	6, 0x0864079f
    1602:	089c                	.insn	2, 0x089c
    1604:	0000                	.insn	2, 0x
    1606:	6301                	.insn	2, 0x6301
    1608:	00097807          	.insn	4, 0x00097807
    160c:	9000                	.insn	2, 0x9000
    160e:	0009                	.insn	2, 0x0009
    1610:	0100                	.insn	2, 0x0100
    1612:	70070063          	beqz	a4,1d12 <global_uart+0x7ae>
    1616:	0006                	.insn	2, 0x0006
    1618:	8000                	.insn	2, 0x8000
    161a:	0006                	.insn	2, 0x0006
    161c:	0100                	.insn	2, 0x0100
    161e:	0764                	.insn	2, 0x0764
    1620:	0760                	.insn	2, 0x0760
    1622:	0000                	.insn	2, 0x
    1624:	0774                	.insn	2, 0x0774
    1626:	0000                	.insn	2, 0x
    1628:	6401                	.insn	2, 0x6401
    162a:	00077407          	.insn	4, 0x00077407
    162e:	b000                	.insn	2, 0xb000
    1630:	01000007          	.insn	4, 0x01000007
    1634:	0766                	.insn	2, 0x0766
    1636:	07b0                	.insn	2, 0x07b0
    1638:	0000                	.insn	2, 0x
    163a:	07b4                	.insn	2, 0x07b4
    163c:	0000                	.insn	2, 0x
    163e:	6701                	.insn	2, 0x6701
    1640:	0007b807          	.insn	4, 0x0007b807
    1644:	e000                	.insn	2, 0xe000
    1646:	01000007          	.insn	4, 0x01000007
    164a:	08640767          	jalr	a4,134(s0) # 1086 <_vsnprintf+0x5e6>
    164e:	0000                	.insn	2, 0x
    1650:	086c                	.insn	2, 0x086c
    1652:	0000                	.insn	2, 0x
    1654:	6401                	.insn	2, 0x6401
    1656:	00097807          	.insn	4, 0x00097807
    165a:	8800                	.insn	2, 0x8800
    165c:	0009                	.insn	2, 0x0009
    165e:	0100                	.insn	2, 0x0100
    1660:	0764                	.insn	2, 0x0764
    1662:	0988                	.insn	2, 0x0988
    1664:	0000                	.insn	2, 0x
    1666:	098c                	.insn	2, 0x098c
    1668:	0000                	.insn	2, 0x
    166a:	6701                	.insn	2, 0x6701
    166c:	00098c07          	.insn	4, 0x00098c07
    1670:	9000                	.insn	2, 0x9000
    1672:	0009                	.insn	2, 0x0009
    1674:	0100                	.insn	2, 0x0100
    1676:	0064                	.insn	2, 0x0064
    1678:	00067007          	.insn	4, 0x00067007
    167c:	8000                	.insn	2, 0x8000
    167e:	0006                	.insn	2, 0x0006
    1680:	0100                	.insn	2, 0x0100
    1682:	0762                	.insn	2, 0x0762
    1684:	0760                	.insn	2, 0x0760
    1686:	0000                	.insn	2, 0x
    1688:	07f0                	.insn	2, 0x07f0
    168a:	0000                	.insn	2, 0x
    168c:	6201                	.insn	2, 0x6201
    168e:	0007f007          	.insn	4, 0x0007f007
    1692:	1800                	.insn	2, 0x1800
    1694:	0008                	.insn	2, 0x0008
    1696:	0400                	.insn	2, 0x0400
    1698:	9f5b01a3          	sb	s5,-1565(s6)
    169c:	00086407          	.insn	4, 0x00086407
    16a0:	9c00                	.insn	2, 0x9c00
    16a2:	0008                	.insn	2, 0x0008
    16a4:	0100                	.insn	2, 0x0100
    16a6:	0762                	.insn	2, 0x0762
    16a8:	0978                	.insn	2, 0x0978
    16aa:	0000                	.insn	2, 0x
    16ac:	0990                	.insn	2, 0x0990
    16ae:	0000                	.insn	2, 0x
    16b0:	6201                	.insn	2, 0x6201
    16b2:	0700                	.insn	2, 0x0700
    16b4:	0670                	.insn	2, 0x0670
    16b6:	0000                	.insn	2, 0x
    16b8:	0680                	.insn	2, 0x0680
    16ba:	0000                	.insn	2, 0x
    16bc:	5901                	.insn	2, 0x5901
    16be:	00076007          	.insn	4, 0x00076007
    16c2:	ec00                	.insn	2, 0xec00
    16c4:	01000007          	.insn	4, 0x01000007
    16c8:	0759                	.insn	2, 0x0759
    16ca:	07ec                	.insn	2, 0x07ec
    16cc:	0000                	.insn	2, 0x
    16ce:	0818                	.insn	2, 0x0818
    16d0:	0000                	.insn	2, 0x
    16d2:	a304                	.insn	2, 0xa304
    16d4:	5a01                	.insn	2, 0x5a01
    16d6:	079f 0864 0000      	.insn	6, 0x0864079f
    16dc:	089c                	.insn	2, 0x089c
    16de:	0000                	.insn	2, 0x
    16e0:	5901                	.insn	2, 0x5901
    16e2:	00097807          	.insn	4, 0x00097807
    16e6:	9000                	.insn	2, 0x9000
    16e8:	0009                	.insn	2, 0x0009
    16ea:	0100                	.insn	2, 0x0100
    16ec:	0059                	.insn	2, 0x0059
    16ee:	00067007          	.insn	4, 0x00067007
    16f2:	8000                	.insn	2, 0x8000
    16f4:	0006                	.insn	2, 0x0006
    16f6:	0100                	.insn	2, 0x0100
    16f8:	0764                	.insn	2, 0x0764
    16fa:	0760                	.insn	2, 0x0760
    16fc:	0000                	.insn	2, 0x
    16fe:	07bc                	.insn	2, 0x07bc
    1700:	0000                	.insn	2, 0x
    1702:	6401                	.insn	2, 0x6401
    1704:	0007bc07          	.insn	4, 0x0007bc07
    1708:	1800                	.insn	2, 0x1800
    170a:	0008                	.insn	2, 0x0008
    170c:	0400                	.insn	2, 0x0400
    170e:	9f5c01a3          	sb	s5,-1565(s8)
    1712:	00086407          	.insn	4, 0x00086407
    1716:	9c00                	.insn	2, 0x9c00
    1718:	0008                	.insn	2, 0x0008
    171a:	0100                	.insn	2, 0x0100
    171c:	0764                	.insn	2, 0x0764
    171e:	0978                	.insn	2, 0x0978
    1720:	0000                	.insn	2, 0x
    1722:	0990                	.insn	2, 0x0990
    1724:	0000                	.insn	2, 0x
    1726:	6401                	.insn	2, 0x6401
    1728:	0700                	.insn	2, 0x0700
    172a:	0678                	.insn	2, 0x0678
    172c:	0000                	.insn	2, 0x
    172e:	0680                	.insn	2, 0x0680
    1730:	0000                	.insn	2, 0x
    1732:	5801                	.insn	2, 0x5801
    1734:	00076807          	.insn	4, 0x00076807
    1738:	6c00                	.insn	2, 0x6c00
    173a:	03000007          	.insn	4, 0x03000007
    173e:	2008                	.insn	2, 0x2008
    1740:	009f 8007 000a      	.insn	6, 0x000a8007009f
    1746:	8b00                	.insn	2, 0x8b00
    1748:	000a                	.insn	2, 0x000a
    174a:	0100                	.insn	2, 0x0100
    174c:	075a                	.insn	2, 0x075a
    174e:	00000a8b          	.insn	4, 0x0a8b
    1752:	0a8c                	.insn	2, 0x0a8c
    1754:	0000                	.insn	2, 0x
    1756:	a304                	.insn	2, 0xa304
    1758:	5a01                	.insn	2, 0x5a01
    175a:	009f 8007 000a      	.insn	6, 0x000a8007009f
    1760:	8b00                	.insn	2, 0x8b00
    1762:	000a                	.insn	2, 0x000a
    1764:	0100                	.insn	2, 0x0100
    1766:	0a8b075b          	.insn	4, 0x0a8b075b
    176a:	0000                	.insn	2, 0x
    176c:	0a8c                	.insn	2, 0x0a8c
    176e:	0000                	.insn	2, 0x
    1770:	a304                	.insn	2, 0xa304
    1772:	5b01                	.insn	2, 0x5b01
    1774:	009f 8007 000a      	.insn	6, 0x000a8007009f
    177a:	8b00                	.insn	2, 0x8b00
    177c:	000a                	.insn	2, 0x000a
    177e:	0100                	.insn	2, 0x0100
    1780:	075c                	.insn	2, 0x075c
    1782:	00000a8b          	.insn	4, 0x0a8b
    1786:	0a8c                	.insn	2, 0x0a8c
    1788:	0000                	.insn	2, 0x
    178a:	a304                	.insn	2, 0xa304
    178c:	5c01                	.insn	2, 0x5c01
    178e:	009f 8007 000a      	.insn	6, 0x000a8007009f
    1794:	8b00                	.insn	2, 0x8b00
    1796:	000a                	.insn	2, 0x000a
    1798:	0100                	.insn	2, 0x0100
    179a:	075d                	.insn	2, 0x075d
    179c:	00000a8b          	.insn	4, 0x0a8b
    17a0:	0a8c                	.insn	2, 0x0a8c
    17a2:	0000                	.insn	2, 0x
    17a4:	a304                	.insn	2, 0xa304
    17a6:	5d01                	.insn	2, 0x5d01
    17a8:	009f 4407 0005      	.insn	6, 0x00054407009f
    17ae:	4c00                	.insn	2, 0x4c00
    17b0:	0005                	.insn	2, 0x0005
    17b2:	0100                	.insn	2, 0x0100
    17b4:	054c075b          	.insn	4, 0x054c075b
    17b8:	0000                	.insn	2, 0x
    17ba:	0554                	.insn	2, 0x0554
    17bc:	0000                	.insn	2, 0x
    17be:	a304                	.insn	2, 0xa304
    17c0:	5b01                	.insn	2, 0x5b01
    17c2:	009f 8c07 000a      	.insn	6, 0x000a8c07009f
    17c8:	9b00                	.insn	2, 0x9b00
    17ca:	000a                	.insn	2, 0x000a
    17cc:	0100                	.insn	2, 0x0100
    17ce:	075a                	.insn	2, 0x075a
    17d0:	00000a9b          	.insn	4, 0x0a9b
    17d4:	0a9c                	.insn	2, 0x0a9c
    17d6:	0000                	.insn	2, 0x
    17d8:	a304                	.insn	2, 0xa304
    17da:	5a01                	.insn	2, 0x5a01
    17dc:	079f 0a9c 0000      	.insn	6, 0x0a9c079f
    17e2:	0aa0                	.insn	2, 0x0aa0
    17e4:	0000                	.insn	2, 0x
    17e6:	5a01                	.insn	2, 0x5a01
    17e8:	0700                	.insn	2, 0x0700
    17ea:	0a8c                	.insn	2, 0x0a8c
    17ec:	0000                	.insn	2, 0x
    17ee:	0a98                	.insn	2, 0x0a98
    17f0:	0000                	.insn	2, 0x
    17f2:	5b01                	.insn	2, 0x5b01
    17f4:	000a9807          	.insn	4, 0x000a9807
    17f8:	9c00                	.insn	2, 0x9c00
    17fa:	000a                	.insn	2, 0x000a
    17fc:	0400                	.insn	2, 0x0400
    17fe:	9f5b01a3          	sb	s5,-1565(s6)
    1802:	000a9c07          	.insn	4, 0x000a9c07
    1806:	a000                	.insn	2, 0xa000
    1808:	000a                	.insn	2, 0x000a
    180a:	0100                	.insn	2, 0x0100
    180c:	8c07005b          	.insn	4, 0x8c07005b
    1810:	000a                	.insn	2, 0x000a
    1812:	9b00                	.insn	2, 0x9b00
    1814:	000a                	.insn	2, 0x000a
    1816:	0100                	.insn	2, 0x0100
    1818:	075c                	.insn	2, 0x075c
    181a:	00000a9b          	.insn	4, 0x0a9b
    181e:	0a9c                	.insn	2, 0x0a9c
    1820:	0000                	.insn	2, 0x
    1822:	a304                	.insn	2, 0xa304
    1824:	5c01                	.insn	2, 0x5c01
    1826:	079f 0a9c 0000      	.insn	6, 0x0a9c079f
    182c:	0aa0                	.insn	2, 0x0aa0
    182e:	0000                	.insn	2, 0x
    1830:	5c01                	.insn	2, 0x5c01
    1832:	0700                	.insn	2, 0x0700
    1834:	0a8c                	.insn	2, 0x0a8c
    1836:	0000                	.insn	2, 0x
    1838:	00000a9b          	.insn	4, 0x0a9b
    183c:	5d01                	.insn	2, 0x5d01
    183e:	000a9b07          	.insn	4, 0x000a9b07
    1842:	9c00                	.insn	2, 0x9c00
    1844:	000a                	.insn	2, 0x000a
    1846:	0400                	.insn	2, 0x0400
    1848:	9f5d01a3          	sb	s5,-1565(s10)
    184c:	000a9c07          	.insn	4, 0x000a9c07
    1850:	a000                	.insn	2, 0xa000
    1852:	000a                	.insn	2, 0x000a
    1854:	0100                	.insn	2, 0x0100
    1856:	005d                	.insn	2, 0x005d
    1858:	000a9007          	.insn	4, 0x000a9007
    185c:	9b00                	.insn	2, 0x9b00
    185e:	000a                	.insn	2, 0x000a
    1860:	0100                	.insn	2, 0x0100
    1862:	075c                	.insn	2, 0x075c
    1864:	00000a9b          	.insn	4, 0x0a9b
    1868:	0a9c                	.insn	2, 0x0a9c
    186a:	0000                	.insn	2, 0x
    186c:	a304                	.insn	2, 0xa304
    186e:	5c01                	.insn	2, 0x5c01
    1870:	009f 9007 000a      	.insn	6, 0x000a9007009f
    1876:	9b00                	.insn	2, 0x9b00
    1878:	000a                	.insn	2, 0x000a
    187a:	0100                	.insn	2, 0x0100
    187c:	075d                	.insn	2, 0x075d
    187e:	00000a9b          	.insn	4, 0x0a9b
    1882:	0a9c                	.insn	2, 0x0a9c
    1884:	0000                	.insn	2, 0x
    1886:	a304                	.insn	2, 0xa304
    1888:	5d01                	.insn	2, 0x5d01
    188a:	009f 9007 000a      	.insn	6, 0x000a9007009f
    1890:	9800                	.insn	2, 0x9800
    1892:	000a                	.insn	2, 0x000a
    1894:	0100                	.insn	2, 0x0100
    1896:	0a98075b          	.insn	4, 0x0a98075b
    189a:	0000                	.insn	2, 0x
    189c:	0a9c                	.insn	2, 0x0a9c
    189e:	0000                	.insn	2, 0x
    18a0:	a304                	.insn	2, 0xa304
    18a2:	5b01                	.insn	2, 0x5b01
    18a4:	009f 9c07 0012      	.insn	6, 0x00129c07009f
    18aa:	a700                	.insn	2, 0xa700
    18ac:	0012                	.insn	2, 0x0012
    18ae:	0100                	.insn	2, 0x0100
    18b0:	075a                	.insn	2, 0x075a
    18b2:	000012a7          	.insn	4, 0x12a7
    18b6:	12b8                	.insn	2, 0x12b8
    18b8:	0000                	.insn	2, 0x
    18ba:	a304                	.insn	2, 0xa304
    18bc:	5a01                	.insn	2, 0x5a01
    18be:	009f 0022 0000      	.insn	6, 0x0022009f
    18c4:	0005                	.insn	2, 0x0005
    18c6:	0004                	.insn	2, 0x0004
    18c8:	0000                	.insn	2, 0x
    18ca:	0000                	.insn	2, 0x
    18cc:	00144407          	.insn	4, 0x00144407
    18d0:	4700                	.insn	2, 0x4700
    18d2:	0014                	.insn	2, 0x0014
    18d4:	0100                	.insn	2, 0x0100
    18d6:	075a                	.insn	2, 0x075a
    18d8:	00001447          	.insn	4, 0x1447
    18dc:	1448                	.insn	2, 0x1448
    18de:	0000                	.insn	2, 0x
    18e0:	a304                	.insn	2, 0xa304
    18e2:	5a01                	.insn	2, 0x5a01
    18e4:	Address 0x18e4 is out of bounds.

