
bin/blinky.elf:     file format elf32-littleriscv


Disassembly of section .vector_table:

00000000 <.vector_table>:
   0:	0800006f          	j	80 <_reset_handler>
   4:	1240006f          	j	128 <_default_handler>
   8:	1200006f          	j	128 <_default_handler>
   c:	11c0006f          	j	128 <_default_handler>
  10:	1180006f          	j	128 <_default_handler>
  14:	1140006f          	j	128 <_default_handler>
  18:	1100006f          	j	128 <_default_handler>
  1c:	10c0006f          	j	128 <_default_handler>
  20:	1080006f          	j	128 <_default_handler>
  24:	1040006f          	j	128 <_default_handler>
  28:	1000006f          	j	128 <_default_handler>
  2c:	0fc0006f          	j	128 <_default_handler>
  30:	0f80006f          	j	128 <_default_handler>
  34:	0f40006f          	j	128 <_default_handler>
  38:	0f00006f          	j	128 <_default_handler>
  3c:	0ec0006f          	j	128 <_default_handler>
  40:	0e80006f          	j	128 <_default_handler>
  44:	0e40006f          	j	128 <_default_handler>
  48:	0e00006f          	j	128 <_default_handler>
  4c:	0dc0006f          	j	128 <_default_handler>
  50:	0d80006f          	j	128 <_default_handler>
  54:	0d40006f          	j	128 <_default_handler>
  58:	0d00006f          	j	128 <_default_handler>
  5c:	0cc0006f          	j	128 <_default_handler>
  60:	0c80006f          	j	128 <_default_handler>
  64:	0c40006f          	j	128 <_default_handler>
  68:	0c00006f          	j	128 <_default_handler>
  6c:	0bc0006f          	j	128 <_default_handler>
  70:	0b80006f          	j	128 <_default_handler>
  74:	0b40006f          	j	128 <_default_handler>
  78:	0b00006f          	j	128 <_default_handler>
  7c:	0ac0006f          	j	128 <_default_handler>

Disassembly of section .text:

00000080 <_reset_handler>:
  80:	00000093          	li	ra,0
  84:	00000113          	li	sp,0
  88:	00000193          	li	gp,0
  8c:	00000213          	li	tp,0
  90:	00000293          	li	t0,0
  94:	00000313          	li	t1,0
  98:	00000393          	li	t2,0
  9c:	00000413          	li	s0,0
  a0:	00000493          	li	s1,0
  a4:	00000513          	li	a0,0
  a8:	00000593          	li	a1,0
  ac:	00000613          	li	a2,0
  b0:	00000693          	li	a3,0
  b4:	00000713          	li	a4,0
  b8:	00000793          	li	a5,0
  bc:	00000813          	li	a6,0
  c0:	00000893          	li	a7,0
  c4:	00000913          	li	s2,0
  c8:	00000993          	li	s3,0
  cc:	00000a13          	li	s4,0
  d0:	00000a93          	li	s5,0
  d4:	00000b13          	li	s6,0
  d8:	00000b93          	li	s7,0
  dc:	00000c13          	li	s8,0
  e0:	00000c93          	li	s9,0
  e4:	00000d13          	li	s10,0
  e8:	00000d93          	li	s11,0
  ec:	00000e13          	li	t3,0
  f0:	00000e93          	li	t4,0
  f4:	00000f13          	li	t5,0
  f8:	00000f93          	li	t6,0
  fc:	00000513          	li	a0,0
 100:	00100593          	li	a1,1
 104:	00a5e5b3          	or	a1,a1,a0
 108:	30559073          	csrw	mtvec,a1
 10c:	30046073          	csrsi	mstatus,8
 110:	000015b7          	lui	a1,0x1
 114:	88858593          	addi	a1,a1,-1912 # 888 <_text_end+0x6c8>
 118:	3045a073          	csrs	mie,a1
 11c:	00008117          	auipc	sp,0x8
 120:	ee010113          	addi	sp,sp,-288 # 7ffc <_stack_start>
 124:	0080006f          	j	12c <_start>

00000128 <_default_handler>:
 128:	0000006f          	j	128 <_default_handler>

0000012c <_start>:
 12c:	00000293          	li	t0,0
 130:	00020337          	lui	t1,0x20
 134:	20030313          	addi	t1,t1,512 # 20200 <_peripheral_GPIO_out_start>
 138:	00532023          	sw	t0,0(t1)
 13c:	00000513          	li	a0,0
 140:	00000593          	li	a1,0
 144:	01c000ef          	jal	160 <main>
 148:	00100293          	li	t0,1
 14c:	00020337          	lui	t1,0x20
 150:	20030313          	addi	t1,t1,512 # 20200 <_peripheral_GPIO_out_start>
 154:	00532023          	sw	t0,0(t1)

00000158 <_exit_wfi>:
 158:	10500073          	wfi

0000015c <_exit_spin>:
 15c:	0000006f          	j	15c <_exit_spin>

00000160 <main>:
 160:	1101                	addi	sp,sp,-32
 162:	ce22                	sw	s0,28(sp)
 164:	1000                	addi	s0,sp,32
 166:	000207b7          	lui	a5,0x20
 16a:	20078793          	addi	a5,a5,512 # 20200 <_peripheral_GPIO_out_start>
 16e:	fef42223          	sw	a5,-28(s0)
 172:	fe042623          	sw	zero,-20(s0)
 176:	a031                	j	182 <main+0x22>
 178:	fec42783          	lw	a5,-20(s0)
 17c:	0785                	addi	a5,a5,1
 17e:	fef42623          	sw	a5,-20(s0)
 182:	fec42703          	lw	a4,-20(s0)
 186:	67e1                	lui	a5,0x18
 188:	69f78793          	addi	a5,a5,1695 # 1869f <_peripheral_DM_mem_start+0x869f>
 18c:	fee7d6e3          	bge	a5,a4,178 <main+0x18>
 190:	fe442783          	lw	a5,-28(s0)
 194:	577d                	li	a4,-1
 196:	c398                	sw	a4,0(a5)
 198:	fe042423          	sw	zero,-24(s0)
 19c:	a031                	j	1a8 <main+0x48>
 19e:	fe842783          	lw	a5,-24(s0)
 1a2:	0785                	addi	a5,a5,1
 1a4:	fef42423          	sw	a5,-24(s0)
 1a8:	fe842703          	lw	a4,-24(s0)
 1ac:	67e1                	lui	a5,0x18
 1ae:	69f78793          	addi	a5,a5,1695 # 1869f <_peripheral_DM_mem_start+0x869f>
 1b2:	fee7d6e3          	bge	a5,a4,19e <main+0x3e>
 1b6:	fe442783          	lw	a5,-28(s0)
 1ba:	0007a023          	sw	zero,0(a5)
 1be:	bf55                	j	172 <main+0x12>

Disassembly of section .debug_info:

00000000 <.debug_info>:
   0:	00f5                	addi	ra,ra,29
   2:	0000                	unimp
   4:	0005                	c.nop	1
   6:	0401                	addi	s0,s0,0
   8:	0000                	unimp
   a:	0000                	unimp
   c:	0004                	.insn	2, 0x0004
   e:	0000                	unimp
  10:	1d00                	addi	s0,sp,688
  12:	0058                	addi	a4,sp,4
  14:	0000                	unimp
  16:	0000                	unimp
  18:	0000                	unimp
  1a:	0160                	addi	s0,sp,140
  1c:	0000                	unimp
  1e:	0060                	addi	s0,sp,12
  20:	0000                	unimp
  22:	0000                	unimp
  24:	0000                	unimp
  26:	0101                	addi	sp,sp,0
  28:	8006                	c.mv	zero,ra
  2a:	0000                	unimp
  2c:	0100                	addi	s0,sp,128
  2e:	0801                	addi	a6,a6,0
  30:	007e                	c.slli	zero,0x1f
  32:	0000                	unimp
  34:	0201                	addi	tp,tp,0 # 0 <_vector_table_start>
  36:	d405                	beqz	s0,ffffff5e <_peripheral_PLIC_end+0xf7ffff5e>
  38:	0000                	unimp
  3a:	0100                	addi	s0,sp,128
  3c:	0702                	c.slli64	a4
  3e:	008c                	addi	a1,sp,64
  40:	0000                	unimp
  42:	0401                	addi	s0,s0,0
  44:	cb05                	beqz	a4,74 <_vector_table_start+0x74>
  46:	0000                	unimp
  48:	0200                	addi	s0,sp,256
  4a:	009f 0000 4f02      	.insn	6, 0x4f020000009f
  50:	5519                	li	a0,-26
  52:	0000                	unimp
  54:	0100                	addi	s0,sp,128
  56:	0704                	addi	s1,sp,896
  58:	00b4                	addi	a3,sp,72
  5a:	0000                	unimp
  5c:	0801                	addi	a6,a6,0
  5e:	c605                	beqz	a2,86 <_reset_handler+0x6>
  60:	0000                	unimp
  62:	0100                	addi	s0,sp,128
  64:	0708                	addi	a0,sp,896
  66:	000000af          	.insn	4, 0x00af
  6a:	0405                	addi	s0,s0,1
  6c:	6905                	lui	s2,0x1
  6e:	746e                	.insn	2, 0x746e
  70:	0100                	addi	s0,sp,128
  72:	0704                	addi	s1,sp,896
  74:	00b9                	addi	ra,ra,14
  76:	0000                	unimp
  78:	a102                	.insn	2, 0xa102
  7a:	0000                	unimp
  7c:	0300                	addi	s0,sp,384
  7e:	1430                	addi	a2,sp,552
  80:	0049                	c.nop	18
  82:	0000                	unimp
  84:	7806                	.insn	2, 0x7806
  86:	0000                	unimp
  88:	0700                	addi	s0,sp,896
  8a:	0084                	addi	s1,sp,64
  8c:	0000                	unimp
  8e:	6308                	.insn	2, 0x6308
  90:	0000                	unimp
  92:	0100                	addi	s0,sp,128
  94:	00892003          	lw	zero,8(s2) # 1008 <_text_end+0xe48>
  98:	0000                	unimp
  9a:	aa09                	j	1ac <main+0x4c>
  9c:	0000                	unimp
  9e:	0100                	addi	s0,sp,128
  a0:	0505                	addi	a0,a0,1
  a2:	006a                	c.slli	zero,0x1a
  a4:	0000                	unimp
  a6:	0160                	addi	s0,sp,140
  a8:	0000                	unimp
  aa:	0060                	addi	s0,sp,12
  ac:	0000                	unimp
  ae:	9c01                	.insn	2, 0x9c01
  b0:	00f2                	slli	ra,ra,0x1c
  b2:	0000                	unimp
  b4:	de0a                	sw	sp,60(sp)
  b6:	0000                	unimp
  b8:	0100                	addi	s0,sp,128
  ba:	00f21007          	.insn	4, 0x00f21007
  be:	0000                	unimp
  c0:	9102                	jalr	sp
  c2:	0b64                	addi	s1,sp,412
  c4:	0172                	slli	sp,sp,0x1c
  c6:	0000                	unimp
  c8:	001e                	c.slli	zero,0x7
  ca:	0000                	unimp
  cc:	00dc                	addi	a5,sp,68
  ce:	0000                	unimp
  d0:	0a006903          	.insn	4, 0x0a006903
  d4:	006a                	c.slli	zero,0x1a
  d6:	0000                	unimp
  d8:	9102                	jalr	sp
  da:	006c                	addi	a1,sp,12
  dc:	980c                	.insn	2, 0x980c
  de:	0001                	nop
  e0:	1e00                	addi	s0,sp,816
  e2:	0000                	unimp
  e4:	0300                	addi	s0,sp,384
  e6:	0069                	c.nop	26
  e8:	6a0c                	.insn	2, 0x6a0c
  ea:	0000                	unimp
  ec:	0200                	addi	s0,sp,256
  ee:	6891                	lui	a7,0x4
  f0:	0000                	unimp
  f2:	040d                	addi	s0,s0,3
  f4:	0078                	addi	a4,sp,12
  f6:	0000                	unimp
  f8:	1f00                	addi	s0,sp,944
  fa:	0000                	unimp
  fc:	0500                	addi	s0,sp,640
  fe:	0100                	addi	s0,sp,128
 100:	b604                	.insn	2, 0xb604
 102:	0000                	unimp
 104:	0100                	addi	s0,sp,128
 106:	00cc                	addi	a1,sp,68
 108:	0000                	unimp
 10a:	000c                	.insn	2, 0x000c
 10c:	0000                	unimp
 10e:	00e8                	addi	a0,sp,76
 110:	0000                	unimp
 112:	0141                	addi	sp,sp,16
 114:	0000                	unimp
 116:	0199                	addi	gp,gp,6
 118:	0000                	unimp
 11a:	8001                	c.srli64	s0

Disassembly of section .debug_abbrev:

00000000 <.debug_abbrev>:
   0:	2401                	jal	200 <_text_end+0x40>
   2:	0b00                	addi	s0,sp,400
   4:	030b3e0b          	.insn	4, 0x030b3e0b
   8:	000e                	c.slli	zero,0x3
   a:	0200                	addi	s0,sp,256
   c:	0016                	c.slli	zero,0x5
   e:	0b3a0e03          	lb	t3,179(s4)
  12:	0b390b3b          	.insn	4, 0x0b390b3b
  16:	1349                	addi	t1,t1,-14
  18:	0000                	unimp
  1a:	03003403          	.insn	4, 0x03003403
  1e:	3a08                	.insn	2, 0x3a08
  20:	0121                	addi	sp,sp,8
  22:	21390b3b          	.insn	4, 0x21390b3b
  26:	4911                	li	s2,4
  28:	00180213          	addi	tp,a6,1
  2c:	0400                	addi	s0,sp,512
  2e:	0111                	addi	sp,sp,4
  30:	0e25                	addi	t3,t3,9
  32:	1f030b13          	addi	s6,t1,496
  36:	01111f1b          	.insn	4, 0x01111f1b
  3a:	0612                	slli	a2,a2,0x4
  3c:	1710                	addi	a2,sp,928
  3e:	0000                	unimp
  40:	2405                	jal	260 <_text_end+0xa0>
  42:	0b00                	addi	s0,sp,400
  44:	030b3e0b          	.insn	4, 0x030b3e0b
  48:	0008                	.insn	2, 0x0008
  4a:	0600                	addi	s0,sp,768
  4c:	0026                	c.slli	zero,0x9
  4e:	1349                	addi	t1,t1,-14
  50:	0000                	unimp
  52:	49003507          	.insn	4, 0x49003507
  56:	08000013          	li	zero,128
  5a:	0034                	addi	a3,sp,8
  5c:	0b3a0e03          	lb	t3,179(s4)
  60:	0b390b3b          	.insn	4, 0x0b390b3b
  64:	1349                	addi	t1,t1,-14
  66:	193c193f 2e090000 	.insn	8, 0x2e090000193c193f
  6e:	3f01                	jal	ffffff7e <_peripheral_PLIC_end+0xf7ffff7e>
  70:	0319                	addi	t1,t1,6
  72:	3a0e                	.insn	2, 0x3a0e
  74:	390b3b0b          	.insn	4, 0x390b3b0b
  78:	1113490b          	.insn	4, 0x1113490b
  7c:	1201                	addi	tp,tp,-32 # ffffffe0 <_peripheral_PLIC_end+0xf7ffffe0>
  7e:	4006                	.insn	2, 0x4006
  80:	7a18                	.insn	2, 0x7a18
  82:	0119                	addi	sp,sp,6
  84:	0a000013          	li	zero,160
  88:	0034                	addi	a3,sp,8
  8a:	0b3a0e03          	lb	t3,179(s4)
  8e:	0b390b3b          	.insn	4, 0x0b390b3b
  92:	1349                	addi	t1,t1,-14
  94:	1802                	slli	a6,a6,0x20
  96:	0000                	unimp
  98:	11010b0b          	.insn	4, 0x11010b0b
  9c:	1201                	addi	tp,tp,-32 # ffffffe0 <_peripheral_PLIC_end+0xf7ffffe0>
  9e:	0106                	slli	sp,sp,0x1
  a0:	0c000013          	li	zero,192
  a4:	0111010b          	.insn	4, 0x0111010b
  a8:	0612                	slli	a2,a2,0x4
  aa:	0000                	unimp
  ac:	0f0d                	addi	t5,t5,3
  ae:	0b00                	addi	s0,sp,400
  b0:	0013490b          	.insn	4, 0x0013490b
  b4:	0000                	unimp
  b6:	1101                	addi	sp,sp,-32
  b8:	1000                	addi	s0,sp,32
  ba:	03175517          	auipc	a0,0x3175
  be:	1b0e                	slli	s6,s6,0x23
  c0:	250e                	.insn	2, 0x250e
  c2:	130e                	slli	t1,t1,0x23
  c4:	0005                	c.nop	1
	...

Disassembly of section .debug_aranges:

00000000 <.debug_aranges>:
   0:	001c                	.insn	2, 0x001c
   2:	0000                	unimp
   4:	0002                	c.slli64	zero
   6:	0000                	unimp
   8:	0000                	unimp
   a:	0004                	.insn	2, 0x0004
   c:	0000                	unimp
   e:	0000                	unimp
  10:	0160                	addi	s0,sp,140
  12:	0000                	unimp
  14:	0060                	addi	s0,sp,12
	...
  1e:	0000                	unimp
  20:	002c                	addi	a1,sp,8
  22:	0000                	unimp
  24:	0002                	c.slli64	zero
  26:	00f9                	addi	ra,ra,30
  28:	0000                	unimp
  2a:	0004                	.insn	2, 0x0004
	...
  34:	0080                	addi	s0,sp,64
  36:	0000                	unimp
  38:	0080                	addi	s0,sp,64
  3a:	0000                	unimp
  3c:	00ac                	addi	a1,sp,72
  3e:	0000                	unimp
  40:	012c                	addi	a1,sp,136
  42:	0000                	unimp
  44:	0034                	addi	a3,sp,8
	...

Disassembly of section .debug_line:

00000000 <.debug_line>:
   0:	00c8                	addi	a0,sp,68
   2:	0000                	unimp
   4:	0005                	c.nop	1
   6:	0004                	.insn	2, 0x0004
   8:	0040                	addi	s0,sp,4
   a:	0000                	unimp
   c:	0101                	addi	sp,sp,0
   e:	fb01                	bnez	a4,ffffff1e <_peripheral_PLIC_end+0xf7ffff1e>
  10:	0d0e                	slli	s10,s10,0x3
  12:	0100                	addi	s0,sp,128
  14:	0101                	addi	sp,sp,0
  16:	0001                	nop
  18:	0000                	unimp
  1a:	0001                	nop
  1c:	0100                	addi	s0,sp,128
  1e:	0101                	addi	sp,sp,0
  20:	041f 0000 0000      	.insn	6, 0x041f
  26:	00000063          	beqz	zero,26 <_vector_table_start+0x26>
  2a:	00000067          	jr	zero # 0 <_vector_table_start>
  2e:	00b1                	addi	ra,ra,12
  30:	0000                	unimp
  32:	0102                	c.slli64	sp
  34:	021f 040f 005c      	.insn	6, 0x005c040f021f
  3a:	0000                	unimp
  3c:	5c01                	li	s8,-32
  3e:	0000                	unimp
  40:	0100                	addi	s0,sp,128
  42:	000000f7          	.insn	4, 0x00f7
  46:	0802                	c.slli64	a6
  48:	0001                	nop
  4a:	0300                	addi	s0,sp,384
  4c:	0b05                	addi	s6,s6,1
  4e:	0500                	addi	s0,sp,640
  50:	6002                	.insn	2, 0x6002
  52:	0001                	nop
  54:	1600                	addi	s0,sp,800
  56:	1005                	c.nop	-31
  58:	06090203          	lb	tp,96(s2)
  5c:	0100                	addi	s0,sp,128
  5e:	1105                	addi	sp,sp,-31
  60:	0c090303          	lb	t1,192(s2)
  64:	0100                	addi	s0,sp,128
  66:	0905                	addi	s2,s2,1
  68:	04090003          	lb	zero,64(s2)
  6c:	0100                	addi	s0,sp,128
  6e:	2505                	jal	68e <_text_end+0x4ce>
  70:	0200                	addi	s0,sp,256
  72:	0304                	addi	s1,sp,384
  74:	02090003          	lb	zero,32(s2)
  78:	0100                	addi	s0,sp,128
  7a:	1a05                	addi	s4,s4,-31
  7c:	0200                	addi	s0,sp,256
  7e:	0104                	addi	s1,sp,128
  80:	0a090003          	lb	zero,160(s2)
  84:	0100                	addi	s0,sp,128
  86:	1405                	addi	s0,s0,-31
  88:	0e090103          	lb	sp,224(s2)
  8c:	0100                	addi	s0,sp,128
  8e:	1105                	addi	sp,sp,-31
  90:	08090103          	lb	sp,128(s2)
  94:	0100                	addi	s0,sp,128
  96:	0905                	addi	s2,s2,1
  98:	04090003          	lb	zero,64(s2)
  9c:	0100                	addi	s0,sp,128
  9e:	2505                	jal	6be <_text_end+0x4fe>
  a0:	0200                	addi	s0,sp,256
  a2:	0304                	addi	s1,sp,384
  a4:	02090003          	lb	zero,32(s2)
  a8:	0100                	addi	s0,sp,128
  aa:	1a05                	addi	s4,s4,-31
  ac:	0200                	addi	s0,sp,256
  ae:	0104                	addi	s1,sp,128
  b0:	0a090003          	lb	zero,160(s2)
  b4:	0100                	addi	s0,sp,128
  b6:	1405                	addi	s0,s0,-31
  b8:	0e090103          	lb	sp,224(s2)
  bc:	0100                	addi	s0,sp,128
  be:	0905                	addi	s2,s2,1
  c0:	08097d03          	.insn	4, 0x08097d03
  c4:	0100                	addi	s0,sp,128
  c6:	0209                	addi	tp,tp,2 # 2 <_vector_table_start+0x2>
  c8:	0000                	unimp
  ca:	0101                	addi	sp,sp,0
  cc:	0199                	addi	gp,gp,6
  ce:	0000                	unimp
  d0:	0005                	c.nop	1
  d2:	0004                	.insn	2, 0x0004
  d4:	002e                	c.slli	zero,0xb
  d6:	0000                	unimp
  d8:	0101                	addi	sp,sp,0
  da:	fb01                	bnez	a4,ffffffea <_peripheral_PLIC_end+0xf7ffffea>
  dc:	0d0e                	slli	s10,s10,0x3
  de:	0100                	addi	s0,sp,128
  e0:	0101                	addi	sp,sp,0
  e2:	0001                	nop
  e4:	0000                	unimp
  e6:	0001                	nop
  e8:	0100                	addi	s0,sp,128
  ea:	0101                	addi	sp,sp,0
  ec:	021f 0000 0000      	.insn	6, 0x021f
  f2:	0112                	slli	sp,sp,0x4
  f4:	0000                	unimp
  f6:	0102                	c.slli64	sp
  f8:	021f 020f 0161      	.insn	6, 0x0161020f021f
  fe:	0000                	unimp
 100:	6101                	addi	sp,sp,0
 102:	0001                	nop
 104:	0100                	addi	s0,sp,128
 106:	0500                	addi	s0,sp,640
 108:	0002                	c.slli64	zero
 10a:	0000                	unimp
 10c:	0300                	addi	s0,sp,384
 10e:	0203010b          	.insn	4, 0x0203010b
 112:	0409                	addi	s0,s0,2
 114:	0100                	addi	s0,sp,128
 116:	7c09                	lui	s8,0xfffe2
 118:	0000                	unimp
 11a:	0101                	addi	sp,sp,0
 11c:	0500                	addi	s0,sp,640
 11e:	8002                	.insn	2, 0x8002
 120:	0000                	unimp
 122:	0300                	addi	s0,sp,384
 124:	0119                	addi	sp,sp,6
 126:	04090103          	lb	sp,64(s2)
 12a:	0100                	addi	s0,sp,128
 12c:	04090103          	lb	sp,64(s2)
 130:	0100                	addi	s0,sp,128
 132:	04090103          	lb	sp,64(s2)
 136:	0100                	addi	s0,sp,128
 138:	04090103          	lb	sp,64(s2)
 13c:	0100                	addi	s0,sp,128
 13e:	04090103          	lb	sp,64(s2)
 142:	0100                	addi	s0,sp,128
 144:	04090103          	lb	sp,64(s2)
 148:	0100                	addi	s0,sp,128
 14a:	04090103          	lb	sp,64(s2)
 14e:	0100                	addi	s0,sp,128
 150:	04090103          	lb	sp,64(s2)
 154:	0100                	addi	s0,sp,128
 156:	04090103          	lb	sp,64(s2)
 15a:	0100                	addi	s0,sp,128
 15c:	04090103          	lb	sp,64(s2)
 160:	0100                	addi	s0,sp,128
 162:	04090103          	lb	sp,64(s2)
 166:	0100                	addi	s0,sp,128
 168:	04090103          	lb	sp,64(s2)
 16c:	0100                	addi	s0,sp,128
 16e:	04090103          	lb	sp,64(s2)
 172:	0100                	addi	s0,sp,128
 174:	04090103          	lb	sp,64(s2)
 178:	0100                	addi	s0,sp,128
 17a:	04090103          	lb	sp,64(s2)
 17e:	0100                	addi	s0,sp,128
 180:	04090103          	lb	sp,64(s2)
 184:	0100                	addi	s0,sp,128
 186:	04090103          	lb	sp,64(s2)
 18a:	0100                	addi	s0,sp,128
 18c:	04090103          	lb	sp,64(s2)
 190:	0100                	addi	s0,sp,128
 192:	04090103          	lb	sp,64(s2)
 196:	0100                	addi	s0,sp,128
 198:	04090103          	lb	sp,64(s2)
 19c:	0100                	addi	s0,sp,128
 19e:	04090103          	lb	sp,64(s2)
 1a2:	0100                	addi	s0,sp,128
 1a4:	04090103          	lb	sp,64(s2)
 1a8:	0100                	addi	s0,sp,128
 1aa:	04090103          	lb	sp,64(s2)
 1ae:	0100                	addi	s0,sp,128
 1b0:	04090103          	lb	sp,64(s2)
 1b4:	0100                	addi	s0,sp,128
 1b6:	04090103          	lb	sp,64(s2)
 1ba:	0100                	addi	s0,sp,128
 1bc:	04090103          	lb	sp,64(s2)
 1c0:	0100                	addi	s0,sp,128
 1c2:	04090103          	lb	sp,64(s2)
 1c6:	0100                	addi	s0,sp,128
 1c8:	04090103          	lb	sp,64(s2)
 1cc:	0100                	addi	s0,sp,128
 1ce:	04090103          	lb	sp,64(s2)
 1d2:	0100                	addi	s0,sp,128
 1d4:	04090103          	lb	sp,64(s2)
 1d8:	0100                	addi	s0,sp,128
 1da:	04090703          	lb	a4,64(s2)
 1de:	0100                	addi	s0,sp,128
 1e0:	04090103          	lb	sp,64(s2)
 1e4:	0100                	addi	s0,sp,128
 1e6:	04090103          	lb	sp,64(s2)
 1ea:	0100                	addi	s0,sp,128
 1ec:	04090103          	lb	sp,64(s2)
 1f0:	0100                	addi	s0,sp,128
 1f2:	04090303          	lb	t1,64(s2)
 1f6:	0100                	addi	s0,sp,128
 1f8:	04090403          	lb	s0,64(s2)
 1fc:	0100                	addi	s0,sp,128
 1fe:	08090103          	lb	sp,128(s2)
 202:	0100                	addi	s0,sp,128
 204:	04090703          	lb	a4,64(s2)
 208:	0100                	addi	s0,sp,128
 20a:	08090303          	lb	t1,128(s2)
 20e:	0100                	addi	s0,sp,128
 210:	04090303          	lb	t1,64(s2)
 214:	0100                	addi	s0,sp,128
 216:	0409                	addi	s0,s0,2
 218:	0000                	unimp
 21a:	0101                	addi	sp,sp,0
 21c:	0500                	addi	s0,sp,640
 21e:	2c02                	.insn	2, 0x2c02
 220:	0001                	nop
 222:	0300                	addi	s0,sp,384
 224:	00de                	slli	ra,ra,0x17
 226:	0301                	addi	t1,t1,0
 228:	0901                	addi	s2,s2,0
 22a:	0004                	.insn	2, 0x0004
 22c:	0301                	addi	t1,t1,0
 22e:	0901                	addi	s2,s2,0
 230:	0008                	.insn	2, 0x0008
 232:	0301                	addi	t1,t1,0
 234:	00040903          	lb	s2,0(s0)
 238:	0301                	addi	t1,t1,0
 23a:	0901                	addi	s2,s2,0
 23c:	0004                	.insn	2, 0x0004
 23e:	0301                	addi	t1,t1,0
 240:	0902                	c.slli64	s2
 242:	0004                	.insn	2, 0x0004
 244:	0301                	addi	t1,t1,0
 246:	00040903          	lb	s2,0(s0)
 24a:	0301                	addi	t1,t1,0
 24c:	0901                	addi	s2,s2,0
 24e:	0004                	.insn	2, 0x0004
 250:	0301                	addi	t1,t1,0
 252:	0901                	addi	s2,s2,0
 254:	0008                	.insn	2, 0x0008
 256:	0301                	addi	t1,t1,0
 258:	0904                	addi	s1,sp,144
 25a:	0004                	.insn	2, 0x0004
 25c:	0301                	addi	t1,t1,0
 25e:	0904                	addi	s1,sp,144
 260:	0004                	.insn	2, 0x0004
 262:	0901                	addi	s2,s2,0
 264:	0004                	.insn	2, 0x0004
 266:	0100                	addi	s0,sp,128
 268:	Address 0x268 is out of bounds.


Disassembly of section .debug_str:

00000000 <.debug_str>:
   0:	20554e47          	.insn	4, 0x20554e47
   4:	20373143          	.insn	4, 0x20373143
   8:	3331                	jal	fffffd14 <_peripheral_PLIC_end+0xf7fffd14>
   a:	322e                	.insn	2, 0x322e
   c:	302e                	.insn	2, 0x302e
   e:	2d20                	.insn	2, 0x2d20
  10:	616d                	addi	sp,sp,240
  12:	6962                	.insn	2, 0x6962
  14:	693d                	lui	s2,0xf
  16:	706c                	.insn	2, 0x706c
  18:	2d203233          	.insn	4, 0x2d203233
  1c:	746d                	lui	s0,0xffffb
  1e:	6e75                	lui	t3,0x1d
  20:	3d65                	jal	fffffed8 <_peripheral_PLIC_end+0xf7fffed8>
  22:	6f72                	.insn	2, 0x6f72
  24:	74656b63          	bltu	a0,t1,77a <_text_end+0x5ba>
  28:	2d20                	.insn	2, 0x2d20
  2a:	696d                	lui	s2,0x1b
  2c:	732d6173          	csrrsi	sp,mhpmevent18h,26
  30:	6570                	.insn	2, 0x6570
  32:	30323d63          	.insn	4, 0x30323d63
  36:	3931                	jal	fffffc52 <_peripheral_PLIC_end+0xf7fffc52>
  38:	3231                	jal	fffff944 <_peripheral_PLIC_end+0xf7fff944>
  3a:	3331                	jal	fffffd46 <_peripheral_PLIC_end+0xf7fffd46>
  3c:	2d20                	.insn	2, 0x2d20
  3e:	616d                	addi	sp,sp,240
  40:	6372                	.insn	2, 0x6372
  42:	3d68                	.insn	2, 0x3d68
  44:	7672                	.insn	2, 0x7672
  46:	6d693233          	.insn	4, 0x6d693233
  4a:	6361                	lui	t1,0x18
  4c:	7a5f 6369 7273      	.insn	6, 0x727363697a5f
  52:	7a5f 6669 6e65      	.insn	6, 0x6e6566697a5f
  58:	20696563          	bltu	s2,t1,262 <_text_end+0xa2>
  5c:	672d                	lui	a4,0xb
  5e:	2d20                	.insn	2, 0x2d20
  60:	5f00304f          	.insn	4, 0x5f00304f
  64:	6570                	.insn	2, 0x6570
  66:	6972                	.insn	2, 0x6972
  68:	6870                	.insn	2, 0x6870
  6a:	7265                	lui	tp,0xffff9
  6c:	6c61                	lui	s8,0x18
  6e:	475f 4950 5f4f      	.insn	6, 0x5f4f4950475f
  74:	5f74756f          	jal	a0,47e6a <_peripheral_HLS_CONTROL_end+0x7e6a>
  78:	72617473          	csrrci	s0,mhpmevent6h,2
  7c:	0074                	addi	a3,sp,12
  7e:	6e75                	lui	t3,0x1d
  80:	6e676973          	csrrsi	s2,0x6e6,14
  84:	6465                	lui	s0,0x19
  86:	6320                	.insn	2, 0x6320
  88:	6168                	.insn	2, 0x6168
  8a:	0072                	c.slli	zero,0x1c
  8c:	726f6873          	csrrsi	a6,mhpmevent6h,30
  90:	2074                	.insn	2, 0x2074
  92:	6e75                	lui	t3,0x1d
  94:	6e676973          	csrrsi	s2,0x6e6,14
  98:	6465                	lui	s0,0x19
  9a:	6920                	.insn	2, 0x6920
  9c:	746e                	.insn	2, 0x746e
  9e:	5f00                	lw	s0,56(a4)
  a0:	755f 6e69 3374      	.insn	6, 0x33746e69755f
  a6:	5f32                	lw	t5,44(sp)
  a8:	0074                	addi	a3,sp,12
  aa:	616d                	addi	sp,sp,240
  ac:	6e69                	lui	t3,0x1a
  ae:	6c00                	.insn	2, 0x6c00
  b0:	20676e6f          	jal	t3,762b6 <_peripheral_HLS_CONTROL_end+0x362b6>
  b4:	6f6c                	.insn	2, 0x6f6c
  b6:	676e                	.insn	2, 0x676e
  b8:	7520                	.insn	2, 0x7520
  ba:	736e                	.insn	2, 0x736e
  bc:	6769                	lui	a4,0x1a
  be:	656e                	.insn	2, 0x656e
  c0:	2064                	.insn	2, 0x2064
  c2:	6e69                	lui	t3,0x1a
  c4:	0074                	addi	a3,sp,12
  c6:	6f6c                	.insn	2, 0x6f6c
  c8:	676e                	.insn	2, 0x676e
  ca:	6c20                	.insn	2, 0x6c20
  cc:	20676e6f          	jal	t3,762d2 <_peripheral_HLS_CONTROL_end+0x362d2>
  d0:	6e69                	lui	t3,0x1a
  d2:	0074                	addi	a3,sp,12
  d4:	726f6873          	csrrsi	a6,mhpmevent6h,30
  d8:	2074                	.insn	2, 0x2074
  da:	6e69                	lui	t3,0x1a
  dc:	0074                	addi	a3,sp,12
  de:	6f697067          	.insn	4, 0x6f697067
  e2:	615f 6464 0072      	.insn	6, 0x00726464615f
  e8:	6d6f682f          	.insn	4, 0x6d6f682f
  ec:	2f65                	jal	8a4 <_text_end+0x6e4>
  ee:	6976                	.insn	2, 0x6976
  f0:	636e                	.insn	2, 0x636e
  f2:	6e65                	lui	t3,0x19
  f4:	6f7a                	.insn	2, 0x6f7a
  f6:	5349522f          	.insn	4, 0x5349522f
  fa:	2f562d43          	.insn	4, 0x2f562d43
  fe:	7270                	.insn	2, 0x7270
 100:	736a                	.insn	2, 0x736a
 102:	696e552f          	.insn	4, 0x696e552f
 106:	616e                	.insn	2, 0x616e
 108:	2f436f53          	.insn	4, 0x2f436f53
 10c:	5344                	lw	s1,36(a4)
 10e:	3244                	.insn	2, 0x3244
 110:	3230                	.insn	2, 0x3230
 112:	2f35                	jal	84e <_text_end+0x68e>
 114:	2f436f53          	.insn	4, 0x2f436f53
 118:	5344                	lw	s1,36(a4)
 11a:	3244                	.insn	2, 0x3244
 11c:	3230                	.insn	2, 0x3230
 11e:	5f35                	li	t5,-19
 120:	6c68                	.insn	2, 0x6c68
 122:	65675f73          	csrrwi	t5,hviprio1h,14
 126:	6d6d                	lui	s10,0x1b
 128:	2f77732f          	.insn	4, 0x2f77732f
 12c:	2f436f53          	.insn	4, 0x2f436f53
 130:	6d6d6f63          	bltu	s10,s6,80e <_text_end+0x64e>
 134:	732f6e6f          	jal	t3,f6866 <_peripheral_HLS_CONTROL_end+0xb6866>
 138:	6174                	.insn	2, 0x6174
 13a:	7472                	.insn	2, 0x7472
 13c:	7075                	c.lui	zero,0xffffd
 13e:	732e                	.insn	2, 0x732e
 140:	2f00                	.insn	2, 0x2f00
 142:	6f68                	.insn	2, 0x6f68
 144:	656d                	lui	a0,0x1b
 146:	6e69762f          	.insn	4, 0x6e69762f
 14a:	7a6e6563          	bltu	t3,t1,8f4 <_text_end+0x734>
 14e:	49522f6f          	jal	t5,22de2 <_peripheral_TIM1_end+0x27a2>
 152:	562d4353          	.insn	4, 0x562d4353
 156:	6a72702f          	.insn	4, 0x6a72702f
 15a:	6e552f73          	csrrs	t5,0x6e5,a0
 15e:	6e69                	lui	t3,0x1a
 160:	5361                	li	t1,-8
 162:	442f436f          	jal	t1,f45a4 <_peripheral_HLS_CONTROL_end+0xb45a4>
 166:	30324453          	.insn	4, 0x30324453
 16a:	3532                	.insn	2, 0x3532
 16c:	436f532f          	.insn	4, 0x436f532f
 170:	4453442f          	.insn	4, 0x4453442f
 174:	3032                	.insn	2, 0x3032
 176:	3532                	.insn	2, 0x3532
 178:	685f 736c 675f      	.insn	6, 0x675f736c685f
 17e:	6d65                	lui	s10,0x19
 180:	2f6d                	jal	93a <_text_end+0x77a>
 182:	532f7773          	csrrci	a4,0x532,30
 186:	652f436f          	jal	t1,f47d8 <_peripheral_HLS_CONTROL_end+0xb47d8>
 18a:	6178                	.insn	2, 0x6178
 18c:	706d                	c.lui	zero,0xffffb
 18e:	656c                	.insn	2, 0x656c
 190:	6c622f73          	csrrs	t5,0x6c6,tp
 194:	6e69                	lui	t3,0x1a
 196:	4700796b          	.insn	4, 0x4700796b
 19a:	554e                	lw	a0,240(sp)
 19c:	4120                	lw	s0,64(a0)
 19e:	2e322053          	.insn	4, 0x2e322053
 1a2:	3234                	.insn	2, 0x3234
	...

Disassembly of section .debug_line_str:

00000000 <.debug_line_str>:
   0:	6d6f682f          	.insn	4, 0x6d6f682f
   4:	2f65                	jal	7bc <_text_end+0x5fc>
   6:	6976                	.insn	2, 0x6976
   8:	636e                	.insn	2, 0x636e
   a:	6e65                	lui	t3,0x19
   c:	6f7a                	.insn	2, 0x6f7a
   e:	5349522f          	.insn	4, 0x5349522f
  12:	2f562d43          	.insn	4, 0x2f562d43
  16:	7270                	.insn	2, 0x7270
  18:	736a                	.insn	2, 0x736a
  1a:	696e552f          	.insn	4, 0x696e552f
  1e:	616e                	.insn	2, 0x616e
  20:	2f436f53          	.insn	4, 0x2f436f53
  24:	5344                	lw	s1,36(a4)
  26:	3244                	.insn	2, 0x3244
  28:	3230                	.insn	2, 0x3230
  2a:	2f35                	jal	766 <_text_end+0x5a6>
  2c:	2f436f53          	.insn	4, 0x2f436f53
  30:	5344                	lw	s1,36(a4)
  32:	3244                	.insn	2, 0x3244
  34:	3230                	.insn	2, 0x3230
  36:	5f35                	li	t5,-19
  38:	6c68                	.insn	2, 0x6c68
  3a:	65675f73          	csrrwi	t5,hviprio1h,14
  3e:	6d6d                	lui	s10,0x1b
  40:	2f77732f          	.insn	4, 0x2f77732f
  44:	2f436f53          	.insn	4, 0x2f436f53
  48:	7865                	lui	a6,0xffff9
  4a:	6d61                	lui	s10,0x18
  4c:	6c70                	.insn	2, 0x6c70
  4e:	7365                	lui	t1,0xffff9
  50:	696c622f          	.insn	4, 0x696c622f
  54:	6b6e                	.insn	2, 0x6b6e
  56:	0079                	c.nop	30
  58:	2f637273          	csrrci	tp,0x2f6,6
  5c:	616d                	addi	sp,sp,240
  5e:	6e69                	lui	t3,0x1a
  60:	632e                	.insn	2, 0x632e
  62:	7300                	.insn	2, 0x7300
  64:	6372                	.insn	2, 0x6372
  66:	2f00                	.insn	2, 0x2f00
  68:	6f68                	.insn	2, 0x6f68
  6a:	656d                	lui	a0,0x1b
  6c:	6e69762f          	.insn	4, 0x6e69762f
  70:	7a6e6563          	bltu	t3,t1,81a <_text_end+0x65a>
  74:	49522f6f          	jal	t5,22d08 <_peripheral_TIM1_end+0x26c8>
  78:	562d4353          	.insn	4, 0x562d4353
  7c:	756e672f          	.insn	4, 0x756e672f
  80:	742d                	lui	s0,0xfffeb
  82:	636c6f6f          	jal	t5,c66b8 <_peripheral_HLS_CONTROL_end+0x866b8>
  86:	6168                	.insn	2, 0x6168
  88:	6e69                	lui	t3,0x1a
  8a:	722f3233          	.insn	4, 0x722f3233
  8e:	7369                	lui	t1,0xffffa
  90:	32337663          	bgeu	t1,gp,3bc <_text_end+0x1fc>
  94:	752d                	lui	a0,0xfffeb
  96:	6b6e                	.insn	2, 0x6b6e
  98:	6f6e                	.insn	2, 0x6f6e
  9a:	652d6e77          	.insn	4, 0x652d6e77
  9e:	666c                	.insn	2, 0x666c
  a0:	636e692f          	.insn	4, 0x636e692f
  a4:	756c                	.insn	2, 0x756c
  a6:	6564                	.insn	2, 0x6564
  a8:	63616d2f          	.insn	4, 0x63616d2f
  ac:	6968                	.insn	2, 0x6968
  ae:	656e                	.insn	2, 0x656e
  b0:	2f00                	.insn	2, 0x2f00
  b2:	6f68                	.insn	2, 0x6f68
  b4:	656d                	lui	a0,0x1b
  b6:	6e69762f          	.insn	4, 0x6e69762f
  ba:	7a6e6563          	bltu	t3,t1,864 <_text_end+0x6a4>
  be:	49522f6f          	jal	t5,22d52 <_peripheral_TIM1_end+0x2712>
  c2:	562d4353          	.insn	4, 0x562d4353
  c6:	756e672f          	.insn	4, 0x756e672f
  ca:	742d                	lui	s0,0xfffeb
  cc:	636c6f6f          	jal	t5,c6702 <_peripheral_HLS_CONTROL_end+0x86702>
  d0:	6168                	.insn	2, 0x6168
  d2:	6e69                	lui	t3,0x1a
  d4:	722f3233          	.insn	4, 0x722f3233
  d8:	7369                	lui	t1,0xffffa
  da:	32337663          	bgeu	t1,gp,406 <_text_end+0x246>
  de:	752d                	lui	a0,0xfffeb
  e0:	6b6e                	.insn	2, 0x6b6e
  e2:	6f6e                	.insn	2, 0x6f6e
  e4:	652d6e77          	.insn	4, 0x652d6e77
  e8:	666c                	.insn	2, 0x666c
  ea:	636e692f          	.insn	4, 0x636e692f
  ee:	756c                	.insn	2, 0x756c
  f0:	6564                	.insn	2, 0x6564
  f2:	7379732f          	.insn	4, 0x7379732f
  f6:	5f00                	lw	s0,56(a4)
  f8:	6564                	.insn	2, 0x6564
  fa:	6166                	.insn	2, 0x6166
  fc:	6c75                	lui	s8,0x1d
  fe:	5f74                	lw	a3,124(a4)
 100:	7974                	.insn	2, 0x7974
 102:	6570                	.insn	2, 0x6570
 104:	00682e73          	csrrs	t3,0x6,a6
 108:	735f 6474 6e69      	.insn	6, 0x6e696474735f
 10e:	2e74                	.insn	2, 0x2e74
 110:	0068                	addi	a0,sp,12
 112:	6d6f682f          	.insn	4, 0x6d6f682f
 116:	2f65                	jal	8ce <_text_end+0x70e>
 118:	6976                	.insn	2, 0x6976
 11a:	636e                	.insn	2, 0x636e
 11c:	6e65                	lui	t3,0x19
 11e:	6f7a                	.insn	2, 0x6f7a
 120:	5349522f          	.insn	4, 0x5349522f
 124:	2f562d43          	.insn	4, 0x2f562d43
 128:	7270                	.insn	2, 0x7270
 12a:	736a                	.insn	2, 0x736a
 12c:	696e552f          	.insn	4, 0x696e552f
 130:	616e                	.insn	2, 0x616e
 132:	2f436f53          	.insn	4, 0x2f436f53
 136:	5344                	lw	s1,36(a4)
 138:	3244                	.insn	2, 0x3244
 13a:	3230                	.insn	2, 0x3230
 13c:	2f35                	jal	878 <_text_end+0x6b8>
 13e:	2f436f53          	.insn	4, 0x2f436f53
 142:	5344                	lw	s1,36(a4)
 144:	3244                	.insn	2, 0x3244
 146:	3230                	.insn	2, 0x3230
 148:	5f35                	li	t5,-19
 14a:	6c68                	.insn	2, 0x6c68
 14c:	65675f73          	csrrwi	t5,hviprio1h,14
 150:	6d6d                	lui	s10,0x1b
 152:	2f77732f          	.insn	4, 0x2f77732f
 156:	2f436f53          	.insn	4, 0x2f436f53
 15a:	6d6d6f63          	bltu	s10,s6,838 <_text_end+0x678>
 15e:	73006e6f          	jal	t3,688e <_text_end+0x66ce>
 162:	6174                	.insn	2, 0x6174
 164:	7472                	.insn	2, 0x7472
 166:	7075                	c.lui	zero,0xffffd
 168:	732e                	.insn	2, 0x732e
	...

Disassembly of section .comment:

00000000 <.comment>:
   0:	3a434347          	.insn	4, 0x3a434347
   4:	2820                	.insn	2, 0x2820
   6:	39386367          	.insn	4, 0x39386367
   a:	6431                	lui	s0,0xc
   c:	6438                	.insn	2, 0x6438
   e:	20293263          	.insn	4, 0x20293263
  12:	3331                	jal	fffffd1e <_peripheral_PLIC_end+0xf7fffd1e>
  14:	322e                	.insn	2, 0x322e
  16:	302e                	.insn	2, 0x302e
	...

Disassembly of section .riscv.attributes:

00000000 <.riscv.attributes>:
   0:	4c41                	li	s8,16
   2:	0000                	unimp
   4:	7200                	.insn	2, 0x7200
   6:	7369                	lui	t1,0xffffa
   8:	01007663          	bgeu	zero,a6,14 <_vector_table_start+0x14>
   c:	0042                	c.slli	zero,0x10
   e:	0000                	unimp
  10:	1004                	addi	s1,sp,32
  12:	7205                	lui	tp,0xfffe1
  14:	3376                	.insn	2, 0x3376
  16:	6932                	.insn	2, 0x6932
  18:	7032                	.insn	2, 0x7032
  1a:	5f31                	li	t5,-20
  1c:	326d                	jal	fffff9c6 <_peripheral_PLIC_end+0xf7fff9c6>
  1e:	3070                	.insn	2, 0x3070
  20:	615f 7032 5f31      	.insn	6, 0x5f317032615f
  26:	30703263          	.insn	4, 0x30703263
  2a:	7a5f 6369 7273      	.insn	6, 0x727363697a5f
  30:	7032                	.insn	2, 0x7032
  32:	5f30                	lw	a2,120(a4)
  34:	697a                	.insn	2, 0x697a
  36:	6566                	.insn	2, 0x6566
  38:	636e                	.insn	2, 0x636e
  3a:	6965                	lui	s2,0x19
  3c:	7032                	.insn	2, 0x7032
  3e:	5f30                	lw	a2,120(a4)
  40:	6d7a                	.insn	2, 0x6d7a
  42:	756d                	lui	a0,0xffffb
  44:	316c                	.insn	2, 0x316c
  46:	3070                	.insn	2, 0x3070
  48:	0800                	addi	s0,sp,16
  4a:	0a01                	addi	s4,s4,0
  4c:	Address 0x4c is out of bounds.


Disassembly of section .debug_frame:

00000000 <.debug_frame>:
   0:	000c                	.insn	2, 0x000c
   2:	0000                	unimp
   4:	ffff                	.insn	2, 0xffff
   6:	ffff                	.insn	2, 0xffff
   8:	7c010003          	lb	zero,1984(sp)
   c:	0d01                	addi	s10,s10,0 # 1b000 <_peripheral_DM_mem_start+0xb000>
   e:	0002                	c.slli64	zero
  10:	0018                	.insn	2, 0x0018
  12:	0000                	unimp
  14:	0000                	unimp
  16:	0000                	unimp
  18:	0160                	addi	s0,sp,140
  1a:	0000                	unimp
  1c:	0060                	addi	s0,sp,12
  1e:	0000                	unimp
  20:	0e42                	slli	t3,t3,0x10
  22:	4220                	lw	s0,64(a2)
  24:	0188                	addi	a0,sp,192
  26:	0c42                	slli	s8,s8,0x10
  28:	0008                	.insn	2, 0x0008
	...

Disassembly of section .debug_rnglists:

00000000 <.debug_rnglists>:
   0:	001d                	c.nop	7
   2:	0000                	unimp
   4:	0005                	c.nop	1
   6:	0004                	.insn	2, 0x0004
   8:	0000                	unimp
   a:	0000                	unimp
   c:	00000007          	.insn	4, 0x0007
  10:	8000                	.insn	2, 0x8000
  12:	0701                	addi	a4,a4,0 # 1a000 <_peripheral_DM_mem_start+0xa000>
  14:	0080                	addi	s0,sp,64
  16:	0000                	unimp
  18:	01b0                	addi	a2,sp,200
  1a:	00012c07          	.insn	4, 0x00012c07
  1e:	3400                	.insn	2, 0x3400
	...
