
bin/blinky.elf:     file format elf32-littleriscv


Disassembly of section .vector_table:

00000000 <.vector_table>:
   0:	0800006f          	j	80 <_reset_handler>
   4:	1240006f          	j	128 <_default_handler>
   8:	1200006f          	j	128 <_default_handler>
   c:	11c0006f          	j	128 <_default_handler>
  10:	1180006f          	j	128 <_default_handler>
  14:	1140006f          	j	128 <_default_handler>
  18:	1100006f          	j	128 <_default_handler>
  1c:	10c0006f          	j	128 <_default_handler>
  20:	1080006f          	j	128 <_default_handler>
  24:	1040006f          	j	128 <_default_handler>
  28:	1000006f          	j	128 <_default_handler>
  2c:	0fc0006f          	j	128 <_default_handler>
  30:	0f80006f          	j	128 <_default_handler>
  34:	0f40006f          	j	128 <_default_handler>
  38:	0f00006f          	j	128 <_default_handler>
  3c:	0ec0006f          	j	128 <_default_handler>
  40:	0e80006f          	j	128 <_default_handler>
  44:	0e40006f          	j	128 <_default_handler>
  48:	0e00006f          	j	128 <_default_handler>
  4c:	0dc0006f          	j	128 <_default_handler>
  50:	0d80006f          	j	128 <_default_handler>
  54:	0d40006f          	j	128 <_default_handler>
  58:	0d00006f          	j	128 <_default_handler>
  5c:	0cc0006f          	j	128 <_default_handler>
  60:	0c80006f          	j	128 <_default_handler>
  64:	0c40006f          	j	128 <_default_handler>
  68:	0c00006f          	j	128 <_default_handler>
  6c:	0bc0006f          	j	128 <_default_handler>
  70:	0b80006f          	j	128 <_default_handler>
  74:	0b40006f          	j	128 <_default_handler>
  78:	0b00006f          	j	128 <_default_handler>
  7c:	0ac0006f          	j	128 <_default_handler>

Disassembly of section .text:

00000080 <_reset_handler>:
  80:	00000093          	li	ra,0
  84:	00000113          	li	sp,0
  88:	00000193          	li	gp,0
  8c:	00000213          	li	tp,0
  90:	00000293          	li	t0,0
  94:	00000313          	li	t1,0
  98:	00000393          	li	t2,0
  9c:	00000413          	li	s0,0
  a0:	00000493          	li	s1,0
  a4:	00000513          	li	a0,0
  a8:	00000593          	li	a1,0
  ac:	00000613          	li	a2,0
  b0:	00000693          	li	a3,0
  b4:	00000713          	li	a4,0
  b8:	00000793          	li	a5,0
  bc:	00000813          	li	a6,0
  c0:	00000893          	li	a7,0
  c4:	00000913          	li	s2,0
  c8:	00000993          	li	s3,0
  cc:	00000a13          	li	s4,0
  d0:	00000a93          	li	s5,0
  d4:	00000b13          	li	s6,0
  d8:	00000b93          	li	s7,0
  dc:	00000c13          	li	s8,0
  e0:	00000c93          	li	s9,0
  e4:	00000d13          	li	s10,0
  e8:	00000d93          	li	s11,0
  ec:	00000e13          	li	t3,0
  f0:	00000e93          	li	t4,0
  f4:	00000f13          	li	t5,0
  f8:	00000f93          	li	t6,0
  fc:	00000513          	li	a0,0
 100:	00100593          	li	a1,1
 104:	00a5e5b3          	or	a1,a1,a0
 108:	30559073          	csrw	mtvec,a1
 10c:	30046073          	csrsi	mstatus,8
 110:	000015b7          	lui	a1,0x1
 114:	88858593          	addi	a1,a1,-1912 # 888 <_text_end+0x6c8>
 118:	3045a073          	csrs	mie,a1
 11c:	00008117          	auipc	sp,0x8
 120:	ee010113          	addi	sp,sp,-288 # 7ffc <_stack_start>
 124:	0080006f          	j	12c <_start>

00000128 <_default_handler>:
 128:	0000006f          	j	128 <_default_handler>

0000012c <_start>:
 12c:	00000293          	li	t0,0
 130:	00020337          	lui	t1,0x20
 134:	20030313          	addi	t1,t1,512 # 20200 <_peripheral_GPIO_out_start>
 138:	00532023          	sw	t0,0(t1)
 13c:	00000513          	li	a0,0
 140:	00000593          	li	a1,0
 144:	01c000ef          	jal	160 <main>
 148:	00100293          	li	t0,1
 14c:	00020337          	lui	t1,0x20
 150:	20030313          	addi	t1,t1,512 # 20200 <_peripheral_GPIO_out_start>
 154:	00532023          	sw	t0,0(t1)

00000158 <_exit_wfi>:
 158:	10500073          	wfi

0000015c <_exit_spin>:
 15c:	0000006f          	j	15c <_exit_spin>

00000160 <main>:
 160:	1101                	addi	sp,sp,-32
 162:	ce22                	sw	s0,28(sp)
 164:	1000                	addi	s0,sp,32
 166:	000207b7          	lui	a5,0x20
 16a:	20078793          	addi	a5,a5,512 # 20200 <_peripheral_GPIO_out_start>
 16e:	fef42223          	sw	a5,-28(s0)
 172:	fe042623          	sw	zero,-20(s0)
 176:	a031                	j	182 <main+0x22>
 178:	fec42783          	lw	a5,-20(s0)
 17c:	0785                	addi	a5,a5,1
 17e:	fef42623          	sw	a5,-20(s0)
 182:	fec42703          	lw	a4,-20(s0)
 186:	67e1                	lui	a5,0x18
 188:	69f78793          	addi	a5,a5,1695 # 1869f <_peripheral_DM_mem_start+0x869f>
 18c:	fee7d6e3          	bge	a5,a4,178 <main+0x18>
 190:	fe442783          	lw	a5,-28(s0)
 194:	577d                	li	a4,-1
 196:	c398                	sw	a4,0(a5)
 198:	fe042423          	sw	zero,-24(s0)
 19c:	a031                	j	1a8 <main+0x48>
 19e:	fe842783          	lw	a5,-24(s0)
 1a2:	0785                	addi	a5,a5,1
 1a4:	fef42423          	sw	a5,-24(s0)
 1a8:	fe842703          	lw	a4,-24(s0)
 1ac:	67e1                	lui	a5,0x18
 1ae:	69f78793          	addi	a5,a5,1695 # 1869f <_peripheral_DM_mem_start+0x869f>
 1b2:	fee7d6e3          	bge	a5,a4,19e <main+0x3e>
 1b6:	fe442783          	lw	a5,-28(s0)
 1ba:	0007a023          	sw	zero,0(a5)
 1be:	bf55                	j	172 <main+0x12>
