/opt/rv32/bin/riscv32-unknown-elf-objdump -D bin/filename.elf

bin/filename.elf:     file format elf32-littleriscv


Disassembly of section .isr_vector:

00000000 <.isr_vector>:
   0:	6350206f          	j	2e34 <reset_handler>
   4:	6e10206f          	j	2ee4 <default_exc_handler>
   8:	6dd0206f          	j	2ee4 <default_exc_handler>
   c:	6d90206f          	j	2ee4 <default_exc_handler>
  10:	6d50206f          	j	2ee4 <default_exc_handler>
  14:	6d10206f          	j	2ee4 <default_exc_handler>
  18:	6cd0206f          	j	2ee4 <default_exc_handler>
  1c:	6c90206f          	j	2ee4 <default_exc_handler>
  20:	6c50206f          	j	2ee4 <default_exc_handler>
  24:	6c10206f          	j	2ee4 <default_exc_handler>
  28:	6bd0206f          	j	2ee4 <default_exc_handler>
  2c:	6b90206f          	j	2ee4 <default_exc_handler>
  30:	6b50206f          	j	2ee4 <default_exc_handler>
  34:	6b10206f          	j	2ee4 <default_exc_handler>
  38:	6ad0206f          	j	2ee4 <default_exc_handler>
  3c:	6a90206f          	j	2ee4 <default_exc_handler>
  40:	6a50206f          	j	2ee4 <default_exc_handler>
  44:	6a10206f          	j	2ee4 <default_exc_handler>
  48:	69d0206f          	j	2ee4 <default_exc_handler>
  4c:	6990206f          	j	2ee4 <default_exc_handler>
  50:	6950206f          	j	2ee4 <default_exc_handler>
  54:	6910206f          	j	2ee4 <default_exc_handler>
  58:	68d0206f          	j	2ee4 <default_exc_handler>
  5c:	6890206f          	j	2ee4 <default_exc_handler>
  60:	6850206f          	j	2ee4 <default_exc_handler>
  64:	6810206f          	j	2ee4 <default_exc_handler>
  68:	67d0206f          	j	2ee4 <default_exc_handler>
  6c:	6790206f          	j	2ee4 <default_exc_handler>
  70:	6750206f          	j	2ee4 <default_exc_handler>
  74:	6710206f          	j	2ee4 <default_exc_handler>
  78:	66d0206f          	j	2ee4 <default_exc_handler>
  7c:	6690206f          	j	2ee4 <default_exc_handler>
  80:	5b50206f          	j	2e34 <reset_handler>
	...

Disassembly of section .text:

000000a0 <main>:
      a0:	ff010113          	add	sp,sp,-16
      a4:	00112623          	sw	ra,12(sp)
      a8:	00812423          	sw	s0,8(sp)
      ac:	01010413          	add	s0,sp,16
      b0:	000037b7          	lui	a5,0x3
      b4:	56878513          	add	a0,a5,1384 # 3568 <__umoddi3+0x326>
      b8:	330020ef          	jal	23e8 <printf_>
      bc:	0000006f          	j	bc <main+0x1c>

000000c0 <_out_buffer>:
      c0:	fe010113          	add	sp,sp,-32
      c4:	00812e23          	sw	s0,28(sp)
      c8:	02010413          	add	s0,sp,32
      cc:	00050793          	mv	a5,a0
      d0:	feb42423          	sw	a1,-24(s0)
      d4:	fec42223          	sw	a2,-28(s0)
      d8:	fed42023          	sw	a3,-32(s0)
      dc:	fef407a3          	sb	a5,-17(s0)
      e0:	fe442703          	lw	a4,-28(s0)
      e4:	fe042783          	lw	a5,-32(s0)
      e8:	00f77c63          	bgeu	a4,a5,100 <_out_buffer+0x40>
      ec:	fe842703          	lw	a4,-24(s0)
      f0:	fe442783          	lw	a5,-28(s0)
      f4:	00f707b3          	add	a5,a4,a5
      f8:	fef44703          	lbu	a4,-17(s0)
      fc:	00e78023          	sb	a4,0(a5)
     100:	00000013          	nop
     104:	01c12403          	lw	s0,28(sp)
     108:	02010113          	add	sp,sp,32
     10c:	00008067          	ret

00000110 <_out_null>:
     110:	fe010113          	add	sp,sp,-32
     114:	00812e23          	sw	s0,28(sp)
     118:	02010413          	add	s0,sp,32
     11c:	00050793          	mv	a5,a0
     120:	feb42423          	sw	a1,-24(s0)
     124:	fec42223          	sw	a2,-28(s0)
     128:	fed42023          	sw	a3,-32(s0)
     12c:	fef407a3          	sb	a5,-17(s0)
     130:	00000013          	nop
     134:	01c12403          	lw	s0,28(sp)
     138:	02010113          	add	sp,sp,32
     13c:	00008067          	ret

00000140 <_putchar>:
     140:	fe010113          	add	sp,sp,-32
     144:	00112e23          	sw	ra,28(sp)
     148:	00812c23          	sw	s0,24(sp)
     14c:	02010413          	add	s0,sp,32
     150:	00050793          	mv	a5,a0
     154:	fef407a3          	sb	a5,-17(s0)
     158:	000047b7          	lui	a5,0x4
     15c:	00200737          	lui	a4,0x200
     160:	9ce7a223          	sw	a4,-1596(a5) # 39c4 <global_uart>
     164:	000047b7          	lui	a5,0x4
     168:	9c47a783          	lw	a5,-1596(a5) # 39c4 <global_uart>
     16c:	fef44703          	lbu	a4,-17(s0)
     170:	00070593          	mv	a1,a4
     174:	00078513          	mv	a0,a5
     178:	3f5020ef          	jal	2d6c <uart_send_char>
     17c:	00000793          	li	a5,0
     180:	00078513          	mv	a0,a5
     184:	01c12083          	lw	ra,28(sp)
     188:	01812403          	lw	s0,24(sp)
     18c:	02010113          	add	sp,sp,32
     190:	00008067          	ret

00000194 <_out_char>:
     194:	fe010113          	add	sp,sp,-32
     198:	00112e23          	sw	ra,28(sp)
     19c:	00812c23          	sw	s0,24(sp)
     1a0:	02010413          	add	s0,sp,32
     1a4:	00050793          	mv	a5,a0
     1a8:	feb42423          	sw	a1,-24(s0)
     1ac:	fec42223          	sw	a2,-28(s0)
     1b0:	fed42023          	sw	a3,-32(s0)
     1b4:	fef407a3          	sb	a5,-17(s0)
     1b8:	fef44783          	lbu	a5,-17(s0)
     1bc:	00078863          	beqz	a5,1cc <_out_char+0x38>
     1c0:	fef44783          	lbu	a5,-17(s0)
     1c4:	00078513          	mv	a0,a5
     1c8:	f79ff0ef          	jal	140 <_putchar>
     1cc:	00000013          	nop
     1d0:	01c12083          	lw	ra,28(sp)
     1d4:	01812403          	lw	s0,24(sp)
     1d8:	02010113          	add	sp,sp,32
     1dc:	00008067          	ret

000001e0 <_out_fct>:
     1e0:	fe010113          	add	sp,sp,-32
     1e4:	00112e23          	sw	ra,28(sp)
     1e8:	00812c23          	sw	s0,24(sp)
     1ec:	02010413          	add	s0,sp,32
     1f0:	00050793          	mv	a5,a0
     1f4:	feb42423          	sw	a1,-24(s0)
     1f8:	fec42223          	sw	a2,-28(s0)
     1fc:	fed42023          	sw	a3,-32(s0)
     200:	fef407a3          	sb	a5,-17(s0)
     204:	fef44783          	lbu	a5,-17(s0)
     208:	02078263          	beqz	a5,22c <_out_fct+0x4c>
     20c:	fe842783          	lw	a5,-24(s0)
     210:	0007a783          	lw	a5,0(a5)
     214:	fe842703          	lw	a4,-24(s0)
     218:	00472683          	lw	a3,4(a4) # 200004 <_stack_start+0x1fc004>
     21c:	fef44703          	lbu	a4,-17(s0)
     220:	00068593          	mv	a1,a3
     224:	00070513          	mv	a0,a4
     228:	000780e7          	jalr	a5
     22c:	00000013          	nop
     230:	01c12083          	lw	ra,28(sp)
     234:	01812403          	lw	s0,24(sp)
     238:	02010113          	add	sp,sp,32
     23c:	00008067          	ret

00000240 <_strnlen_s>:
     240:	fd010113          	add	sp,sp,-48
     244:	02812623          	sw	s0,44(sp)
     248:	03010413          	add	s0,sp,48
     24c:	fca42e23          	sw	a0,-36(s0)
     250:	fcb42c23          	sw	a1,-40(s0)
     254:	fdc42783          	lw	a5,-36(s0)
     258:	fef42623          	sw	a5,-20(s0)
     25c:	0100006f          	j	26c <_strnlen_s+0x2c>
     260:	fec42783          	lw	a5,-20(s0)
     264:	00178793          	add	a5,a5,1
     268:	fef42623          	sw	a5,-20(s0)
     26c:	fec42783          	lw	a5,-20(s0)
     270:	0007c783          	lbu	a5,0(a5)
     274:	00078a63          	beqz	a5,288 <_strnlen_s+0x48>
     278:	fd842783          	lw	a5,-40(s0)
     27c:	fff78713          	add	a4,a5,-1
     280:	fce42c23          	sw	a4,-40(s0)
     284:	fc079ee3          	bnez	a5,260 <_strnlen_s+0x20>
     288:	fec42703          	lw	a4,-20(s0)
     28c:	fdc42783          	lw	a5,-36(s0)
     290:	40f707b3          	sub	a5,a4,a5
     294:	00078513          	mv	a0,a5
     298:	02c12403          	lw	s0,44(sp)
     29c:	03010113          	add	sp,sp,48
     2a0:	00008067          	ret

000002a4 <_is_digit>:
     2a4:	fe010113          	add	sp,sp,-32
     2a8:	00812e23          	sw	s0,28(sp)
     2ac:	02010413          	add	s0,sp,32
     2b0:	00050793          	mv	a5,a0
     2b4:	fef407a3          	sb	a5,-17(s0)
     2b8:	fef44703          	lbu	a4,-17(s0)
     2bc:	02f00793          	li	a5,47
     2c0:	00e7fc63          	bgeu	a5,a4,2d8 <_is_digit+0x34>
     2c4:	fef44703          	lbu	a4,-17(s0)
     2c8:	03900793          	li	a5,57
     2cc:	00e7e663          	bltu	a5,a4,2d8 <_is_digit+0x34>
     2d0:	00100793          	li	a5,1
     2d4:	0080006f          	j	2dc <_is_digit+0x38>
     2d8:	00000793          	li	a5,0
     2dc:	0017f793          	and	a5,a5,1
     2e0:	0ff7f793          	zext.b	a5,a5
     2e4:	00078513          	mv	a0,a5
     2e8:	01c12403          	lw	s0,28(sp)
     2ec:	02010113          	add	sp,sp,32
     2f0:	00008067          	ret

000002f4 <_atoi>:
     2f4:	fd010113          	add	sp,sp,-48
     2f8:	02112623          	sw	ra,44(sp)
     2fc:	02812423          	sw	s0,40(sp)
     300:	03010413          	add	s0,sp,48
     304:	fca42e23          	sw	a0,-36(s0)
     308:	fe042623          	sw	zero,-20(s0)
     30c:	0400006f          	j	34c <_atoi+0x58>
     310:	fec42703          	lw	a4,-20(s0)
     314:	00070793          	mv	a5,a4
     318:	00279793          	sll	a5,a5,0x2
     31c:	00e787b3          	add	a5,a5,a4
     320:	00179793          	sll	a5,a5,0x1
     324:	00078613          	mv	a2,a5
     328:	fdc42783          	lw	a5,-36(s0)
     32c:	0007a783          	lw	a5,0(a5)
     330:	00178693          	add	a3,a5,1
     334:	fdc42703          	lw	a4,-36(s0)
     338:	00d72023          	sw	a3,0(a4)
     33c:	0007c783          	lbu	a5,0(a5)
     340:	00f607b3          	add	a5,a2,a5
     344:	fd078793          	add	a5,a5,-48
     348:	fef42623          	sw	a5,-20(s0)
     34c:	fdc42783          	lw	a5,-36(s0)
     350:	0007a783          	lw	a5,0(a5)
     354:	0007c783          	lbu	a5,0(a5)
     358:	00078513          	mv	a0,a5
     35c:	f49ff0ef          	jal	2a4 <_is_digit>
     360:	00050793          	mv	a5,a0
     364:	fa0796e3          	bnez	a5,310 <_atoi+0x1c>
     368:	fec42783          	lw	a5,-20(s0)
     36c:	00078513          	mv	a0,a5
     370:	02c12083          	lw	ra,44(sp)
     374:	02812403          	lw	s0,40(sp)
     378:	03010113          	add	sp,sp,48
     37c:	00008067          	ret

00000380 <_out_rev>:
     380:	fc010113          	add	sp,sp,-64
     384:	02112e23          	sw	ra,60(sp)
     388:	02812c23          	sw	s0,56(sp)
     38c:	04010413          	add	s0,sp,64
     390:	fca42e23          	sw	a0,-36(s0)
     394:	fcb42c23          	sw	a1,-40(s0)
     398:	fcc42a23          	sw	a2,-44(s0)
     39c:	fcd42823          	sw	a3,-48(s0)
     3a0:	fce42623          	sw	a4,-52(s0)
     3a4:	fcf42423          	sw	a5,-56(s0)
     3a8:	fd042223          	sw	a6,-60(s0)
     3ac:	fd142023          	sw	a7,-64(s0)
     3b0:	fd442783          	lw	a5,-44(s0)
     3b4:	fef42423          	sw	a5,-24(s0)
     3b8:	fc042783          	lw	a5,-64(s0)
     3bc:	0027f793          	and	a5,a5,2
     3c0:	08079c63          	bnez	a5,458 <_out_rev+0xd8>
     3c4:	fc042783          	lw	a5,-64(s0)
     3c8:	0017f793          	and	a5,a5,1
     3cc:	08079663          	bnez	a5,458 <_out_rev+0xd8>
     3d0:	fc842783          	lw	a5,-56(s0)
     3d4:	fef42623          	sw	a5,-20(s0)
     3d8:	0340006f          	j	40c <_out_rev+0x8c>
     3dc:	fd442783          	lw	a5,-44(s0)
     3e0:	00178713          	add	a4,a5,1
     3e4:	fce42a23          	sw	a4,-44(s0)
     3e8:	fdc42703          	lw	a4,-36(s0)
     3ec:	fd042683          	lw	a3,-48(s0)
     3f0:	00078613          	mv	a2,a5
     3f4:	fd842583          	lw	a1,-40(s0)
     3f8:	02000513          	li	a0,32
     3fc:	000700e7          	jalr	a4
     400:	fec42783          	lw	a5,-20(s0)
     404:	00178793          	add	a5,a5,1
     408:	fef42623          	sw	a5,-20(s0)
     40c:	fec42703          	lw	a4,-20(s0)
     410:	fc442783          	lw	a5,-60(s0)
     414:	fcf764e3          	bltu	a4,a5,3dc <_out_rev+0x5c>
     418:	0400006f          	j	458 <_out_rev+0xd8>
     41c:	fc842783          	lw	a5,-56(s0)
     420:	fff78793          	add	a5,a5,-1
     424:	fcf42423          	sw	a5,-56(s0)
     428:	fcc42703          	lw	a4,-52(s0)
     42c:	fc842783          	lw	a5,-56(s0)
     430:	00f707b3          	add	a5,a4,a5
     434:	0007c503          	lbu	a0,0(a5)
     438:	fd442783          	lw	a5,-44(s0)
     43c:	00178713          	add	a4,a5,1
     440:	fce42a23          	sw	a4,-44(s0)
     444:	fdc42703          	lw	a4,-36(s0)
     448:	fd042683          	lw	a3,-48(s0)
     44c:	00078613          	mv	a2,a5
     450:	fd842583          	lw	a1,-40(s0)
     454:	000700e7          	jalr	a4
     458:	fc842783          	lw	a5,-56(s0)
     45c:	fc0790e3          	bnez	a5,41c <_out_rev+0x9c>
     460:	fc042783          	lw	a5,-64(s0)
     464:	0027f793          	and	a5,a5,2
     468:	04078063          	beqz	a5,4a8 <_out_rev+0x128>
     46c:	0280006f          	j	494 <_out_rev+0x114>
     470:	fd442783          	lw	a5,-44(s0)
     474:	00178713          	add	a4,a5,1
     478:	fce42a23          	sw	a4,-44(s0)
     47c:	fdc42703          	lw	a4,-36(s0)
     480:	fd042683          	lw	a3,-48(s0)
     484:	00078613          	mv	a2,a5
     488:	fd842583          	lw	a1,-40(s0)
     48c:	02000513          	li	a0,32
     490:	000700e7          	jalr	a4
     494:	fd442703          	lw	a4,-44(s0)
     498:	fe842783          	lw	a5,-24(s0)
     49c:	40f707b3          	sub	a5,a4,a5
     4a0:	fc442703          	lw	a4,-60(s0)
     4a4:	fce7e6e3          	bltu	a5,a4,470 <_out_rev+0xf0>
     4a8:	fd442783          	lw	a5,-44(s0)
     4ac:	00078513          	mv	a0,a5
     4b0:	03c12083          	lw	ra,60(sp)
     4b4:	03812403          	lw	s0,56(sp)
     4b8:	04010113          	add	sp,sp,64
     4bc:	00008067          	ret

000004c0 <_ntoa_format>:
     4c0:	fd010113          	add	sp,sp,-48
     4c4:	02112623          	sw	ra,44(sp)
     4c8:	02812423          	sw	s0,40(sp)
     4cc:	03010413          	add	s0,sp,48
     4d0:	fea42623          	sw	a0,-20(s0)
     4d4:	feb42423          	sw	a1,-24(s0)
     4d8:	fec42223          	sw	a2,-28(s0)
     4dc:	fed42023          	sw	a3,-32(s0)
     4e0:	fce42e23          	sw	a4,-36(s0)
     4e4:	fcf42c23          	sw	a5,-40(s0)
     4e8:	00080793          	mv	a5,a6
     4ec:	fd142823          	sw	a7,-48(s0)
     4f0:	fcf40ba3          	sb	a5,-41(s0)
     4f4:	00842783          	lw	a5,8(s0)
     4f8:	0027f793          	and	a5,a5,2
     4fc:	0a079a63          	bnez	a5,5b0 <_ntoa_format+0xf0>
     500:	00442783          	lw	a5,4(s0)
     504:	04078863          	beqz	a5,554 <_ntoa_format+0x94>
     508:	00842783          	lw	a5,8(s0)
     50c:	0017f793          	and	a5,a5,1
     510:	04078263          	beqz	a5,554 <_ntoa_format+0x94>
     514:	fd744783          	lbu	a5,-41(s0)
     518:	00079863          	bnez	a5,528 <_ntoa_format+0x68>
     51c:	00842783          	lw	a5,8(s0)
     520:	00c7f793          	and	a5,a5,12
     524:	02078863          	beqz	a5,554 <_ntoa_format+0x94>
     528:	00442783          	lw	a5,4(s0)
     52c:	fff78793          	add	a5,a5,-1
     530:	00f42223          	sw	a5,4(s0)
     534:	0200006f          	j	554 <_ntoa_format+0x94>
     538:	fd842783          	lw	a5,-40(s0)
     53c:	00178713          	add	a4,a5,1
     540:	fce42c23          	sw	a4,-40(s0)
     544:	fdc42703          	lw	a4,-36(s0)
     548:	00f707b3          	add	a5,a4,a5
     54c:	03000713          	li	a4,48
     550:	00e78023          	sb	a4,0(a5)
     554:	fd842703          	lw	a4,-40(s0)
     558:	00042783          	lw	a5,0(s0)
     55c:	02f77863          	bgeu	a4,a5,58c <_ntoa_format+0xcc>
     560:	fd842703          	lw	a4,-40(s0)
     564:	01f00793          	li	a5,31
     568:	fce7f8e3          	bgeu	a5,a4,538 <_ntoa_format+0x78>
     56c:	0200006f          	j	58c <_ntoa_format+0xcc>
     570:	fd842783          	lw	a5,-40(s0)
     574:	00178713          	add	a4,a5,1
     578:	fce42c23          	sw	a4,-40(s0)
     57c:	fdc42703          	lw	a4,-36(s0)
     580:	00f707b3          	add	a5,a4,a5
     584:	03000713          	li	a4,48
     588:	00e78023          	sb	a4,0(a5)
     58c:	00842783          	lw	a5,8(s0)
     590:	0017f793          	and	a5,a5,1
     594:	00078e63          	beqz	a5,5b0 <_ntoa_format+0xf0>
     598:	fd842703          	lw	a4,-40(s0)
     59c:	00442783          	lw	a5,4(s0)
     5a0:	00f77863          	bgeu	a4,a5,5b0 <_ntoa_format+0xf0>
     5a4:	fd842703          	lw	a4,-40(s0)
     5a8:	01f00793          	li	a5,31
     5ac:	fce7f2e3          	bgeu	a5,a4,570 <_ntoa_format+0xb0>
     5b0:	00842783          	lw	a5,8(s0)
     5b4:	0107f793          	and	a5,a5,16
     5b8:	14078063          	beqz	a5,6f8 <_ntoa_format+0x238>
     5bc:	00842783          	lw	a5,8(s0)
     5c0:	4007f793          	and	a5,a5,1024
     5c4:	04079863          	bnez	a5,614 <_ntoa_format+0x154>
     5c8:	fd842783          	lw	a5,-40(s0)
     5cc:	04078463          	beqz	a5,614 <_ntoa_format+0x154>
     5d0:	fd842703          	lw	a4,-40(s0)
     5d4:	00042783          	lw	a5,0(s0)
     5d8:	00f70863          	beq	a4,a5,5e8 <_ntoa_format+0x128>
     5dc:	fd842703          	lw	a4,-40(s0)
     5e0:	00442783          	lw	a5,4(s0)
     5e4:	02f71863          	bne	a4,a5,614 <_ntoa_format+0x154>
     5e8:	fd842783          	lw	a5,-40(s0)
     5ec:	fff78793          	add	a5,a5,-1
     5f0:	fcf42c23          	sw	a5,-40(s0)
     5f4:	fd842783          	lw	a5,-40(s0)
     5f8:	00078e63          	beqz	a5,614 <_ntoa_format+0x154>
     5fc:	fd042703          	lw	a4,-48(s0)
     600:	01000793          	li	a5,16
     604:	00f71863          	bne	a4,a5,614 <_ntoa_format+0x154>
     608:	fd842783          	lw	a5,-40(s0)
     60c:	fff78793          	add	a5,a5,-1
     610:	fcf42c23          	sw	a5,-40(s0)
     614:	fd042703          	lw	a4,-48(s0)
     618:	01000793          	li	a5,16
     61c:	02f71e63          	bne	a4,a5,658 <_ntoa_format+0x198>
     620:	00842783          	lw	a5,8(s0)
     624:	0207f793          	and	a5,a5,32
     628:	02079863          	bnez	a5,658 <_ntoa_format+0x198>
     62c:	fd842703          	lw	a4,-40(s0)
     630:	01f00793          	li	a5,31
     634:	02e7e263          	bltu	a5,a4,658 <_ntoa_format+0x198>
     638:	fd842783          	lw	a5,-40(s0)
     63c:	00178713          	add	a4,a5,1
     640:	fce42c23          	sw	a4,-40(s0)
     644:	fdc42703          	lw	a4,-36(s0)
     648:	00f707b3          	add	a5,a4,a5
     64c:	07800713          	li	a4,120
     650:	00e78023          	sb	a4,0(a5)
     654:	07c0006f          	j	6d0 <_ntoa_format+0x210>
     658:	fd042703          	lw	a4,-48(s0)
     65c:	01000793          	li	a5,16
     660:	02f71e63          	bne	a4,a5,69c <_ntoa_format+0x1dc>
     664:	00842783          	lw	a5,8(s0)
     668:	0207f793          	and	a5,a5,32
     66c:	02078863          	beqz	a5,69c <_ntoa_format+0x1dc>
     670:	fd842703          	lw	a4,-40(s0)
     674:	01f00793          	li	a5,31
     678:	02e7e263          	bltu	a5,a4,69c <_ntoa_format+0x1dc>
     67c:	fd842783          	lw	a5,-40(s0)
     680:	00178713          	add	a4,a5,1
     684:	fce42c23          	sw	a4,-40(s0)
     688:	fdc42703          	lw	a4,-36(s0)
     68c:	00f707b3          	add	a5,a4,a5
     690:	05800713          	li	a4,88
     694:	00e78023          	sb	a4,0(a5)
     698:	0380006f          	j	6d0 <_ntoa_format+0x210>
     69c:	fd042703          	lw	a4,-48(s0)
     6a0:	00200793          	li	a5,2
     6a4:	02f71663          	bne	a4,a5,6d0 <_ntoa_format+0x210>
     6a8:	fd842703          	lw	a4,-40(s0)
     6ac:	01f00793          	li	a5,31
     6b0:	02e7e063          	bltu	a5,a4,6d0 <_ntoa_format+0x210>
     6b4:	fd842783          	lw	a5,-40(s0)
     6b8:	00178713          	add	a4,a5,1
     6bc:	fce42c23          	sw	a4,-40(s0)
     6c0:	fdc42703          	lw	a4,-36(s0)
     6c4:	00f707b3          	add	a5,a4,a5
     6c8:	06200713          	li	a4,98
     6cc:	00e78023          	sb	a4,0(a5)
     6d0:	fd842703          	lw	a4,-40(s0)
     6d4:	01f00793          	li	a5,31
     6d8:	02e7e063          	bltu	a5,a4,6f8 <_ntoa_format+0x238>
     6dc:	fd842783          	lw	a5,-40(s0)
     6e0:	00178713          	add	a4,a5,1
     6e4:	fce42c23          	sw	a4,-40(s0)
     6e8:	fdc42703          	lw	a4,-36(s0)
     6ec:	00f707b3          	add	a5,a4,a5
     6f0:	03000713          	li	a4,48
     6f4:	00e78023          	sb	a4,0(a5)
     6f8:	fd842703          	lw	a4,-40(s0)
     6fc:	01f00793          	li	a5,31
     700:	08e7e063          	bltu	a5,a4,780 <_ntoa_format+0x2c0>
     704:	fd744783          	lbu	a5,-41(s0)
     708:	02078263          	beqz	a5,72c <_ntoa_format+0x26c>
     70c:	fd842783          	lw	a5,-40(s0)
     710:	00178713          	add	a4,a5,1
     714:	fce42c23          	sw	a4,-40(s0)
     718:	fdc42703          	lw	a4,-36(s0)
     71c:	00f707b3          	add	a5,a4,a5
     720:	02d00713          	li	a4,45
     724:	00e78023          	sb	a4,0(a5)
     728:	0580006f          	j	780 <_ntoa_format+0x2c0>
     72c:	00842783          	lw	a5,8(s0)
     730:	0047f793          	and	a5,a5,4
     734:	02078263          	beqz	a5,758 <_ntoa_format+0x298>
     738:	fd842783          	lw	a5,-40(s0)
     73c:	00178713          	add	a4,a5,1
     740:	fce42c23          	sw	a4,-40(s0)
     744:	fdc42703          	lw	a4,-36(s0)
     748:	00f707b3          	add	a5,a4,a5
     74c:	02b00713          	li	a4,43
     750:	00e78023          	sb	a4,0(a5)
     754:	02c0006f          	j	780 <_ntoa_format+0x2c0>
     758:	00842783          	lw	a5,8(s0)
     75c:	0087f793          	and	a5,a5,8
     760:	02078063          	beqz	a5,780 <_ntoa_format+0x2c0>
     764:	fd842783          	lw	a5,-40(s0)
     768:	00178713          	add	a4,a5,1
     76c:	fce42c23          	sw	a4,-40(s0)
     770:	fdc42703          	lw	a4,-36(s0)
     774:	00f707b3          	add	a5,a4,a5
     778:	02000713          	li	a4,32
     77c:	00e78023          	sb	a4,0(a5)
     780:	00842883          	lw	a7,8(s0)
     784:	00442803          	lw	a6,4(s0)
     788:	fd842783          	lw	a5,-40(s0)
     78c:	fdc42703          	lw	a4,-36(s0)
     790:	fe042683          	lw	a3,-32(s0)
     794:	fe442603          	lw	a2,-28(s0)
     798:	fe842583          	lw	a1,-24(s0)
     79c:	fec42503          	lw	a0,-20(s0)
     7a0:	be1ff0ef          	jal	380 <_out_rev>
     7a4:	00050793          	mv	a5,a0
     7a8:	00078513          	mv	a0,a5
     7ac:	02c12083          	lw	ra,44(sp)
     7b0:	02812403          	lw	s0,40(sp)
     7b4:	03010113          	add	sp,sp,48
     7b8:	00008067          	ret

000007bc <_ntoa_long>:
     7bc:	f9010113          	add	sp,sp,-112
     7c0:	06112623          	sw	ra,108(sp)
     7c4:	06812423          	sw	s0,104(sp)
     7c8:	07010413          	add	s0,sp,112
     7cc:	faa42e23          	sw	a0,-68(s0)
     7d0:	fab42c23          	sw	a1,-72(s0)
     7d4:	fac42a23          	sw	a2,-76(s0)
     7d8:	fad42823          	sw	a3,-80(s0)
     7dc:	fae42623          	sw	a4,-84(s0)
     7e0:	fb042223          	sw	a6,-92(s0)
     7e4:	fb142023          	sw	a7,-96(s0)
     7e8:	faf405a3          	sb	a5,-85(s0)
     7ec:	fe042623          	sw	zero,-20(s0)
     7f0:	fac42783          	lw	a5,-84(s0)
     7f4:	00079863          	bnez	a5,804 <_ntoa_long+0x48>
     7f8:	00442783          	lw	a5,4(s0)
     7fc:	fef7f793          	and	a5,a5,-17
     800:	00f42223          	sw	a5,4(s0)
     804:	00442783          	lw	a5,4(s0)
     808:	4007f793          	and	a5,a5,1024
     80c:	00078663          	beqz	a5,818 <_ntoa_long+0x5c>
     810:	fac42783          	lw	a5,-84(s0)
     814:	08078c63          	beqz	a5,8ac <_ntoa_long+0xf0>
     818:	fac42703          	lw	a4,-84(s0)
     81c:	fa442783          	lw	a5,-92(s0)
     820:	02f777b3          	remu	a5,a4,a5
     824:	fef405a3          	sb	a5,-21(s0)
     828:	feb44703          	lbu	a4,-21(s0)
     82c:	00900793          	li	a5,9
     830:	00e7ea63          	bltu	a5,a4,844 <_ntoa_long+0x88>
     834:	feb44783          	lbu	a5,-21(s0)
     838:	03078793          	add	a5,a5,48
     83c:	0ff7f793          	zext.b	a5,a5
     840:	0300006f          	j	870 <_ntoa_long+0xb4>
     844:	00442783          	lw	a5,4(s0)
     848:	0207f793          	and	a5,a5,32
     84c:	00078663          	beqz	a5,858 <_ntoa_long+0x9c>
     850:	04100793          	li	a5,65
     854:	0080006f          	j	85c <_ntoa_long+0xa0>
     858:	06100793          	li	a5,97
     85c:	feb44703          	lbu	a4,-21(s0)
     860:	00e787b3          	add	a5,a5,a4
     864:	0ff7f793          	zext.b	a5,a5
     868:	ff678793          	add	a5,a5,-10
     86c:	0ff7f793          	zext.b	a5,a5
     870:	fec42703          	lw	a4,-20(s0)
     874:	00170693          	add	a3,a4,1
     878:	fed42623          	sw	a3,-20(s0)
     87c:	ff070713          	add	a4,a4,-16
     880:	00870733          	add	a4,a4,s0
     884:	fcf70c23          	sb	a5,-40(a4)
     888:	fac42703          	lw	a4,-84(s0)
     88c:	fa442783          	lw	a5,-92(s0)
     890:	02f757b3          	divu	a5,a4,a5
     894:	faf42623          	sw	a5,-84(s0)
     898:	fac42783          	lw	a5,-84(s0)
     89c:	00078863          	beqz	a5,8ac <_ntoa_long+0xf0>
     8a0:	fec42703          	lw	a4,-20(s0)
     8a4:	01f00793          	li	a5,31
     8a8:	f6e7f8e3          	bgeu	a5,a4,818 <_ntoa_long+0x5c>
     8ac:	fab44683          	lbu	a3,-85(s0)
     8b0:	fc840713          	add	a4,s0,-56
     8b4:	00442783          	lw	a5,4(s0)
     8b8:	00f12423          	sw	a5,8(sp)
     8bc:	00042783          	lw	a5,0(s0)
     8c0:	00f12223          	sw	a5,4(sp)
     8c4:	fa042783          	lw	a5,-96(s0)
     8c8:	00f12023          	sw	a5,0(sp)
     8cc:	fa442883          	lw	a7,-92(s0)
     8d0:	00068813          	mv	a6,a3
     8d4:	fec42783          	lw	a5,-20(s0)
     8d8:	fb042683          	lw	a3,-80(s0)
     8dc:	fb442603          	lw	a2,-76(s0)
     8e0:	fb842583          	lw	a1,-72(s0)
     8e4:	fbc42503          	lw	a0,-68(s0)
     8e8:	bd9ff0ef          	jal	4c0 <_ntoa_format>
     8ec:	00050793          	mv	a5,a0
     8f0:	00078513          	mv	a0,a5
     8f4:	06c12083          	lw	ra,108(sp)
     8f8:	06812403          	lw	s0,104(sp)
     8fc:	07010113          	add	sp,sp,112
     900:	00008067          	ret

00000904 <_ntoa_long_long>:
     904:	f8010113          	add	sp,sp,-128
     908:	06112623          	sw	ra,108(sp)
     90c:	06812423          	sw	s0,104(sp)
     910:	07010413          	add	s0,sp,112
     914:	faa42e23          	sw	a0,-68(s0)
     918:	fab42c23          	sw	a1,-72(s0)
     91c:	fac42a23          	sw	a2,-76(s0)
     920:	fad42823          	sw	a3,-80(s0)
     924:	fae42423          	sw	a4,-88(s0)
     928:	faf42623          	sw	a5,-84(s0)
     92c:	00080793          	mv	a5,a6
     930:	01142623          	sw	a7,12(s0)
     934:	faf403a3          	sb	a5,-89(s0)
     938:	fe042623          	sw	zero,-20(s0)
     93c:	fa842783          	lw	a5,-88(s0)
     940:	fac42703          	lw	a4,-84(s0)
     944:	00e7e7b3          	or	a5,a5,a4
     948:	00079863          	bnez	a5,958 <_ntoa_long_long+0x54>
     94c:	01c42783          	lw	a5,28(s0)
     950:	fef7f793          	and	a5,a5,-17
     954:	00f42e23          	sw	a5,28(s0)
     958:	01c42783          	lw	a5,28(s0)
     95c:	4007f793          	and	a5,a5,1024
     960:	00078a63          	beqz	a5,974 <_ntoa_long_long+0x70>
     964:	fa842783          	lw	a5,-88(s0)
     968:	fac42703          	lw	a4,-84(s0)
     96c:	00e7e7b3          	or	a5,a5,a4
     970:	0c078663          	beqz	a5,a3c <_ntoa_long_long+0x138>
     974:	fa842703          	lw	a4,-88(s0)
     978:	fac42783          	lw	a5,-84(s0)
     97c:	00c42603          	lw	a2,12(s0)
     980:	01042683          	lw	a3,16(s0)
     984:	00070513          	mv	a0,a4
     988:	00078593          	mv	a1,a5
     98c:	0b7020ef          	jal	3242 <__umoddi3>
     990:	00050713          	mv	a4,a0
     994:	00058793          	mv	a5,a1
     998:	fee405a3          	sb	a4,-21(s0)
     99c:	feb44703          	lbu	a4,-21(s0)
     9a0:	00900793          	li	a5,9
     9a4:	00e7ea63          	bltu	a5,a4,9b8 <_ntoa_long_long+0xb4>
     9a8:	feb44783          	lbu	a5,-21(s0)
     9ac:	03078793          	add	a5,a5,48
     9b0:	0ff7f793          	zext.b	a5,a5
     9b4:	0300006f          	j	9e4 <_ntoa_long_long+0xe0>
     9b8:	01c42783          	lw	a5,28(s0)
     9bc:	0207f793          	and	a5,a5,32
     9c0:	00078663          	beqz	a5,9cc <_ntoa_long_long+0xc8>
     9c4:	04100793          	li	a5,65
     9c8:	0080006f          	j	9d0 <_ntoa_long_long+0xcc>
     9cc:	06100793          	li	a5,97
     9d0:	feb44703          	lbu	a4,-21(s0)
     9d4:	00e787b3          	add	a5,a5,a4
     9d8:	0ff7f793          	zext.b	a5,a5
     9dc:	ff678793          	add	a5,a5,-10
     9e0:	0ff7f793          	zext.b	a5,a5
     9e4:	fec42703          	lw	a4,-20(s0)
     9e8:	00170693          	add	a3,a4,1
     9ec:	fed42623          	sw	a3,-20(s0)
     9f0:	ff070713          	add	a4,a4,-16
     9f4:	00870733          	add	a4,a4,s0
     9f8:	fcf70c23          	sb	a5,-40(a4)
     9fc:	00c42603          	lw	a2,12(s0)
     a00:	01042683          	lw	a3,16(s0)
     a04:	fa842503          	lw	a0,-88(s0)
     a08:	fac42583          	lw	a1,-84(s0)
     a0c:	4dc020ef          	jal	2ee8 <__udivdi3>
     a10:	00050713          	mv	a4,a0
     a14:	00058793          	mv	a5,a1
     a18:	fae42423          	sw	a4,-88(s0)
     a1c:	faf42623          	sw	a5,-84(s0)
     a20:	fa842783          	lw	a5,-88(s0)
     a24:	fac42703          	lw	a4,-84(s0)
     a28:	00e7e7b3          	or	a5,a5,a4
     a2c:	00078863          	beqz	a5,a3c <_ntoa_long_long+0x138>
     a30:	fec42703          	lw	a4,-20(s0)
     a34:	01f00793          	li	a5,31
     a38:	f2e7fee3          	bgeu	a5,a4,974 <_ntoa_long_long+0x70>
     a3c:	00c42603          	lw	a2,12(s0)
     a40:	fa744683          	lbu	a3,-89(s0)
     a44:	fc840713          	add	a4,s0,-56
     a48:	01c42783          	lw	a5,28(s0)
     a4c:	00f12423          	sw	a5,8(sp)
     a50:	01842783          	lw	a5,24(s0)
     a54:	00f12223          	sw	a5,4(sp)
     a58:	01442783          	lw	a5,20(s0)
     a5c:	00f12023          	sw	a5,0(sp)
     a60:	00060893          	mv	a7,a2
     a64:	00068813          	mv	a6,a3
     a68:	fec42783          	lw	a5,-20(s0)
     a6c:	fb042683          	lw	a3,-80(s0)
     a70:	fb442603          	lw	a2,-76(s0)
     a74:	fb842583          	lw	a1,-72(s0)
     a78:	fbc42503          	lw	a0,-68(s0)
     a7c:	a45ff0ef          	jal	4c0 <_ntoa_format>
     a80:	00050793          	mv	a5,a0
     a84:	00078513          	mv	a0,a5
     a88:	06c12083          	lw	ra,108(sp)
     a8c:	06812403          	lw	s0,104(sp)
     a90:	08010113          	add	sp,sp,128
     a94:	00008067          	ret

00000a98 <_ftoa>:
     a98:	f7010113          	add	sp,sp,-144
     a9c:	08112623          	sw	ra,140(sp)
     aa0:	08812423          	sw	s0,136(sp)
     aa4:	09010413          	add	s0,sp,144
     aa8:	f8a42e23          	sw	a0,-100(s0)
     aac:	f8b42c23          	sw	a1,-104(s0)
     ab0:	f8c42a23          	sw	a2,-108(s0)
     ab4:	f8d42823          	sw	a3,-112(s0)
     ab8:	f8e42423          	sw	a4,-120(s0)
     abc:	f8f42623          	sw	a5,-116(s0)
     ac0:	f9042223          	sw	a6,-124(s0)
     ac4:	f9142023          	sw	a7,-128(s0)
     ac8:	fe042623          	sw	zero,-20(s0)
     acc:	fc042823          	sw	zero,-48(s0)
     ad0:	fc042a23          	sw	zero,-44(s0)
     ad4:	f8843707          	fld	fa4,-120(s0)
     ad8:	f8843787          	fld	fa5,-120(s0)
     adc:	a2f727d3          	feq.d	a5,fa4,fa5
     ae0:	02079a63          	bnez	a5,b14 <_ftoa+0x7c>
     ae4:	00042883          	lw	a7,0(s0)
     ae8:	f8042803          	lw	a6,-128(s0)
     aec:	00300793          	li	a5,3
     af0:	00003737          	lui	a4,0x3
     af4:	57870713          	add	a4,a4,1400 # 3578 <__umoddi3+0x336>
     af8:	f9042683          	lw	a3,-112(s0)
     afc:	f9442603          	lw	a2,-108(s0)
     b00:	f9842583          	lw	a1,-104(s0)
     b04:	f9c42503          	lw	a0,-100(s0)
     b08:	879ff0ef          	jal	380 <_out_rev>
     b0c:	00050793          	mv	a5,a0
     b10:	5540006f          	j	1064 <_ftoa+0x5cc>
     b14:	f8843707          	fld	fa4,-120(s0)
     b18:	000037b7          	lui	a5,0x3
     b1c:	7807b787          	fld	fa5,1920(a5) # 3780 <pow10.0+0x50>
     b20:	a2f717d3          	flt.d	a5,fa4,fa5
     b24:	02078a63          	beqz	a5,b58 <_ftoa+0xc0>
     b28:	00042883          	lw	a7,0(s0)
     b2c:	f8042803          	lw	a6,-128(s0)
     b30:	00400793          	li	a5,4
     b34:	00003737          	lui	a4,0x3
     b38:	57c70713          	add	a4,a4,1404 # 357c <__umoddi3+0x33a>
     b3c:	f9042683          	lw	a3,-112(s0)
     b40:	f9442603          	lw	a2,-108(s0)
     b44:	f9842583          	lw	a1,-104(s0)
     b48:	f9c42503          	lw	a0,-100(s0)
     b4c:	835ff0ef          	jal	380 <_out_rev>
     b50:	00050793          	mv	a5,a0
     b54:	5100006f          	j	1064 <_ftoa+0x5cc>
     b58:	f8843707          	fld	fa4,-120(s0)
     b5c:	000037b7          	lui	a5,0x3
     b60:	7887b787          	fld	fa5,1928(a5) # 3788 <pow10.0+0x58>
     b64:	a2e797d3          	flt.d	a5,fa5,fa4
     b68:	06078063          	beqz	a5,bc8 <_ftoa+0x130>
     b6c:	00042783          	lw	a5,0(s0)
     b70:	0047f793          	and	a5,a5,4
     b74:	00078863          	beqz	a5,b84 <_ftoa+0xec>
     b78:	000037b7          	lui	a5,0x3
     b7c:	58478713          	add	a4,a5,1412 # 3584 <__umoddi3+0x342>
     b80:	00c0006f          	j	b8c <_ftoa+0xf4>
     b84:	000037b7          	lui	a5,0x3
     b88:	58c78713          	add	a4,a5,1420 # 358c <__umoddi3+0x34a>
     b8c:	00042783          	lw	a5,0(s0)
     b90:	0047f793          	and	a5,a5,4
     b94:	00078663          	beqz	a5,ba0 <_ftoa+0x108>
     b98:	00400793          	li	a5,4
     b9c:	0080006f          	j	ba4 <_ftoa+0x10c>
     ba0:	00300793          	li	a5,3
     ba4:	00042883          	lw	a7,0(s0)
     ba8:	f8042803          	lw	a6,-128(s0)
     bac:	f9042683          	lw	a3,-112(s0)
     bb0:	f9442603          	lw	a2,-108(s0)
     bb4:	f9842583          	lw	a1,-104(s0)
     bb8:	f9c42503          	lw	a0,-100(s0)
     bbc:	fc4ff0ef          	jal	380 <_out_rev>
     bc0:	00050793          	mv	a5,a0
     bc4:	4a00006f          	j	1064 <_ftoa+0x5cc>
     bc8:	f8843707          	fld	fa4,-120(s0)
     bcc:	000037b7          	lui	a5,0x3
     bd0:	7907b787          	fld	fa5,1936(a5) # 3790 <pow10.0+0x60>
     bd4:	a2e797d3          	flt.d	a5,fa5,fa4
     bd8:	00079c63          	bnez	a5,bf0 <_ftoa+0x158>
     bdc:	f8843707          	fld	fa4,-120(s0)
     be0:	000037b7          	lui	a5,0x3
     be4:	7987b787          	fld	fa5,1944(a5) # 3798 <pow10.0+0x68>
     be8:	a2f717d3          	flt.d	a5,fa4,fa5
     bec:	02078c63          	beqz	a5,c24 <_ftoa+0x18c>
     bf0:	00042783          	lw	a5,0(s0)
     bf4:	00f12023          	sw	a5,0(sp)
     bf8:	f8042883          	lw	a7,-128(s0)
     bfc:	f8442803          	lw	a6,-124(s0)
     c00:	f8842703          	lw	a4,-120(s0)
     c04:	f8c42783          	lw	a5,-116(s0)
     c08:	f9042683          	lw	a3,-112(s0)
     c0c:	f9442603          	lw	a2,-108(s0)
     c10:	f9842583          	lw	a1,-104(s0)
     c14:	f9c42503          	lw	a0,-100(s0)
     c18:	460000ef          	jal	1078 <_etoa>
     c1c:	00050793          	mv	a5,a0
     c20:	4440006f          	j	1064 <_ftoa+0x5cc>
     c24:	fe0405a3          	sb	zero,-21(s0)
     c28:	f8843787          	fld	fa5,-120(s0)
     c2c:	d2000753          	fcvt.d.w	fa4,zero
     c30:	a2e797d3          	flt.d	a5,fa5,fa4
     c34:	00078e63          	beqz	a5,c50 <_ftoa+0x1b8>
     c38:	00100793          	li	a5,1
     c3c:	fef405a3          	sb	a5,-21(s0)
     c40:	d2000753          	fcvt.d.w	fa4,zero
     c44:	f8843787          	fld	fa5,-120(s0)
     c48:	0af777d3          	fsub.d	fa5,fa4,fa5
     c4c:	f8f43427          	fsd	fa5,-120(s0)
     c50:	00042783          	lw	a5,0(s0)
     c54:	4007f793          	and	a5,a5,1024
     c58:	02079c63          	bnez	a5,c90 <_ftoa+0x1f8>
     c5c:	00600793          	li	a5,6
     c60:	f8f42223          	sw	a5,-124(s0)
     c64:	02c0006f          	j	c90 <_ftoa+0x1f8>
     c68:	fec42783          	lw	a5,-20(s0)
     c6c:	00178713          	add	a4,a5,1
     c70:	fee42623          	sw	a4,-20(s0)
     c74:	ff078793          	add	a5,a5,-16
     c78:	008787b3          	add	a5,a5,s0
     c7c:	03000713          	li	a4,48
     c80:	fae78c23          	sb	a4,-72(a5)
     c84:	f8442783          	lw	a5,-124(s0)
     c88:	fff78793          	add	a5,a5,-1
     c8c:	f8f42223          	sw	a5,-124(s0)
     c90:	fec42703          	lw	a4,-20(s0)
     c94:	01f00793          	li	a5,31
     c98:	00e7e863          	bltu	a5,a4,ca8 <_ftoa+0x210>
     c9c:	f8442703          	lw	a4,-124(s0)
     ca0:	00900793          	li	a5,9
     ca4:	fce7e2e3          	bltu	a5,a4,c68 <_ftoa+0x1d0>
     ca8:	f8843787          	fld	fa5,-120(s0)
     cac:	c20797d3          	fcvt.w.d	a5,fa5,rtz
     cb0:	fef42223          	sw	a5,-28(s0)
     cb4:	fe442783          	lw	a5,-28(s0)
     cb8:	d20787d3          	fcvt.d.w	fa5,a5
     cbc:	f8843707          	fld	fa4,-120(s0)
     cc0:	0af77753          	fsub.d	fa4,fa4,fa5
     cc4:	000037b7          	lui	a5,0x3
     cc8:	73078713          	add	a4,a5,1840 # 3730 <pow10.0>
     ccc:	f8442783          	lw	a5,-124(s0)
     cd0:	00379793          	sll	a5,a5,0x3
     cd4:	00f707b3          	add	a5,a4,a5
     cd8:	0007b787          	fld	fa5,0(a5)
     cdc:	12f777d3          	fmul.d	fa5,fa4,fa5
     ce0:	fcf43427          	fsd	fa5,-56(s0)
     ce4:	fc843787          	fld	fa5,-56(s0)
     ce8:	c21797d3          	fcvt.wu.d	a5,fa5,rtz
     cec:	fef42023          	sw	a5,-32(s0)
     cf0:	fe042783          	lw	a5,-32(s0)
     cf4:	d21787d3          	fcvt.d.wu	fa5,a5
     cf8:	fc843707          	fld	fa4,-56(s0)
     cfc:	0af777d3          	fsub.d	fa5,fa4,fa5
     d00:	fcf43827          	fsd	fa5,-48(s0)
     d04:	fd043707          	fld	fa4,-48(s0)
     d08:	000037b7          	lui	a5,0x3
     d0c:	7a07b787          	fld	fa5,1952(a5) # 37a0 <pow10.0+0x70>
     d10:	a2e797d3          	flt.d	a5,fa5,fa4
     d14:	04078663          	beqz	a5,d60 <_ftoa+0x2c8>
     d18:	fe042783          	lw	a5,-32(s0)
     d1c:	00178793          	add	a5,a5,1
     d20:	fef42023          	sw	a5,-32(s0)
     d24:	fe042783          	lw	a5,-32(s0)
     d28:	d2178753          	fcvt.d.wu	fa4,a5
     d2c:	000037b7          	lui	a5,0x3
     d30:	73078713          	add	a4,a5,1840 # 3730 <pow10.0>
     d34:	f8442783          	lw	a5,-124(s0)
     d38:	00379793          	sll	a5,a5,0x3
     d3c:	00f707b3          	add	a5,a4,a5
     d40:	0007b787          	fld	fa5,0(a5)
     d44:	a2e787d3          	fle.d	a5,fa5,fa4
     d48:	04078663          	beqz	a5,d94 <_ftoa+0x2fc>
     d4c:	fe042023          	sw	zero,-32(s0)
     d50:	fe442783          	lw	a5,-28(s0)
     d54:	00178793          	add	a5,a5,1
     d58:	fef42223          	sw	a5,-28(s0)
     d5c:	0380006f          	j	d94 <_ftoa+0x2fc>
     d60:	fd043707          	fld	fa4,-48(s0)
     d64:	000037b7          	lui	a5,0x3
     d68:	7a07b787          	fld	fa5,1952(a5) # 37a0 <pow10.0+0x70>
     d6c:	a2f717d3          	flt.d	a5,fa4,fa5
     d70:	02079263          	bnez	a5,d94 <_ftoa+0x2fc>
     d74:	fe042783          	lw	a5,-32(s0)
     d78:	00078863          	beqz	a5,d88 <_ftoa+0x2f0>
     d7c:	fe042783          	lw	a5,-32(s0)
     d80:	0017f793          	and	a5,a5,1
     d84:	00078863          	beqz	a5,d94 <_ftoa+0x2fc>
     d88:	fe042783          	lw	a5,-32(s0)
     d8c:	00178793          	add	a5,a5,1
     d90:	fef42023          	sw	a5,-32(s0)
     d94:	f8442783          	lw	a5,-124(s0)
     d98:	06079663          	bnez	a5,e04 <_ftoa+0x36c>
     d9c:	fe442783          	lw	a5,-28(s0)
     da0:	d20787d3          	fcvt.d.w	fa5,a5
     da4:	f8843707          	fld	fa4,-120(s0)
     da8:	0af777d3          	fsub.d	fa5,fa4,fa5
     dac:	fcf43827          	fsd	fa5,-48(s0)
     db0:	fd043707          	fld	fa4,-48(s0)
     db4:	000037b7          	lui	a5,0x3
     db8:	7a07b787          	fld	fa5,1952(a5) # 37a0 <pow10.0+0x70>
     dbc:	a2f717d3          	flt.d	a5,fa4,fa5
     dc0:	00f037b3          	snez	a5,a5
     dc4:	0ff7f793          	zext.b	a5,a5
     dc8:	0017c793          	xor	a5,a5,1
     dcc:	0ff7f793          	zext.b	a5,a5
     dd0:	00079c63          	bnez	a5,de8 <_ftoa+0x350>
     dd4:	fd043707          	fld	fa4,-48(s0)
     dd8:	000037b7          	lui	a5,0x3
     ddc:	7a07b787          	fld	fa5,1952(a5) # 37a0 <pow10.0+0x70>
     de0:	a2e797d3          	flt.d	a5,fa5,fa4
     de4:	0e078c63          	beqz	a5,edc <_ftoa+0x444>
     de8:	fe442783          	lw	a5,-28(s0)
     dec:	0017f793          	and	a5,a5,1
     df0:	12078c63          	beqz	a5,f28 <_ftoa+0x490>
     df4:	fe442783          	lw	a5,-28(s0)
     df8:	00178793          	add	a5,a5,1
     dfc:	fef42223          	sw	a5,-28(s0)
     e00:	1280006f          	j	f28 <_ftoa+0x490>
     e04:	f8442783          	lw	a5,-124(s0)
     e08:	fcf42e23          	sw	a5,-36(s0)
     e0c:	0580006f          	j	e64 <_ftoa+0x3cc>
     e10:	fdc42783          	lw	a5,-36(s0)
     e14:	fff78793          	add	a5,a5,-1
     e18:	fcf42e23          	sw	a5,-36(s0)
     e1c:	fe042703          	lw	a4,-32(s0)
     e20:	00a00793          	li	a5,10
     e24:	02f777b3          	remu	a5,a4,a5
     e28:	0ff7f713          	zext.b	a4,a5
     e2c:	fec42783          	lw	a5,-20(s0)
     e30:	00178693          	add	a3,a5,1
     e34:	fed42623          	sw	a3,-20(s0)
     e38:	03070713          	add	a4,a4,48
     e3c:	0ff77713          	zext.b	a4,a4
     e40:	ff078793          	add	a5,a5,-16
     e44:	008787b3          	add	a5,a5,s0
     e48:	fae78c23          	sb	a4,-72(a5)
     e4c:	fe042703          	lw	a4,-32(s0)
     e50:	00a00793          	li	a5,10
     e54:	02f757b3          	divu	a5,a4,a5
     e58:	fef42023          	sw	a5,-32(s0)
     e5c:	fe042783          	lw	a5,-32(s0)
     e60:	00078a63          	beqz	a5,e74 <_ftoa+0x3dc>
     e64:	fec42703          	lw	a4,-20(s0)
     e68:	01f00793          	li	a5,31
     e6c:	fae7f2e3          	bgeu	a5,a4,e10 <_ftoa+0x378>
     e70:	0280006f          	j	e98 <_ftoa+0x400>
     e74:	00000013          	nop
     e78:	0200006f          	j	e98 <_ftoa+0x400>
     e7c:	fec42783          	lw	a5,-20(s0)
     e80:	00178713          	add	a4,a5,1
     e84:	fee42623          	sw	a4,-20(s0)
     e88:	ff078793          	add	a5,a5,-16
     e8c:	008787b3          	add	a5,a5,s0
     e90:	03000713          	li	a4,48
     e94:	fae78c23          	sb	a4,-72(a5)
     e98:	fec42703          	lw	a4,-20(s0)
     e9c:	01f00793          	li	a5,31
     ea0:	00e7ea63          	bltu	a5,a4,eb4 <_ftoa+0x41c>
     ea4:	fdc42783          	lw	a5,-36(s0)
     ea8:	fff78713          	add	a4,a5,-1
     eac:	fce42e23          	sw	a4,-36(s0)
     eb0:	fc0796e3          	bnez	a5,e7c <_ftoa+0x3e4>
     eb4:	fec42703          	lw	a4,-20(s0)
     eb8:	01f00793          	li	a5,31
     ebc:	06e7e663          	bltu	a5,a4,f28 <_ftoa+0x490>
     ec0:	fec42783          	lw	a5,-20(s0)
     ec4:	00178713          	add	a4,a5,1
     ec8:	fee42623          	sw	a4,-20(s0)
     ecc:	ff078793          	add	a5,a5,-16
     ed0:	008787b3          	add	a5,a5,s0
     ed4:	02e00713          	li	a4,46
     ed8:	fae78c23          	sb	a4,-72(a5)
     edc:	04c0006f          	j	f28 <_ftoa+0x490>
     ee0:	fe442703          	lw	a4,-28(s0)
     ee4:	00a00793          	li	a5,10
     ee8:	02f767b3          	rem	a5,a4,a5
     eec:	0ff7f713          	zext.b	a4,a5
     ef0:	fec42783          	lw	a5,-20(s0)
     ef4:	00178693          	add	a3,a5,1
     ef8:	fed42623          	sw	a3,-20(s0)
     efc:	03070713          	add	a4,a4,48
     f00:	0ff77713          	zext.b	a4,a4
     f04:	ff078793          	add	a5,a5,-16
     f08:	008787b3          	add	a5,a5,s0
     f0c:	fae78c23          	sb	a4,-72(a5)
     f10:	fe442703          	lw	a4,-28(s0)
     f14:	00a00793          	li	a5,10
     f18:	02f747b3          	div	a5,a4,a5
     f1c:	fef42223          	sw	a5,-28(s0)
     f20:	fe442783          	lw	a5,-28(s0)
     f24:	00078a63          	beqz	a5,f38 <_ftoa+0x4a0>
     f28:	fec42703          	lw	a4,-20(s0)
     f2c:	01f00793          	li	a5,31
     f30:	fae7f8e3          	bgeu	a5,a4,ee0 <_ftoa+0x448>
     f34:	0080006f          	j	f3c <_ftoa+0x4a4>
     f38:	00000013          	nop
     f3c:	00042783          	lw	a5,0(s0)
     f40:	0027f793          	and	a5,a5,2
     f44:	06079863          	bnez	a5,fb4 <_ftoa+0x51c>
     f48:	00042783          	lw	a5,0(s0)
     f4c:	0017f793          	and	a5,a5,1
     f50:	06078263          	beqz	a5,fb4 <_ftoa+0x51c>
     f54:	f8042783          	lw	a5,-128(s0)
     f58:	04078263          	beqz	a5,f9c <_ftoa+0x504>
     f5c:	feb44783          	lbu	a5,-21(s0)
     f60:	00079863          	bnez	a5,f70 <_ftoa+0x4d8>
     f64:	00042783          	lw	a5,0(s0)
     f68:	00c7f793          	and	a5,a5,12
     f6c:	02078863          	beqz	a5,f9c <_ftoa+0x504>
     f70:	f8042783          	lw	a5,-128(s0)
     f74:	fff78793          	add	a5,a5,-1
     f78:	f8f42023          	sw	a5,-128(s0)
     f7c:	0200006f          	j	f9c <_ftoa+0x504>
     f80:	fec42783          	lw	a5,-20(s0)
     f84:	00178713          	add	a4,a5,1
     f88:	fee42623          	sw	a4,-20(s0)
     f8c:	ff078793          	add	a5,a5,-16
     f90:	008787b3          	add	a5,a5,s0
     f94:	03000713          	li	a4,48
     f98:	fae78c23          	sb	a4,-72(a5)
     f9c:	fec42703          	lw	a4,-20(s0)
     fa0:	f8042783          	lw	a5,-128(s0)
     fa4:	00f77863          	bgeu	a4,a5,fb4 <_ftoa+0x51c>
     fa8:	fec42703          	lw	a4,-20(s0)
     fac:	01f00793          	li	a5,31
     fb0:	fce7f8e3          	bgeu	a5,a4,f80 <_ftoa+0x4e8>
     fb4:	fec42703          	lw	a4,-20(s0)
     fb8:	01f00793          	li	a5,31
     fbc:	08e7e063          	bltu	a5,a4,103c <_ftoa+0x5a4>
     fc0:	feb44783          	lbu	a5,-21(s0)
     fc4:	02078263          	beqz	a5,fe8 <_ftoa+0x550>
     fc8:	fec42783          	lw	a5,-20(s0)
     fcc:	00178713          	add	a4,a5,1
     fd0:	fee42623          	sw	a4,-20(s0)
     fd4:	ff078793          	add	a5,a5,-16
     fd8:	008787b3          	add	a5,a5,s0
     fdc:	02d00713          	li	a4,45
     fe0:	fae78c23          	sb	a4,-72(a5)
     fe4:	0580006f          	j	103c <_ftoa+0x5a4>
     fe8:	00042783          	lw	a5,0(s0)
     fec:	0047f793          	and	a5,a5,4
     ff0:	02078263          	beqz	a5,1014 <_ftoa+0x57c>
     ff4:	fec42783          	lw	a5,-20(s0)
     ff8:	00178713          	add	a4,a5,1
     ffc:	fee42623          	sw	a4,-20(s0)
    1000:	ff078793          	add	a5,a5,-16
    1004:	008787b3          	add	a5,a5,s0
    1008:	02b00713          	li	a4,43
    100c:	fae78c23          	sb	a4,-72(a5)
    1010:	02c0006f          	j	103c <_ftoa+0x5a4>
    1014:	00042783          	lw	a5,0(s0)
    1018:	0087f793          	and	a5,a5,8
    101c:	02078063          	beqz	a5,103c <_ftoa+0x5a4>
    1020:	fec42783          	lw	a5,-20(s0)
    1024:	00178713          	add	a4,a5,1
    1028:	fee42623          	sw	a4,-20(s0)
    102c:	ff078793          	add	a5,a5,-16
    1030:	008787b3          	add	a5,a5,s0
    1034:	02000713          	li	a4,32
    1038:	fae78c23          	sb	a4,-72(a5)
    103c:	fa840713          	add	a4,s0,-88
    1040:	00042883          	lw	a7,0(s0)
    1044:	f8042803          	lw	a6,-128(s0)
    1048:	fec42783          	lw	a5,-20(s0)
    104c:	f9042683          	lw	a3,-112(s0)
    1050:	f9442603          	lw	a2,-108(s0)
    1054:	f9842583          	lw	a1,-104(s0)
    1058:	f9c42503          	lw	a0,-100(s0)
    105c:	b24ff0ef          	jal	380 <_out_rev>
    1060:	00050793          	mv	a5,a0
    1064:	00078513          	mv	a0,a5
    1068:	08c12083          	lw	ra,140(sp)
    106c:	08812403          	lw	s0,136(sp)
    1070:	09010113          	add	sp,sp,144
    1074:	00008067          	ret

00001078 <_etoa>:
    1078:	f6010113          	add	sp,sp,-160
    107c:	08112e23          	sw	ra,156(sp)
    1080:	08812c23          	sw	s0,152(sp)
    1084:	09212a23          	sw	s2,148(sp)
    1088:	09312823          	sw	s3,144(sp)
    108c:	09412623          	sw	s4,140(sp)
    1090:	09512423          	sw	s5,136(sp)
    1094:	0a010413          	add	s0,sp,160
    1098:	f8a42e23          	sw	a0,-100(s0)
    109c:	f8b42c23          	sw	a1,-104(s0)
    10a0:	f8c42a23          	sw	a2,-108(s0)
    10a4:	f8d42823          	sw	a3,-112(s0)
    10a8:	f8e42423          	sw	a4,-120(s0)
    10ac:	f8f42623          	sw	a5,-116(s0)
    10b0:	f9042223          	sw	a6,-124(s0)
    10b4:	f9142023          	sw	a7,-128(s0)
    10b8:	f8843707          	fld	fa4,-120(s0)
    10bc:	f8843787          	fld	fa5,-120(s0)
    10c0:	a2f727d3          	feq.d	a5,fa4,fa5
    10c4:	02078663          	beqz	a5,10f0 <_etoa+0x78>
    10c8:	f8843707          	fld	fa4,-120(s0)
    10cc:	000037b7          	lui	a5,0x3
    10d0:	7887b787          	fld	fa5,1928(a5) # 3788 <pow10.0+0x58>
    10d4:	a2e797d3          	flt.d	a5,fa5,fa4
    10d8:	00079c63          	bnez	a5,10f0 <_etoa+0x78>
    10dc:	f8843707          	fld	fa4,-120(s0)
    10e0:	000037b7          	lui	a5,0x3
    10e4:	7807b787          	fld	fa5,1920(a5) # 3780 <pow10.0+0x50>
    10e8:	a2f717d3          	flt.d	a5,fa4,fa5
    10ec:	02078c63          	beqz	a5,1124 <_etoa+0xac>
    10f0:	00042783          	lw	a5,0(s0)
    10f4:	00f12023          	sw	a5,0(sp)
    10f8:	f8042883          	lw	a7,-128(s0)
    10fc:	f8442803          	lw	a6,-124(s0)
    1100:	f8842703          	lw	a4,-120(s0)
    1104:	f8c42783          	lw	a5,-116(s0)
    1108:	f9042683          	lw	a3,-112(s0)
    110c:	f9442603          	lw	a2,-108(s0)
    1110:	f9842583          	lw	a1,-104(s0)
    1114:	f9c42503          	lw	a0,-100(s0)
    1118:	981ff0ef          	jal	a98 <_ftoa>
    111c:	00050793          	mv	a5,a0
    1120:	4740006f          	j	1594 <_etoa+0x51c>
    1124:	f8843787          	fld	fa5,-120(s0)
    1128:	d2000753          	fcvt.d.w	fa4,zero
    112c:	a2e797d3          	flt.d	a5,fa5,fa4
    1130:	00f037b3          	snez	a5,a5
    1134:	fcf409a3          	sb	a5,-45(s0)
    1138:	fd344783          	lbu	a5,-45(s0)
    113c:	00078863          	beqz	a5,114c <_etoa+0xd4>
    1140:	f8843787          	fld	fa5,-120(s0)
    1144:	22f797d3          	fneg.d	fa5,fa5
    1148:	f8f43427          	fsd	fa5,-120(s0)
    114c:	00042783          	lw	a5,0(s0)
    1150:	4007f793          	and	a5,a5,1024
    1154:	00079663          	bnez	a5,1160 <_etoa+0xe8>
    1158:	00600793          	li	a5,6
    115c:	f8f42223          	sw	a5,-124(s0)
    1160:	f8843787          	fld	fa5,-120(s0)
    1164:	faf43427          	fsd	fa5,-88(s0)
    1168:	fa842703          	lw	a4,-88(s0)
    116c:	fac42783          	lw	a5,-84(s0)
    1170:	0147da13          	srl	s4,a5,0x14
    1174:	00000a93          	li	s5,0
    1178:	000a0793          	mv	a5,s4
    117c:	7ff7f793          	and	a5,a5,2047
    1180:	c0178793          	add	a5,a5,-1023
    1184:	fcf42623          	sw	a5,-52(s0)
    1188:	fa842703          	lw	a4,-88(s0)
    118c:	fac42783          	lw	a5,-84(s0)
    1190:	fff77313          	and	t1,a4,-1
    1194:	001006b7          	lui	a3,0x100
    1198:	fff68693          	add	a3,a3,-1 # fffff <_stack_start+0xfbfff>
    119c:	00d7f3b3          	and	t2,a5,a3
    11a0:	00036e13          	or	t3,t1,0
    11a4:	3ff007b7          	lui	a5,0x3ff00
    11a8:	00f3eeb3          	or	t4,t2,a5
    11ac:	fbc42423          	sw	t3,-88(s0)
    11b0:	fbd42623          	sw	t4,-84(s0)
    11b4:	fcc42783          	lw	a5,-52(s0)
    11b8:	d2078753          	fcvt.d.w	fa4,a5
    11bc:	000037b7          	lui	a5,0x3
    11c0:	7a87b787          	fld	fa5,1960(a5) # 37a8 <pow10.0+0x78>
    11c4:	12f77753          	fmul.d	fa4,fa4,fa5
    11c8:	000037b7          	lui	a5,0x3
    11cc:	7b07b787          	fld	fa5,1968(a5) # 37b0 <pow10.0+0x80>
    11d0:	02f77753          	fadd.d	fa4,fa4,fa5
    11d4:	fa843687          	fld	fa3,-88(s0)
    11d8:	000037b7          	lui	a5,0x3
    11dc:	7b87b787          	fld	fa5,1976(a5) # 37b8 <pow10.0+0x88>
    11e0:	0af6f6d3          	fsub.d	fa3,fa3,fa5
    11e4:	000037b7          	lui	a5,0x3
    11e8:	7c07b787          	fld	fa5,1984(a5) # 37c0 <pow10.0+0x90>
    11ec:	12f6f7d3          	fmul.d	fa5,fa3,fa5
    11f0:	02f777d3          	fadd.d	fa5,fa4,fa5
    11f4:	c20797d3          	fcvt.w.d	a5,fa5,rtz
    11f8:	fcf42e23          	sw	a5,-36(s0)
    11fc:	fdc42783          	lw	a5,-36(s0)
    1200:	d2078753          	fcvt.d.w	fa4,a5
    1204:	000037b7          	lui	a5,0x3
    1208:	7c87b787          	fld	fa5,1992(a5) # 37c8 <pow10.0+0x98>
    120c:	12f77753          	fmul.d	fa4,fa4,fa5
    1210:	000037b7          	lui	a5,0x3
    1214:	7a07b787          	fld	fa5,1952(a5) # 37a0 <pow10.0+0x70>
    1218:	02f777d3          	fadd.d	fa5,fa4,fa5
    121c:	c20797d3          	fcvt.w.d	a5,fa5,rtz
    1220:	fcf42623          	sw	a5,-52(s0)
    1224:	fdc42783          	lw	a5,-36(s0)
    1228:	d2078753          	fcvt.d.w	fa4,a5
    122c:	000037b7          	lui	a5,0x3
    1230:	7d07b787          	fld	fa5,2000(a5) # 37d0 <pow10.0+0xa0>
    1234:	12f77753          	fmul.d	fa4,fa4,fa5
    1238:	fcc42783          	lw	a5,-52(s0)
    123c:	d20786d3          	fcvt.d.w	fa3,a5
    1240:	000037b7          	lui	a5,0x3
    1244:	7d87b787          	fld	fa5,2008(a5) # 37d8 <pow10.0+0xa8>
    1248:	12f6f7d3          	fmul.d	fa5,fa3,fa5
    124c:	0af777d3          	fsub.d	fa5,fa4,fa5
    1250:	fcf43027          	fsd	fa5,-64(s0)
    1254:	fc043787          	fld	fa5,-64(s0)
    1258:	12f7f7d3          	fmul.d	fa5,fa5,fa5
    125c:	faf43c27          	fsd	fa5,-72(s0)
    1260:	fcc42783          	lw	a5,-52(s0)
    1264:	3ff78793          	add	a5,a5,1023
    1268:	00078913          	mv	s2,a5
    126c:	41f7d793          	sra	a5,a5,0x1f
    1270:	00078993          	mv	s3,a5
    1274:	01491f93          	sll	t6,s2,0x14
    1278:	00000f13          	li	t5,0
    127c:	fbe42423          	sw	t5,-88(s0)
    1280:	fbf42623          	sw	t6,-84(s0)
    1284:	fa843707          	fld	fa4,-88(s0)
    1288:	fc043787          	fld	fa5,-64(s0)
    128c:	02f7f6d3          	fadd.d	fa3,fa5,fa5
    1290:	000037b7          	lui	a5,0x3
    1294:	7e07b607          	fld	fa2,2016(a5) # 37e0 <pow10.0+0xb0>
    1298:	fc043787          	fld	fa5,-64(s0)
    129c:	0af67653          	fsub.d	fa2,fa2,fa5
    12a0:	fb843587          	fld	fa1,-72(s0)
    12a4:	000037b7          	lui	a5,0x3
    12a8:	7e87b787          	fld	fa5,2024(a5) # 37e8 <pow10.0+0xb8>
    12ac:	1af5f5d3          	fdiv.d	fa1,fa1,fa5
    12b0:	000037b7          	lui	a5,0x3
    12b4:	7f07b787          	fld	fa5,2032(a5) # 37f0 <pow10.0+0xc0>
    12b8:	02f5f7d3          	fadd.d	fa5,fa1,fa5
    12bc:	fb843587          	fld	fa1,-72(s0)
    12c0:	1af5f5d3          	fdiv.d	fa1,fa1,fa5
    12c4:	000037b7          	lui	a5,0x3
    12c8:	7f87b787          	fld	fa5,2040(a5) # 37f8 <pow10.0+0xc8>
    12cc:	02f5f7d3          	fadd.d	fa5,fa1,fa5
    12d0:	fb843587          	fld	fa1,-72(s0)
    12d4:	1af5f7d3          	fdiv.d	fa5,fa1,fa5
    12d8:	02f677d3          	fadd.d	fa5,fa2,fa5
    12dc:	1af6f6d3          	fdiv.d	fa3,fa3,fa5
    12e0:	000047b7          	lui	a5,0x4
    12e4:	8007b787          	fld	fa5,-2048(a5) # 3800 <pow10.0+0xd0>
    12e8:	02f6f7d3          	fadd.d	fa5,fa3,fa5
    12ec:	12f777d3          	fmul.d	fa5,fa4,fa5
    12f0:	faf43427          	fsd	fa5,-88(s0)
    12f4:	fa843787          	fld	fa5,-88(s0)
    12f8:	f8843707          	fld	fa4,-120(s0)
    12fc:	a2f717d3          	flt.d	a5,fa4,fa5
    1300:	02078263          	beqz	a5,1324 <_etoa+0x2ac>
    1304:	fdc42783          	lw	a5,-36(s0)
    1308:	fff78793          	add	a5,a5,-1
    130c:	fcf42e23          	sw	a5,-36(s0)
    1310:	fa843707          	fld	fa4,-88(s0)
    1314:	000037b7          	lui	a5,0x3
    1318:	7f07b787          	fld	fa5,2032(a5) # 37f0 <pow10.0+0xc0>
    131c:	1af777d3          	fdiv.d	fa5,fa4,fa5
    1320:	faf43427          	fsd	fa5,-88(s0)
    1324:	fdc42703          	lw	a4,-36(s0)
    1328:	06300793          	li	a5,99
    132c:	00e7cc63          	blt	a5,a4,1344 <_etoa+0x2cc>
    1330:	fdc42703          	lw	a4,-36(s0)
    1334:	f9d00793          	li	a5,-99
    1338:	00f74663          	blt	a4,a5,1344 <_etoa+0x2cc>
    133c:	00400793          	li	a5,4
    1340:	0080006f          	j	1348 <_etoa+0x2d0>
    1344:	00500793          	li	a5,5
    1348:	fcf42c23          	sw	a5,-40(s0)
    134c:	00042703          	lw	a4,0(s0)
    1350:	000017b7          	lui	a5,0x1
    1354:	80078793          	add	a5,a5,-2048 # 800 <_ntoa_long+0x44>
    1358:	00f777b3          	and	a5,a4,a5
    135c:	08078663          	beqz	a5,13e8 <_etoa+0x370>
    1360:	f8843707          	fld	fa4,-120(s0)
    1364:	000047b7          	lui	a5,0x4
    1368:	8087b787          	fld	fa5,-2040(a5) # 3808 <pow10.0+0xd8>
    136c:	a2e787d3          	fle.d	a5,fa5,fa4
    1370:	04078c63          	beqz	a5,13c8 <_etoa+0x350>
    1374:	f8843707          	fld	fa4,-120(s0)
    1378:	000047b7          	lui	a5,0x4
    137c:	8107b787          	fld	fa5,-2032(a5) # 3810 <pow10.0+0xe0>
    1380:	a2f717d3          	flt.d	a5,fa4,fa5
    1384:	04078263          	beqz	a5,13c8 <_etoa+0x350>
    1388:	f8442783          	lw	a5,-124(s0)
    138c:	fdc42703          	lw	a4,-36(s0)
    1390:	00f75e63          	bge	a4,a5,13ac <_etoa+0x334>
    1394:	f8442703          	lw	a4,-124(s0)
    1398:	fdc42783          	lw	a5,-36(s0)
    139c:	40f707b3          	sub	a5,a4,a5
    13a0:	fff78793          	add	a5,a5,-1
    13a4:	f8f42223          	sw	a5,-124(s0)
    13a8:	0080006f          	j	13b0 <_etoa+0x338>
    13ac:	f8042223          	sw	zero,-124(s0)
    13b0:	00042783          	lw	a5,0(s0)
    13b4:	4007e793          	or	a5,a5,1024
    13b8:	00f42023          	sw	a5,0(s0)
    13bc:	fc042c23          	sw	zero,-40(s0)
    13c0:	fc042e23          	sw	zero,-36(s0)
    13c4:	0240006f          	j	13e8 <_etoa+0x370>
    13c8:	f8442783          	lw	a5,-124(s0)
    13cc:	00078e63          	beqz	a5,13e8 <_etoa+0x370>
    13d0:	00042783          	lw	a5,0(s0)
    13d4:	4007f793          	and	a5,a5,1024
    13d8:	00078863          	beqz	a5,13e8 <_etoa+0x370>
    13dc:	f8442783          	lw	a5,-124(s0)
    13e0:	fff78793          	add	a5,a5,-1
    13e4:	f8f42223          	sw	a5,-124(s0)
    13e8:	f8042783          	lw	a5,-128(s0)
    13ec:	fcf42a23          	sw	a5,-44(s0)
    13f0:	f8042703          	lw	a4,-128(s0)
    13f4:	fd842783          	lw	a5,-40(s0)
    13f8:	00e7fc63          	bgeu	a5,a4,1410 <_etoa+0x398>
    13fc:	fd442703          	lw	a4,-44(s0)
    1400:	fd842783          	lw	a5,-40(s0)
    1404:	40f707b3          	sub	a5,a4,a5
    1408:	fcf42a23          	sw	a5,-44(s0)
    140c:	0080006f          	j	1414 <_etoa+0x39c>
    1410:	fc042a23          	sw	zero,-44(s0)
    1414:	00042783          	lw	a5,0(s0)
    1418:	0027f793          	and	a5,a5,2
    141c:	00078863          	beqz	a5,142c <_etoa+0x3b4>
    1420:	fd842783          	lw	a5,-40(s0)
    1424:	00078463          	beqz	a5,142c <_etoa+0x3b4>
    1428:	fc042a23          	sw	zero,-44(s0)
    142c:	fdc42783          	lw	a5,-36(s0)
    1430:	00078a63          	beqz	a5,1444 <_etoa+0x3cc>
    1434:	fa843787          	fld	fa5,-88(s0)
    1438:	f8843707          	fld	fa4,-120(s0)
    143c:	1af777d3          	fdiv.d	fa5,fa4,fa5
    1440:	f8f43427          	fsd	fa5,-120(s0)
    1444:	f9442783          	lw	a5,-108(s0)
    1448:	faf42a23          	sw	a5,-76(s0)
    144c:	fd344783          	lbu	a5,-45(s0)
    1450:	00078863          	beqz	a5,1460 <_etoa+0x3e8>
    1454:	f8843787          	fld	fa5,-120(s0)
    1458:	22f797d3          	fneg.d	fa5,fa5
    145c:	0080006f          	j	1464 <_etoa+0x3ec>
    1460:	f8843787          	fld	fa5,-120(s0)
    1464:	00042703          	lw	a4,0(s0)
    1468:	fffff7b7          	lui	a5,0xfffff
    146c:	7ff78793          	add	a5,a5,2047 # fffff7ff <_stack_start+0xffffb7ff>
    1470:	00f777b3          	and	a5,a4,a5
    1474:	00f12023          	sw	a5,0(sp)
    1478:	fd442883          	lw	a7,-44(s0)
    147c:	f8442803          	lw	a6,-124(s0)
    1480:	f6f43c27          	fsd	fa5,-136(s0)
    1484:	f7842703          	lw	a4,-136(s0)
    1488:	f7c42783          	lw	a5,-132(s0)
    148c:	f9042683          	lw	a3,-112(s0)
    1490:	f9442603          	lw	a2,-108(s0)
    1494:	f9842583          	lw	a1,-104(s0)
    1498:	f9c42503          	lw	a0,-100(s0)
    149c:	dfcff0ef          	jal	a98 <_ftoa>
    14a0:	f8a42a23          	sw	a0,-108(s0)
    14a4:	fd842783          	lw	a5,-40(s0)
    14a8:	0e078463          	beqz	a5,1590 <_etoa+0x518>
    14ac:	00042783          	lw	a5,0(s0)
    14b0:	0207f793          	and	a5,a5,32
    14b4:	00078663          	beqz	a5,14c0 <_etoa+0x448>
    14b8:	04500793          	li	a5,69
    14bc:	0080006f          	j	14c4 <_etoa+0x44c>
    14c0:	06500793          	li	a5,101
    14c4:	f9442703          	lw	a4,-108(s0)
    14c8:	00170693          	add	a3,a4,1
    14cc:	f8d42a23          	sw	a3,-108(s0)
    14d0:	f9c42803          	lw	a6,-100(s0)
    14d4:	f9042683          	lw	a3,-112(s0)
    14d8:	00070613          	mv	a2,a4
    14dc:	f9842583          	lw	a1,-104(s0)
    14e0:	00078513          	mv	a0,a5
    14e4:	000800e7          	jalr	a6
    14e8:	fdc42783          	lw	a5,-36(s0)
    14ec:	41f7d713          	sra	a4,a5,0x1f
    14f0:	fdc42783          	lw	a5,-36(s0)
    14f4:	00f747b3          	xor	a5,a4,a5
    14f8:	40e787b3          	sub	a5,a5,a4
    14fc:	00078613          	mv	a2,a5
    1500:	fdc42783          	lw	a5,-36(s0)
    1504:	01f7d793          	srl	a5,a5,0x1f
    1508:	0ff7f693          	zext.b	a3,a5
    150c:	fd842783          	lw	a5,-40(s0)
    1510:	fff78793          	add	a5,a5,-1
    1514:	00500713          	li	a4,5
    1518:	00e12223          	sw	a4,4(sp)
    151c:	00f12023          	sw	a5,0(sp)
    1520:	00000893          	li	a7,0
    1524:	00a00813          	li	a6,10
    1528:	00068793          	mv	a5,a3
    152c:	00060713          	mv	a4,a2
    1530:	f9042683          	lw	a3,-112(s0)
    1534:	f9442603          	lw	a2,-108(s0)
    1538:	f9842583          	lw	a1,-104(s0)
    153c:	f9c42503          	lw	a0,-100(s0)
    1540:	a7cff0ef          	jal	7bc <_ntoa_long>
    1544:	f8a42a23          	sw	a0,-108(s0)
    1548:	00042783          	lw	a5,0(s0)
    154c:	0027f793          	and	a5,a5,2
    1550:	04078063          	beqz	a5,1590 <_etoa+0x518>
    1554:	0280006f          	j	157c <_etoa+0x504>
    1558:	f9442783          	lw	a5,-108(s0)
    155c:	00178713          	add	a4,a5,1
    1560:	f8e42a23          	sw	a4,-108(s0)
    1564:	f9c42703          	lw	a4,-100(s0)
    1568:	f9042683          	lw	a3,-112(s0)
    156c:	00078613          	mv	a2,a5
    1570:	f9842583          	lw	a1,-104(s0)
    1574:	02000513          	li	a0,32
    1578:	000700e7          	jalr	a4
    157c:	f9442703          	lw	a4,-108(s0)
    1580:	fb442783          	lw	a5,-76(s0)
    1584:	40f707b3          	sub	a5,a4,a5
    1588:	f8042703          	lw	a4,-128(s0)
    158c:	fce7e6e3          	bltu	a5,a4,1558 <_etoa+0x4e0>
    1590:	f9442783          	lw	a5,-108(s0)
    1594:	00078513          	mv	a0,a5
    1598:	09c12083          	lw	ra,156(sp)
    159c:	09812403          	lw	s0,152(sp)
    15a0:	09412903          	lw	s2,148(sp)
    15a4:	09012983          	lw	s3,144(sp)
    15a8:	08c12a03          	lw	s4,140(sp)
    15ac:	08812a83          	lw	s5,136(sp)
    15b0:	0a010113          	add	sp,sp,160
    15b4:	00008067          	ret

000015b8 <_vsnprintf>:
    15b8:	f5010113          	add	sp,sp,-176
    15bc:	0a112623          	sw	ra,172(sp)
    15c0:	0a812423          	sw	s0,168(sp)
    15c4:	0b212223          	sw	s2,164(sp)
    15c8:	0b312023          	sw	s3,160(sp)
    15cc:	09412e23          	sw	s4,156(sp)
    15d0:	09512c23          	sw	s5,152(sp)
    15d4:	09612a23          	sw	s6,148(sp)
    15d8:	09712823          	sw	s7,144(sp)
    15dc:	09812623          	sw	s8,140(sp)
    15e0:	09912423          	sw	s9,136(sp)
    15e4:	09a12223          	sw	s10,132(sp)
    15e8:	09b12023          	sw	s11,128(sp)
    15ec:	0b010413          	add	s0,sp,176
    15f0:	f6a42e23          	sw	a0,-132(s0)
    15f4:	f6b42c23          	sw	a1,-136(s0)
    15f8:	f6c42a23          	sw	a2,-140(s0)
    15fc:	f6d42823          	sw	a3,-144(s0)
    1600:	f6e42623          	sw	a4,-148(s0)
    1604:	fa042e23          	sw	zero,-68(s0)
    1608:	f7842783          	lw	a5,-136(s0)
    160c:	54079ee3          	bnez	a5,2368 <_vsnprintf+0xdb0>
    1610:	11000793          	li	a5,272
    1614:	f6f42e23          	sw	a5,-132(s0)
    1618:	5510006f          	j	2368 <_vsnprintf+0xdb0>
    161c:	f7042783          	lw	a5,-144(s0)
    1620:	0007c703          	lbu	a4,0(a5)
    1624:	02500793          	li	a5,37
    1628:	02f70e63          	beq	a4,a5,1664 <_vsnprintf+0xac>
    162c:	f7042783          	lw	a5,-144(s0)
    1630:	0007c503          	lbu	a0,0(a5)
    1634:	fbc42783          	lw	a5,-68(s0)
    1638:	00178713          	add	a4,a5,1
    163c:	fae42e23          	sw	a4,-68(s0)
    1640:	f7c42703          	lw	a4,-132(s0)
    1644:	f7442683          	lw	a3,-140(s0)
    1648:	00078613          	mv	a2,a5
    164c:	f7842583          	lw	a1,-136(s0)
    1650:	000700e7          	jalr	a4
    1654:	f7042783          	lw	a5,-144(s0)
    1658:	00178793          	add	a5,a5,1
    165c:	f6f42823          	sw	a5,-144(s0)
    1660:	5090006f          	j	2368 <_vsnprintf+0xdb0>
    1664:	f7042783          	lw	a5,-144(s0)
    1668:	00178793          	add	a5,a5,1
    166c:	f6f42823          	sw	a5,-144(s0)
    1670:	fc042623          	sw	zero,-52(s0)
    1674:	f7042783          	lw	a5,-144(s0)
    1678:	0007c783          	lbu	a5,0(a5)
    167c:	fe078793          	add	a5,a5,-32
    1680:	01000713          	li	a4,16
    1684:	0cf76863          	bltu	a4,a5,1754 <_vsnprintf+0x19c>
    1688:	00279713          	sll	a4,a5,0x2
    168c:	000037b7          	lui	a5,0x3
    1690:	59078793          	add	a5,a5,1424 # 3590 <__umoddi3+0x34e>
    1694:	00f707b3          	add	a5,a4,a5
    1698:	0007a783          	lw	a5,0(a5)
    169c:	00078067          	jr	a5
    16a0:	fcc42783          	lw	a5,-52(s0)
    16a4:	0017e793          	or	a5,a5,1
    16a8:	fcf42623          	sw	a5,-52(s0)
    16ac:	f7042783          	lw	a5,-144(s0)
    16b0:	00178793          	add	a5,a5,1
    16b4:	f6f42823          	sw	a5,-144(s0)
    16b8:	00100793          	li	a5,1
    16bc:	fcf42023          	sw	a5,-64(s0)
    16c0:	09c0006f          	j	175c <_vsnprintf+0x1a4>
    16c4:	fcc42783          	lw	a5,-52(s0)
    16c8:	0027e793          	or	a5,a5,2
    16cc:	fcf42623          	sw	a5,-52(s0)
    16d0:	f7042783          	lw	a5,-144(s0)
    16d4:	00178793          	add	a5,a5,1
    16d8:	f6f42823          	sw	a5,-144(s0)
    16dc:	00100793          	li	a5,1
    16e0:	fcf42023          	sw	a5,-64(s0)
    16e4:	0780006f          	j	175c <_vsnprintf+0x1a4>
    16e8:	fcc42783          	lw	a5,-52(s0)
    16ec:	0047e793          	or	a5,a5,4
    16f0:	fcf42623          	sw	a5,-52(s0)
    16f4:	f7042783          	lw	a5,-144(s0)
    16f8:	00178793          	add	a5,a5,1
    16fc:	f6f42823          	sw	a5,-144(s0)
    1700:	00100793          	li	a5,1
    1704:	fcf42023          	sw	a5,-64(s0)
    1708:	0540006f          	j	175c <_vsnprintf+0x1a4>
    170c:	fcc42783          	lw	a5,-52(s0)
    1710:	0087e793          	or	a5,a5,8
    1714:	fcf42623          	sw	a5,-52(s0)
    1718:	f7042783          	lw	a5,-144(s0)
    171c:	00178793          	add	a5,a5,1
    1720:	f6f42823          	sw	a5,-144(s0)
    1724:	00100793          	li	a5,1
    1728:	fcf42023          	sw	a5,-64(s0)
    172c:	0300006f          	j	175c <_vsnprintf+0x1a4>
    1730:	fcc42783          	lw	a5,-52(s0)
    1734:	0107e793          	or	a5,a5,16
    1738:	fcf42623          	sw	a5,-52(s0)
    173c:	f7042783          	lw	a5,-144(s0)
    1740:	00178793          	add	a5,a5,1
    1744:	f6f42823          	sw	a5,-144(s0)
    1748:	00100793          	li	a5,1
    174c:	fcf42023          	sw	a5,-64(s0)
    1750:	00c0006f          	j	175c <_vsnprintf+0x1a4>
    1754:	fc042023          	sw	zero,-64(s0)
    1758:	00000013          	nop
    175c:	fc042783          	lw	a5,-64(s0)
    1760:	f0079ae3          	bnez	a5,1674 <_vsnprintf+0xbc>
    1764:	fc042423          	sw	zero,-56(s0)
    1768:	f7042783          	lw	a5,-144(s0)
    176c:	0007c783          	lbu	a5,0(a5)
    1770:	00078513          	mv	a0,a5
    1774:	b31fe0ef          	jal	2a4 <_is_digit>
    1778:	00050793          	mv	a5,a0
    177c:	00078c63          	beqz	a5,1794 <_vsnprintf+0x1dc>
    1780:	f7040793          	add	a5,s0,-144
    1784:	00078513          	mv	a0,a5
    1788:	b6dfe0ef          	jal	2f4 <_atoi>
    178c:	fca42423          	sw	a0,-56(s0)
    1790:	0600006f          	j	17f0 <_vsnprintf+0x238>
    1794:	f7042783          	lw	a5,-144(s0)
    1798:	0007c703          	lbu	a4,0(a5)
    179c:	02a00793          	li	a5,42
    17a0:	04f71863          	bne	a4,a5,17f0 <_vsnprintf+0x238>
    17a4:	f6c42783          	lw	a5,-148(s0)
    17a8:	00478713          	add	a4,a5,4
    17ac:	f6e42623          	sw	a4,-148(s0)
    17b0:	0007a783          	lw	a5,0(a5)
    17b4:	faf42423          	sw	a5,-88(s0)
    17b8:	fa842783          	lw	a5,-88(s0)
    17bc:	0207d063          	bgez	a5,17dc <_vsnprintf+0x224>
    17c0:	fcc42783          	lw	a5,-52(s0)
    17c4:	0027e793          	or	a5,a5,2
    17c8:	fcf42623          	sw	a5,-52(s0)
    17cc:	fa842783          	lw	a5,-88(s0)
    17d0:	40f007b3          	neg	a5,a5
    17d4:	fcf42423          	sw	a5,-56(s0)
    17d8:	00c0006f          	j	17e4 <_vsnprintf+0x22c>
    17dc:	fa842783          	lw	a5,-88(s0)
    17e0:	fcf42423          	sw	a5,-56(s0)
    17e4:	f7042783          	lw	a5,-144(s0)
    17e8:	00178793          	add	a5,a5,1
    17ec:	f6f42823          	sw	a5,-144(s0)
    17f0:	fc042223          	sw	zero,-60(s0)
    17f4:	f7042783          	lw	a5,-144(s0)
    17f8:	0007c703          	lbu	a4,0(a5)
    17fc:	02e00793          	li	a5,46
    1800:	08f71463          	bne	a4,a5,1888 <_vsnprintf+0x2d0>
    1804:	fcc42783          	lw	a5,-52(s0)
    1808:	4007e793          	or	a5,a5,1024
    180c:	fcf42623          	sw	a5,-52(s0)
    1810:	f7042783          	lw	a5,-144(s0)
    1814:	00178793          	add	a5,a5,1
    1818:	f6f42823          	sw	a5,-144(s0)
    181c:	f7042783          	lw	a5,-144(s0)
    1820:	0007c783          	lbu	a5,0(a5)
    1824:	00078513          	mv	a0,a5
    1828:	a7dfe0ef          	jal	2a4 <_is_digit>
    182c:	00050793          	mv	a5,a0
    1830:	00078c63          	beqz	a5,1848 <_vsnprintf+0x290>
    1834:	f7040793          	add	a5,s0,-144
    1838:	00078513          	mv	a0,a5
    183c:	ab9fe0ef          	jal	2f4 <_atoi>
    1840:	fca42223          	sw	a0,-60(s0)
    1844:	0440006f          	j	1888 <_vsnprintf+0x2d0>
    1848:	f7042783          	lw	a5,-144(s0)
    184c:	0007c703          	lbu	a4,0(a5)
    1850:	02a00793          	li	a5,42
    1854:	02f71a63          	bne	a4,a5,1888 <_vsnprintf+0x2d0>
    1858:	f6c42783          	lw	a5,-148(s0)
    185c:	00478713          	add	a4,a5,4
    1860:	f6e42623          	sw	a4,-148(s0)
    1864:	0007a783          	lw	a5,0(a5)
    1868:	faf42223          	sw	a5,-92(s0)
    186c:	fa442783          	lw	a5,-92(s0)
    1870:	0007d463          	bgez	a5,1878 <_vsnprintf+0x2c0>
    1874:	00000793          	li	a5,0
    1878:	fcf42223          	sw	a5,-60(s0)
    187c:	f7042783          	lw	a5,-144(s0)
    1880:	00178793          	add	a5,a5,1
    1884:	f6f42823          	sw	a5,-144(s0)
    1888:	f7042783          	lw	a5,-144(s0)
    188c:	0007c783          	lbu	a5,0(a5)
    1890:	f9878793          	add	a5,a5,-104
    1894:	01200713          	li	a4,18
    1898:	0ef76c63          	bltu	a4,a5,1990 <_vsnprintf+0x3d8>
    189c:	00279713          	sll	a4,a5,0x2
    18a0:	000037b7          	lui	a5,0x3
    18a4:	5d478793          	add	a5,a5,1492 # 35d4 <__umoddi3+0x392>
    18a8:	00f707b3          	add	a5,a4,a5
    18ac:	0007a783          	lw	a5,0(a5)
    18b0:	00078067          	jr	a5
    18b4:	fcc42783          	lw	a5,-52(s0)
    18b8:	1007e793          	or	a5,a5,256
    18bc:	fcf42623          	sw	a5,-52(s0)
    18c0:	f7042783          	lw	a5,-144(s0)
    18c4:	00178793          	add	a5,a5,1
    18c8:	f6f42823          	sw	a5,-144(s0)
    18cc:	f7042783          	lw	a5,-144(s0)
    18d0:	0007c703          	lbu	a4,0(a5)
    18d4:	06c00793          	li	a5,108
    18d8:	0cf71063          	bne	a4,a5,1998 <_vsnprintf+0x3e0>
    18dc:	fcc42783          	lw	a5,-52(s0)
    18e0:	2007e793          	or	a5,a5,512
    18e4:	fcf42623          	sw	a5,-52(s0)
    18e8:	f7042783          	lw	a5,-144(s0)
    18ec:	00178793          	add	a5,a5,1
    18f0:	f6f42823          	sw	a5,-144(s0)
    18f4:	0a40006f          	j	1998 <_vsnprintf+0x3e0>
    18f8:	fcc42783          	lw	a5,-52(s0)
    18fc:	0807e793          	or	a5,a5,128
    1900:	fcf42623          	sw	a5,-52(s0)
    1904:	f7042783          	lw	a5,-144(s0)
    1908:	00178793          	add	a5,a5,1
    190c:	f6f42823          	sw	a5,-144(s0)
    1910:	f7042783          	lw	a5,-144(s0)
    1914:	0007c703          	lbu	a4,0(a5)
    1918:	06800793          	li	a5,104
    191c:	08f71263          	bne	a4,a5,19a0 <_vsnprintf+0x3e8>
    1920:	fcc42783          	lw	a5,-52(s0)
    1924:	0407e793          	or	a5,a5,64
    1928:	fcf42623          	sw	a5,-52(s0)
    192c:	f7042783          	lw	a5,-144(s0)
    1930:	00178793          	add	a5,a5,1
    1934:	f6f42823          	sw	a5,-144(s0)
    1938:	0680006f          	j	19a0 <_vsnprintf+0x3e8>
    193c:	fcc42783          	lw	a5,-52(s0)
    1940:	1007e793          	or	a5,a5,256
    1944:	fcf42623          	sw	a5,-52(s0)
    1948:	f7042783          	lw	a5,-144(s0)
    194c:	00178793          	add	a5,a5,1
    1950:	f6f42823          	sw	a5,-144(s0)
    1954:	0500006f          	j	19a4 <_vsnprintf+0x3ec>
    1958:	fcc42783          	lw	a5,-52(s0)
    195c:	2007e793          	or	a5,a5,512
    1960:	fcf42623          	sw	a5,-52(s0)
    1964:	f7042783          	lw	a5,-144(s0)
    1968:	00178793          	add	a5,a5,1
    196c:	f6f42823          	sw	a5,-144(s0)
    1970:	0340006f          	j	19a4 <_vsnprintf+0x3ec>
    1974:	fcc42783          	lw	a5,-52(s0)
    1978:	1007e793          	or	a5,a5,256
    197c:	fcf42623          	sw	a5,-52(s0)
    1980:	f7042783          	lw	a5,-144(s0)
    1984:	00178793          	add	a5,a5,1
    1988:	f6f42823          	sw	a5,-144(s0)
    198c:	0180006f          	j	19a4 <_vsnprintf+0x3ec>
    1990:	00000013          	nop
    1994:	0100006f          	j	19a4 <_vsnprintf+0x3ec>
    1998:	00000013          	nop
    199c:	0080006f          	j	19a4 <_vsnprintf+0x3ec>
    19a0:	00000013          	nop
    19a4:	f7042783          	lw	a5,-144(s0)
    19a8:	0007c783          	lbu	a5,0(a5)
    19ac:	06700713          	li	a4,103
    19b0:	06f74e63          	blt	a4,a5,1a2c <_vsnprintf+0x474>
    19b4:	02500713          	li	a4,37
    19b8:	04e7d863          	bge	a5,a4,1a08 <_vsnprintf+0x450>
    19bc:	1750006f          	j	2330 <_vsnprintf+0xd78>
    19c0:	f9778793          	add	a5,a5,-105
    19c4:	00100713          	li	a4,1
    19c8:	00f717b3          	sll	a5,a4,a5
    19cc:	00009737          	lui	a4,0x9
    19d0:	04170713          	add	a4,a4,65 # 9041 <_stack_start+0x5041>
    19d4:	00e7f733          	and	a4,a5,a4
    19d8:	00e03733          	snez	a4,a4
    19dc:	0ff77713          	zext.b	a4,a4
    19e0:	06071063          	bnez	a4,1a40 <_vsnprintf+0x488>
    19e4:	0807f713          	and	a4,a5,128
    19e8:	00e03733          	snez	a4,a4
    19ec:	0ff77713          	zext.b	a4,a4
    19f0:	02071ae3          	bnez	a4,2224 <_vsnprintf+0xc6c>
    19f4:	4007f793          	and	a5,a5,1024
    19f8:	00f037b3          	snez	a5,a5
    19fc:	0ff7f793          	zext.b	a5,a5
    1a00:	6c079863          	bnez	a5,20d0 <_vsnprintf+0xb18>
    1a04:	12d0006f          	j	2330 <_vsnprintf+0xd78>
    1a08:	fdb78793          	add	a5,a5,-37
    1a0c:	04200713          	li	a4,66
    1a10:	12f760e3          	bltu	a4,a5,2330 <_vsnprintf+0xd78>
    1a14:	00279713          	sll	a4,a5,0x2
    1a18:	000037b7          	lui	a5,0x3
    1a1c:	62078793          	add	a5,a5,1568 # 3620 <__umoddi3+0x3de>
    1a20:	00f707b3          	add	a5,a4,a5
    1a24:	0007a783          	lw	a5,0(a5)
    1a28:	00078067          	jr	a5
    1a2c:	07800713          	li	a4,120
    1a30:	10f740e3          	blt	a4,a5,2330 <_vsnprintf+0xd78>
    1a34:	06900713          	li	a4,105
    1a38:	f8e7d4e3          	bge	a5,a4,19c0 <_vsnprintf+0x408>
    1a3c:	0f50006f          	j	2330 <_vsnprintf+0xd78>
    1a40:	f7042783          	lw	a5,-144(s0)
    1a44:	0007c703          	lbu	a4,0(a5)
    1a48:	07800793          	li	a5,120
    1a4c:	00f70a63          	beq	a4,a5,1a60 <_vsnprintf+0x4a8>
    1a50:	f7042783          	lw	a5,-144(s0)
    1a54:	0007c703          	lbu	a4,0(a5)
    1a58:	05800793          	li	a5,88
    1a5c:	00f71863          	bne	a4,a5,1a6c <_vsnprintf+0x4b4>
    1a60:	01000793          	li	a5,16
    1a64:	faf42c23          	sw	a5,-72(s0)
    1a68:	0500006f          	j	1ab8 <_vsnprintf+0x500>
    1a6c:	f7042783          	lw	a5,-144(s0)
    1a70:	0007c703          	lbu	a4,0(a5)
    1a74:	06f00793          	li	a5,111
    1a78:	00f71863          	bne	a4,a5,1a88 <_vsnprintf+0x4d0>
    1a7c:	00800793          	li	a5,8
    1a80:	faf42c23          	sw	a5,-72(s0)
    1a84:	0340006f          	j	1ab8 <_vsnprintf+0x500>
    1a88:	f7042783          	lw	a5,-144(s0)
    1a8c:	0007c703          	lbu	a4,0(a5)
    1a90:	06200793          	li	a5,98
    1a94:	00f71863          	bne	a4,a5,1aa4 <_vsnprintf+0x4ec>
    1a98:	00200793          	li	a5,2
    1a9c:	faf42c23          	sw	a5,-72(s0)
    1aa0:	0180006f          	j	1ab8 <_vsnprintf+0x500>
    1aa4:	00a00793          	li	a5,10
    1aa8:	faf42c23          	sw	a5,-72(s0)
    1aac:	fcc42783          	lw	a5,-52(s0)
    1ab0:	fef7f793          	and	a5,a5,-17
    1ab4:	fcf42623          	sw	a5,-52(s0)
    1ab8:	f7042783          	lw	a5,-144(s0)
    1abc:	0007c703          	lbu	a4,0(a5)
    1ac0:	05800793          	li	a5,88
    1ac4:	00f71863          	bne	a4,a5,1ad4 <_vsnprintf+0x51c>
    1ac8:	fcc42783          	lw	a5,-52(s0)
    1acc:	0207e793          	or	a5,a5,32
    1ad0:	fcf42623          	sw	a5,-52(s0)
    1ad4:	f7042783          	lw	a5,-144(s0)
    1ad8:	0007c703          	lbu	a4,0(a5)
    1adc:	06900793          	li	a5,105
    1ae0:	02f70063          	beq	a4,a5,1b00 <_vsnprintf+0x548>
    1ae4:	f7042783          	lw	a5,-144(s0)
    1ae8:	0007c703          	lbu	a4,0(a5)
    1aec:	06400793          	li	a5,100
    1af0:	00f70863          	beq	a4,a5,1b00 <_vsnprintf+0x548>
    1af4:	fcc42783          	lw	a5,-52(s0)
    1af8:	ff37f793          	and	a5,a5,-13
    1afc:	fcf42623          	sw	a5,-52(s0)
    1b00:	fcc42783          	lw	a5,-52(s0)
    1b04:	4007f793          	and	a5,a5,1024
    1b08:	00078863          	beqz	a5,1b18 <_vsnprintf+0x560>
    1b0c:	fcc42783          	lw	a5,-52(s0)
    1b10:	ffe7f793          	and	a5,a5,-2
    1b14:	fcf42623          	sw	a5,-52(s0)
    1b18:	f7042783          	lw	a5,-144(s0)
    1b1c:	0007c703          	lbu	a4,0(a5)
    1b20:	06900793          	li	a5,105
    1b24:	00f70a63          	beq	a4,a5,1b38 <_vsnprintf+0x580>
    1b28:	f7042783          	lw	a5,-144(s0)
    1b2c:	0007c703          	lbu	a4,0(a5)
    1b30:	06400793          	li	a5,100
    1b34:	20f71e63          	bne	a4,a5,1d50 <_vsnprintf+0x798>
    1b38:	fcc42783          	lw	a5,-52(s0)
    1b3c:	2007f793          	and	a5,a5,512
    1b40:	0c078863          	beqz	a5,1c10 <_vsnprintf+0x658>
    1b44:	f6c42783          	lw	a5,-148(s0)
    1b48:	00778793          	add	a5,a5,7
    1b4c:	ff87f793          	and	a5,a5,-8
    1b50:	00878713          	add	a4,a5,8
    1b54:	f6e42623          	sw	a4,-148(s0)
    1b58:	0007a703          	lw	a4,0(a5)
    1b5c:	0047a783          	lw	a5,4(a5)
    1b60:	f8e42423          	sw	a4,-120(s0)
    1b64:	f8f42623          	sw	a5,-116(s0)
    1b68:	f8c42783          	lw	a5,-116(s0)
    1b6c:	41f7d913          	sra	s2,a5,0x1f
    1b70:	f8c42783          	lw	a5,-116(s0)
    1b74:	41f7d993          	sra	s3,a5,0x1f
    1b78:	f8842783          	lw	a5,-120(s0)
    1b7c:	0127ca33          	xor	s4,a5,s2
    1b80:	f8c42783          	lw	a5,-116(s0)
    1b84:	0137cab3          	xor	s5,a5,s3
    1b88:	412a0733          	sub	a4,s4,s2
    1b8c:	00070693          	mv	a3,a4
    1b90:	00da36b3          	sltu	a3,s4,a3
    1b94:	413a87b3          	sub	a5,s5,s3
    1b98:	40d786b3          	sub	a3,a5,a3
    1b9c:	00068793          	mv	a5,a3
    1ba0:	00070a13          	mv	s4,a4
    1ba4:	00078a93          	mv	s5,a5
    1ba8:	000a0613          	mv	a2,s4
    1bac:	000a8693          	mv	a3,s5
    1bb0:	f8c42783          	lw	a5,-116(s0)
    1bb4:	01f7d793          	srl	a5,a5,0x1f
    1bb8:	0ff7f713          	zext.b	a4,a5
    1bbc:	fb842783          	lw	a5,-72(s0)
    1bc0:	00078b13          	mv	s6,a5
    1bc4:	00000b93          	li	s7,0
    1bc8:	fcc42783          	lw	a5,-52(s0)
    1bcc:	00f12623          	sw	a5,12(sp)
    1bd0:	fc842783          	lw	a5,-56(s0)
    1bd4:	00f12423          	sw	a5,8(sp)
    1bd8:	fc442783          	lw	a5,-60(s0)
    1bdc:	00f12223          	sw	a5,4(sp)
    1be0:	01712023          	sw	s7,0(sp)
    1be4:	000b0893          	mv	a7,s6
    1be8:	00070813          	mv	a6,a4
    1bec:	00060713          	mv	a4,a2
    1bf0:	00068793          	mv	a5,a3
    1bf4:	f7442683          	lw	a3,-140(s0)
    1bf8:	fbc42603          	lw	a2,-68(s0)
    1bfc:	f7842583          	lw	a1,-136(s0)
    1c00:	f7c42503          	lw	a0,-132(s0)
    1c04:	d01fe0ef          	jal	904 <_ntoa_long_long>
    1c08:	faa42e23          	sw	a0,-68(s0)
    1c0c:	2a40006f          	j	1eb0 <_vsnprintf+0x8f8>
    1c10:	fcc42783          	lw	a5,-52(s0)
    1c14:	1007f793          	and	a5,a5,256
    1c18:	06078c63          	beqz	a5,1c90 <_vsnprintf+0x6d8>
    1c1c:	f6c42783          	lw	a5,-148(s0)
    1c20:	00478713          	add	a4,a5,4
    1c24:	f6e42623          	sw	a4,-148(s0)
    1c28:	0007a783          	lw	a5,0(a5)
    1c2c:	f8f42a23          	sw	a5,-108(s0)
    1c30:	f9442783          	lw	a5,-108(s0)
    1c34:	41f7d713          	sra	a4,a5,0x1f
    1c38:	f9442783          	lw	a5,-108(s0)
    1c3c:	00f747b3          	xor	a5,a4,a5
    1c40:	40e787b3          	sub	a5,a5,a4
    1c44:	00078693          	mv	a3,a5
    1c48:	f9442783          	lw	a5,-108(s0)
    1c4c:	01f7d793          	srl	a5,a5,0x1f
    1c50:	0ff7f713          	zext.b	a4,a5
    1c54:	fcc42783          	lw	a5,-52(s0)
    1c58:	00f12223          	sw	a5,4(sp)
    1c5c:	fc842783          	lw	a5,-56(s0)
    1c60:	00f12023          	sw	a5,0(sp)
    1c64:	fc442883          	lw	a7,-60(s0)
    1c68:	fb842803          	lw	a6,-72(s0)
    1c6c:	00070793          	mv	a5,a4
    1c70:	00068713          	mv	a4,a3
    1c74:	f7442683          	lw	a3,-140(s0)
    1c78:	fbc42603          	lw	a2,-68(s0)
    1c7c:	f7842583          	lw	a1,-136(s0)
    1c80:	f7c42503          	lw	a0,-132(s0)
    1c84:	b39fe0ef          	jal	7bc <_ntoa_long>
    1c88:	faa42e23          	sw	a0,-68(s0)
    1c8c:	2240006f          	j	1eb0 <_vsnprintf+0x8f8>
    1c90:	fcc42783          	lw	a5,-52(s0)
    1c94:	0407f793          	and	a5,a5,64
    1c98:	00078e63          	beqz	a5,1cb4 <_vsnprintf+0x6fc>
    1c9c:	f6c42783          	lw	a5,-148(s0)
    1ca0:	00478713          	add	a4,a5,4
    1ca4:	f6e42623          	sw	a4,-148(s0)
    1ca8:	0007a783          	lw	a5,0(a5)
    1cac:	0ff7f793          	zext.b	a5,a5
    1cb0:	03c0006f          	j	1cec <_vsnprintf+0x734>
    1cb4:	fcc42783          	lw	a5,-52(s0)
    1cb8:	0807f793          	and	a5,a5,128
    1cbc:	02078063          	beqz	a5,1cdc <_vsnprintf+0x724>
    1cc0:	f6c42783          	lw	a5,-148(s0)
    1cc4:	00478713          	add	a4,a5,4
    1cc8:	f6e42623          	sw	a4,-148(s0)
    1ccc:	0007a783          	lw	a5,0(a5)
    1cd0:	01079793          	sll	a5,a5,0x10
    1cd4:	4107d793          	sra	a5,a5,0x10
    1cd8:	0140006f          	j	1cec <_vsnprintf+0x734>
    1cdc:	f6c42783          	lw	a5,-148(s0)
    1ce0:	00478713          	add	a4,a5,4
    1ce4:	f6e42623          	sw	a4,-148(s0)
    1ce8:	0007a783          	lw	a5,0(a5)
    1cec:	f8f42c23          	sw	a5,-104(s0)
    1cf0:	f9842783          	lw	a5,-104(s0)
    1cf4:	41f7d713          	sra	a4,a5,0x1f
    1cf8:	f9842783          	lw	a5,-104(s0)
    1cfc:	00f747b3          	xor	a5,a4,a5
    1d00:	40e787b3          	sub	a5,a5,a4
    1d04:	00078693          	mv	a3,a5
    1d08:	f9842783          	lw	a5,-104(s0)
    1d0c:	01f7d793          	srl	a5,a5,0x1f
    1d10:	0ff7f713          	zext.b	a4,a5
    1d14:	fcc42783          	lw	a5,-52(s0)
    1d18:	00f12223          	sw	a5,4(sp)
    1d1c:	fc842783          	lw	a5,-56(s0)
    1d20:	00f12023          	sw	a5,0(sp)
    1d24:	fc442883          	lw	a7,-60(s0)
    1d28:	fb842803          	lw	a6,-72(s0)
    1d2c:	00070793          	mv	a5,a4
    1d30:	00068713          	mv	a4,a3
    1d34:	f7442683          	lw	a3,-140(s0)
    1d38:	fbc42603          	lw	a2,-68(s0)
    1d3c:	f7842583          	lw	a1,-136(s0)
    1d40:	f7c42503          	lw	a0,-132(s0)
    1d44:	a79fe0ef          	jal	7bc <_ntoa_long>
    1d48:	faa42e23          	sw	a0,-68(s0)
    1d4c:	1640006f          	j	1eb0 <_vsnprintf+0x8f8>
    1d50:	fcc42783          	lw	a5,-52(s0)
    1d54:	2007f793          	and	a5,a5,512
    1d58:	06078663          	beqz	a5,1dc4 <_vsnprintf+0x80c>
    1d5c:	f6c42783          	lw	a5,-148(s0)
    1d60:	00778793          	add	a5,a5,7
    1d64:	ff87f793          	and	a5,a5,-8
    1d68:	00878713          	add	a4,a5,8
    1d6c:	f6e42623          	sw	a4,-148(s0)
    1d70:	0007a703          	lw	a4,0(a5)
    1d74:	0047a783          	lw	a5,4(a5)
    1d78:	fb842683          	lw	a3,-72(s0)
    1d7c:	00068c13          	mv	s8,a3
    1d80:	00000c93          	li	s9,0
    1d84:	fcc42683          	lw	a3,-52(s0)
    1d88:	00d12623          	sw	a3,12(sp)
    1d8c:	fc842683          	lw	a3,-56(s0)
    1d90:	00d12423          	sw	a3,8(sp)
    1d94:	fc442683          	lw	a3,-60(s0)
    1d98:	00d12223          	sw	a3,4(sp)
    1d9c:	01912023          	sw	s9,0(sp)
    1da0:	000c0893          	mv	a7,s8
    1da4:	00000813          	li	a6,0
    1da8:	f7442683          	lw	a3,-140(s0)
    1dac:	fbc42603          	lw	a2,-68(s0)
    1db0:	f7842583          	lw	a1,-136(s0)
    1db4:	f7c42503          	lw	a0,-132(s0)
    1db8:	b4dfe0ef          	jal	904 <_ntoa_long_long>
    1dbc:	faa42e23          	sw	a0,-68(s0)
    1dc0:	0f00006f          	j	1eb0 <_vsnprintf+0x8f8>
    1dc4:	fcc42783          	lw	a5,-52(s0)
    1dc8:	1007f793          	and	a5,a5,256
    1dcc:	04078663          	beqz	a5,1e18 <_vsnprintf+0x860>
    1dd0:	f6c42783          	lw	a5,-148(s0)
    1dd4:	00478713          	add	a4,a5,4
    1dd8:	f6e42623          	sw	a4,-148(s0)
    1ddc:	0007a703          	lw	a4,0(a5)
    1de0:	fcc42783          	lw	a5,-52(s0)
    1de4:	00f12223          	sw	a5,4(sp)
    1de8:	fc842783          	lw	a5,-56(s0)
    1dec:	00f12023          	sw	a5,0(sp)
    1df0:	fc442883          	lw	a7,-60(s0)
    1df4:	fb842803          	lw	a6,-72(s0)
    1df8:	00000793          	li	a5,0
    1dfc:	f7442683          	lw	a3,-140(s0)
    1e00:	fbc42603          	lw	a2,-68(s0)
    1e04:	f7842583          	lw	a1,-136(s0)
    1e08:	f7c42503          	lw	a0,-132(s0)
    1e0c:	9b1fe0ef          	jal	7bc <_ntoa_long>
    1e10:	faa42e23          	sw	a0,-68(s0)
    1e14:	09c0006f          	j	1eb0 <_vsnprintf+0x8f8>
    1e18:	fcc42783          	lw	a5,-52(s0)
    1e1c:	0407f793          	and	a5,a5,64
    1e20:	00078e63          	beqz	a5,1e3c <_vsnprintf+0x884>
    1e24:	f6c42783          	lw	a5,-148(s0)
    1e28:	00478713          	add	a4,a5,4
    1e2c:	f6e42623          	sw	a4,-148(s0)
    1e30:	0007a783          	lw	a5,0(a5)
    1e34:	0ff7f793          	zext.b	a5,a5
    1e38:	03c0006f          	j	1e74 <_vsnprintf+0x8bc>
    1e3c:	fcc42783          	lw	a5,-52(s0)
    1e40:	0807f793          	and	a5,a5,128
    1e44:	02078063          	beqz	a5,1e64 <_vsnprintf+0x8ac>
    1e48:	f6c42783          	lw	a5,-148(s0)
    1e4c:	00478713          	add	a4,a5,4
    1e50:	f6e42623          	sw	a4,-148(s0)
    1e54:	0007a783          	lw	a5,0(a5)
    1e58:	01079793          	sll	a5,a5,0x10
    1e5c:	0107d793          	srl	a5,a5,0x10
    1e60:	0140006f          	j	1e74 <_vsnprintf+0x8bc>
    1e64:	f6c42783          	lw	a5,-148(s0)
    1e68:	00478713          	add	a4,a5,4
    1e6c:	f6e42623          	sw	a4,-148(s0)
    1e70:	0007a783          	lw	a5,0(a5)
    1e74:	f8f42e23          	sw	a5,-100(s0)
    1e78:	fcc42783          	lw	a5,-52(s0)
    1e7c:	00f12223          	sw	a5,4(sp)
    1e80:	fc842783          	lw	a5,-56(s0)
    1e84:	00f12023          	sw	a5,0(sp)
    1e88:	fc442883          	lw	a7,-60(s0)
    1e8c:	fb842803          	lw	a6,-72(s0)
    1e90:	00000793          	li	a5,0
    1e94:	f9c42703          	lw	a4,-100(s0)
    1e98:	f7442683          	lw	a3,-140(s0)
    1e9c:	fbc42603          	lw	a2,-68(s0)
    1ea0:	f7842583          	lw	a1,-136(s0)
    1ea4:	f7c42503          	lw	a0,-132(s0)
    1ea8:	915fe0ef          	jal	7bc <_ntoa_long>
    1eac:	faa42e23          	sw	a0,-68(s0)
    1eb0:	f7042783          	lw	a5,-144(s0)
    1eb4:	00178793          	add	a5,a5,1
    1eb8:	f6f42823          	sw	a5,-144(s0)
    1ebc:	4ac0006f          	j	2368 <_vsnprintf+0xdb0>
    1ec0:	f7042783          	lw	a5,-144(s0)
    1ec4:	0007c703          	lbu	a4,0(a5)
    1ec8:	04600793          	li	a5,70
    1ecc:	00f71863          	bne	a4,a5,1edc <_vsnprintf+0x924>
    1ed0:	fcc42783          	lw	a5,-52(s0)
    1ed4:	0207e793          	or	a5,a5,32
    1ed8:	fcf42623          	sw	a5,-52(s0)
    1edc:	f6c42783          	lw	a5,-148(s0)
    1ee0:	00778793          	add	a5,a5,7
    1ee4:	ff87f793          	and	a5,a5,-8
    1ee8:	00878713          	add	a4,a5,8
    1eec:	f6e42623          	sw	a4,-148(s0)
    1ef0:	0007b787          	fld	fa5,0(a5)
    1ef4:	fcc42783          	lw	a5,-52(s0)
    1ef8:	00f12023          	sw	a5,0(sp)
    1efc:	fc842883          	lw	a7,-56(s0)
    1f00:	fc442803          	lw	a6,-60(s0)
    1f04:	f6f43027          	fsd	fa5,-160(s0)
    1f08:	f6042703          	lw	a4,-160(s0)
    1f0c:	f6442783          	lw	a5,-156(s0)
    1f10:	f7442683          	lw	a3,-140(s0)
    1f14:	fbc42603          	lw	a2,-68(s0)
    1f18:	f7842583          	lw	a1,-136(s0)
    1f1c:	f7c42503          	lw	a0,-132(s0)
    1f20:	b79fe0ef          	jal	a98 <_ftoa>
    1f24:	faa42e23          	sw	a0,-68(s0)
    1f28:	f7042783          	lw	a5,-144(s0)
    1f2c:	00178793          	add	a5,a5,1
    1f30:	f6f42823          	sw	a5,-144(s0)
    1f34:	4340006f          	j	2368 <_vsnprintf+0xdb0>
    1f38:	f7042783          	lw	a5,-144(s0)
    1f3c:	0007c703          	lbu	a4,0(a5)
    1f40:	06700793          	li	a5,103
    1f44:	00f70a63          	beq	a4,a5,1f58 <_vsnprintf+0x9a0>
    1f48:	f7042783          	lw	a5,-144(s0)
    1f4c:	0007c703          	lbu	a4,0(a5)
    1f50:	04700793          	li	a5,71
    1f54:	00f71c63          	bne	a4,a5,1f6c <_vsnprintf+0x9b4>
    1f58:	fcc42703          	lw	a4,-52(s0)
    1f5c:	000017b7          	lui	a5,0x1
    1f60:	80078793          	add	a5,a5,-2048 # 800 <_ntoa_long+0x44>
    1f64:	00f767b3          	or	a5,a4,a5
    1f68:	fcf42623          	sw	a5,-52(s0)
    1f6c:	f7042783          	lw	a5,-144(s0)
    1f70:	0007c703          	lbu	a4,0(a5)
    1f74:	04500793          	li	a5,69
    1f78:	00f70a63          	beq	a4,a5,1f8c <_vsnprintf+0x9d4>
    1f7c:	f7042783          	lw	a5,-144(s0)
    1f80:	0007c703          	lbu	a4,0(a5)
    1f84:	04700793          	li	a5,71
    1f88:	00f71863          	bne	a4,a5,1f98 <_vsnprintf+0x9e0>
    1f8c:	fcc42783          	lw	a5,-52(s0)
    1f90:	0207e793          	or	a5,a5,32
    1f94:	fcf42623          	sw	a5,-52(s0)
    1f98:	f6c42783          	lw	a5,-148(s0)
    1f9c:	00778793          	add	a5,a5,7
    1fa0:	ff87f793          	and	a5,a5,-8
    1fa4:	00878713          	add	a4,a5,8
    1fa8:	f6e42623          	sw	a4,-148(s0)
    1fac:	0007b787          	fld	fa5,0(a5)
    1fb0:	fcc42783          	lw	a5,-52(s0)
    1fb4:	00f12023          	sw	a5,0(sp)
    1fb8:	fc842883          	lw	a7,-56(s0)
    1fbc:	fc442803          	lw	a6,-60(s0)
    1fc0:	f6f43027          	fsd	fa5,-160(s0)
    1fc4:	f6042703          	lw	a4,-160(s0)
    1fc8:	f6442783          	lw	a5,-156(s0)
    1fcc:	f7442683          	lw	a3,-140(s0)
    1fd0:	fbc42603          	lw	a2,-68(s0)
    1fd4:	f7842583          	lw	a1,-136(s0)
    1fd8:	f7c42503          	lw	a0,-132(s0)
    1fdc:	89cff0ef          	jal	1078 <_etoa>
    1fe0:	faa42e23          	sw	a0,-68(s0)
    1fe4:	f7042783          	lw	a5,-144(s0)
    1fe8:	00178793          	add	a5,a5,1
    1fec:	f6f42823          	sw	a5,-144(s0)
    1ff0:	3780006f          	j	2368 <_vsnprintf+0xdb0>
    1ff4:	00100793          	li	a5,1
    1ff8:	faf42a23          	sw	a5,-76(s0)
    1ffc:	fcc42783          	lw	a5,-52(s0)
    2000:	0027f793          	and	a5,a5,2
    2004:	04079063          	bnez	a5,2044 <_vsnprintf+0xa8c>
    2008:	0280006f          	j	2030 <_vsnprintf+0xa78>
    200c:	fbc42783          	lw	a5,-68(s0)
    2010:	00178713          	add	a4,a5,1
    2014:	fae42e23          	sw	a4,-68(s0)
    2018:	f7c42703          	lw	a4,-132(s0)
    201c:	f7442683          	lw	a3,-140(s0)
    2020:	00078613          	mv	a2,a5
    2024:	f7842583          	lw	a1,-136(s0)
    2028:	02000513          	li	a0,32
    202c:	000700e7          	jalr	a4
    2030:	fb442783          	lw	a5,-76(s0)
    2034:	00178713          	add	a4,a5,1
    2038:	fae42a23          	sw	a4,-76(s0)
    203c:	fc842703          	lw	a4,-56(s0)
    2040:	fce7e6e3          	bltu	a5,a4,200c <_vsnprintf+0xa54>
    2044:	f6c42783          	lw	a5,-148(s0)
    2048:	00478713          	add	a4,a5,4
    204c:	f6e42623          	sw	a4,-148(s0)
    2050:	0007a783          	lw	a5,0(a5)
    2054:	0ff7f513          	zext.b	a0,a5
    2058:	fbc42783          	lw	a5,-68(s0)
    205c:	00178713          	add	a4,a5,1
    2060:	fae42e23          	sw	a4,-68(s0)
    2064:	f7c42703          	lw	a4,-132(s0)
    2068:	f7442683          	lw	a3,-140(s0)
    206c:	00078613          	mv	a2,a5
    2070:	f7842583          	lw	a1,-136(s0)
    2074:	000700e7          	jalr	a4
    2078:	fcc42783          	lw	a5,-52(s0)
    207c:	0027f793          	and	a5,a5,2
    2080:	04078063          	beqz	a5,20c0 <_vsnprintf+0xb08>
    2084:	0280006f          	j	20ac <_vsnprintf+0xaf4>
    2088:	fbc42783          	lw	a5,-68(s0)
    208c:	00178713          	add	a4,a5,1
    2090:	fae42e23          	sw	a4,-68(s0)
    2094:	f7c42703          	lw	a4,-132(s0)
    2098:	f7442683          	lw	a3,-140(s0)
    209c:	00078613          	mv	a2,a5
    20a0:	f7842583          	lw	a1,-136(s0)
    20a4:	02000513          	li	a0,32
    20a8:	000700e7          	jalr	a4
    20ac:	fb442783          	lw	a5,-76(s0)
    20b0:	00178713          	add	a4,a5,1
    20b4:	fae42a23          	sw	a4,-76(s0)
    20b8:	fc842703          	lw	a4,-56(s0)
    20bc:	fce7e6e3          	bltu	a5,a4,2088 <_vsnprintf+0xad0>
    20c0:	f7042783          	lw	a5,-144(s0)
    20c4:	00178793          	add	a5,a5,1
    20c8:	f6f42823          	sw	a5,-144(s0)
    20cc:	29c0006f          	j	2368 <_vsnprintf+0xdb0>
    20d0:	f6c42783          	lw	a5,-148(s0)
    20d4:	00478713          	add	a4,a5,4
    20d8:	f6e42623          	sw	a4,-148(s0)
    20dc:	0007a783          	lw	a5,0(a5)
    20e0:	faf42823          	sw	a5,-80(s0)
    20e4:	fc442783          	lw	a5,-60(s0)
    20e8:	00078663          	beqz	a5,20f4 <_vsnprintf+0xb3c>
    20ec:	fc442783          	lw	a5,-60(s0)
    20f0:	0080006f          	j	20f8 <_vsnprintf+0xb40>
    20f4:	fff00793          	li	a5,-1
    20f8:	00078593          	mv	a1,a5
    20fc:	fb042503          	lw	a0,-80(s0)
    2100:	940fe0ef          	jal	240 <_strnlen_s>
    2104:	faa42623          	sw	a0,-84(s0)
    2108:	fcc42783          	lw	a5,-52(s0)
    210c:	4007f793          	and	a5,a5,1024
    2110:	00078c63          	beqz	a5,2128 <_vsnprintf+0xb70>
    2114:	fac42703          	lw	a4,-84(s0)
    2118:	fc442783          	lw	a5,-60(s0)
    211c:	00f77463          	bgeu	a4,a5,2124 <_vsnprintf+0xb6c>
    2120:	00070793          	mv	a5,a4
    2124:	faf42623          	sw	a5,-84(s0)
    2128:	fcc42783          	lw	a5,-52(s0)
    212c:	0027f793          	and	a5,a5,2
    2130:	06079a63          	bnez	a5,21a4 <_vsnprintf+0xbec>
    2134:	0280006f          	j	215c <_vsnprintf+0xba4>
    2138:	fbc42783          	lw	a5,-68(s0)
    213c:	00178713          	add	a4,a5,1
    2140:	fae42e23          	sw	a4,-68(s0)
    2144:	f7c42703          	lw	a4,-132(s0)
    2148:	f7442683          	lw	a3,-140(s0)
    214c:	00078613          	mv	a2,a5
    2150:	f7842583          	lw	a1,-136(s0)
    2154:	02000513          	li	a0,32
    2158:	000700e7          	jalr	a4
    215c:	fac42783          	lw	a5,-84(s0)
    2160:	00178713          	add	a4,a5,1
    2164:	fae42623          	sw	a4,-84(s0)
    2168:	fc842703          	lw	a4,-56(s0)
    216c:	fce7e6e3          	bltu	a5,a4,2138 <_vsnprintf+0xb80>
    2170:	0340006f          	j	21a4 <_vsnprintf+0xbec>
    2174:	fb042783          	lw	a5,-80(s0)
    2178:	00178713          	add	a4,a5,1
    217c:	fae42823          	sw	a4,-80(s0)
    2180:	0007c503          	lbu	a0,0(a5)
    2184:	fbc42783          	lw	a5,-68(s0)
    2188:	00178713          	add	a4,a5,1
    218c:	fae42e23          	sw	a4,-68(s0)
    2190:	f7c42703          	lw	a4,-132(s0)
    2194:	f7442683          	lw	a3,-140(s0)
    2198:	00078613          	mv	a2,a5
    219c:	f7842583          	lw	a1,-136(s0)
    21a0:	000700e7          	jalr	a4
    21a4:	fb042783          	lw	a5,-80(s0)
    21a8:	0007c783          	lbu	a5,0(a5)
    21ac:	02078063          	beqz	a5,21cc <_vsnprintf+0xc14>
    21b0:	fcc42783          	lw	a5,-52(s0)
    21b4:	4007f793          	and	a5,a5,1024
    21b8:	fa078ee3          	beqz	a5,2174 <_vsnprintf+0xbbc>
    21bc:	fc442783          	lw	a5,-60(s0)
    21c0:	fff78713          	add	a4,a5,-1
    21c4:	fce42223          	sw	a4,-60(s0)
    21c8:	fa0796e3          	bnez	a5,2174 <_vsnprintf+0xbbc>
    21cc:	fcc42783          	lw	a5,-52(s0)
    21d0:	0027f793          	and	a5,a5,2
    21d4:	04078063          	beqz	a5,2214 <_vsnprintf+0xc5c>
    21d8:	0280006f          	j	2200 <_vsnprintf+0xc48>
    21dc:	fbc42783          	lw	a5,-68(s0)
    21e0:	00178713          	add	a4,a5,1
    21e4:	fae42e23          	sw	a4,-68(s0)
    21e8:	f7c42703          	lw	a4,-132(s0)
    21ec:	f7442683          	lw	a3,-140(s0)
    21f0:	00078613          	mv	a2,a5
    21f4:	f7842583          	lw	a1,-136(s0)
    21f8:	02000513          	li	a0,32
    21fc:	000700e7          	jalr	a4
    2200:	fac42783          	lw	a5,-84(s0)
    2204:	00178713          	add	a4,a5,1
    2208:	fae42623          	sw	a4,-84(s0)
    220c:	fc842703          	lw	a4,-56(s0)
    2210:	fce7e6e3          	bltu	a5,a4,21dc <_vsnprintf+0xc24>
    2214:	f7042783          	lw	a5,-144(s0)
    2218:	00178793          	add	a5,a5,1
    221c:	f6f42823          	sw	a5,-144(s0)
    2220:	1480006f          	j	2368 <_vsnprintf+0xdb0>
    2224:	00800793          	li	a5,8
    2228:	fcf42423          	sw	a5,-56(s0)
    222c:	fcc42783          	lw	a5,-52(s0)
    2230:	0217e793          	or	a5,a5,33
    2234:	fcf42623          	sw	a5,-52(s0)
    2238:	fa0401a3          	sb	zero,-93(s0)
    223c:	fa344783          	lbu	a5,-93(s0)
    2240:	06078263          	beqz	a5,22a4 <_vsnprintf+0xcec>
    2244:	f6c42783          	lw	a5,-148(s0)
    2248:	00478713          	add	a4,a5,4
    224c:	f6e42623          	sw	a4,-148(s0)
    2250:	0007a783          	lw	a5,0(a5)
    2254:	00078d13          	mv	s10,a5
    2258:	00000d93          	li	s11,0
    225c:	fcc42783          	lw	a5,-52(s0)
    2260:	00f12623          	sw	a5,12(sp)
    2264:	fc842783          	lw	a5,-56(s0)
    2268:	00f12423          	sw	a5,8(sp)
    226c:	fc442783          	lw	a5,-60(s0)
    2270:	00f12223          	sw	a5,4(sp)
    2274:	00012023          	sw	zero,0(sp)
    2278:	01000893          	li	a7,16
    227c:	00000813          	li	a6,0
    2280:	000d0713          	mv	a4,s10
    2284:	000d8793          	mv	a5,s11
    2288:	f7442683          	lw	a3,-140(s0)
    228c:	fbc42603          	lw	a2,-68(s0)
    2290:	f7842583          	lw	a1,-136(s0)
    2294:	f7c42503          	lw	a0,-132(s0)
    2298:	e6cfe0ef          	jal	904 <_ntoa_long_long>
    229c:	faa42e23          	sw	a0,-68(s0)
    22a0:	04c0006f          	j	22ec <_vsnprintf+0xd34>
    22a4:	f6c42783          	lw	a5,-148(s0)
    22a8:	00478713          	add	a4,a5,4
    22ac:	f6e42623          	sw	a4,-148(s0)
    22b0:	0007a783          	lw	a5,0(a5)
    22b4:	00078713          	mv	a4,a5
    22b8:	fcc42783          	lw	a5,-52(s0)
    22bc:	00f12223          	sw	a5,4(sp)
    22c0:	fc842783          	lw	a5,-56(s0)
    22c4:	00f12023          	sw	a5,0(sp)
    22c8:	fc442883          	lw	a7,-60(s0)
    22cc:	01000813          	li	a6,16
    22d0:	00000793          	li	a5,0
    22d4:	f7442683          	lw	a3,-140(s0)
    22d8:	fbc42603          	lw	a2,-68(s0)
    22dc:	f7842583          	lw	a1,-136(s0)
    22e0:	f7c42503          	lw	a0,-132(s0)
    22e4:	cd8fe0ef          	jal	7bc <_ntoa_long>
    22e8:	faa42e23          	sw	a0,-68(s0)
    22ec:	f7042783          	lw	a5,-144(s0)
    22f0:	00178793          	add	a5,a5,1
    22f4:	f6f42823          	sw	a5,-144(s0)
    22f8:	0700006f          	j	2368 <_vsnprintf+0xdb0>
    22fc:	fbc42783          	lw	a5,-68(s0)
    2300:	00178713          	add	a4,a5,1
    2304:	fae42e23          	sw	a4,-68(s0)
    2308:	f7c42703          	lw	a4,-132(s0)
    230c:	f7442683          	lw	a3,-140(s0)
    2310:	00078613          	mv	a2,a5
    2314:	f7842583          	lw	a1,-136(s0)
    2318:	02500513          	li	a0,37
    231c:	000700e7          	jalr	a4
    2320:	f7042783          	lw	a5,-144(s0)
    2324:	00178793          	add	a5,a5,1
    2328:	f6f42823          	sw	a5,-144(s0)
    232c:	03c0006f          	j	2368 <_vsnprintf+0xdb0>
    2330:	f7042783          	lw	a5,-144(s0)
    2334:	0007c503          	lbu	a0,0(a5)
    2338:	fbc42783          	lw	a5,-68(s0)
    233c:	00178713          	add	a4,a5,1
    2340:	fae42e23          	sw	a4,-68(s0)
    2344:	f7c42703          	lw	a4,-132(s0)
    2348:	f7442683          	lw	a3,-140(s0)
    234c:	00078613          	mv	a2,a5
    2350:	f7842583          	lw	a1,-136(s0)
    2354:	000700e7          	jalr	a4
    2358:	f7042783          	lw	a5,-144(s0)
    235c:	00178793          	add	a5,a5,1
    2360:	f6f42823          	sw	a5,-144(s0)
    2364:	00000013          	nop
    2368:	f7042783          	lw	a5,-144(s0)
    236c:	0007c783          	lbu	a5,0(a5)
    2370:	aa079663          	bnez	a5,161c <_vsnprintf+0x64>
    2374:	fbc42703          	lw	a4,-68(s0)
    2378:	f7442783          	lw	a5,-140(s0)
    237c:	00f76863          	bltu	a4,a5,238c <_vsnprintf+0xdd4>
    2380:	f7442783          	lw	a5,-140(s0)
    2384:	fff78793          	add	a5,a5,-1
    2388:	0080006f          	j	2390 <_vsnprintf+0xdd8>
    238c:	fbc42783          	lw	a5,-68(s0)
    2390:	f7c42703          	lw	a4,-132(s0)
    2394:	f7442683          	lw	a3,-140(s0)
    2398:	00078613          	mv	a2,a5
    239c:	f7842583          	lw	a1,-136(s0)
    23a0:	00000513          	li	a0,0
    23a4:	000700e7          	jalr	a4
    23a8:	fbc42783          	lw	a5,-68(s0)
    23ac:	00078513          	mv	a0,a5
    23b0:	0ac12083          	lw	ra,172(sp)
    23b4:	0a812403          	lw	s0,168(sp)
    23b8:	0a412903          	lw	s2,164(sp)
    23bc:	0a012983          	lw	s3,160(sp)
    23c0:	09c12a03          	lw	s4,156(sp)
    23c4:	09812a83          	lw	s5,152(sp)
    23c8:	09412b03          	lw	s6,148(sp)
    23cc:	09012b83          	lw	s7,144(sp)
    23d0:	08c12c03          	lw	s8,140(sp)
    23d4:	08812c83          	lw	s9,136(sp)
    23d8:	08412d03          	lw	s10,132(sp)
    23dc:	08012d83          	lw	s11,128(sp)
    23e0:	0b010113          	add	sp,sp,176
    23e4:	00008067          	ret

000023e8 <printf_>:
    23e8:	fb010113          	add	sp,sp,-80
    23ec:	02112623          	sw	ra,44(sp)
    23f0:	02812423          	sw	s0,40(sp)
    23f4:	03010413          	add	s0,sp,48
    23f8:	fca42e23          	sw	a0,-36(s0)
    23fc:	00b42223          	sw	a1,4(s0)
    2400:	00c42423          	sw	a2,8(s0)
    2404:	00d42623          	sw	a3,12(s0)
    2408:	00e42823          	sw	a4,16(s0)
    240c:	00f42a23          	sw	a5,20(s0)
    2410:	01042c23          	sw	a6,24(s0)
    2414:	01142e23          	sw	a7,28(s0)
    2418:	02040793          	add	a5,s0,32
    241c:	fcf42c23          	sw	a5,-40(s0)
    2420:	fd842783          	lw	a5,-40(s0)
    2424:	fe478793          	add	a5,a5,-28
    2428:	fef42423          	sw	a5,-24(s0)
    242c:	fe842703          	lw	a4,-24(s0)
    2430:	fe440793          	add	a5,s0,-28
    2434:	fdc42683          	lw	a3,-36(s0)
    2438:	fff00613          	li	a2,-1
    243c:	00078593          	mv	a1,a5
    2440:	19400513          	li	a0,404
    2444:	974ff0ef          	jal	15b8 <_vsnprintf>
    2448:	fea42623          	sw	a0,-20(s0)
    244c:	fec42783          	lw	a5,-20(s0)
    2450:	00078513          	mv	a0,a5
    2454:	02c12083          	lw	ra,44(sp)
    2458:	02812403          	lw	s0,40(sp)
    245c:	05010113          	add	sp,sp,80
    2460:	00008067          	ret

00002464 <sprintf_>:
    2464:	fb010113          	add	sp,sp,-80
    2468:	02112623          	sw	ra,44(sp)
    246c:	02812423          	sw	s0,40(sp)
    2470:	03010413          	add	s0,sp,48
    2474:	fca42e23          	sw	a0,-36(s0)
    2478:	fcb42c23          	sw	a1,-40(s0)
    247c:	00c42423          	sw	a2,8(s0)
    2480:	00d42623          	sw	a3,12(s0)
    2484:	00e42823          	sw	a4,16(s0)
    2488:	00f42a23          	sw	a5,20(s0)
    248c:	01042c23          	sw	a6,24(s0)
    2490:	01142e23          	sw	a7,28(s0)
    2494:	02040793          	add	a5,s0,32
    2498:	fcf42a23          	sw	a5,-44(s0)
    249c:	fd442783          	lw	a5,-44(s0)
    24a0:	fe878793          	add	a5,a5,-24
    24a4:	fef42423          	sw	a5,-24(s0)
    24a8:	fe842783          	lw	a5,-24(s0)
    24ac:	00078713          	mv	a4,a5
    24b0:	fd842683          	lw	a3,-40(s0)
    24b4:	fff00613          	li	a2,-1
    24b8:	fdc42583          	lw	a1,-36(s0)
    24bc:	0c000513          	li	a0,192
    24c0:	8f8ff0ef          	jal	15b8 <_vsnprintf>
    24c4:	fea42623          	sw	a0,-20(s0)
    24c8:	fec42783          	lw	a5,-20(s0)
    24cc:	00078513          	mv	a0,a5
    24d0:	02c12083          	lw	ra,44(sp)
    24d4:	02812403          	lw	s0,40(sp)
    24d8:	05010113          	add	sp,sp,80
    24dc:	00008067          	ret

000024e0 <snprintf_>:
    24e0:	fb010113          	add	sp,sp,-80
    24e4:	02112623          	sw	ra,44(sp)
    24e8:	02812423          	sw	s0,40(sp)
    24ec:	03010413          	add	s0,sp,48
    24f0:	fca42e23          	sw	a0,-36(s0)
    24f4:	fcb42c23          	sw	a1,-40(s0)
    24f8:	fcc42a23          	sw	a2,-44(s0)
    24fc:	00d42623          	sw	a3,12(s0)
    2500:	00e42823          	sw	a4,16(s0)
    2504:	00f42a23          	sw	a5,20(s0)
    2508:	01042c23          	sw	a6,24(s0)
    250c:	01142e23          	sw	a7,28(s0)
    2510:	02040793          	add	a5,s0,32
    2514:	fcf42823          	sw	a5,-48(s0)
    2518:	fd042783          	lw	a5,-48(s0)
    251c:	fec78793          	add	a5,a5,-20
    2520:	fef42423          	sw	a5,-24(s0)
    2524:	fe842783          	lw	a5,-24(s0)
    2528:	00078713          	mv	a4,a5
    252c:	fd442683          	lw	a3,-44(s0)
    2530:	fd842603          	lw	a2,-40(s0)
    2534:	fdc42583          	lw	a1,-36(s0)
    2538:	0c000513          	li	a0,192
    253c:	87cff0ef          	jal	15b8 <_vsnprintf>
    2540:	fea42623          	sw	a0,-20(s0)
    2544:	fec42783          	lw	a5,-20(s0)
    2548:	00078513          	mv	a0,a5
    254c:	02c12083          	lw	ra,44(sp)
    2550:	02812403          	lw	s0,40(sp)
    2554:	05010113          	add	sp,sp,80
    2558:	00008067          	ret

0000255c <vprintf_>:
    255c:	fd010113          	add	sp,sp,-48
    2560:	02112623          	sw	ra,44(sp)
    2564:	02812423          	sw	s0,40(sp)
    2568:	03010413          	add	s0,sp,48
    256c:	fca42e23          	sw	a0,-36(s0)
    2570:	fcb42c23          	sw	a1,-40(s0)
    2574:	fec40793          	add	a5,s0,-20
    2578:	fd842703          	lw	a4,-40(s0)
    257c:	fdc42683          	lw	a3,-36(s0)
    2580:	fff00613          	li	a2,-1
    2584:	00078593          	mv	a1,a5
    2588:	19400513          	li	a0,404
    258c:	82cff0ef          	jal	15b8 <_vsnprintf>
    2590:	00050793          	mv	a5,a0
    2594:	00078513          	mv	a0,a5
    2598:	02c12083          	lw	ra,44(sp)
    259c:	02812403          	lw	s0,40(sp)
    25a0:	03010113          	add	sp,sp,48
    25a4:	00008067          	ret

000025a8 <vsnprintf_>:
    25a8:	fe010113          	add	sp,sp,-32
    25ac:	00112e23          	sw	ra,28(sp)
    25b0:	00812c23          	sw	s0,24(sp)
    25b4:	02010413          	add	s0,sp,32
    25b8:	fea42623          	sw	a0,-20(s0)
    25bc:	feb42423          	sw	a1,-24(s0)
    25c0:	fec42223          	sw	a2,-28(s0)
    25c4:	fed42023          	sw	a3,-32(s0)
    25c8:	fe042703          	lw	a4,-32(s0)
    25cc:	fe442683          	lw	a3,-28(s0)
    25d0:	fe842603          	lw	a2,-24(s0)
    25d4:	fec42583          	lw	a1,-20(s0)
    25d8:	0c000513          	li	a0,192
    25dc:	fddfe0ef          	jal	15b8 <_vsnprintf>
    25e0:	00050793          	mv	a5,a0
    25e4:	00078513          	mv	a0,a5
    25e8:	01c12083          	lw	ra,28(sp)
    25ec:	01812403          	lw	s0,24(sp)
    25f0:	02010113          	add	sp,sp,32
    25f4:	00008067          	ret

000025f8 <fctprintf>:
    25f8:	fb010113          	add	sp,sp,-80
    25fc:	02112623          	sw	ra,44(sp)
    2600:	02812423          	sw	s0,40(sp)
    2604:	03010413          	add	s0,sp,48
    2608:	fca42e23          	sw	a0,-36(s0)
    260c:	fcb42c23          	sw	a1,-40(s0)
    2610:	fcc42a23          	sw	a2,-44(s0)
    2614:	00d42623          	sw	a3,12(s0)
    2618:	00e42823          	sw	a4,16(s0)
    261c:	00f42a23          	sw	a5,20(s0)
    2620:	01042c23          	sw	a6,24(s0)
    2624:	01142e23          	sw	a7,28(s0)
    2628:	02040793          	add	a5,s0,32
    262c:	fcf42823          	sw	a5,-48(s0)
    2630:	fd042783          	lw	a5,-48(s0)
    2634:	fec78793          	add	a5,a5,-20
    2638:	fef42423          	sw	a5,-24(s0)
    263c:	fdc42783          	lw	a5,-36(s0)
    2640:	fef42023          	sw	a5,-32(s0)
    2644:	fd842783          	lw	a5,-40(s0)
    2648:	fef42223          	sw	a5,-28(s0)
    264c:	fe842703          	lw	a4,-24(s0)
    2650:	fe040793          	add	a5,s0,-32
    2654:	fd442683          	lw	a3,-44(s0)
    2658:	fff00613          	li	a2,-1
    265c:	00078593          	mv	a1,a5
    2660:	1e000513          	li	a0,480
    2664:	f55fe0ef          	jal	15b8 <_vsnprintf>
    2668:	fea42623          	sw	a0,-20(s0)
    266c:	fec42783          	lw	a5,-20(s0)
    2670:	00078513          	mv	a0,a5
    2674:	02c12083          	lw	ra,44(sp)
    2678:	02812403          	lw	s0,40(sp)
    267c:	05010113          	add	sp,sp,80
    2680:	00008067          	ret

00002684 <c_isspace>:
    2684:	fe010113          	add	sp,sp,-32
    2688:	00812e23          	sw	s0,28(sp)
    268c:	02010413          	add	s0,sp,32
    2690:	00050793          	mv	a5,a0
    2694:	fef407a3          	sb	a5,-17(s0)
    2698:	fef44783          	lbu	a5,-17(s0)
    269c:	00d00713          	li	a4,13
    26a0:	00f74863          	blt	a4,a5,26b0 <c_isspace+0x2c>
    26a4:	00900713          	li	a4,9
    26a8:	00e7d863          	bge	a5,a4,26b8 <c_isspace+0x34>
    26ac:	0140006f          	j	26c0 <c_isspace+0x3c>
    26b0:	02000713          	li	a4,32
    26b4:	00e79663          	bne	a5,a4,26c0 <c_isspace+0x3c>
    26b8:	00100793          	li	a5,1
    26bc:	0080006f          	j	26c4 <c_isspace+0x40>
    26c0:	00000793          	li	a5,0
    26c4:	00078513          	mv	a0,a5
    26c8:	01c12403          	lw	s0,28(sp)
    26cc:	02010113          	add	sp,sp,32
    26d0:	00008067          	ret

000026d4 <c_isdigit>:
    26d4:	fe010113          	add	sp,sp,-32
    26d8:	00812e23          	sw	s0,28(sp)
    26dc:	02010413          	add	s0,sp,32
    26e0:	fea42623          	sw	a0,-20(s0)
    26e4:	fec42703          	lw	a4,-20(s0)
    26e8:	02f00793          	li	a5,47
    26ec:	00e7dc63          	bge	a5,a4,2704 <c_isdigit+0x30>
    26f0:	fec42703          	lw	a4,-20(s0)
    26f4:	03900793          	li	a5,57
    26f8:	00e7c663          	blt	a5,a4,2704 <c_isdigit+0x30>
    26fc:	00100793          	li	a5,1
    2700:	0080006f          	j	2708 <c_isdigit+0x34>
    2704:	00000793          	li	a5,0
    2708:	00078513          	mv	a0,a5
    270c:	01c12403          	lw	s0,28(sp)
    2710:	02010113          	add	sp,sp,32
    2714:	00008067          	ret

00002718 <c_scanf>:
    2718:	f8010113          	add	sp,sp,-128
    271c:	04112e23          	sw	ra,92(sp)
    2720:	04812c23          	sw	s0,88(sp)
    2724:	06010413          	add	s0,sp,96
    2728:	faa42623          	sw	a0,-84(s0)
    272c:	00b42223          	sw	a1,4(s0)
    2730:	00c42423          	sw	a2,8(s0)
    2734:	00d42623          	sw	a3,12(s0)
    2738:	00e42823          	sw	a4,16(s0)
    273c:	00f42a23          	sw	a5,20(s0)
    2740:	01042c23          	sw	a6,24(s0)
    2744:	01142e23          	sw	a7,28(s0)
    2748:	fe042623          	sw	zero,-20(s0)
    274c:	458000ef          	jal	2ba4 <c_getch>
    2750:	00050793          	mv	a5,a0
    2754:	fef405a3          	sb	a5,-21(s0)
    2758:	fe042223          	sw	zero,-28(s0)
    275c:	02040793          	add	a5,s0,32
    2760:	faf42423          	sw	a5,-88(s0)
    2764:	fa842783          	lw	a5,-88(s0)
    2768:	fe478793          	add	a5,a5,-28
    276c:	fcf42223          	sw	a5,-60(s0)
    2770:	4000006f          	j	2b70 <c_scanf+0x458>
    2774:	fe442783          	lw	a5,-28(s0)
    2778:	fac42703          	lw	a4,-84(s0)
    277c:	00f707b3          	add	a5,a4,a5
    2780:	0007c703          	lbu	a4,0(a5)
    2784:	02500793          	li	a5,37
    2788:	3cf71e63          	bne	a4,a5,2b64 <c_scanf+0x44c>
    278c:	fe442783          	lw	a5,-28(s0)
    2790:	00178793          	add	a5,a5,1
    2794:	fef42223          	sw	a5,-28(s0)
    2798:	00100793          	li	a5,1
    279c:	fef401a3          	sb	a5,-29(s0)
    27a0:	fe442783          	lw	a5,-28(s0)
    27a4:	fac42703          	lw	a4,-84(s0)
    27a8:	00f707b3          	add	a5,a4,a5
    27ac:	0007c703          	lbu	a4,0(a5)
    27b0:	02a00793          	li	a5,42
    27b4:	00f71a63          	bne	a4,a5,27c8 <c_scanf+0xb0>
    27b8:	fe0401a3          	sb	zero,-29(s0)
    27bc:	fe442783          	lw	a5,-28(s0)
    27c0:	00178793          	add	a5,a5,1
    27c4:	fef42223          	sw	a5,-28(s0)
    27c8:	fc042e23          	sw	zero,-36(s0)
    27cc:	fc040da3          	sb	zero,-37(s0)
    27d0:	0540006f          	j	2824 <c_scanf+0x10c>
    27d4:	00100793          	li	a5,1
    27d8:	fcf40da3          	sb	a5,-37(s0)
    27dc:	fdc42703          	lw	a4,-36(s0)
    27e0:	00070793          	mv	a5,a4
    27e4:	00279793          	sll	a5,a5,0x2
    27e8:	00e787b3          	add	a5,a5,a4
    27ec:	00179793          	sll	a5,a5,0x1
    27f0:	fcf42e23          	sw	a5,-36(s0)
    27f4:	fe442783          	lw	a5,-28(s0)
    27f8:	fac42703          	lw	a4,-84(s0)
    27fc:	00f707b3          	add	a5,a4,a5
    2800:	0007c783          	lbu	a5,0(a5)
    2804:	00078713          	mv	a4,a5
    2808:	fdc42783          	lw	a5,-36(s0)
    280c:	00f707b3          	add	a5,a4,a5
    2810:	fd078793          	add	a5,a5,-48
    2814:	fcf42e23          	sw	a5,-36(s0)
    2818:	fe442783          	lw	a5,-28(s0)
    281c:	00178793          	add	a5,a5,1
    2820:	fef42223          	sw	a5,-28(s0)
    2824:	fe442783          	lw	a5,-28(s0)
    2828:	fac42703          	lw	a4,-84(s0)
    282c:	00f707b3          	add	a5,a4,a5
    2830:	0007c783          	lbu	a5,0(a5)
    2834:	00078513          	mv	a0,a5
    2838:	e9dff0ef          	jal	26d4 <c_isdigit>
    283c:	00050793          	mv	a5,a0
    2840:	f8079ae3          	bnez	a5,27d4 <c_scanf+0xbc>
    2844:	fc042a23          	sw	zero,-44(s0)
    2848:	fe442783          	lw	a5,-28(s0)
    284c:	fac42703          	lw	a4,-84(s0)
    2850:	00f707b3          	add	a5,a4,a5
    2854:	0007c703          	lbu	a4,0(a5)
    2858:	05b00793          	li	a5,91
    285c:	06f71863          	bne	a4,a5,28cc <c_scanf+0x1b4>
    2860:	0540006f          	j	28b4 <c_scanf+0x19c>
    2864:	fe442783          	lw	a5,-28(s0)
    2868:	fac42703          	lw	a4,-84(s0)
    286c:	00f707b3          	add	a5,a4,a5
    2870:	0007c703          	lbu	a4,0(a5)
    2874:	05b00793          	li	a5,91
    2878:	02f70863          	beq	a4,a5,28a8 <c_scanf+0x190>
    287c:	fe442783          	lw	a5,-28(s0)
    2880:	fac42703          	lw	a4,-84(s0)
    2884:	00f707b3          	add	a5,a4,a5
    2888:	0007c703          	lbu	a4,0(a5)
    288c:	fd442783          	lw	a5,-44(s0)
    2890:	ff078793          	add	a5,a5,-16
    2894:	008787b3          	add	a5,a5,s0
    2898:	fce78423          	sb	a4,-56(a5)
    289c:	fd442783          	lw	a5,-44(s0)
    28a0:	00178793          	add	a5,a5,1
    28a4:	fcf42a23          	sw	a5,-44(s0)
    28a8:	fe442783          	lw	a5,-28(s0)
    28ac:	00178793          	add	a5,a5,1
    28b0:	fef42223          	sw	a5,-28(s0)
    28b4:	fe442783          	lw	a5,-28(s0)
    28b8:	fac42703          	lw	a4,-84(s0)
    28bc:	00f707b3          	add	a5,a4,a5
    28c0:	0007c703          	lbu	a4,0(a5)
    28c4:	05d00793          	li	a5,93
    28c8:	f8f71ee3          	bne	a4,a5,2864 <c_scanf+0x14c>
    28cc:	fe442783          	lw	a5,-28(s0)
    28d0:	fac42703          	lw	a4,-84(s0)
    28d4:	00f707b3          	add	a5,a4,a5
    28d8:	0007c783          	lbu	a5,0(a5)
    28dc:	fa378793          	add	a5,a5,-93
    28e0:	01800713          	li	a4,24
    28e4:	22f76463          	bltu	a4,a5,2b0c <c_scanf+0x3f4>
    28e8:	00279713          	sll	a4,a5,0x2
    28ec:	000047b7          	lui	a5,0x4
    28f0:	81878793          	add	a5,a5,-2024 # 3818 <pow10.0+0xe8>
    28f4:	00f707b3          	add	a5,a4,a5
    28f8:	0007a783          	lw	a5,0(a5)
    28fc:	00078067          	jr	a5
    2900:	2a4000ef          	jal	2ba4 <c_getch>
    2904:	00050793          	mv	a5,a0
    2908:	fef405a3          	sb	a5,-21(s0)
    290c:	feb44783          	lbu	a5,-21(s0)
    2910:	00078513          	mv	a0,a5
    2914:	d71ff0ef          	jal	2684 <c_isspace>
    2918:	00050793          	mv	a5,a0
    291c:	fe0792e3          	bnez	a5,2900 <c_scanf+0x1e8>
    2920:	fe344783          	lbu	a5,-29(s0)
    2924:	00078e63          	beqz	a5,2940 <c_scanf+0x228>
    2928:	fc442783          	lw	a5,-60(s0)
    292c:	00478713          	add	a4,a5,4
    2930:	fce42223          	sw	a4,-60(s0)
    2934:	0007a783          	lw	a5,0(a5)
    2938:	feb44703          	lbu	a4,-21(s0)
    293c:	00e78023          	sb	a4,0(a5)
    2940:	264000ef          	jal	2ba4 <c_getch>
    2944:	00050793          	mv	a5,a0
    2948:	fef405a3          	sb	a5,-21(s0)
    294c:	fec42783          	lw	a5,-20(s0)
    2950:	00178793          	add	a5,a5,1
    2954:	fef42623          	sw	a5,-20(s0)
    2958:	1b80006f          	j	2b10 <c_scanf+0x3f8>
    295c:	00100793          	li	a5,1
    2960:	fcf42823          	sw	a5,-48(s0)
    2964:	03c0006f          	j	29a0 <c_scanf+0x288>
    2968:	feb44703          	lbu	a4,-21(s0)
    296c:	02b00793          	li	a5,43
    2970:	00f70863          	beq	a4,a5,2980 <c_scanf+0x268>
    2974:	feb44703          	lbu	a4,-21(s0)
    2978:	02d00793          	li	a5,45
    297c:	00f71c63          	bne	a4,a5,2994 <c_scanf+0x27c>
    2980:	feb44703          	lbu	a4,-21(s0)
    2984:	02d00793          	li	a5,45
    2988:	00f71663          	bne	a4,a5,2994 <c_scanf+0x27c>
    298c:	fff00793          	li	a5,-1
    2990:	fcf42823          	sw	a5,-48(s0)
    2994:	210000ef          	jal	2ba4 <c_getch>
    2998:	00050793          	mv	a5,a0
    299c:	fef405a3          	sb	a5,-21(s0)
    29a0:	feb44783          	lbu	a5,-21(s0)
    29a4:	00078513          	mv	a0,a5
    29a8:	d2dff0ef          	jal	26d4 <c_isdigit>
    29ac:	00050793          	mv	a5,a0
    29b0:	fa078ce3          	beqz	a5,2968 <c_scanf+0x250>
    29b4:	fc042623          	sw	zero,-52(s0)
    29b8:	0480006f          	j	2a00 <c_scanf+0x2e8>
    29bc:	fcc42703          	lw	a4,-52(s0)
    29c0:	00070793          	mv	a5,a4
    29c4:	00279793          	sll	a5,a5,0x2
    29c8:	00e787b3          	add	a5,a5,a4
    29cc:	00179793          	sll	a5,a5,0x1
    29d0:	fcf42623          	sw	a5,-52(s0)
    29d4:	feb44783          	lbu	a5,-21(s0)
    29d8:	fd078793          	add	a5,a5,-48
    29dc:	fcc42703          	lw	a4,-52(s0)
    29e0:	00f707b3          	add	a5,a4,a5
    29e4:	fcf42623          	sw	a5,-52(s0)
    29e8:	1bc000ef          	jal	2ba4 <c_getch>
    29ec:	00050793          	mv	a5,a0
    29f0:	fef405a3          	sb	a5,-21(s0)
    29f4:	fdc42783          	lw	a5,-36(s0)
    29f8:	fff78793          	add	a5,a5,-1
    29fc:	fcf42e23          	sw	a5,-36(s0)
    2a00:	feb44783          	lbu	a5,-21(s0)
    2a04:	00078513          	mv	a0,a5
    2a08:	ccdff0ef          	jal	26d4 <c_isdigit>
    2a0c:	00050793          	mv	a5,a0
    2a10:	00078e63          	beqz	a5,2a2c <c_scanf+0x314>
    2a14:	fdb44783          	lbu	a5,-37(s0)
    2a18:	0017c793          	xor	a5,a5,1
    2a1c:	0ff7f793          	zext.b	a5,a5
    2a20:	f8079ee3          	bnez	a5,29bc <c_scanf+0x2a4>
    2a24:	fdc42783          	lw	a5,-36(s0)
    2a28:	f8079ae3          	bnez	a5,29bc <c_scanf+0x2a4>
    2a2c:	fe344783          	lbu	a5,-29(s0)
    2a30:	02078263          	beqz	a5,2a54 <c_scanf+0x33c>
    2a34:	fc442783          	lw	a5,-60(s0)
    2a38:	00478713          	add	a4,a5,4
    2a3c:	fce42223          	sw	a4,-60(s0)
    2a40:	0007a783          	lw	a5,0(a5)
    2a44:	fcc42683          	lw	a3,-52(s0)
    2a48:	fd042703          	lw	a4,-48(s0)
    2a4c:	02e68733          	mul	a4,a3,a4
    2a50:	00e7a023          	sw	a4,0(a5)
    2a54:	fec42783          	lw	a5,-20(s0)
    2a58:	00178793          	add	a5,a5,1
    2a5c:	fef42623          	sw	a5,-20(s0)
    2a60:	0b00006f          	j	2b10 <c_scanf+0x3f8>
    2a64:	fe344783          	lbu	a5,-29(s0)
    2a68:	00078c63          	beqz	a5,2a80 <c_scanf+0x368>
    2a6c:	fc442783          	lw	a5,-60(s0)
    2a70:	00478713          	add	a4,a5,4
    2a74:	fce42223          	sw	a4,-60(s0)
    2a78:	0007a783          	lw	a5,0(a5)
    2a7c:	0080006f          	j	2a84 <c_scanf+0x36c>
    2a80:	00000793          	li	a5,0
    2a84:	fcf42423          	sw	a5,-56(s0)
    2a88:	0400006f          	j	2ac8 <c_scanf+0x3b0>
    2a8c:	fe344783          	lbu	a5,-29(s0)
    2a90:	00078c63          	beqz	a5,2aa8 <c_scanf+0x390>
    2a94:	fc842783          	lw	a5,-56(s0)
    2a98:	00178713          	add	a4,a5,1
    2a9c:	fce42423          	sw	a4,-56(s0)
    2aa0:	feb44703          	lbu	a4,-21(s0)
    2aa4:	00e78023          	sb	a4,0(a5)
    2aa8:	0fc000ef          	jal	2ba4 <c_getch>
    2aac:	00050793          	mv	a5,a0
    2ab0:	fef405a3          	sb	a5,-21(s0)
    2ab4:	fdb44783          	lbu	a5,-37(s0)
    2ab8:	00078863          	beqz	a5,2ac8 <c_scanf+0x3b0>
    2abc:	fdc42783          	lw	a5,-36(s0)
    2ac0:	fff78793          	add	a5,a5,-1
    2ac4:	fcf42e23          	sw	a5,-36(s0)
    2ac8:	feb44703          	lbu	a4,-21(s0)
    2acc:	00a00793          	li	a5,10
    2ad0:	00f70e63          	beq	a4,a5,2aec <c_scanf+0x3d4>
    2ad4:	fdb44783          	lbu	a5,-37(s0)
    2ad8:	0017c793          	xor	a5,a5,1
    2adc:	0ff7f793          	zext.b	a5,a5
    2ae0:	fa0796e3          	bnez	a5,2a8c <c_scanf+0x374>
    2ae4:	fdc42783          	lw	a5,-36(s0)
    2ae8:	fa0792e3          	bnez	a5,2a8c <c_scanf+0x374>
    2aec:	fe344783          	lbu	a5,-29(s0)
    2af0:	00078663          	beqz	a5,2afc <c_scanf+0x3e4>
    2af4:	fc842783          	lw	a5,-56(s0)
    2af8:	00078023          	sb	zero,0(a5)
    2afc:	fec42783          	lw	a5,-20(s0)
    2b00:	00178793          	add	a5,a5,1
    2b04:	fef42623          	sw	a5,-20(s0)
    2b08:	0080006f          	j	2b10 <c_scanf+0x3f8>
    2b0c:	00000013          	nop
    2b10:	fe442783          	lw	a5,-28(s0)
    2b14:	fac42703          	lw	a4,-84(s0)
    2b18:	00f707b3          	add	a5,a4,a5
    2b1c:	0007c703          	lbu	a4,0(a5)
    2b20:	06300793          	li	a5,99
    2b24:	04f70063          	beq	a4,a5,2b64 <c_scanf+0x44c>
    2b28:	fe442783          	lw	a5,-28(s0)
    2b2c:	fac42703          	lw	a4,-84(s0)
    2b30:	00f707b3          	add	a5,a4,a5
    2b34:	0007c703          	lbu	a4,0(a5)
    2b38:	07500793          	li	a5,117
    2b3c:	02f70463          	beq	a4,a5,2b64 <c_scanf+0x44c>
    2b40:	fe442783          	lw	a5,-28(s0)
    2b44:	fac42703          	lw	a4,-84(s0)
    2b48:	00f707b3          	add	a5,a4,a5
    2b4c:	0007c703          	lbu	a4,0(a5)
    2b50:	06400793          	li	a5,100
    2b54:	00f70863          	beq	a4,a5,2b64 <c_scanf+0x44c>
    2b58:	feb44783          	lbu	a5,-21(s0)
    2b5c:	00078513          	mv	a0,a5
    2b60:	09c000ef          	jal	2bfc <c_getbackch>
    2b64:	fe442783          	lw	a5,-28(s0)
    2b68:	00178793          	add	a5,a5,1
    2b6c:	fef42223          	sw	a5,-28(s0)
    2b70:	fac42783          	lw	a5,-84(s0)
    2b74:	00078c63          	beqz	a5,2b8c <c_scanf+0x474>
    2b78:	fe442783          	lw	a5,-28(s0)
    2b7c:	fac42703          	lw	a4,-84(s0)
    2b80:	00f707b3          	add	a5,a4,a5
    2b84:	0007c783          	lbu	a5,0(a5)
    2b88:	be0796e3          	bnez	a5,2774 <c_scanf+0x5c>
    2b8c:	fec42783          	lw	a5,-20(s0)
    2b90:	00078513          	mv	a0,a5
    2b94:	05c12083          	lw	ra,92(sp)
    2b98:	05812403          	lw	s0,88(sp)
    2b9c:	08010113          	add	sp,sp,128
    2ba0:	00008067          	ret

00002ba4 <c_getch>:
    2ba4:	fe010113          	add	sp,sp,-32
    2ba8:	00112e23          	sw	ra,28(sp)
    2bac:	00812c23          	sw	s0,24(sp)
    2bb0:	02010413          	add	s0,sp,32
    2bb4:	000047b7          	lui	a5,0x4
    2bb8:	9c07c783          	lbu	a5,-1600(a5) # 39c0 <backch>
    2bbc:	00079a63          	bnez	a5,2bd0 <c_getch+0x2c>
    2bc0:	08c000ef          	jal	2c4c <_getchar>
    2bc4:	00050793          	mv	a5,a0
    2bc8:	0ff7f793          	zext.b	a5,a5
    2bcc:	01c0006f          	j	2be8 <c_getch+0x44>
    2bd0:	000047b7          	lui	a5,0x4
    2bd4:	9c07c783          	lbu	a5,-1600(a5) # 39c0 <backch>
    2bd8:	fef407a3          	sb	a5,-17(s0)
    2bdc:	000047b7          	lui	a5,0x4
    2be0:	9c078023          	sb	zero,-1600(a5) # 39c0 <backch>
    2be4:	fef44783          	lbu	a5,-17(s0)
    2be8:	00078513          	mv	a0,a5
    2bec:	01c12083          	lw	ra,28(sp)
    2bf0:	01812403          	lw	s0,24(sp)
    2bf4:	02010113          	add	sp,sp,32
    2bf8:	00008067          	ret

00002bfc <c_getbackch>:
    2bfc:	fd010113          	add	sp,sp,-48
    2c00:	02812623          	sw	s0,44(sp)
    2c04:	03010413          	add	s0,sp,48
    2c08:	00050793          	mv	a5,a0
    2c0c:	fcf40fa3          	sb	a5,-33(s0)
    2c10:	000047b7          	lui	a5,0x4
    2c14:	9c07c783          	lbu	a5,-1600(a5) # 39c0 <backch>
    2c18:	fef407a3          	sb	a5,-17(s0)
    2c1c:	000047b7          	lui	a5,0x4
    2c20:	fdf44703          	lbu	a4,-33(s0)
    2c24:	9ce78023          	sb	a4,-1600(a5) # 39c0 <backch>
    2c28:	fef44783          	lbu	a5,-17(s0)
    2c2c:	00078663          	beqz	a5,2c38 <c_getbackch+0x3c>
    2c30:	00100793          	li	a5,1
    2c34:	0080006f          	j	2c3c <c_getbackch+0x40>
    2c38:	00000793          	li	a5,0
    2c3c:	00078513          	mv	a0,a5
    2c40:	02c12403          	lw	s0,44(sp)
    2c44:	03010113          	add	sp,sp,48
    2c48:	00008067          	ret

00002c4c <_getchar>:
    2c4c:	ff010113          	add	sp,sp,-16
    2c50:	00112623          	sw	ra,12(sp)
    2c54:	00812423          	sw	s0,8(sp)
    2c58:	01010413          	add	s0,sp,16
    2c5c:	000047b7          	lui	a5,0x4
    2c60:	9c47a783          	lw	a5,-1596(a5) # 39c4 <global_uart>
    2c64:	00078513          	mv	a0,a5
    2c68:	15c000ef          	jal	2dc4 <uart_get_char>
    2c6c:	00050793          	mv	a5,a0
    2c70:	00078513          	mv	a0,a5
    2c74:	00c12083          	lw	ra,12(sp)
    2c78:	00812403          	lw	s0,8(sp)
    2c7c:	01010113          	add	sp,sp,16
    2c80:	00008067          	ret

00002c84 <tinyIO_init>:
    2c84:	fe010113          	add	sp,sp,-32
    2c88:	00112e23          	sw	ra,28(sp)
    2c8c:	00812c23          	sw	s0,24(sp)
    2c90:	02010413          	add	s0,sp,32
    2c94:	fea42623          	sw	a0,-20(s0)
    2c98:	000047b7          	lui	a5,0x4
    2c9c:	9c47a783          	lw	a5,-1596(a5) # 39c4 <global_uart>
    2ca0:	00079c63          	bnez	a5,2cb8 <tinyIO_init+0x34>
    2ca4:	00200537          	lui	a0,0x200
    2ca8:	024000ef          	jal	2ccc <uart_init>
    2cac:	00050713          	mv	a4,a0
    2cb0:	000047b7          	lui	a5,0x4
    2cb4:	9ce7a223          	sw	a4,-1596(a5) # 39c4 <global_uart>
    2cb8:	00000013          	nop
    2cbc:	01c12083          	lw	ra,28(sp)
    2cc0:	01812403          	lw	s0,24(sp)
    2cc4:	02010113          	add	sp,sp,32
    2cc8:	00008067          	ret

00002ccc <uart_init>:
    2ccc:	fd010113          	add	sp,sp,-48
    2cd0:	02812623          	sw	s0,44(sp)
    2cd4:	03010413          	add	s0,sp,48
    2cd8:	fca42e23          	sw	a0,-36(s0)
    2cdc:	fdc42783          	lw	a5,-36(s0)
    2ce0:	fef42623          	sw	a5,-20(s0)
    2ce4:	fec42783          	lw	a5,-20(s0)
    2ce8:	00300713          	li	a4,3
    2cec:	00e7a623          	sw	a4,12(a5)
    2cf0:	fec42783          	lw	a5,-20(s0)
    2cf4:	00078513          	mv	a0,a5
    2cf8:	02c12403          	lw	s0,44(sp)
    2cfc:	03010113          	add	sp,sp,48
    2d00:	00008067          	ret

00002d04 <uart_is_rx_empty>:
    2d04:	fe010113          	add	sp,sp,-32
    2d08:	00812e23          	sw	s0,28(sp)
    2d0c:	02010413          	add	s0,sp,32
    2d10:	fea42623          	sw	a0,-20(s0)
    2d14:	fec42783          	lw	a5,-20(s0)
    2d18:	0087a783          	lw	a5,8(a5)
    2d1c:	0017f793          	and	a5,a5,1
    2d20:	0017b793          	seqz	a5,a5
    2d24:	0ff7f793          	zext.b	a5,a5
    2d28:	00078513          	mv	a0,a5
    2d2c:	01c12403          	lw	s0,28(sp)
    2d30:	02010113          	add	sp,sp,32
    2d34:	00008067          	ret

00002d38 <uart_is_tx_empty>:
    2d38:	fe010113          	add	sp,sp,-32
    2d3c:	00812e23          	sw	s0,28(sp)
    2d40:	02010413          	add	s0,sp,32
    2d44:	fea42623          	sw	a0,-20(s0)
    2d48:	fec42783          	lw	a5,-20(s0)
    2d4c:	0087a783          	lw	a5,8(a5)
    2d50:	0047f793          	and	a5,a5,4
    2d54:	00f037b3          	snez	a5,a5
    2d58:	0ff7f793          	zext.b	a5,a5
    2d5c:	00078513          	mv	a0,a5
    2d60:	01c12403          	lw	s0,28(sp)
    2d64:	02010113          	add	sp,sp,32
    2d68:	00008067          	ret

00002d6c <uart_send_char>:
    2d6c:	fd010113          	add	sp,sp,-48
    2d70:	02812623          	sw	s0,44(sp)
    2d74:	03010413          	add	s0,sp,48
    2d78:	fca42e23          	sw	a0,-36(s0)
    2d7c:	00058793          	mv	a5,a1
    2d80:	fcf40da3          	sb	a5,-37(s0)
    2d84:	00000013          	nop
    2d88:	fdc42783          	lw	a5,-36(s0)
    2d8c:	fef42623          	sw	a5,-20(s0)
    2d90:	fec42783          	lw	a5,-20(s0)
    2d94:	0087a783          	lw	a5,8(a5)
    2d98:	0047f793          	and	a5,a5,4
    2d9c:	00f037b3          	snez	a5,a5
    2da0:	0ff7f793          	zext.b	a5,a5
    2da4:	fe0782e3          	beqz	a5,2d88 <uart_send_char+0x1c>
    2da8:	fdb44703          	lbu	a4,-37(s0)
    2dac:	fdc42783          	lw	a5,-36(s0)
    2db0:	00e7a223          	sw	a4,4(a5)
    2db4:	00000013          	nop
    2db8:	02c12403          	lw	s0,44(sp)
    2dbc:	03010113          	add	sp,sp,48
    2dc0:	00008067          	ret

00002dc4 <uart_get_char>:
    2dc4:	fd010113          	add	sp,sp,-48
    2dc8:	02812623          	sw	s0,44(sp)
    2dcc:	03010413          	add	s0,sp,48
    2dd0:	fca42e23          	sw	a0,-36(s0)
    2dd4:	00000013          	nop
    2dd8:	fdc42783          	lw	a5,-36(s0)
    2ddc:	fef42623          	sw	a5,-20(s0)
    2de0:	fec42783          	lw	a5,-20(s0)
    2de4:	0087a783          	lw	a5,8(a5)
    2de8:	0017f793          	and	a5,a5,1
    2dec:	0017b793          	seqz	a5,a5
    2df0:	0ff7f793          	zext.b	a5,a5
    2df4:	fe0792e3          	bnez	a5,2dd8 <uart_get_char+0x14>
    2df8:	fdc42783          	lw	a5,-36(s0)
    2dfc:	0007a783          	lw	a5,0(a5)
    2e00:	00078513          	mv	a0,a5
    2e04:	02c12403          	lw	s0,44(sp)
    2e08:	03010113          	add	sp,sp,48
    2e0c:	00008067          	ret

00002e10 <test_loop>:
    2e10:	33400237          	lui	tp,0x33400
    2e14:	06f20213          	add	tp,tp,111 # 3340006f <_stack_start+0x333fc06f>

00002e18 <fin>:
    2e18:	fff00193          	li	gp,-1
    2e1c:	00302023          	sw	gp,0(zero) # 0 <main-0xa0>
    2e20:	00002103          	lw	sp,0(zero) # 0 <main-0xa0>
    2e24:	00219663          	bne	gp,sp,2e30 <wrong_loop>

00002e28 <ok_loop>:
    2e28:	0000006f          	j	2e28 <ok_loop>

00002e2c <sleep_loop>:
    2e2c:	0000006f          	j	2e2c <sleep_loop>

00002e30 <wrong_loop>:
    2e30:	0000006f          	j	2e30 <wrong_loop>

00002e34 <reset_handler>:
    2e34:	00000093          	li	ra,0
    2e38:	00008113          	mv	sp,ra
    2e3c:	00008193          	mv	gp,ra
    2e40:	00008213          	mv	tp,ra
    2e44:	00008293          	mv	t0,ra
    2e48:	00008313          	mv	t1,ra
    2e4c:	00008393          	mv	t2,ra
    2e50:	00008413          	mv	s0,ra
    2e54:	00008493          	mv	s1,ra
    2e58:	00008513          	mv	a0,ra
    2e5c:	00008593          	mv	a1,ra
    2e60:	00008613          	mv	a2,ra
    2e64:	00008693          	mv	a3,ra
    2e68:	00008713          	mv	a4,ra
    2e6c:	00008793          	mv	a5,ra
    2e70:	00008813          	mv	a6,ra
    2e74:	00008893          	mv	a7,ra
    2e78:	00008913          	mv	s2,ra
    2e7c:	00008993          	mv	s3,ra
    2e80:	00008a13          	mv	s4,ra
    2e84:	00008a93          	mv	s5,ra
    2e88:	00008b13          	mv	s6,ra
    2e8c:	00008b93          	mv	s7,ra
    2e90:	00008c13          	mv	s8,ra
    2e94:	00008c93          	mv	s9,ra
    2e98:	00008d13          	mv	s10,ra
    2e9c:	00008d93          	mv	s11,ra
    2ea0:	00008e13          	mv	t3,ra
    2ea4:	00008e93          	mv	t4,ra
    2ea8:	00008f13          	mv	t5,ra
    2eac:	00008f93          	mv	t6,ra
    2eb0:	00001117          	auipc	sp,0x1
    2eb4:	15010113          	add	sp,sp,336 # 4000 <_stack_start>

00002eb8 <_start>:
    2eb8:	00001d17          	auipc	s10,0x1
    2ebc:	b08d0d13          	add	s10,s10,-1272 # 39c0 <backch>
    2ec0:	00001d97          	auipc	s11,0x1
    2ec4:	b00d8d93          	add	s11,s11,-1280 # 39c0 <backch>
    2ec8:	01bd5863          	bge	s10,s11,2ed8 <zero_loop_end>

00002ecc <zero_loop>:
    2ecc:	000d2023          	sw	zero,0(s10)
    2ed0:	004d0d13          	add	s10,s10,4
    2ed4:	ffaddce3          	bge	s11,s10,2ecc <zero_loop>

00002ed8 <zero_loop_end>:
    2ed8:	00000513          	li	a0,0
    2edc:	00000593          	li	a1,0
    2ee0:	9c0fd0ef          	jal	a0 <main>

00002ee4 <default_exc_handler>:
    2ee4:	0000006f          	j	2ee4 <default_exc_handler>

00002ee8 <__udivdi3>:
    2ee8:	88aa                	mv	a7,a0
    2eea:	832e                	mv	t1,a1
    2eec:	8732                	mv	a4,a2
    2eee:	882a                	mv	a6,a0
    2ef0:	87ae                	mv	a5,a1
    2ef2:	20069563          	bnez	a3,30fc <__udivdi3+0x214>
    2ef6:	6591                	lui	a1,0x4
    2ef8:	87c58593          	add	a1,a1,-1924 # 387c <__clz_tab>
    2efc:	0cc37163          	bgeu	t1,a2,2fbe <__udivdi3+0xd6>
    2f00:	66c1                	lui	a3,0x10
    2f02:	0ad67763          	bgeu	a2,a3,2fb0 <__udivdi3+0xc8>
    2f06:	10063693          	sltiu	a3,a2,256
    2f0a:	0016c693          	xor	a3,a3,1
    2f0e:	068e                	sll	a3,a3,0x3
    2f10:	00d65533          	srl	a0,a2,a3
    2f14:	95aa                	add	a1,a1,a0
    2f16:	0005c583          	lbu	a1,0(a1)
    2f1a:	02000513          	li	a0,32
    2f1e:	96ae                	add	a3,a3,a1
    2f20:	40d505b3          	sub	a1,a0,a3
    2f24:	00d50b63          	beq	a0,a3,2f3a <__udivdi3+0x52>
    2f28:	00b317b3          	sll	a5,t1,a1
    2f2c:	00d8d6b3          	srl	a3,a7,a3
    2f30:	00b61733          	sll	a4,a2,a1
    2f34:	8fd5                	or	a5,a5,a3
    2f36:	00b89833          	sll	a6,a7,a1
    2f3a:	01075593          	srl	a1,a4,0x10
    2f3e:	02b7d333          	divu	t1,a5,a1
    2f42:	01071613          	sll	a2,a4,0x10
    2f46:	8241                	srl	a2,a2,0x10
    2f48:	02b7f7b3          	remu	a5,a5,a1
    2f4c:	851a                	mv	a0,t1
    2f4e:	026608b3          	mul	a7,a2,t1
    2f52:	01079693          	sll	a3,a5,0x10
    2f56:	01085793          	srl	a5,a6,0x10
    2f5a:	8fd5                	or	a5,a5,a3
    2f5c:	0117fc63          	bgeu	a5,a7,2f74 <__udivdi3+0x8c>
    2f60:	97ba                	add	a5,a5,a4
    2f62:	fff30513          	add	a0,t1,-1
    2f66:	00e7e763          	bltu	a5,a4,2f74 <__udivdi3+0x8c>
    2f6a:	0117f563          	bgeu	a5,a7,2f74 <__udivdi3+0x8c>
    2f6e:	ffe30513          	add	a0,t1,-2
    2f72:	97ba                	add	a5,a5,a4
    2f74:	411787b3          	sub	a5,a5,a7
    2f78:	02b7d8b3          	divu	a7,a5,a1
    2f7c:	0842                	sll	a6,a6,0x10
    2f7e:	01085813          	srl	a6,a6,0x10
    2f82:	02b7f7b3          	remu	a5,a5,a1
    2f86:	031606b3          	mul	a3,a2,a7
    2f8a:	07c2                	sll	a5,a5,0x10
    2f8c:	00f86833          	or	a6,a6,a5
    2f90:	87c6                	mv	a5,a7
    2f92:	00d87b63          	bgeu	a6,a3,2fa8 <__udivdi3+0xc0>
    2f96:	983a                	add	a6,a6,a4
    2f98:	fff88793          	add	a5,a7,-1
    2f9c:	00e86663          	bltu	a6,a4,2fa8 <__udivdi3+0xc0>
    2fa0:	00d87463          	bgeu	a6,a3,2fa8 <__udivdi3+0xc0>
    2fa4:	ffe88793          	add	a5,a7,-2
    2fa8:	0542                	sll	a0,a0,0x10
    2faa:	8d5d                	or	a0,a0,a5
    2fac:	4581                	li	a1,0
    2fae:	8082                	ret
    2fb0:	01000537          	lui	a0,0x1000
    2fb4:	46c1                	li	a3,16
    2fb6:	f4a66de3          	bltu	a2,a0,2f10 <__udivdi3+0x28>
    2fba:	46e1                	li	a3,24
    2fbc:	bf91                	j	2f10 <__udivdi3+0x28>
    2fbe:	4681                	li	a3,0
    2fc0:	ca09                	beqz	a2,2fd2 <__udivdi3+0xea>
    2fc2:	67c1                	lui	a5,0x10
    2fc4:	08f67f63          	bgeu	a2,a5,3062 <__udivdi3+0x17a>
    2fc8:	10063693          	sltiu	a3,a2,256
    2fcc:	0016c693          	xor	a3,a3,1
    2fd0:	068e                	sll	a3,a3,0x3
    2fd2:	00d657b3          	srl	a5,a2,a3
    2fd6:	95be                	add	a1,a1,a5
    2fd8:	0005c783          	lbu	a5,0(a1)
    2fdc:	97b6                	add	a5,a5,a3
    2fde:	02000693          	li	a3,32
    2fe2:	40f685b3          	sub	a1,a3,a5
    2fe6:	08f69563          	bne	a3,a5,3070 <__udivdi3+0x188>
    2fea:	40c307b3          	sub	a5,t1,a2
    2fee:	4585                	li	a1,1
    2ff0:	01075893          	srl	a7,a4,0x10
    2ff4:	0317de33          	divu	t3,a5,a7
    2ff8:	01071613          	sll	a2,a4,0x10
    2ffc:	8241                	srl	a2,a2,0x10
    2ffe:	01085693          	srl	a3,a6,0x10
    3002:	0317f7b3          	remu	a5,a5,a7
    3006:	8572                	mv	a0,t3
    3008:	03c60333          	mul	t1,a2,t3
    300c:	07c2                	sll	a5,a5,0x10
    300e:	8fd5                	or	a5,a5,a3
    3010:	0067fc63          	bgeu	a5,t1,3028 <__udivdi3+0x140>
    3014:	97ba                	add	a5,a5,a4
    3016:	fffe0513          	add	a0,t3,-1
    301a:	00e7e763          	bltu	a5,a4,3028 <__udivdi3+0x140>
    301e:	0067f563          	bgeu	a5,t1,3028 <__udivdi3+0x140>
    3022:	ffee0513          	add	a0,t3,-2
    3026:	97ba                	add	a5,a5,a4
    3028:	406787b3          	sub	a5,a5,t1
    302c:	0317d333          	divu	t1,a5,a7
    3030:	0842                	sll	a6,a6,0x10
    3032:	01085813          	srl	a6,a6,0x10
    3036:	0317f7b3          	remu	a5,a5,a7
    303a:	026606b3          	mul	a3,a2,t1
    303e:	07c2                	sll	a5,a5,0x10
    3040:	00f86833          	or	a6,a6,a5
    3044:	879a                	mv	a5,t1
    3046:	00d87b63          	bgeu	a6,a3,305c <__udivdi3+0x174>
    304a:	983a                	add	a6,a6,a4
    304c:	fff30793          	add	a5,t1,-1
    3050:	00e86663          	bltu	a6,a4,305c <__udivdi3+0x174>
    3054:	00d87463          	bgeu	a6,a3,305c <__udivdi3+0x174>
    3058:	ffe30793          	add	a5,t1,-2
    305c:	0542                	sll	a0,a0,0x10
    305e:	8d5d                	or	a0,a0,a5
    3060:	8082                	ret
    3062:	010007b7          	lui	a5,0x1000
    3066:	46c1                	li	a3,16
    3068:	f6f665e3          	bltu	a2,a5,2fd2 <__udivdi3+0xea>
    306c:	46e1                	li	a3,24
    306e:	b795                	j	2fd2 <__udivdi3+0xea>
    3070:	00b61733          	sll	a4,a2,a1
    3074:	00f356b3          	srl	a3,t1,a5
    3078:	01075513          	srl	a0,a4,0x10
    307c:	00b31333          	sll	t1,t1,a1
    3080:	00f8d7b3          	srl	a5,a7,a5
    3084:	0067e7b3          	or	a5,a5,t1
    3088:	02a6d333          	divu	t1,a3,a0
    308c:	01071613          	sll	a2,a4,0x10
    3090:	8241                	srl	a2,a2,0x10
    3092:	00b89833          	sll	a6,a7,a1
    3096:	02a6f6b3          	remu	a3,a3,a0
    309a:	026608b3          	mul	a7,a2,t1
    309e:	01069593          	sll	a1,a3,0x10
    30a2:	0107d693          	srl	a3,a5,0x10
    30a6:	8ecd                	or	a3,a3,a1
    30a8:	859a                	mv	a1,t1
    30aa:	0116fc63          	bgeu	a3,a7,30c2 <__udivdi3+0x1da>
    30ae:	96ba                	add	a3,a3,a4
    30b0:	fff30593          	add	a1,t1,-1
    30b4:	00e6e763          	bltu	a3,a4,30c2 <__udivdi3+0x1da>
    30b8:	0116f563          	bgeu	a3,a7,30c2 <__udivdi3+0x1da>
    30bc:	ffe30593          	add	a1,t1,-2
    30c0:	96ba                	add	a3,a3,a4
    30c2:	411686b3          	sub	a3,a3,a7
    30c6:	02a6d8b3          	divu	a7,a3,a0
    30ca:	07c2                	sll	a5,a5,0x10
    30cc:	83c1                	srl	a5,a5,0x10
    30ce:	02a6f6b3          	remu	a3,a3,a0
    30d2:	03160633          	mul	a2,a2,a7
    30d6:	06c2                	sll	a3,a3,0x10
    30d8:	8fd5                	or	a5,a5,a3
    30da:	86c6                	mv	a3,a7
    30dc:	00c7fc63          	bgeu	a5,a2,30f4 <__udivdi3+0x20c>
    30e0:	97ba                	add	a5,a5,a4
    30e2:	fff88693          	add	a3,a7,-1
    30e6:	00e7e763          	bltu	a5,a4,30f4 <__udivdi3+0x20c>
    30ea:	00c7f563          	bgeu	a5,a2,30f4 <__udivdi3+0x20c>
    30ee:	ffe88693          	add	a3,a7,-2
    30f2:	97ba                	add	a5,a5,a4
    30f4:	05c2                	sll	a1,a1,0x10
    30f6:	8f91                	sub	a5,a5,a2
    30f8:	8dd5                	or	a1,a1,a3
    30fa:	bddd                	j	2ff0 <__udivdi3+0x108>
    30fc:	14d5e063          	bltu	a1,a3,323c <__udivdi3+0x354>
    3100:	67c1                	lui	a5,0x10
    3102:	02f6fe63          	bgeu	a3,a5,313e <__udivdi3+0x256>
    3106:	1006b713          	sltiu	a4,a3,256
    310a:	00174713          	xor	a4,a4,1
    310e:	070e                	sll	a4,a4,0x3
    3110:	6791                	lui	a5,0x4
    3112:	00e6d5b3          	srl	a1,a3,a4
    3116:	87c78793          	add	a5,a5,-1924 # 387c <__clz_tab>
    311a:	97ae                	add	a5,a5,a1
    311c:	0007c783          	lbu	a5,0(a5)
    3120:	97ba                	add	a5,a5,a4
    3122:	02000713          	li	a4,32
    3126:	40f705b3          	sub	a1,a4,a5
    312a:	02f71163          	bne	a4,a5,314c <__udivdi3+0x264>
    312e:	4505                	li	a0,1
    3130:	e666efe3          	bltu	a3,t1,2fae <__udivdi3+0xc6>
    3134:	00c8b533          	sltu	a0,a7,a2
    3138:	00154513          	xor	a0,a0,1
    313c:	8082                	ret
    313e:	010007b7          	lui	a5,0x1000
    3142:	4741                	li	a4,16
    3144:	fcf6e6e3          	bltu	a3,a5,3110 <__udivdi3+0x228>
    3148:	4761                	li	a4,24
    314a:	b7d9                	j	3110 <__udivdi3+0x228>
    314c:	00f65733          	srl	a4,a2,a5
    3150:	00b696b3          	sll	a3,a3,a1
    3154:	8ed9                	or	a3,a3,a4
    3156:	00f35733          	srl	a4,t1,a5
    315a:	00b31333          	sll	t1,t1,a1
    315e:	00f8d7b3          	srl	a5,a7,a5
    3162:	0067e7b3          	or	a5,a5,t1
    3166:	0106d313          	srl	t1,a3,0x10
    316a:	02675eb3          	divu	t4,a4,t1
    316e:	01069813          	sll	a6,a3,0x10
    3172:	01085813          	srl	a6,a6,0x10
    3176:	00b61633          	sll	a2,a2,a1
    317a:	02677733          	remu	a4,a4,t1
    317e:	03d80e33          	mul	t3,a6,t4
    3182:	01071513          	sll	a0,a4,0x10
    3186:	0107d713          	srl	a4,a5,0x10
    318a:	8f49                	or	a4,a4,a0
    318c:	8576                	mv	a0,t4
    318e:	01c77c63          	bgeu	a4,t3,31a6 <__udivdi3+0x2be>
    3192:	9736                	add	a4,a4,a3
    3194:	fffe8513          	add	a0,t4,-1
    3198:	00d76763          	bltu	a4,a3,31a6 <__udivdi3+0x2be>
    319c:	01c77563          	bgeu	a4,t3,31a6 <__udivdi3+0x2be>
    31a0:	ffee8513          	add	a0,t4,-2
    31a4:	9736                	add	a4,a4,a3
    31a6:	41c70733          	sub	a4,a4,t3
    31aa:	02675e33          	divu	t3,a4,t1
    31ae:	07c2                	sll	a5,a5,0x10
    31b0:	83c1                	srl	a5,a5,0x10
    31b2:	02677733          	remu	a4,a4,t1
    31b6:	03c80833          	mul	a6,a6,t3
    31ba:	0742                	sll	a4,a4,0x10
    31bc:	8fd9                	or	a5,a5,a4
    31be:	8772                	mv	a4,t3
    31c0:	0107fc63          	bgeu	a5,a6,31d8 <__udivdi3+0x2f0>
    31c4:	97b6                	add	a5,a5,a3
    31c6:	fffe0713          	add	a4,t3,-1
    31ca:	00d7e763          	bltu	a5,a3,31d8 <__udivdi3+0x2f0>
    31ce:	0107f563          	bgeu	a5,a6,31d8 <__udivdi3+0x2f0>
    31d2:	ffee0713          	add	a4,t3,-2
    31d6:	97b6                	add	a5,a5,a3
    31d8:	0542                	sll	a0,a0,0x10
    31da:	6e41                	lui	t3,0x10
    31dc:	8d59                	or	a0,a0,a4
    31de:	fffe0693          	add	a3,t3,-1 # ffff <_stack_start+0xbfff>
    31e2:	00d57733          	and	a4,a0,a3
    31e6:	410787b3          	sub	a5,a5,a6
    31ea:	8ef1                	and	a3,a3,a2
    31ec:	01055813          	srl	a6,a0,0x10
    31f0:	8241                	srl	a2,a2,0x10
    31f2:	02d70333          	mul	t1,a4,a3
    31f6:	02d806b3          	mul	a3,a6,a3
    31fa:	02c70733          	mul	a4,a4,a2
    31fe:	02c80833          	mul	a6,a6,a2
    3202:	00d70633          	add	a2,a4,a3
    3206:	01035713          	srl	a4,t1,0x10
    320a:	9732                	add	a4,a4,a2
    320c:	00d77363          	bgeu	a4,a3,3212 <__udivdi3+0x32a>
    3210:	9872                	add	a6,a6,t3
    3212:	01075693          	srl	a3,a4,0x10
    3216:	96c2                	add	a3,a3,a6
    3218:	02d7e063          	bltu	a5,a3,3238 <__udivdi3+0x350>
    321c:	d8d798e3          	bne	a5,a3,2fac <__udivdi3+0xc4>
    3220:	67c1                	lui	a5,0x10
    3222:	17fd                	add	a5,a5,-1 # ffff <_stack_start+0xbfff>
    3224:	8f7d                	and	a4,a4,a5
    3226:	0742                	sll	a4,a4,0x10
    3228:	00f37333          	and	t1,t1,a5
    322c:	00b898b3          	sll	a7,a7,a1
    3230:	971a                	add	a4,a4,t1
    3232:	4581                	li	a1,0
    3234:	d6e8fde3          	bgeu	a7,a4,2fae <__udivdi3+0xc6>
    3238:	157d                	add	a0,a0,-1 # ffffff <_stack_start+0xffbfff>
    323a:	bb8d                	j	2fac <__udivdi3+0xc4>
    323c:	4581                	li	a1,0
    323e:	4501                	li	a0,0
    3240:	8082                	ret

00003242 <__umoddi3>:
    3242:	8832                	mv	a6,a2
    3244:	87aa                	mv	a5,a0
    3246:	872e                	mv	a4,a1
    3248:	1a069263          	bnez	a3,33ec <__umoddi3+0x1aa>
    324c:	6891                	lui	a7,0x4
    324e:	87c88893          	add	a7,a7,-1924 # 387c <__clz_tab>
    3252:	0ac5f663          	bgeu	a1,a2,32fe <__umoddi3+0xbc>
    3256:	66c1                	lui	a3,0x10
    3258:	08d67c63          	bgeu	a2,a3,32f0 <__umoddi3+0xae>
    325c:	10063693          	sltiu	a3,a2,256
    3260:	0016c693          	xor	a3,a3,1
    3264:	068e                	sll	a3,a3,0x3
    3266:	00d65333          	srl	t1,a2,a3
    326a:	989a                	add	a7,a7,t1
    326c:	0008c883          	lbu	a7,0(a7)
    3270:	02000313          	li	t1,32
    3274:	96c6                	add	a3,a3,a7
    3276:	40d308b3          	sub	a7,t1,a3
    327a:	00d30b63          	beq	t1,a3,3290 <__umoddi3+0x4e>
    327e:	01159733          	sll	a4,a1,a7
    3282:	00d556b3          	srl	a3,a0,a3
    3286:	01161833          	sll	a6,a2,a7
    328a:	8f55                	or	a4,a4,a3
    328c:	011517b3          	sll	a5,a0,a7
    3290:	01085613          	srl	a2,a6,0x10
    3294:	02c756b3          	divu	a3,a4,a2
    3298:	01081513          	sll	a0,a6,0x10
    329c:	8141                	srl	a0,a0,0x10
    329e:	02c77733          	remu	a4,a4,a2
    32a2:	02a686b3          	mul	a3,a3,a0
    32a6:	01071593          	sll	a1,a4,0x10
    32aa:	0107d713          	srl	a4,a5,0x10
    32ae:	8f4d                	or	a4,a4,a1
    32b0:	00d77863          	bgeu	a4,a3,32c0 <__umoddi3+0x7e>
    32b4:	9742                	add	a4,a4,a6
    32b6:	01076563          	bltu	a4,a6,32c0 <__umoddi3+0x7e>
    32ba:	00d77363          	bgeu	a4,a3,32c0 <__umoddi3+0x7e>
    32be:	9742                	add	a4,a4,a6
    32c0:	8f15                	sub	a4,a4,a3
    32c2:	02c756b3          	divu	a3,a4,a2
    32c6:	02c77733          	remu	a4,a4,a2
    32ca:	02a686b3          	mul	a3,a3,a0
    32ce:	07c2                	sll	a5,a5,0x10
    32d0:	0742                	sll	a4,a4,0x10
    32d2:	83c1                	srl	a5,a5,0x10
    32d4:	8fd9                	or	a5,a5,a4
    32d6:	00d7f863          	bgeu	a5,a3,32e6 <__umoddi3+0xa4>
    32da:	97c2                	add	a5,a5,a6
    32dc:	0107e563          	bltu	a5,a6,32e6 <__umoddi3+0xa4>
    32e0:	00d7f363          	bgeu	a5,a3,32e6 <__umoddi3+0xa4>
    32e4:	97c2                	add	a5,a5,a6
    32e6:	8f95                	sub	a5,a5,a3
    32e8:	0117d533          	srl	a0,a5,a7
    32ec:	4581                	li	a1,0
    32ee:	8082                	ret
    32f0:	01000337          	lui	t1,0x1000
    32f4:	46c1                	li	a3,16
    32f6:	f66668e3          	bltu	a2,t1,3266 <__umoddi3+0x24>
    32fa:	46e1                	li	a3,24
    32fc:	b7ad                	j	3266 <__umoddi3+0x24>
    32fe:	4681                	li	a3,0
    3300:	ca09                	beqz	a2,3312 <__umoddi3+0xd0>
    3302:	6741                	lui	a4,0x10
    3304:	06e67463          	bgeu	a2,a4,336c <__umoddi3+0x12a>
    3308:	10063693          	sltiu	a3,a2,256
    330c:	0016c693          	xor	a3,a3,1
    3310:	068e                	sll	a3,a3,0x3
    3312:	00d65733          	srl	a4,a2,a3
    3316:	98ba                	add	a7,a7,a4
    3318:	0008c703          	lbu	a4,0(a7)
    331c:	9736                	add	a4,a4,a3
    331e:	02000693          	li	a3,32
    3322:	40e688b3          	sub	a7,a3,a4
    3326:	04e69a63          	bne	a3,a4,337a <__umoddi3+0x138>
    332a:	40c58733          	sub	a4,a1,a2
    332e:	01085593          	srl	a1,a6,0x10
    3332:	02b75633          	divu	a2,a4,a1
    3336:	01081513          	sll	a0,a6,0x10
    333a:	8141                	srl	a0,a0,0x10
    333c:	0107d693          	srl	a3,a5,0x10
    3340:	02b77733          	remu	a4,a4,a1
    3344:	02a60633          	mul	a2,a2,a0
    3348:	0742                	sll	a4,a4,0x10
    334a:	8f55                	or	a4,a4,a3
    334c:	00c77863          	bgeu	a4,a2,335c <__umoddi3+0x11a>
    3350:	9742                	add	a4,a4,a6
    3352:	01076563          	bltu	a4,a6,335c <__umoddi3+0x11a>
    3356:	00c77363          	bgeu	a4,a2,335c <__umoddi3+0x11a>
    335a:	9742                	add	a4,a4,a6
    335c:	8f11                	sub	a4,a4,a2
    335e:	02b756b3          	divu	a3,a4,a1
    3362:	02b77733          	remu	a4,a4,a1
    3366:	02a686b3          	mul	a3,a3,a0
    336a:	b795                	j	32ce <__umoddi3+0x8c>
    336c:	01000737          	lui	a4,0x1000
    3370:	46c1                	li	a3,16
    3372:	fae660e3          	bltu	a2,a4,3312 <__umoddi3+0xd0>
    3376:	46e1                	li	a3,24
    3378:	bf69                	j	3312 <__umoddi3+0xd0>
    337a:	01161833          	sll	a6,a2,a7
    337e:	00e5d6b3          	srl	a3,a1,a4
    3382:	011517b3          	sll	a5,a0,a7
    3386:	011595b3          	sll	a1,a1,a7
    338a:	00e55733          	srl	a4,a0,a4
    338e:	01085513          	srl	a0,a6,0x10
    3392:	8f4d                	or	a4,a4,a1
    3394:	02a6d5b3          	divu	a1,a3,a0
    3398:	01081313          	sll	t1,a6,0x10
    339c:	01035313          	srl	t1,t1,0x10
    33a0:	02a6f6b3          	remu	a3,a3,a0
    33a4:	026585b3          	mul	a1,a1,t1
    33a8:	01069613          	sll	a2,a3,0x10
    33ac:	01075693          	srl	a3,a4,0x10
    33b0:	8ed1                	or	a3,a3,a2
    33b2:	00b6f863          	bgeu	a3,a1,33c2 <__umoddi3+0x180>
    33b6:	96c2                	add	a3,a3,a6
    33b8:	0106e563          	bltu	a3,a6,33c2 <__umoddi3+0x180>
    33bc:	00b6f363          	bgeu	a3,a1,33c2 <__umoddi3+0x180>
    33c0:	96c2                	add	a3,a3,a6
    33c2:	8e8d                	sub	a3,a3,a1
    33c4:	02a6d633          	divu	a2,a3,a0
    33c8:	0742                	sll	a4,a4,0x10
    33ca:	8341                	srl	a4,a4,0x10
    33cc:	02a6f6b3          	remu	a3,a3,a0
    33d0:	02660633          	mul	a2,a2,t1
    33d4:	06c2                	sll	a3,a3,0x10
    33d6:	8f55                	or	a4,a4,a3
    33d8:	00c77863          	bgeu	a4,a2,33e8 <__umoddi3+0x1a6>
    33dc:	9742                	add	a4,a4,a6
    33de:	01076563          	bltu	a4,a6,33e8 <__umoddi3+0x1a6>
    33e2:	00c77363          	bgeu	a4,a2,33e8 <__umoddi3+0x1a6>
    33e6:	9742                	add	a4,a4,a6
    33e8:	8f11                	sub	a4,a4,a2
    33ea:	b791                	j	332e <__umoddi3+0xec>
    33ec:	16d5ec63          	bltu	a1,a3,3564 <__umoddi3+0x322>
    33f0:	6841                	lui	a6,0x10
    33f2:	0506f663          	bgeu	a3,a6,343e <__umoddi3+0x1fc>
    33f6:	1006b813          	sltiu	a6,a3,256
    33fa:	00184813          	xor	a6,a6,1
    33fe:	080e                	sll	a6,a6,0x3
    3400:	6891                	lui	a7,0x4
    3402:	0106d333          	srl	t1,a3,a6
    3406:	87c88893          	add	a7,a7,-1924 # 387c <__clz_tab>
    340a:	989a                	add	a7,a7,t1
    340c:	0008c883          	lbu	a7,0(a7)
    3410:	02000313          	li	t1,32
    3414:	98c2                	add	a7,a7,a6
    3416:	41130833          	sub	a6,t1,a7
    341a:	03131963          	bne	t1,a7,344c <__umoddi3+0x20a>
    341e:	00b6e463          	bltu	a3,a1,3426 <__umoddi3+0x1e4>
    3422:	00c56b63          	bltu	a0,a2,3438 <__umoddi3+0x1f6>
    3426:	40c50633          	sub	a2,a0,a2
    342a:	40d586b3          	sub	a3,a1,a3
    342e:	00c53733          	sltu	a4,a0,a2
    3432:	87b2                	mv	a5,a2
    3434:	40e68733          	sub	a4,a3,a4
    3438:	853e                	mv	a0,a5
    343a:	85ba                	mv	a1,a4
    343c:	8082                	ret
    343e:	010008b7          	lui	a7,0x1000
    3442:	4841                	li	a6,16
    3444:	fb16eee3          	bltu	a3,a7,3400 <__umoddi3+0x1be>
    3448:	4861                	li	a6,24
    344a:	bf5d                	j	3400 <__umoddi3+0x1be>
    344c:	011657b3          	srl	a5,a2,a7
    3450:	010696b3          	sll	a3,a3,a6
    3454:	8edd                	or	a3,a3,a5
    3456:	0115d733          	srl	a4,a1,a7
    345a:	0106de13          	srl	t3,a3,0x10
    345e:	03c75f33          	divu	t5,a4,t3
    3462:	01069313          	sll	t1,a3,0x10
    3466:	01035313          	srl	t1,t1,0x10
    346a:	010597b3          	sll	a5,a1,a6
    346e:	011555b3          	srl	a1,a0,a7
    3472:	8ddd                	or	a1,a1,a5
    3474:	0105d793          	srl	a5,a1,0x10
    3478:	01061633          	sll	a2,a2,a6
    347c:	01051533          	sll	a0,a0,a6
    3480:	03c77733          	remu	a4,a4,t3
    3484:	03e30eb3          	mul	t4,t1,t5
    3488:	0742                	sll	a4,a4,0x10
    348a:	8fd9                	or	a5,a5,a4
    348c:	877a                	mv	a4,t5
    348e:	01d7fc63          	bgeu	a5,t4,34a6 <__umoddi3+0x264>
    3492:	97b6                	add	a5,a5,a3
    3494:	ffff0713          	add	a4,t5,-1
    3498:	00d7e763          	bltu	a5,a3,34a6 <__umoddi3+0x264>
    349c:	01d7f563          	bgeu	a5,t4,34a6 <__umoddi3+0x264>
    34a0:	ffef0713          	add	a4,t5,-2
    34a4:	97b6                	add	a5,a5,a3
    34a6:	41d787b3          	sub	a5,a5,t4
    34aa:	03c7deb3          	divu	t4,a5,t3
    34ae:	05c2                	sll	a1,a1,0x10
    34b0:	81c1                	srl	a1,a1,0x10
    34b2:	03c7f7b3          	remu	a5,a5,t3
    34b6:	8e76                	mv	t3,t4
    34b8:	03d30333          	mul	t1,t1,t4
    34bc:	07c2                	sll	a5,a5,0x10
    34be:	8ddd                	or	a1,a1,a5
    34c0:	0065fc63          	bgeu	a1,t1,34d8 <__umoddi3+0x296>
    34c4:	95b6                	add	a1,a1,a3
    34c6:	fffe8e13          	add	t3,t4,-1
    34ca:	00d5e763          	bltu	a1,a3,34d8 <__umoddi3+0x296>
    34ce:	0065f563          	bgeu	a1,t1,34d8 <__umoddi3+0x296>
    34d2:	ffee8e13          	add	t3,t4,-2
    34d6:	95b6                	add	a1,a1,a3
    34d8:	01071793          	sll	a5,a4,0x10
    34dc:	6f41                	lui	t5,0x10
    34de:	01c7e7b3          	or	a5,a5,t3
    34e2:	406585b3          	sub	a1,a1,t1
    34e6:	ffff0313          	add	t1,t5,-1 # ffff <_stack_start+0xbfff>
    34ea:	0067f733          	and	a4,a5,t1
    34ee:	01065e13          	srl	t3,a2,0x10
    34f2:	83c1                	srl	a5,a5,0x10
    34f4:	00667333          	and	t1,a2,t1
    34f8:	02670eb3          	mul	t4,a4,t1
    34fc:	02678333          	mul	t1,a5,t1
    3500:	03c70733          	mul	a4,a4,t3
    3504:	03c787b3          	mul	a5,a5,t3
    3508:	00670e33          	add	t3,a4,t1
    350c:	010ed713          	srl	a4,t4,0x10
    3510:	9772                	add	a4,a4,t3
    3512:	00677363          	bgeu	a4,t1,3518 <__umoddi3+0x2d6>
    3516:	97fa                	add	a5,a5,t5
    3518:	01075313          	srl	t1,a4,0x10
    351c:	979a                	add	a5,a5,t1
    351e:	6341                	lui	t1,0x10
    3520:	137d                	add	t1,t1,-1 # ffff <_stack_start+0xbfff>
    3522:	00677733          	and	a4,a4,t1
    3526:	0742                	sll	a4,a4,0x10
    3528:	006efeb3          	and	t4,t4,t1
    352c:	9776                	add	a4,a4,t4
    352e:	00f5e663          	bltu	a1,a5,353a <__umoddi3+0x2f8>
    3532:	00f59b63          	bne	a1,a5,3548 <__umoddi3+0x306>
    3536:	00e57963          	bgeu	a0,a4,3548 <__umoddi3+0x306>
    353a:	40c70633          	sub	a2,a4,a2
    353e:	00c73333          	sltu	t1,a4,a2
    3542:	969a                	add	a3,a3,t1
    3544:	8732                	mv	a4,a2
    3546:	8f95                	sub	a5,a5,a3
    3548:	40e50733          	sub	a4,a0,a4
    354c:	00e53533          	sltu	a0,a0,a4
    3550:	8d9d                	sub	a1,a1,a5
    3552:	8d89                	sub	a1,a1,a0
    3554:	011598b3          	sll	a7,a1,a7
    3558:	01075733          	srl	a4,a4,a6
    355c:	00e8e533          	or	a0,a7,a4
    3560:	0105d5b3          	srl	a1,a1,a6
    3564:	8082                	ret
    3566:	0000                	unimp
    3568:	6548                	flw	fa0,12(a0)
    356a:	6c6c                	flw	fa1,92(s0)
    356c:	6f57206f          	j	76460 <_stack_start+0x72460>
    3570:	6c72                	flw	fs8,28(sp)
    3572:	2164                	fld	fs1,192(a0)
    3574:	000a                	c.slli	zero,0x2
    3576:	0000                	unimp
    3578:	616e                	flw	ft2,216(sp)
    357a:	006e                	c.slli	zero,0x1b
    357c:	6e66                	flw	ft8,88(sp)
    357e:	2d69                	jal	3c18 <global_uart+0x254>
    3580:	0000                	unimp
    3582:	0000                	unimp
    3584:	6e66                	flw	ft8,88(sp)
    3586:	2b69                	jal	3b20 <global_uart+0x15c>
    3588:	0000                	unimp
    358a:	0000                	unimp
    358c:	6e66                	flw	ft8,88(sp)
    358e:	0069                	c.nop	26
    3590:	170c                	add	a1,sp,928
    3592:	0000                	unimp
    3594:	1754                	add	a3,sp,932
    3596:	0000                	unimp
    3598:	1754                	add	a3,sp,932
    359a:	0000                	unimp
    359c:	1730                	add	a2,sp,936
    359e:	0000                	unimp
    35a0:	1754                	add	a3,sp,932
    35a2:	0000                	unimp
    35a4:	1754                	add	a3,sp,932
    35a6:	0000                	unimp
    35a8:	1754                	add	a3,sp,932
    35aa:	0000                	unimp
    35ac:	1754                	add	a3,sp,932
    35ae:	0000                	unimp
    35b0:	1754                	add	a3,sp,932
    35b2:	0000                	unimp
    35b4:	1754                	add	a3,sp,932
    35b6:	0000                	unimp
    35b8:	1754                	add	a3,sp,932
    35ba:	0000                	unimp
    35bc:	16e8                	add	a0,sp,876
    35be:	0000                	unimp
    35c0:	1754                	add	a3,sp,932
    35c2:	0000                	unimp
    35c4:	16c4                	add	s1,sp,868
    35c6:	0000                	unimp
    35c8:	1754                	add	a3,sp,932
    35ca:	0000                	unimp
    35cc:	1754                	add	a3,sp,932
    35ce:	0000                	unimp
    35d0:	16a0                	add	s0,sp,872
    35d2:	0000                	unimp
    35d4:	18f8                	add	a4,sp,124
    35d6:	0000                	unimp
    35d8:	1990                	add	a2,sp,240
    35da:	0000                	unimp
    35dc:	1958                	add	a4,sp,180
    35de:	0000                	unimp
    35e0:	1990                	add	a2,sp,240
    35e2:	0000                	unimp
    35e4:	18b4                	add	a3,sp,120
    35e6:	0000                	unimp
    35e8:	1990                	add	a2,sp,240
    35ea:	0000                	unimp
    35ec:	1990                	add	a2,sp,240
    35ee:	0000                	unimp
    35f0:	1990                	add	a2,sp,240
    35f2:	0000                	unimp
    35f4:	1990                	add	a2,sp,240
    35f6:	0000                	unimp
    35f8:	1990                	add	a2,sp,240
    35fa:	0000                	unimp
    35fc:	1990                	add	a2,sp,240
    35fe:	0000                	unimp
    3600:	1990                	add	a2,sp,240
    3602:	0000                	unimp
    3604:	193c                	add	a5,sp,184
    3606:	0000                	unimp
    3608:	1990                	add	a2,sp,240
    360a:	0000                	unimp
    360c:	1990                	add	a2,sp,240
    360e:	0000                	unimp
    3610:	1990                	add	a2,sp,240
    3612:	0000                	unimp
    3614:	1990                	add	a2,sp,240
    3616:	0000                	unimp
    3618:	1990                	add	a2,sp,240
    361a:	0000                	unimp
    361c:	1974                	add	a3,sp,188
    361e:	0000                	unimp
    3620:	22fc                	fld	fa5,192(a3)
    3622:	0000                	unimp
    3624:	2330                	fld	fa2,64(a4)
    3626:	0000                	unimp
    3628:	2330                	fld	fa2,64(a4)
    362a:	0000                	unimp
    362c:	2330                	fld	fa2,64(a4)
    362e:	0000                	unimp
    3630:	2330                	fld	fa2,64(a4)
    3632:	0000                	unimp
    3634:	2330                	fld	fa2,64(a4)
    3636:	0000                	unimp
    3638:	2330                	fld	fa2,64(a4)
    363a:	0000                	unimp
    363c:	2330                	fld	fa2,64(a4)
    363e:	0000                	unimp
    3640:	2330                	fld	fa2,64(a4)
    3642:	0000                	unimp
    3644:	2330                	fld	fa2,64(a4)
    3646:	0000                	unimp
    3648:	2330                	fld	fa2,64(a4)
    364a:	0000                	unimp
    364c:	2330                	fld	fa2,64(a4)
    364e:	0000                	unimp
    3650:	2330                	fld	fa2,64(a4)
    3652:	0000                	unimp
    3654:	2330                	fld	fa2,64(a4)
    3656:	0000                	unimp
    3658:	2330                	fld	fa2,64(a4)
    365a:	0000                	unimp
    365c:	2330                	fld	fa2,64(a4)
    365e:	0000                	unimp
    3660:	2330                	fld	fa2,64(a4)
    3662:	0000                	unimp
    3664:	2330                	fld	fa2,64(a4)
    3666:	0000                	unimp
    3668:	2330                	fld	fa2,64(a4)
    366a:	0000                	unimp
    366c:	2330                	fld	fa2,64(a4)
    366e:	0000                	unimp
    3670:	2330                	fld	fa2,64(a4)
    3672:	0000                	unimp
    3674:	2330                	fld	fa2,64(a4)
    3676:	0000                	unimp
    3678:	2330                	fld	fa2,64(a4)
    367a:	0000                	unimp
    367c:	2330                	fld	fa2,64(a4)
    367e:	0000                	unimp
    3680:	2330                	fld	fa2,64(a4)
    3682:	0000                	unimp
    3684:	2330                	fld	fa2,64(a4)
    3686:	0000                	unimp
    3688:	2330                	fld	fa2,64(a4)
    368a:	0000                	unimp
    368c:	2330                	fld	fa2,64(a4)
    368e:	0000                	unimp
    3690:	2330                	fld	fa2,64(a4)
    3692:	0000                	unimp
    3694:	2330                	fld	fa2,64(a4)
    3696:	0000                	unimp
    3698:	2330                	fld	fa2,64(a4)
    369a:	0000                	unimp
    369c:	2330                	fld	fa2,64(a4)
    369e:	0000                	unimp
    36a0:	1f38                	add	a4,sp,952
    36a2:	0000                	unimp
    36a4:	1ec0                	add	s0,sp,884
    36a6:	0000                	unimp
    36a8:	1f38                	add	a4,sp,952
    36aa:	0000                	unimp
    36ac:	2330                	fld	fa2,64(a4)
    36ae:	0000                	unimp
    36b0:	2330                	fld	fa2,64(a4)
    36b2:	0000                	unimp
    36b4:	2330                	fld	fa2,64(a4)
    36b6:	0000                	unimp
    36b8:	2330                	fld	fa2,64(a4)
    36ba:	0000                	unimp
    36bc:	2330                	fld	fa2,64(a4)
    36be:	0000                	unimp
    36c0:	2330                	fld	fa2,64(a4)
    36c2:	0000                	unimp
    36c4:	2330                	fld	fa2,64(a4)
    36c6:	0000                	unimp
    36c8:	2330                	fld	fa2,64(a4)
    36ca:	0000                	unimp
    36cc:	2330                	fld	fa2,64(a4)
    36ce:	0000                	unimp
    36d0:	2330                	fld	fa2,64(a4)
    36d2:	0000                	unimp
    36d4:	2330                	fld	fa2,64(a4)
    36d6:	0000                	unimp
    36d8:	2330                	fld	fa2,64(a4)
    36da:	0000                	unimp
    36dc:	2330                	fld	fa2,64(a4)
    36de:	0000                	unimp
    36e0:	2330                	fld	fa2,64(a4)
    36e2:	0000                	unimp
    36e4:	2330                	fld	fa2,64(a4)
    36e6:	0000                	unimp
    36e8:	2330                	fld	fa2,64(a4)
    36ea:	0000                	unimp
    36ec:	1a40                	add	s0,sp,308
    36ee:	0000                	unimp
    36f0:	2330                	fld	fa2,64(a4)
    36f2:	0000                	unimp
    36f4:	2330                	fld	fa2,64(a4)
    36f6:	0000                	unimp
    36f8:	2330                	fld	fa2,64(a4)
    36fa:	0000                	unimp
    36fc:	2330                	fld	fa2,64(a4)
    36fe:	0000                	unimp
    3700:	2330                	fld	fa2,64(a4)
    3702:	0000                	unimp
    3704:	2330                	fld	fa2,64(a4)
    3706:	0000                	unimp
    3708:	2330                	fld	fa2,64(a4)
    370a:	0000                	unimp
    370c:	2330                	fld	fa2,64(a4)
    370e:	0000                	unimp
    3710:	2330                	fld	fa2,64(a4)
    3712:	0000                	unimp
    3714:	1a40                	add	s0,sp,308
    3716:	0000                	unimp
    3718:	1ff4                	add	a3,sp,1020
    371a:	0000                	unimp
    371c:	1a40                	add	s0,sp,308
    371e:	0000                	unimp
    3720:	1f38                	add	a4,sp,952
    3722:	0000                	unimp
    3724:	1ec0                	add	s0,sp,884
    3726:	0000                	unimp
    3728:	1f38                	add	a4,sp,952
    372a:	0000                	unimp
    372c:	0000                	unimp
	...

00003730 <pow10.0>:
    3730:	0000                	unimp
    3732:	0000                	unimp
    3734:	0000                	unimp
    3736:	3ff0                	fld	fa2,248(a5)
    3738:	0000                	unimp
    373a:	0000                	unimp
    373c:	0000                	unimp
    373e:	4024                	lw	s1,64(s0)
    3740:	0000                	unimp
    3742:	0000                	unimp
    3744:	0000                	unimp
    3746:	4059                	c.li	zero,22
    3748:	0000                	unimp
    374a:	0000                	unimp
    374c:	4000                	lw	s0,0(s0)
    374e:	0000408f          	.4byte	0x408f
    3752:	0000                	unimp
    3754:	8800                	.2byte	0x8800
    3756:	000040c3          	fmadd.s	ft1,ft0,ft0,ft0,rmm
    375a:	0000                	unimp
    375c:	6a00                	flw	fs0,16(a2)
    375e:	40f8                	lw	a4,68(s1)
    3760:	0000                	unimp
    3762:	0000                	unimp
    3764:	8480                	.2byte	0x8480
    3766:	412e                	lw	sp,200(sp)
    3768:	0000                	unimp
    376a:	0000                	unimp
    376c:	12d0                	add	a2,sp,356
    376e:	00004163          	bltz	zero,3770 <pow10.0+0x40>
    3772:	0000                	unimp
    3774:	d784                	sw	s1,40(a5)
    3776:	00004197          	auipc	gp,0x4
    377a:	0000                	unimp
    377c:	cd65                	beqz	a0,3874 <pow10.0+0x144>
    377e:	41cd                	li	gp,19
    3780:	ffff                	.2byte	0xffff
    3782:	ffff                	.2byte	0xffff
    3784:	ffff                	.2byte	0xffff
    3786:	ffffffef          	jal	t6,3784 <pow10.0+0x54>
    378a:	ffff                	.2byte	0xffff
    378c:	ffff                	.2byte	0xffff
    378e:	00007fef          	jal	t6,a78e <_stack_start+0x678e>
    3792:	0000                	unimp
    3794:	cd65                	beqz	a0,388c <__clz_tab+0x10>
    3796:	41cd                	li	gp,19
    3798:	0000                	unimp
    379a:	0000                	unimp
    379c:	cd65                	beqz	a0,3894 <__clz_tab+0x18>
    379e:	c1cd                	beqz	a1,3840 <pow10.0+0x110>
    37a0:	0000                	unimp
    37a2:	0000                	unimp
    37a4:	0000                	unimp
    37a6:	3fe0                	fld	fs0,248(a5)
    37a8:	509f79fb          	.4byte	0x509f79fb
    37ac:	3fd34413          	xor	s0,t1,1021
    37b0:	8b60c8b3          	.4byte	0x8b60c8b3
    37b4:	8a28                	.2byte	0x8a28
    37b6:	3fc6                	fld	ft11,112(sp)
    37b8:	0000                	unimp
    37ba:	0000                	unimp
    37bc:	0000                	unimp
    37be:	3ff8                	fld	fa4,248(a5)
    37c0:	4361                	li	t1,24
    37c2:	87a7636f          	jal	t1,fff7983c <_stack_start+0xfff7583c>
    37c6:	3fd2                	fld	ft11,304(sp)
    37c8:	a371                	j	3d54 <global_uart+0x390>
    37ca:	0979                	add	s2,s2,30
    37cc:	400a934f          	fnmadd.s	ft6,fs5,ft0,fs0,rtz
    37d0:	5516                	lw	a0,100(sp)
    37d2:	bbb5                	j	354e <__umoddi3+0x30c>
    37d4:	6bb1                	lui	s7,0xc
    37d6:	4002                	.2byte	0x4002
    37d8:	fefa39ef          	jal	s3,fffa77c6 <_stack_start+0xfffa37c6>
    37dc:	2e42                	fld	ft8,16(sp)
    37de:	3fe6                	fld	ft11,120(sp)
    37e0:	0000                	unimp
    37e2:	0000                	unimp
    37e4:	0000                	unimp
    37e6:	4000                	lw	s0,0(s0)
    37e8:	0000                	unimp
    37ea:	0000                	unimp
    37ec:	0000                	unimp
    37ee:	402c                	lw	a1,64(s0)
    37f0:	0000                	unimp
    37f2:	0000                	unimp
    37f4:	0000                	unimp
    37f6:	4024                	lw	s1,64(s0)
    37f8:	0000                	unimp
    37fa:	0000                	unimp
    37fc:	0000                	unimp
    37fe:	4018                	lw	a4,0(s0)
    3800:	0000                	unimp
    3802:	0000                	unimp
    3804:	0000                	unimp
    3806:	3ff0                	fld	fa2,248(a5)
    3808:	432d                	li	t1,11
    380a:	eb1c                	fsw	fa5,16(a4)
    380c:	36e2                	fld	fa3,56(sp)
    380e:	3f1a                	fld	ft10,416(sp)
    3810:	0000                	unimp
    3812:	0000                	unimp
    3814:	8480                	.2byte	0x8480
    3816:	412e                	lw	sp,200(sp)
    3818:	2a64                	fld	fs1,208(a2)
    381a:	0000                	unimp
    381c:	2b0c                	fld	fa1,16(a4)
    381e:	0000                	unimp
    3820:	2b0c                	fld	fa1,16(a4)
    3822:	0000                	unimp
    3824:	2b0c                	fld	fa1,16(a4)
    3826:	0000                	unimp
    3828:	2b0c                	fld	fa1,16(a4)
    382a:	0000                	unimp
    382c:	2b0c                	fld	fa1,16(a4)
    382e:	0000                	unimp
    3830:	290c                	fld	fa1,16(a0)
    3832:	0000                	unimp
    3834:	295c                	fld	fa5,144(a0)
    3836:	0000                	unimp
    3838:	2b0c                	fld	fa1,16(a4)
    383a:	0000                	unimp
    383c:	2b0c                	fld	fa1,16(a4)
    383e:	0000                	unimp
    3840:	2b0c                	fld	fa1,16(a4)
    3842:	0000                	unimp
    3844:	2b0c                	fld	fa1,16(a4)
    3846:	0000                	unimp
    3848:	2b0c                	fld	fa1,16(a4)
    384a:	0000                	unimp
    384c:	2b0c                	fld	fa1,16(a4)
    384e:	0000                	unimp
    3850:	2b0c                	fld	fa1,16(a4)
    3852:	0000                	unimp
    3854:	2b0c                	fld	fa1,16(a4)
    3856:	0000                	unimp
    3858:	2b0c                	fld	fa1,16(a4)
    385a:	0000                	unimp
    385c:	2b0c                	fld	fa1,16(a4)
    385e:	0000                	unimp
    3860:	2b0c                	fld	fa1,16(a4)
    3862:	0000                	unimp
    3864:	2b0c                	fld	fa1,16(a4)
    3866:	0000                	unimp
    3868:	2b0c                	fld	fa1,16(a4)
    386a:	0000                	unimp
    386c:	2b0c                	fld	fa1,16(a4)
    386e:	0000                	unimp
    3870:	2a64                	fld	fs1,208(a2)
    3872:	0000                	unimp
    3874:	2b0c                	fld	fa1,16(a4)
    3876:	0000                	unimp
    3878:	295c                	fld	fa5,144(a0)
	...

0000387c <__clz_tab>:
    387c:	0100                	add	s0,sp,128
    387e:	0202                	c.slli64	tp
    3880:	03030303          	lb	t1,48(t1)
    3884:	0404                	add	s1,sp,512
    3886:	0404                	add	s1,sp,512
    3888:	0404                	add	s1,sp,512
    388a:	0404                	add	s1,sp,512
    388c:	0505                	add	a0,a0,1
    388e:	0505                	add	a0,a0,1
    3890:	0505                	add	a0,a0,1
    3892:	0505                	add	a0,a0,1
    3894:	0505                	add	a0,a0,1
    3896:	0505                	add	a0,a0,1
    3898:	0505                	add	a0,a0,1
    389a:	0505                	add	a0,a0,1
    389c:	0606                	sll	a2,a2,0x1
    389e:	0606                	sll	a2,a2,0x1
    38a0:	0606                	sll	a2,a2,0x1
    38a2:	0606                	sll	a2,a2,0x1
    38a4:	0606                	sll	a2,a2,0x1
    38a6:	0606                	sll	a2,a2,0x1
    38a8:	0606                	sll	a2,a2,0x1
    38aa:	0606                	sll	a2,a2,0x1
    38ac:	0606                	sll	a2,a2,0x1
    38ae:	0606                	sll	a2,a2,0x1
    38b0:	0606                	sll	a2,a2,0x1
    38b2:	0606                	sll	a2,a2,0x1
    38b4:	0606                	sll	a2,a2,0x1
    38b6:	0606                	sll	a2,a2,0x1
    38b8:	0606                	sll	a2,a2,0x1
    38ba:	0606                	sll	a2,a2,0x1
    38bc:	07070707          	.4byte	0x7070707
    38c0:	07070707          	.4byte	0x7070707
    38c4:	07070707          	.4byte	0x7070707
    38c8:	07070707          	.4byte	0x7070707
    38cc:	07070707          	.4byte	0x7070707
    38d0:	07070707          	.4byte	0x7070707
    38d4:	07070707          	.4byte	0x7070707
    38d8:	07070707          	.4byte	0x7070707
    38dc:	07070707          	.4byte	0x7070707
    38e0:	07070707          	.4byte	0x7070707
    38e4:	07070707          	.4byte	0x7070707
    38e8:	07070707          	.4byte	0x7070707
    38ec:	07070707          	.4byte	0x7070707
    38f0:	07070707          	.4byte	0x7070707
    38f4:	07070707          	.4byte	0x7070707
    38f8:	07070707          	.4byte	0x7070707
    38fc:	0808                	add	a0,sp,16
    38fe:	0808                	add	a0,sp,16
    3900:	0808                	add	a0,sp,16
    3902:	0808                	add	a0,sp,16
    3904:	0808                	add	a0,sp,16
    3906:	0808                	add	a0,sp,16
    3908:	0808                	add	a0,sp,16
    390a:	0808                	add	a0,sp,16
    390c:	0808                	add	a0,sp,16
    390e:	0808                	add	a0,sp,16
    3910:	0808                	add	a0,sp,16
    3912:	0808                	add	a0,sp,16
    3914:	0808                	add	a0,sp,16
    3916:	0808                	add	a0,sp,16
    3918:	0808                	add	a0,sp,16
    391a:	0808                	add	a0,sp,16
    391c:	0808                	add	a0,sp,16
    391e:	0808                	add	a0,sp,16
    3920:	0808                	add	a0,sp,16
    3922:	0808                	add	a0,sp,16
    3924:	0808                	add	a0,sp,16
    3926:	0808                	add	a0,sp,16
    3928:	0808                	add	a0,sp,16
    392a:	0808                	add	a0,sp,16
    392c:	0808                	add	a0,sp,16
    392e:	0808                	add	a0,sp,16
    3930:	0808                	add	a0,sp,16
    3932:	0808                	add	a0,sp,16
    3934:	0808                	add	a0,sp,16
    3936:	0808                	add	a0,sp,16
    3938:	0808                	add	a0,sp,16
    393a:	0808                	add	a0,sp,16
    393c:	0808                	add	a0,sp,16
    393e:	0808                	add	a0,sp,16
    3940:	0808                	add	a0,sp,16
    3942:	0808                	add	a0,sp,16
    3944:	0808                	add	a0,sp,16
    3946:	0808                	add	a0,sp,16
    3948:	0808                	add	a0,sp,16
    394a:	0808                	add	a0,sp,16
    394c:	0808                	add	a0,sp,16
    394e:	0808                	add	a0,sp,16
    3950:	0808                	add	a0,sp,16
    3952:	0808                	add	a0,sp,16
    3954:	0808                	add	a0,sp,16
    3956:	0808                	add	a0,sp,16
    3958:	0808                	add	a0,sp,16
    395a:	0808                	add	a0,sp,16
    395c:	0808                	add	a0,sp,16
    395e:	0808                	add	a0,sp,16
    3960:	0808                	add	a0,sp,16
    3962:	0808                	add	a0,sp,16
    3964:	0808                	add	a0,sp,16
    3966:	0808                	add	a0,sp,16
    3968:	0808                	add	a0,sp,16
    396a:	0808                	add	a0,sp,16
    396c:	0808                	add	a0,sp,16
    396e:	0808                	add	a0,sp,16
    3970:	0808                	add	a0,sp,16
    3972:	0808                	add	a0,sp,16
    3974:	0808                	add	a0,sp,16
    3976:	0808                	add	a0,sp,16
    3978:	0808                	add	a0,sp,16
    397a:	0808                	add	a0,sp,16
    397c:	0000                	unimp
	...

Disassembly of section .eh_frame:

00003980 <.eh_frame>:
    3980:	0010                	.2byte	0x10
    3982:	0000                	unimp
    3984:	0000                	unimp
    3986:	0000                	unimp
    3988:	00527a03          	.4byte	0x527a03
    398c:	7c01                	lui	s8,0xfffe0
    398e:	0101                	add	sp,sp,0
    3990:	00020d1b          	.4byte	0x20d1b
    3994:	0010                	.2byte	0x10
    3996:	0000                	unimp
    3998:	0018                	.2byte	0x18
    399a:	0000                	unimp
    399c:	f54c                	fsw	fa1,44(a0)
    399e:	ffff                	.2byte	0xffff
    39a0:	035a                	sll	t1,t1,0x16
    39a2:	0000                	unimp
    39a4:	0000                	unimp
    39a6:	0000                	unimp
    39a8:	0010                	.2byte	0x10
    39aa:	0000                	unimp
    39ac:	002c                	add	a1,sp,8
    39ae:	0000                	unimp
    39b0:	f892                	fsw	ft4,112(sp)
    39b2:	ffff                	.2byte	0xffff
    39b4:	0324                	add	s1,sp,392
    39b6:	0000                	unimp
    39b8:	0000                	unimp
	...

Disassembly of section .data:

000039bc <.data>:
    39bc:	0000                	unimp
	...

Disassembly of section .sbss:

000039c0 <backch>:
    39c0:	0000                	unimp
	...

000039c4 <global_uart>:
    39c4:	0000                	unimp
	...

Disassembly of section .comment:

00000000 <.comment>:
   0:	3a434347          	fmsub.d	ft6,ft6,ft4,ft7,rmm
   4:	2820                	fld	fs0,80(s0)
   6:	65653267          	.4byte	0x65653267
   a:	6535                	lui	a0,0xd
   c:	3334                	fld	fa3,96(a4)
   e:	3030                	fld	fa2,96(s0)
  10:	3831                	jal	fffff82c <_stack_start+0xffffb82c>
  12:	2029                	jal	1c <main-0x84>
  14:	3231                	jal	fffff920 <_stack_start+0xffffb920>
  16:	322e                	fld	ft4,232(sp)
  18:	302e                	fld	ft0,232(sp)
	...

Disassembly of section .riscv.attributes:

00000000 <.riscv.attributes>:
   0:	5241                	li	tp,-16
   2:	0000                	unimp
   4:	7200                	flw	fs0,32(a2)
   6:	7369                	lui	t1,0xffffa
   8:	01007663          	bgeu	zero,a6,14 <main-0x8c>
   c:	0048                	add	a0,sp,4
   e:	0000                	unimp
  10:	1004                	add	s1,sp,32
  12:	7205                	lui	tp,0xfffe1
  14:	3376                	fld	ft6,376(sp)
  16:	6932                	flw	fs2,12(sp)
  18:	7032                	flw	ft0,44(sp)
  1a:	5f31                	li	t5,-20
  1c:	326d                	jal	fffff9c6 <_stack_start+0xffffb9c6>
  1e:	3070                	fld	fa2,224(s0)
  20:	615f 7032 5f31      	.byte	0x5f, 0x61, 0x32, 0x70, 0x31, 0x5f
  26:	3266                	fld	ft4,120(sp)
  28:	3270                	fld	fa2,224(a2)
  2a:	645f 7032 5f32      	.byte	0x5f, 0x64, 0x32, 0x70, 0x32, 0x5f
  30:	30703263          	.4byte	0x30703263
  34:	7a5f 6369 7273      	.byte	0x5f, 0x7a, 0x69, 0x63, 0x73, 0x72
  3a:	7032                	flw	ft0,44(sp)
  3c:	5f30                	lw	a2,120(a4)
  3e:	697a                	flw	fs2,156(sp)
  40:	6566                	flw	fa0,88(sp)
  42:	636e                	flw	ft6,216(sp)
  44:	6965                	lui	s2,0x19
  46:	7032                	flw	ft0,44(sp)
  48:	5f30                	lw	a2,120(a4)
  4a:	6d7a                	flw	fs10,156(sp)
  4c:	756d                	lui	a0,0xffffb
  4e:	316c                	fld	fa1,224(a0)
  50:	3070                	fld	fa2,224(s0)
	...

Disassembly of section .debug_info:

00000000 <.debug_info>:
   0:	075d                	add	a4,a4,23 # 1000017 <_stack_start+0xffc017>
   2:	0000                	unimp
   4:	0005                	c.nop	1
   6:	0401                	add	s0,s0,0
   8:	0000                	unimp
   a:	0000                	unimp
   c:	0711                	add	a4,a4,4
   e:	0001                	nop
  10:	1d00                	add	s0,sp,688
  12:	0095                	add	ra,ra,5
  14:	0000                	unimp
  16:	0000                	unimp
  18:	0000                	unimp
  1a:	2ee8                	fld	fa0,216(a3)
  1c:	0000                	unimp
  1e:	035a                	sll	t1,t1,0x16
  20:	0000                	unimp
  22:	0000                	unimp
  24:	0000                	unimp
  26:	0804                	add	s1,sp,16
  28:	00004c07          	.4byte	0x4c07
  2c:	1200                	add	s0,sp,288
  2e:	0504                	add	s1,sp,640
  30:	6e69                	lui	t3,0x1a
  32:	0074                	add	a3,sp,12
  34:	0404                	add	s1,sp,512
  36:	00005607          	.4byte	0x5607
  3a:	0400                	add	s0,sp,512
  3c:	0508                	add	a0,sp,640
  3e:	003e                	c.slli	zero,0xf
  40:	0000                	unimp
  42:	1004                	add	s1,sp,32
  44:	f304                	fsw	fs1,32(a4)
  46:	0000                	unimp
  48:	0400                	add	s0,sp,512
  4a:	0601                	add	a2,a2,0
  4c:	0074                	add	a3,sp,12
  4e:	0000                	unimp
  50:	0104                	add	s1,sp,128
  52:	7208                	flw	fa0,32(a2)
  54:	0000                	unimp
  56:	0400                	add	s0,sp,512
  58:	0502                	c.slli64	a0
  5a:	0020                	add	s0,sp,8
  5c:	0000                	unimp
  5e:	0204                	add	s1,sp,256
  60:	0000a507          	flw	fa0,0(ra)
  64:	0400                	add	s0,sp,512
  66:	0504                	add	s1,sp,640
  68:	00000043          	fmadd.s	ft0,ft0,ft0,ft0,rne
  6c:	0404                	add	s1,sp,512
  6e:	00005107          	.4byte	0x5107
  72:	0400                	add	s0,sp,512
  74:	0801                	add	a6,a6,0 # 10000 <_stack_start+0xc000>
  76:	0000007b          	.4byte	0x7b
  7a:	9406                	add	s0,s0,ra
  7c:	0000                	unimp
  7e:	7b00                	flw	fs0,48(a4)
  80:	5016                	.2byte	0x5016
  82:	0000                	unimp
  84:	0900                	add	s0,sp,144
  86:	007a                	c.slli	zero,0x1e
  88:	0000                	unimp
  8a:	0106                	sll	sp,sp,0x1
  8c:	0000                	unimp
  8e:	8000                	.2byte	0x8000
  90:	00002d0f          	.4byte	0x2d0f
  94:	0600                	add	s0,sp,768
  96:	0000                	unimp
  98:	0000                	unimp
  9a:	1681                	add	a3,a3,-32 # ffe0 <_stack_start+0xbfe0>
  9c:	0034                	add	a3,sp,8
  9e:	0000                	unimp
  a0:	b906                	fsd	ft1,176(sp)
  a2:	0000                	unimp
  a4:	8400                	.2byte	0x8400
  a6:	00003b0f          	.4byte	0x3b0f
  aa:	0600                	add	s0,sp,768
  ac:	00b8                	add	a4,sp,72
  ae:	0000                	unimp
  b0:	1685                	add	a3,a3,-31
  b2:	0026                	c.slli	zero,0x9
  b4:	0000                	unimp
  b6:	0404                	add	s1,sp,512
  b8:	1a04                	add	s1,sp,304
  ba:	0000                	unimp
  bc:	0400                	add	s0,sp,512
  be:	0308                	add	a0,sp,384
  c0:	0012                	c.slli	zero,0x4
  c2:	0000                	unimp
  c4:	0804                	add	s1,sp,16
  c6:	f804                	fsw	fs1,48(s0)
  c8:	0000                	unimp
  ca:	0400                	add	s0,sp,512
  cc:	0310                	add	a2,sp,384
  ce:	00ca                	sll	ra,ra,0x12
  d0:	0000                	unimp
  d2:	2004                	fld	fs1,0(s0)
  d4:	0000eb03          	.4byte	0xeb03
  d8:	1300                	add	s0,sp,416
  da:	009c                	add	a5,sp,64
  dc:	0000                	unimp
  de:	0208                	add	a0,sp,256
  e0:	01ed                	add	gp,gp,27 # 7791 <_stack_start+0x3791>
  e2:	040a                	sll	s0,s0,0x2
  e4:	0001                	nop
  e6:	1400                	add	s0,sp,544
  e8:	6f6c                	flw	fa1,92(a4)
  ea:	ed020077          	.4byte	0xed020077
  ee:	1a01                	add	s4,s4,-32
  f0:	008a                	sll	ra,ra,0x2
  f2:	0000                	unimp
  f4:	1500                	add	s0,sp,672
  f6:	00000063          	beqz	zero,f6 <_out_buffer+0x36>
  fa:	ed02                	fsw	ft0,152(sp)
  fc:	1f01                	add	t5,t5,-32
  fe:	008a                	sll	ra,ra,0x2
 100:	0000                	unimp
 102:	0004                	.2byte	0x4
 104:	0816                	sll	a6,a6,0x5
 106:	f402                	fsw	ft0,40(sp)
 108:	0901                	add	s2,s2,0 # 19000 <_stack_start+0x15000>
 10a:	0124                	add	s1,sp,136
 10c:	0000                	unimp
 10e:	730c                	flw	fa1,32(a4)
 110:	f600                	fsw	fs0,40(a2)
 112:	1301                	add	t1,t1,-32 # ffff9fe0 <_stack_start+0xffff5fe0>
 114:	00d9                	add	ra,ra,22
 116:	0000                	unimp
 118:	6c0c                	flw	fa1,24(s0)
 11a:	006c                	add	a1,sp,12
 11c:	a00a01f7          	.4byte	0xa00a01f7
 120:	0000                	unimp
 122:	0000                	unimp
 124:	0000ff17          	auipc	t5,0xf
 128:	0200                	add	s0,sp,256
 12a:	01f8                	add	a4,sp,204
 12c:	00010403          	lb	s0,0(sp)
 130:	0900                	add	s0,sp,144
 132:	0124                	add	s1,sp,136
 134:	0000                	unimp
 136:	8518                	.2byte	0x8518
 138:	0000                	unimp
 13a:	4600                	lw	s0,8(a2)
 13c:	0001                	nop
 13e:	1900                	add	s0,sp,176
 140:	0034                	add	a3,sp,8
 142:	0000                	unimp
 144:	00ff 3609 0001 1a00 	.byte	0xff, 0x00, 0x09, 0x36, 0x01, 0x00, 0x00, 0x1a, 0x68, 0x00
 14c:	0068 
 14e:	0000                	unimp
 150:	0202                	c.slli64	tp
 152:	1602                	sll	a2,a2,0x20
 154:	0146                	sll	sp,sp,0x11
 156:	0000                	unimp
 158:	0000081b          	.4byte	0x81b
 15c:	0100                	add	s0,sp,128
 15e:	0512                	sll	a0,a0,0x4
 160:	ab01                	j	670 <_ntoa_format+0x1b0>
 162:	0000                	unimp
 164:	e800                	fsw	fs0,16(s0)
 166:	002e                	c.slli	zero,0xb
 168:	5a00                	lw	s0,48(a2)
 16a:	01000003          	lb	zero,16(zero) # 10 <main-0x90>
 16e:	2e9c                	fld	fa5,24(a3)
 170:	0004                	.2byte	0x4
 172:	0d00                	add	s0,sp,656
 174:	006e                	c.slli	zero,0x1b
 176:	ab14                	fsd	fa3,16(a4)
 178:	0000                	unimp
 17a:	0c00                	add	s0,sp,528
 17c:	0000                	unimp
 17e:	0d00                	add	s0,sp,656
 180:	0064                	add	s1,sp,12
 182:	ab1f 0000 ed00      	.byte	0x1f, 0xab, 0x00, 0x00, 0x00, 0xed
 188:	0000                	unimp
 18a:	1c00                	add	s0,sp,560
 18c:	042e                	sll	s0,s0,0xb
 18e:	0000                	unimp
 190:	2ee8                	fld	fa0,216(a3)
 192:	0000                	unimp
 194:	000c                	.2byte	0xc
 196:	0000                	unimp
 198:	1401                	add	s0,s0,-32
 19a:	0a05                	add	s4,s4,1
 19c:	500a                	.2byte	0x500a
 19e:	0004                	.2byte	0x4
 1a0:	7e00                	flw	fs0,56(a2)
 1a2:	0001                	nop
 1a4:	0a00                	add	s0,sp,272
 1a6:	0448                	add	a0,sp,516
 1a8:	0000                	unimp
 1aa:	00000197          	auipc	gp,0x0
 1ae:	400a                	.2byte	0x400a
 1b0:	0004                	.2byte	0x4
 1b2:	d800                	sw	s0,48(s0)
 1b4:	0001                	nop
 1b6:	1d00                	add	s0,sp,688
 1b8:	0028                	add	a0,sp,8
 1ba:	0000                	unimp
 1bc:	5908                	lw	a0,48(a0)
 1be:	0004                	.2byte	0x4
 1c0:	0800                	add	s0,sp,16
 1c2:	0464                	add	s1,sp,524
 1c4:	0000                	unimp
 1c6:	6f08                	flw	fa0,24(a4)
 1c8:	0004                	.2byte	0x4
 1ca:	0100                	add	s0,sp,128
 1cc:	047a                	sll	s0,s0,0x1e
 1ce:	0000                	unimp
 1d0:	02b9                	add	t0,t0,14
 1d2:	0000                	unimp
 1d4:	8501                	c.srai64	a0
 1d6:	0004                	.2byte	0x4
 1d8:	2500                	fld	fs0,8(a0)
 1da:	01000003          	lb	zero,16(zero) # 10 <main-0x90>
 1de:	0490                	add	a2,sp,576
 1e0:	0000                	unimp
 1e2:	035d                	add	t1,t1,23
 1e4:	0000                	unimp
 1e6:	9b01                	and	a4,a4,-32
 1e8:	0004                	.2byte	0x4
 1ea:	0d00                	add	s0,sp,656
 1ec:	0004                	.2byte	0x4
 1ee:	0100                	add	s0,sp,128
 1f0:	04a6                	sll	s1,s1,0x9
 1f2:	0000                	unimp
 1f4:	0492                	sll	s1,s1,0x4
 1f6:	0000                	unimp
 1f8:	b101                	j	fffffdf8 <_stack_start+0xffffbdf8>
 1fa:	0004                	.2byte	0x4
 1fc:	a900                	fsd	fs0,16(a0)
 1fe:	0004                	.2byte	0x4
 200:	0100                	add	s0,sp,128
 202:	04bc                	add	a5,sp,584
 204:	0000                	unimp
 206:	000004cb          	fnmsub.s	fs1,ft0,ft0,ft0,rne
 20a:	c701                	beqz	a4,212 <_out_fct+0x32>
 20c:	0004                	.2byte	0x4
 20e:	ee00                	fsw	fs0,24(a2)
 210:	0004                	.2byte	0x4
 212:	0100                	add	s0,sp,128
 214:	04d1                	add	s1,s1,20
 216:	0000                	unimp
 218:	0505                	add	a0,a0,1 # ffffb001 <_stack_start+0xffff7001>
 21a:	0000                	unimp
 21c:	dc08                	sw	a0,56(s0)
 21e:	0004                	.2byte	0x4
 220:	0700                	add	s0,sp,896
 222:	000004e7          	jalr	s1,zero # 0 <main-0xa0>
 226:	004d                	c.nop	19
 228:	0000                	unimp
 22a:	0241                	add	tp,tp,16 # fffe1010 <_stack_start+0xfffdd010>
 22c:	0000                	unimp
 22e:	ec01                	bnez	s0,246 <_strnlen_s+0x6>
 230:	0004                	.2byte	0x4
 232:	3d00                	fld	fs0,56(a0)
 234:	0005                	c.nop	1
 236:	0100                	add	s0,sp,128
 238:	04f8                	add	a4,sp,588
 23a:	0000                	unimp
 23c:	0572                	sll	a0,a0,0x1c
 23e:	0000                	unimp
 240:	0e00                	add	s0,sp,784
 242:	0505                	add	a0,a0,1
 244:	0000                	unimp
 246:	2f3a                	fld	ft10,392(sp)
 248:	0000                	unimp
 24a:	0072                	c.slli	zero,0x1c
 24c:	0000                	unimp
 24e:	0292                	sll	t0,t0,0x4
 250:	0000                	unimp
 252:	0a01                	add	s4,s4,0
 254:	0005                	c.nop	1
 256:	7e00                	flw	fs0,56(a2)
 258:	0005                	c.nop	1
 25a:	0100                	add	s0,sp,128
 25c:	0516                	sll	a0,a0,0x5
 25e:	0000                	unimp
 260:	058a                	sll	a1,a1,0x2
 262:	0000                	unimp
 264:	2201                	jal	364 <_atoi+0x70>
 266:	0005                	c.nop	1
 268:	9600                	.2byte	0x9600
 26a:	0005                	c.nop	1
 26c:	0100                	add	s0,sp,128
 26e:	052e                	sll	a0,a0,0xb
 270:	0000                	unimp
 272:	05ad                	add	a1,a1,11
 274:	0000                	unimp
 276:	3a01                	jal	fffffb86 <_stack_start+0xffffbb86>
 278:	0005                	c.nop	1
 27a:	c400                	sw	s0,8(s0)
 27c:	0005                	c.nop	1
 27e:	0100                	add	s0,sp,128
 280:	0546                	sll	a0,a0,0x11
 282:	0000                	unimp
 284:	0608                	add	a0,sp,768
 286:	0000                	unimp
 288:	5201                	li	tp,-32
 28a:	0005                	c.nop	1
 28c:	2f00                	fld	fs0,24(a4)
 28e:	0006                	c.slli	zero,0x1
 290:	0000                	unimp
 292:	00066107          	.4byte	0x66107
 296:	6000                	flw	fs0,0(s0)
 298:	0000                	unimp
 29a:	5100                	lw	s0,32(a0)
 29c:	01000003          	lb	zero,16(zero) # 10 <main-0x90>
 2a0:	0662                	sll	a2,a2,0x18
 2a2:	0000                	unimp
 2a4:	0656                	sll	a2,a2,0x15
 2a6:	0000                	unimp
 2a8:	6d01                	.2byte	0x6d01
 2aa:	0006                	c.slli	zero,0x1
 2ac:	6200                	flw	fs0,0(a2)
 2ae:	0006                	c.slli	zero,0x1
 2b0:	0700                	add	s0,sp,896
 2b2:	0678                	add	a4,sp,780
 2b4:	0000                	unimp
 2b6:	00000073          	ecall
 2ba:	02fe                	sll	t0,t0,0x1f
 2bc:	0000                	unimp
 2be:	7d01                	lui	s10,0xfffe0
 2c0:	0006                	c.slli	zero,0x1
 2c2:	9c00                	.2byte	0x9c00
 2c4:	0006                	c.slli	zero,0x1
 2c6:	0100                	add	s0,sp,128
 2c8:	0689                	add	a3,a3,2
 2ca:	0000                	unimp
 2cc:	06a8                	add	a0,sp,840
 2ce:	0000                	unimp
 2d0:	9501                	sra	a0,a0,0x20
 2d2:	0006                	c.slli	zero,0x1
 2d4:	c500                	sw	s0,8(a0)
 2d6:	0006                	c.slli	zero,0x1
 2d8:	0100                	add	s0,sp,128
 2da:	06a1                	add	a3,a3,8
 2dc:	0000                	unimp
 2de:	06dc                	add	a5,sp,836
 2e0:	0000                	unimp
 2e2:	ad01                	j	8f2 <_ntoa_long+0x136>
 2e4:	0006                	c.slli	zero,0x1
 2e6:	f300                	fsw	fs0,32(a4)
 2e8:	0006                	c.slli	zero,0x1
 2ea:	0100                	add	s0,sp,128
 2ec:	06b9                	add	a3,a3,14
 2ee:	0000                	unimp
 2f0:	0725                	add	a4,a4,9
 2f2:	0000                	unimp
 2f4:	c501                	beqz	a0,2fc <_atoi+0x8>
 2f6:	0006                	c.slli	zero,0x1
 2f8:	5700                	lw	s0,40(a4)
 2fa:	00000007          	.4byte	0x7
 2fe:	0006d20f          	.4byte	0x6d20f
 302:	9800                	.2byte	0x9800
 304:	0000                	unimp
 306:	0100                	add	s0,sp,128
 308:	000006d7          	.4byte	0x6d7
 30c:	077e                	sll	a4,a4,0x1f
 30e:	0000                	unimp
 310:	e301                	bnez	a4,310 <_atoi+0x1c>
 312:	0006                	c.slli	zero,0x1
 314:	8a00                	.2byte	0x8a00
 316:	01000007          	.4byte	0x1000007
 31a:	000006ef          	jal	a3,31a <_atoi+0x26>
 31e:	000007c3          	fmadd.s	fa5,ft0,ft0,ft0,rne
 322:	fb01                	bnez	a4,232 <_out_fct+0x52>
 324:	0006                	c.slli	zero,0x1
 326:	cf00                	sw	s0,24(a4)
 328:	01000007          	.4byte	0x1000007
 32c:	00000707          	.4byte	0x707
 330:	000007db          	.4byte	0x7db
 334:	1301                	add	t1,t1,-32
 336:	27000007          	.4byte	0x27000007
 33a:	0008                	.2byte	0x8
 33c:	0100                	add	s0,sp,128
 33e:	071f 0000 0833      	.byte	0x1f, 0x07, 0x00, 0x00, 0x33, 0x08
 344:	0000                	unimp
 346:	2b01                	jal	856 <_ntoa_long+0x9a>
 348:	5d000007          	.4byte	0x5d000007
 34c:	0008                	.2byte	0x8
 34e:	0000                	unimp
 350:	0700                	add	s0,sp,896
 352:	055f 0000 00c6      	.byte	0x5f, 0x05, 0x00, 0x00, 0xc6, 0x00
 358:	0000                	unimp
 35a:	0371                	add	t1,t1,28
 35c:	0000                	unimp
 35e:	6401                	.2byte	0x6401
 360:	0005                	c.nop	1
 362:	6900                	flw	fs0,16(a0)
 364:	0008                	.2byte	0x8
 366:	0100                	add	s0,sp,128
 368:	0570                	add	a2,sp,652
 36a:	0000                	unimp
 36c:	0880                	add	s0,sp,80
 36e:	0000                	unimp
 370:	0e00                	add	s0,sp,784
 372:	000005d7          	.4byte	0x5d7
 376:	2ff0                	fld	fa2,216(a5)
 378:	0000                	unimp
 37a:	0072                	c.slli	zero,0x1c
 37c:	0000                	unimp
 37e:	03c2                	sll	t2,t2,0x10
 380:	0000                	unimp
 382:	dc01                	beqz	s0,29a <_strnlen_s+0x5a>
 384:	0005                	c.nop	1
 386:	8c00                	.2byte	0x8c00
 388:	0008                	.2byte	0x8
 38a:	0100                	add	s0,sp,128
 38c:	05e8                	add	a0,sp,716
 38e:	0000                	unimp
 390:	0898                	add	a4,sp,80
 392:	0000                	unimp
 394:	f401                	bnez	s0,29c <_strnlen_s+0x5c>
 396:	0005                	c.nop	1
 398:	a400                	fsd	fs0,8(s0)
 39a:	0008                	.2byte	0x8
 39c:	0100                	add	s0,sp,128
 39e:	0600                	add	s0,sp,768
 3a0:	0000                	unimp
 3a2:	000008bb          	.4byte	0x8bb
 3a6:	0c01                	add	s8,s8,0 # fffe0000 <_stack_start+0xfffdc000>
 3a8:	0006                	c.slli	zero,0x1
 3aa:	d200                	sw	s0,32(a2)
 3ac:	0008                	.2byte	0x8
 3ae:	0100                	add	s0,sp,128
 3b0:	0618                	add	a4,sp,768
 3b2:	0000                	unimp
 3b4:	0904                	add	s1,sp,144
 3b6:	0000                	unimp
 3b8:	2401                	jal	5b8 <_ntoa_format+0xf8>
 3ba:	0006                	c.slli	zero,0x1
 3bc:	2b00                	fld	fs0,16(a4)
 3be:	0009                	c.nop	2
 3c0:	0000                	unimp
 3c2:	00057d07          	.4byte	0x57d07
 3c6:	e200                	fsw	fs0,0(a2)
 3c8:	0000                	unimp
 3ca:	0f00                	add	s0,sp,912
 3cc:	0004                	.2byte	0x4
 3ce:	0100                	add	s0,sp,128
 3d0:	0582                	c.slli64	a1
 3d2:	0000                	unimp
 3d4:	0952                	sll	s2,s2,0x14
 3d6:	0000                	unimp
 3d8:	8e01                	sub	a2,a2,s0
 3da:	0005                	c.nop	1
 3dc:	5e00                	lw	s0,56(a2)
 3de:	0009                	c.nop	2
 3e0:	0100                	add	s0,sp,128
 3e2:	059a                	sll	a1,a1,0x6
 3e4:	0000                	unimp
 3e6:	0000097b          	.4byte	0x97b
 3ea:	a601                	j	6ea <_ntoa_format+0x22a>
 3ec:	0005                	c.nop	1
 3ee:	9200                	.2byte	0x9200
 3f0:	0009                	c.nop	2
 3f2:	0100                	add	s0,sp,128
 3f4:	05b2                	sll	a1,a1,0xc
 3f6:	0000                	unimp
 3f8:	09a9                	add	s3,s3,10
 3fa:	0000                	unimp
 3fc:	be01                	j	ffffff0c <_stack_start+0xffffbf0c>
 3fe:	0005                	c.nop	1
 400:	db00                	sw	s0,48(a4)
 402:	0009                	c.nop	2
 404:	0100                	add	s0,sp,128
 406:	05ca                	sll	a1,a1,0x12
 408:	0000                	unimp
 40a:	0a0d                	add	s4,s4,3
 40c:	0000                	unimp
 40e:	0f00                	add	s0,sp,912
 410:	0631                	add	a2,a2,12
 412:	0000                	unimp
 414:	00fe                	sll	ra,ra,0x1f
 416:	0000                	unimp
 418:	3601                	jal	ffffff18 <_stack_start+0xffffbf18>
 41a:	0006                	c.slli	zero,0x1
 41c:	3400                	fld	fs0,40(s0)
 41e:	000a                	c.slli	zero,0x2
 420:	0100                	add	s0,sp,128
 422:	0642                	sll	a2,a2,0x10
 424:	0000                	unimp
 426:	0a40                	add	s0,sp,276
 428:	0000                	unimp
 42a:	0000                	unimp
 42c:	0000                	unimp
 42e:	de1e                	sw	t2,60(sp)
 430:	0000                	unimp
 432:	0100                	add	s0,sp,128
 434:	ab0103e3          	beq	sp,a6,fffffeda <_stack_start+0xffffbeda>
 438:	0000                	unimp
 43a:	0300                	add	s0,sp,384
 43c:	075a                	sll	a4,a4,0x16
 43e:	0000                	unimp
 440:	17006e0b          	.4byte	0x17006e0b
 444:	000000ab          	.4byte	0xab
 448:	2200640b          	.4byte	0x2200640b
 44c:	000000ab          	.4byte	0xab
 450:	0070720b          	.4byte	0x70720b
 454:	5a2e                	lw	s4,232(sp)
 456:	03000007          	.4byte	0x3000007
 45a:	6e6e                	flw	ft8,216(sp)
 45c:	e500                	fsw	fs0,8(a0)
 45e:	01311103          	lh	sp,19(sp)
 462:	0000                	unimp
 464:	00646403          	.4byte	0x646403
 468:	03e6                	sll	t2,t2,0x19
 46a:	3111                	jal	6e <main-0x32>
 46c:	0001                	nop
 46e:	0300                	add	s0,sp,384
 470:	7272                	flw	ft4,60(sp)
 472:	e700                	fsw	fs0,8(a4)
 474:	01240b03          	lb	s6,18(s0)
 478:	0000                	unimp
 47a:	00306403          	.4byte	0x306403
 47e:	03e8                	add	a0,sp,460
 480:	950a                	add	a0,a0,sp
 482:	0000                	unimp
 484:	0300                	add	s0,sp,384
 486:	3164                	fld	fs1,224(a0)
 488:	e800                	fsw	fs0,16(s0)
 48a:	00950e03          	lb	t3,9(a0)
 48e:	0000                	unimp
 490:	00306e03          	.4byte	0x306e03
 494:	03e8                	add	a0,sp,460
 496:	9512                	add	a0,a0,tp
 498:	0000                	unimp
 49a:	0300                	add	s0,sp,384
 49c:	316e                	fld	ft2,248(sp)
 49e:	e800                	fsw	fs0,16(s0)
 4a0:	00951603          	lh	a2,9(a0)
 4a4:	0000                	unimp
 4a6:	00326e03          	.4byte	0x326e03
 4aa:	03e8                	add	a0,sp,460
 4ac:	951a                	add	a0,a0,t1
 4ae:	0000                	unimp
 4b0:	0300                	add	s0,sp,384
 4b2:	3071                	jal	fffffd3e <_stack_start+0xffffbd3e>
 4b4:	e900                	fsw	fs0,16(a0)
 4b6:	00950a03          	lb	s4,9(a0)
 4ba:	0000                	unimp
 4bc:	00317103          	.4byte	0x317103
 4c0:	03e9                	add	t2,t2,26
 4c2:	950e                	add	a0,a0,gp
 4c4:	0000                	unimp
 4c6:	0300                	add	s0,sp,384
 4c8:	0062                	c.slli	zero,0x18
 4ca:	03ea                	sll	t2,t2,0x1a
 4cc:	950a                	add	a0,a0,sp
 4ce:	0000                	unimp
 4d0:	0300                	add	s0,sp,384
 4d2:	6d62                	flw	fs10,24(sp)
 4d4:	ea00                	fsw	fs0,16(a2)
 4d6:	00950d03          	lb	s10,9(a0)
 4da:	0000                	unimp
 4dc:	00777703          	.4byte	0x777703
 4e0:	311104b3          	.4byte	0x311104b3
 4e4:	0001                	nop
 4e6:	0500                	add	s0,sp,640
 4e8:	0505                	add	a0,a0,1
 4ea:	0000                	unimp
 4ec:	d902                	sw	zero,176(sp)
 4ee:	0000                	unimp
 4f0:	1a00                	add	s0,sp,304
 4f2:	0404                	add	s1,sp,512
 4f4:	0095                	add	ra,ra,5
 4f6:	0000                	unimp
 4f8:	615f5f03          	lhu	t5,1557(t5) # f739 <_stack_start+0xb739>
 4fc:	1a00                	add	s0,sp,304
 4fe:	0404                	add	s1,sp,512
 500:	0095                	add	ra,ra,5
 502:	0000                	unimp
 504:	0500                	add	s0,sp,640
 506:	055f 0000 2f02      	.byte	0x5f, 0x05, 0x00, 0x00, 0x02, 0x2f
 50c:	0000                	unimp
 50e:	2600                	fld	fs0,8(a2)
 510:	0404                	add	s1,sp,512
 512:	0095                	add	ra,ra,5
 514:	0000                	unimp
 516:	2a02                	fld	fs4,0(sp)
 518:	0000                	unimp
 51a:	2600                	fld	fs0,8(a2)
 51c:	0404                	add	s1,sp,512
 51e:	0095                	add	ra,ra,5
 520:	0000                	unimp
 522:	c502                	sw	zero,136(sp)
 524:	0000                	unimp
 526:	2600                	fld	fs0,8(a2)
 528:	0404                	add	s1,sp,512
 52a:	0095                	add	ra,ra,5
 52c:	0000                	unimp
 52e:	c002                	sw	zero,0(sp)
 530:	0000                	unimp
 532:	2600                	fld	fs0,8(a2)
 534:	0404                	add	s1,sp,512
 536:	0095                	add	ra,ra,5
 538:	0000                	unimp
 53a:	f102                	fsw	ft0,160(sp)
 53c:	0001                	nop
 53e:	2600                	fld	fs0,8(a2)
 540:	0404                	add	s1,sp,512
 542:	0095                	add	ra,ra,5
 544:	0000                	unimp
 546:	ec02                	fsw	ft0,24(sp)
 548:	0001                	nop
 54a:	2600                	fld	fs0,8(a2)
 54c:	0404                	add	s1,sp,512
 54e:	0095                	add	ra,ra,5
 550:	0000                	unimp
 552:	6d5f5f03          	lhu	t5,1749(t5)
 556:	2600                	fld	fs0,8(a2)
 558:	0404                	add	s1,sp,512
 55a:	0095                	add	ra,ra,5
 55c:	0000                	unimp
 55e:	0500                	add	s0,sp,640
 560:	057d                	add	a0,a0,31
 562:	0000                	unimp
 564:	d902                	sw	zero,176(sp)
 566:	0000                	unimp
 568:	3200                	fld	fs0,32(a2)
 56a:	0404                	add	s1,sp,512
 56c:	0095                	add	ra,ra,5
 56e:	0000                	unimp
 570:	615f5f03          	lhu	t5,1557(t5)
 574:	3200                	fld	fs0,32(a2)
 576:	0404                	add	s1,sp,512
 578:	0095                	add	ra,ra,5
 57a:	0000                	unimp
 57c:	0500                	add	s0,sp,640
 57e:	000005d7          	.4byte	0x5d7
 582:	2f02                	fld	ft10,0(sp)
 584:	0000                	unimp
 586:	4b00                	lw	s0,16(a4)
 588:	0804                	add	s1,sp,16
 58a:	0095                	add	ra,ra,5
 58c:	0000                	unimp
 58e:	2a02                	fld	fs4,0(sp)
 590:	0000                	unimp
 592:	4b00                	lw	s0,16(a4)
 594:	0804                	add	s1,sp,16
 596:	0095                	add	ra,ra,5
 598:	0000                	unimp
 59a:	c502                	sw	zero,136(sp)
 59c:	0000                	unimp
 59e:	4b00                	lw	s0,16(a4)
 5a0:	0804                	add	s1,sp,16
 5a2:	0095                	add	ra,ra,5
 5a4:	0000                	unimp
 5a6:	c002                	sw	zero,0(sp)
 5a8:	0000                	unimp
 5aa:	4b00                	lw	s0,16(a4)
 5ac:	0804                	add	s1,sp,16
 5ae:	0095                	add	ra,ra,5
 5b0:	0000                	unimp
 5b2:	f102                	fsw	ft0,160(sp)
 5b4:	0001                	nop
 5b6:	4b00                	lw	s0,16(a4)
 5b8:	0804                	add	s1,sp,16
 5ba:	0095                	add	ra,ra,5
 5bc:	0000                	unimp
 5be:	ec02                	fsw	ft0,24(sp)
 5c0:	0001                	nop
 5c2:	4b00                	lw	s0,16(a4)
 5c4:	0804                	add	s1,sp,16
 5c6:	0095                	add	ra,ra,5
 5c8:	0000                	unimp
 5ca:	6d5f5f03          	lhu	t5,1749(t5)
 5ce:	4b00                	lw	s0,16(a4)
 5d0:	0804                	add	s1,sp,16
 5d2:	0095                	add	ra,ra,5
 5d4:	0000                	unimp
 5d6:	0500                	add	s0,sp,640
 5d8:	0631                	add	a2,a2,12
 5da:	0000                	unimp
 5dc:	2f02                	fld	ft10,0(sp)
 5de:	0000                	unimp
 5e0:	5000                	lw	s0,32(s0)
 5e2:	0404                	add	s1,sp,512
 5e4:	0095                	add	ra,ra,5
 5e6:	0000                	unimp
 5e8:	2a02                	fld	fs4,0(sp)
 5ea:	0000                	unimp
 5ec:	5000                	lw	s0,32(s0)
 5ee:	0404                	add	s1,sp,512
 5f0:	0095                	add	ra,ra,5
 5f2:	0000                	unimp
 5f4:	c502                	sw	zero,136(sp)
 5f6:	0000                	unimp
 5f8:	5000                	lw	s0,32(s0)
 5fa:	0404                	add	s1,sp,512
 5fc:	0095                	add	ra,ra,5
 5fe:	0000                	unimp
 600:	c002                	sw	zero,0(sp)
 602:	0000                	unimp
 604:	5000                	lw	s0,32(s0)
 606:	0404                	add	s1,sp,512
 608:	0095                	add	ra,ra,5
 60a:	0000                	unimp
 60c:	f102                	fsw	ft0,160(sp)
 60e:	0001                	nop
 610:	5000                	lw	s0,32(s0)
 612:	0404                	add	s1,sp,512
 614:	0095                	add	ra,ra,5
 616:	0000                	unimp
 618:	ec02                	fsw	ft0,24(sp)
 61a:	0001                	nop
 61c:	5000                	lw	s0,32(s0)
 61e:	0404                	add	s1,sp,512
 620:	0095                	add	ra,ra,5
 622:	0000                	unimp
 624:	6d5f5f03          	lhu	t5,1749(t5)
 628:	5000                	lw	s0,32(s0)
 62a:	0404                	add	s1,sp,512
 62c:	0095                	add	ra,ra,5
 62e:	0000                	unimp
 630:	0500                	add	s0,sp,640
 632:	0000064f          	fnmadd.s	fa2,ft0,ft0,ft0,rne
 636:	d902                	sw	zero,176(sp)
 638:	0000                	unimp
 63a:	7300                	flw	fs0,32(a4)
 63c:	0404                	add	s1,sp,512
 63e:	0095                	add	ra,ra,5
 640:	0000                	unimp
 642:	615f5f03          	lhu	t5,1557(t5)
 646:	7300                	flw	fs0,32(a4)
 648:	0404                	add	s1,sp,512
 64a:	0095                	add	ra,ra,5
 64c:	0000                	unimp
 64e:	0500                	add	s0,sp,640
 650:	0661                	add	a2,a2,24
 652:	0000                	unimp
 654:	785f5f03          	lhu	t5,1925(t5)
 658:	8100                	.2byte	0x8100
 65a:	0504                	add	s1,sp,640
 65c:	0095                	add	ra,ra,5
 65e:	0000                	unimp
 660:	1000                	add	s0,sp,32
 662:	00316d03          	.4byte	0x316d03
 666:	0491                	add	s1,s1,4
 668:	0000950f          	.4byte	0x950f
 66c:	0300                	add	s0,sp,384
 66e:	306d                	jal	ffffff18 <_stack_start+0xffffbf18>
 670:	9100                	.2byte	0x9100
 672:	1304                	add	s1,sp,416
 674:	0095                	add	ra,ra,5
 676:	0000                	unimp
 678:	d205                	beqz	a2,598 <_ntoa_format+0xd8>
 67a:	0006                	c.slli	zero,0x1
 67c:	0200                	add	s0,sp,256
 67e:	0000002f          	.4byte	0x2f
 682:	049c                	add	a5,sp,576
 684:	9508                	.2byte	0x9508
 686:	0000                	unimp
 688:	0200                	add	s0,sp,256
 68a:	002a                	c.slli	zero,0xa
 68c:	0000                	unimp
 68e:	049c                	add	a5,sp,576
 690:	9508                	.2byte	0x9508
 692:	0000                	unimp
 694:	0200                	add	s0,sp,256
 696:	00c5                	add	ra,ra,17
 698:	0000                	unimp
 69a:	049c                	add	a5,sp,576
 69c:	9508                	.2byte	0x9508
 69e:	0000                	unimp
 6a0:	0200                	add	s0,sp,256
 6a2:	00c0                	add	s0,sp,68
 6a4:	0000                	unimp
 6a6:	049c                	add	a5,sp,576
 6a8:	9508                	.2byte	0x9508
 6aa:	0000                	unimp
 6ac:	0200                	add	s0,sp,256
 6ae:	01f1                	add	gp,gp,28 # 1c6 <_out_char+0x32>
 6b0:	0000                	unimp
 6b2:	049c                	add	a5,sp,576
 6b4:	9508                	.2byte	0x9508
 6b6:	0000                	unimp
 6b8:	0200                	add	s0,sp,256
 6ba:	01ec                	add	a1,sp,204
 6bc:	0000                	unimp
 6be:	049c                	add	a5,sp,576
 6c0:	9508                	.2byte	0x9508
 6c2:	0000                	unimp
 6c4:	0300                	add	s0,sp,384
 6c6:	5f5f 006d 049c      	.byte	0x5f, 0x5f, 0x6d, 0x00, 0x9c, 0x04
 6cc:	9508                	.2byte	0x9508
 6ce:	0000                	unimp
 6d0:	0000                	unimp
 6d2:	3805                	jal	ffffff02 <_stack_start+0xffffbf02>
 6d4:	02000007          	.4byte	0x2000007
 6d8:	0080                	add	s0,sp,64
 6da:	0000                	unimp
 6dc:	049d                	add	s1,s1,7
 6de:	9508                	.2byte	0x9508
 6e0:	0000                	unimp
 6e2:	0200                	add	s0,sp,256
 6e4:	0085                	add	ra,ra,1
 6e6:	0000                	unimp
 6e8:	049d                	add	s1,s1,7
 6ea:	9508                	.2byte	0x9508
 6ec:	0000                	unimp
 6ee:	0200                	add	s0,sp,256
 6f0:	008a                	sll	ra,ra,0x2
 6f2:	0000                	unimp
 6f4:	049d                	add	s1,s1,7
 6f6:	9508                	.2byte	0x9508
 6f8:	0000                	unimp
 6fa:	0200                	add	s0,sp,256
 6fc:	0000008f          	.4byte	0x8f
 700:	049d                	add	s1,s1,7
 702:	9508                	.2byte	0x9508
 704:	0000                	unimp
 706:	0200                	add	s0,sp,256
 708:	000001fb          	.4byte	0x1fb
 70c:	049d                	add	s1,s1,7
 70e:	9508                	.2byte	0x9508
 710:	0000                	unimp
 712:	0200                	add	s0,sp,256
 714:	0039                	c.nop	14
 716:	0000                	unimp
 718:	049d                	add	s1,s1,7
 71a:	9508                	.2byte	0x9508
 71c:	0000                	unimp
 71e:	0200                	add	s0,sp,256
 720:	01f6                	sll	gp,gp,0x1d
 722:	0000                	unimp
 724:	049d                	add	s1,s1,7
 726:	9508                	.2byte	0x9508
 728:	0000                	unimp
 72a:	0200                	add	s0,sp,256
 72c:	0034                	add	a3,sp,8
 72e:	0000                	unimp
 730:	049d                	add	s1,s1,7
 732:	9508                	.2byte	0x9508
 734:	0000                	unimp
 736:	0000                	unimp
 738:	4a05                	li	s4,1
 73a:	03000007          	.4byte	0x3000007
 73e:	5f5f 0078 04a2      	.byte	0x5f, 0x5f, 0x78, 0x00, 0xa2, 0x04
 744:	9505                	sra	a0,a0,0x21
 746:	0000                	unimp
 748:	0000                	unimp
 74a:	0310                	add	a2,sp,384
 74c:	5f5f 0078 04aa      	.byte	0x5f, 0x5f, 0x78, 0x00, 0xaa, 0x04
 752:	9505                	sra	a0,a0,0x21
 754:	0000                	unimp
 756:	0000                	unimp
 758:	0000                	unimp
 75a:	041f 00ab 0000      	.byte	0x1f, 0x04, 0xab, 0x00, 0x00, 0x00
 760:	b000                	fsd	fs0,32(s0)
 762:	05000007          	.4byte	0x5000007
 766:	0100                	add	s0,sp,128
 768:	a604                	fsd	fs1,8(a2)
 76a:	0001                	nop
 76c:	1100                	add	s0,sp,160
 76e:	00000107          	.4byte	0x107
 772:	951d                	sra	a0,a0,0x27
 774:	0000                	unimp
 776:	0000                	unimp
 778:	0000                	unimp
 77a:	4200                	lw	s0,0(a2)
 77c:	0032                	c.slli	zero,0xc
 77e:	2400                	fld	fs0,8(s0)
 780:	13000003          	lb	zero,304(zero) # 130 <_out_null+0x20>
 784:	04000007          	.4byte	0x4000007
 788:	0708                	add	a0,sp,896
 78a:	004c                	add	a1,sp,4
 78c:	0000                	unimp
 78e:	0404                	add	s1,sp,512
 790:	00005607          	.4byte	0x5607
 794:	1200                	add	s0,sp,288
 796:	0504                	add	s1,sp,640
 798:	6e69                	lui	t3,0x1a
 79a:	0074                	add	a3,sp,12
 79c:	0804                	add	s1,sp,16
 79e:	3e05                	jal	2ce <_is_digit+0x2a>
 7a0:	0000                	unimp
 7a2:	0400                	add	s0,sp,512
 7a4:	0410                	add	a2,sp,512
 7a6:	000000f3          	.4byte	0xf3
 7aa:	0104                	add	s1,sp,128
 7ac:	7406                	flw	fs0,96(sp)
 7ae:	0000                	unimp
 7b0:	0400                	add	s0,sp,512
 7b2:	0801                	add	a6,a6,0
 7b4:	0072                	c.slli	zero,0x1c
 7b6:	0000                	unimp
 7b8:	0204                	add	s1,sp,256
 7ba:	2005                	jal	7da <_ntoa_long+0x1e>
 7bc:	0000                	unimp
 7be:	0400                	add	s0,sp,512
 7c0:	0702                	c.slli64	a4
 7c2:	00a5                	add	ra,ra,9
 7c4:	0000                	unimp
 7c6:	0404                	add	s1,sp,512
 7c8:	4305                	li	t1,1
 7ca:	0000                	unimp
 7cc:	0400                	add	s0,sp,512
 7ce:	0704                	add	s1,sp,896
 7d0:	0051                	c.nop	20
 7d2:	0000                	unimp
 7d4:	0104                	add	s1,sp,128
 7d6:	7b08                	flw	fa0,48(a4)
 7d8:	0000                	unimp
 7da:	0700                	add	s0,sp,896
 7dc:	0094                	add	a3,sp,64
 7de:	0000                	unimp
 7e0:	0050167b          	.4byte	0x50167b
 7e4:	0000                	unimp
 7e6:	7a09                	lui	s4,0xfffe2
 7e8:	0000                	unimp
 7ea:	0700                	add	s0,sp,896
 7ec:	0001                	nop
 7ee:	0000                	unimp
 7f0:	0f80                	add	s0,sp,976
 7f2:	0034                	add	a3,sp,8
 7f4:	0000                	unimp
 7f6:	00000007          	.4byte	0x7
 7fa:	8100                	.2byte	0x8100
 7fc:	2d16                	fld	fs10,320(sp)
 7fe:	0000                	unimp
 800:	0700                	add	s0,sp,896
 802:	00b9                	add	ra,ra,14
 804:	0000                	unimp
 806:	0f84                	add	s1,sp,976
 808:	0000003b          	.4byte	0x3b
 80c:	0000b807          	fld	fa6,0(ra)
 810:	8500                	.2byte	0x8500
 812:	2616                	fld	fa2,320(sp)
 814:	0000                	unimp
 816:	0400                	add	s0,sp,512
 818:	0404                	add	s1,sp,512
 81a:	001a                	c.slli	zero,0x6
 81c:	0000                	unimp
 81e:	0804                	add	s1,sp,16
 820:	00001203          	lh	tp,0(zero) # 0 <main-0xa0>
 824:	0400                	add	s0,sp,512
 826:	0408                	add	a0,sp,512
 828:	00f8                	add	a4,sp,76
 82a:	0000                	unimp
 82c:	1004                	add	s1,sp,32
 82e:	0000ca03          	lbu	s4,0(ra)
 832:	0400                	add	s0,sp,512
 834:	0320                	add	s0,sp,392
 836:	000000eb          	.4byte	0xeb
 83a:	00009c13          	sll	s8,ra,0x0
 83e:	0800                	add	s0,sp,16
 840:	ed02                	fsw	ft0,152(sp)
 842:	0a01                	add	s4,s4,0 # fffe2000 <_stack_start+0xfffde000>
 844:	0104                	add	s1,sp,128
 846:	0000                	unimp
 848:	6c14                	flw	fa3,24(s0)
 84a:	0200776f          	jal	a4,786a <_stack_start+0x386a>
 84e:	01ed                	add	gp,gp,27
 850:	8a1a                	mv	s4,t1
 852:	0000                	unimp
 854:	0000                	unimp
 856:	6315                	lui	t1,0x5
 858:	0000                	unimp
 85a:	0200                	add	s0,sp,256
 85c:	01ed                	add	gp,gp,27
 85e:	8a1f 0000 0400      	.byte	0x1f, 0x8a, 0x00, 0x00, 0x00, 0x04
 864:	1600                	add	s0,sp,800
 866:	0208                	add	a0,sp,256
 868:	01f4                	add	a3,sp,204
 86a:	2409                	jal	a6c <_ntoa_long_long+0x168>
 86c:	0001                	nop
 86e:	0d00                	add	s0,sp,656
 870:	01f60073          	.4byte	0x1f60073
 874:	0000d913          	srl	s2,ra,0x0
 878:	0d00                	add	s0,sp,656
 87a:	6c6c                	flw	fa1,92(s0)
 87c:	f700                	fsw	fs0,40(a4)
 87e:	0a01                	add	s4,s4,0
 880:	00a0                	add	s0,sp,72
 882:	0000                	unimp
 884:	1700                	add	s0,sp,928
 886:	00ff 0000 f802 0301 	.byte	0xff, 0x00, 0x00, 0x00, 0x02, 0xf8, 0x01, 0x03, 0x04, 0x01
 88e:	0104 
 890:	0000                	unimp
 892:	2409                	jal	a94 <_ntoa_long_long+0x190>
 894:	0001                	nop
 896:	1800                	add	s0,sp,48
 898:	0085                	add	ra,ra,1
 89a:	0000                	unimp
 89c:	0146                	sll	sp,sp,0x11
 89e:	0000                	unimp
 8a0:	2d19                	jal	eb6 <_ftoa+0x41e>
 8a2:	0000                	unimp
 8a4:	ff00                	fsw	fs0,56(a4)
 8a6:	0900                	add	s0,sp,144
 8a8:	0136                	sll	sp,sp,0xd
 8aa:	0000                	unimp
 8ac:	681a                	flw	fa6,132(sp)
 8ae:	0000                	unimp
 8b0:	0200                	add	s0,sp,256
 8b2:	0202                	c.slli64	tp
 8b4:	4616                	lw	a2,68(sp)
 8b6:	0001                	nop
 8b8:	1b00                	add	s0,sp,432
 8ba:	0200                	add	s0,sp,256
 8bc:	0000                	unimp
 8be:	0601                	add	a2,a2,0
 8c0:	0105                	add	sp,sp,1
 8c2:	000000ab          	.4byte	0xab
 8c6:	3242                	fld	ft4,48(sp)
 8c8:	0000                	unimp
 8ca:	0324                	add	s1,sp,392
 8cc:	0000                	unimp
 8ce:	9c01                	.2byte	0x9c01
 8d0:	0481                	add	s1,s1,0
 8d2:	0000                	unimp
 8d4:	750e                	flw	fa0,224(sp)
 8d6:	1400                	add	s0,sp,544
 8d8:	000000ab          	.4byte	0xab
 8dc:	0a58                	add	a4,sp,276
 8de:	0000                	unimp
 8e0:	760e                	flw	fa2,224(sp)
 8e2:	1f00                	add	s0,sp,944
 8e4:	000000ab          	.4byte	0xab
 8e8:	0af9                	add	s5,s5,30
 8ea:	0000                	unimp
 8ec:	08007703          	.4byte	0x8007703
 8f0:	0b05                	add	s6,s6,1
 8f2:	000000ab          	.4byte	0xab
 8f6:	811c                	.2byte	0x811c
 8f8:	0004                	.2byte	0x4
 8fa:	4200                	lw	s0,0(a2)
 8fc:	0032                	c.slli	zero,0xc
 8fe:	2200                	fld	fs0,0(a2)
 900:	01000003          	lb	zero,16(zero) # 10 <main-0x90>
 904:	050a                	sll	a0,a0,0x2
 906:	0a0a                	sll	s4,s4,0x2
 908:	000004a3          	sb	zero,9(zero) # 9 <main-0x97>
 90c:	0b9a                	sll	s7,s7,0x6
 90e:	0000                	unimp
 910:	9b0a                	add	s6,s6,sp
 912:	0004                	.2byte	0x4
 914:	ab00                	fsd	fs0,16(a4)
 916:	0a00000b          	.4byte	0xa00000b
 91a:	00000493          	li	s1,0
 91e:	0bec                	add	a1,sp,476
 920:	0000                	unimp
 922:	ac08                	fsd	fa0,24(s0)
 924:	0004                	.2byte	0x4
 926:	0800                	add	s0,sp,16
 928:	000004b7          	lui	s1,0x0
 92c:	c208                	sw	a0,0(a2)
 92e:	0004                	.2byte	0x4
 930:	0100                	add	s0,sp,128
 932:	04cd                	add	s1,s1,19 # 13 <main-0x8d>
 934:	0000                	unimp
 936:	0c3d                	add	s8,s8,15
 938:	0000                	unimp
 93a:	d801                	beqz	s0,84a <_ntoa_long+0x8e>
 93c:	0004                	.2byte	0x4
 93e:	9600                	.2byte	0x9600
 940:	000c                	.2byte	0xc
 942:	0100                	add	s0,sp,128
 944:	000004e3          	beqz	zero,114c <_etoa+0xd4>
 948:	0cce                	sll	s9,s9,0x13
 94a:	0000                	unimp
 94c:	ee01                	bnez	a2,964 <_ntoa_long_long+0x60>
 94e:	0004                	.2byte	0x4
 950:	2700                	fld	fs0,8(a4)
 952:	000d                	c.nop	3
 954:	0100                	add	s0,sp,128
 956:	04f9                	add	s1,s1,30
 958:	0000                	unimp
 95a:	00000db7          	lui	s11,0x0
 95e:	0401                	add	s0,s0,0
 960:	0005                	c.nop	1
 962:	ce00                	sw	s0,24(a2)
 964:	000d                	c.nop	3
 966:	0100                	add	s0,sp,128
 968:	0000050f          	.4byte	0x50f
 96c:	00000ddb          	.4byte	0xddb
 970:	1a01                	add	s4,s4,-32
 972:	0005                	c.nop	1
 974:	f400                	fsw	fs0,40(s0)
 976:	000d                	c.nop	3
 978:	0100                	add	s0,sp,128
 97a:	0524                	add	s1,sp,648
 97c:	0000                	unimp
 97e:	00000e0b          	.4byte	0xe0b
 982:	2f08                	fld	fa0,24(a4)
 984:	0005                	c.nop	1
 986:	0600                	add	s0,sp,768
 988:	053a                	sll	a0,a0,0xe
 98a:	0000                	unimp
 98c:	011d                	add	sp,sp,7
 98e:	0000                	unimp
 990:	0246                	sll	tp,tp,0x11
 992:	0000                	unimp
 994:	3f01                	jal	8a4 <_ntoa_long+0xe8>
 996:	0005                	c.nop	1
 998:	4300                	lw	s0,0(a4)
 99a:	000e                	c.slli	zero,0x3
 99c:	0100                	add	s0,sp,128
 99e:	0000054b          	fnmsub.s	fa0,ft0,ft0,ft0,rne
 9a2:	0e5a                	sll	t3,t3,0x16
 9a4:	0000                	unimp
 9a6:	0b00                	add	s0,sp,400
 9a8:	0558                	add	a4,sp,644
 9aa:	0000                	unimp
 9ac:	3290                	fld	fa2,32(a3)
 9ae:	0000                	unimp
 9b0:	003e                	c.slli	zero,0xf
 9b2:	0000                	unimp
 9b4:	00000297          	auipc	t0,0x0
 9b8:	5d01                	li	s10,-32
 9ba:	0005                	c.nop	1
 9bc:	6600                	flw	fs0,8(a2)
 9be:	000e                	c.slli	zero,0x3
 9c0:	0100                	add	s0,sp,128
 9c2:	0569                	add	a0,a0,26
 9c4:	0000                	unimp
 9c6:	0e72                	sll	t3,t3,0x1c
 9c8:	0000                	unimp
 9ca:	7501                	lui	a0,0xfffe0
 9cc:	0005                	c.nop	1
 9ce:	7e00                	flw	fs0,56(a2)
 9d0:	000e                	c.slli	zero,0x3
 9d2:	0100                	add	s0,sp,128
 9d4:	0581                	add	a1,a1,0
 9d6:	0000                	unimp
 9d8:	0e95                	add	t4,t4,5
 9da:	0000                	unimp
 9dc:	8d01                	sub	a0,a0,s0
 9de:	0005                	c.nop	1
 9e0:	b700                	fsd	fs0,40(a4)
 9e2:	000e                	c.slli	zero,0x3
 9e4:	0100                	add	s0,sp,128
 9e6:	0599                	add	a1,a1,6
 9e8:	0000                	unimp
 9ea:	00000ed3          	fadd.s	ft9,ft0,ft0,rne
 9ee:	a501                	j	fee <_ftoa+0x556>
 9f0:	0005                	c.nop	1
 9f2:	ef00                	fsw	fs0,24(a4)
 9f4:	000e                	c.slli	zero,0x3
 9f6:	0000                	unimp
 9f8:	2a06                	fld	fs4,64(sp)
 9fa:	0006                	c.slli	zero,0x1
 9fc:	3000                	fld	fs0,32(s0)
 9fe:	0001                	nop
 a00:	e400                	fsw	fs0,8(s0)
 a02:	0002                	c.slli64	zero
 a04:	0100                	add	s0,sp,128
 a06:	0000062f          	.4byte	0x62f
 a0a:	00000efb          	.4byte	0xefb
 a0e:	3b01                	jal	71e <_ntoa_format+0x25e>
 a10:	0006                	c.slli	zero,0x1
 a12:	0700                	add	s0,sp,896
 a14:	0100000f          	fence	w,unknown
 a18:	00000647          	fmsub.s	fa2,ft0,ft0,ft0,rne
 a1c:	00000f13          	li	t5,0
 a20:	5301                	li	t1,-32
 a22:	0006                	c.slli	zero,0x1
 a24:	1f00                	add	s0,sp,944
 a26:	0100000f          	fence	w,unknown
 a2a:	065f 0000 0f41      	.byte	0x5f, 0x06, 0x00, 0x00, 0x41, 0x0f
 a30:	0000                	unimp
 a32:	6b01                	.2byte	0x6b01
 a34:	0006                	c.slli	zero,0x1
 a36:	6800                	flw	fs0,16(s0)
 a38:	0100000f          	fence	w,unknown
 a3c:	00000677          	.4byte	0x677
 a40:	00000f8f          	.4byte	0xf8f
 a44:	0600                	add	s0,sp,768
 a46:	05b2                	sll	a1,a1,0xc
 a48:	0000                	unimp
 a4a:	00000143          	fmadd.s	ft2,ft0,ft0,ft0,rne
 a4e:	0304                	add	s1,sp,384
 a50:	0000                	unimp
 a52:	b701                	j	952 <_ntoa_long_long+0x4e>
 a54:	0005                	c.nop	1
 a56:	a600                	fsd	fs0,8(a2)
 a58:	0100000f          	fence	w,unknown
 a5c:	000005c3          	fmadd.s	fa1,ft0,ft0,ft0,rne
 a60:	0fbd                	add	t6,t6,15
 a62:	0000                	unimp
 a64:	0600                	add	s0,sp,768
 a66:	05d0                	add	a2,sp,708
 a68:	0000                	unimp
 a6a:	015f 0000 0351      	.byte	0x5f, 0x01, 0x00, 0x00, 0x51, 0x03
 a70:	0000                	unimp
 a72:	d501                	beqz	a0,97a <_ntoa_long_long+0x76>
 a74:	0005                	c.nop	1
 a76:	c900                	sw	s0,16(a0)
 a78:	0100000f          	fence	w,unknown
 a7c:	05e1                	add	a1,a1,24
 a7e:	0000                	unimp
 a80:	0fd5                	add	t6,t6,21
 a82:	0000                	unimp
 a84:	ed01                	bnez	a0,a9c <_ftoa+0x4>
 a86:	0005                	c.nop	1
 a88:	e100                	fsw	fs0,0(a0)
 a8a:	0100000f          	fence	w,unknown
 a8e:	05f9                	add	a1,a1,30
 a90:	0000                	unimp
 a92:	0fed                	add	t6,t6,27
 a94:	0000                	unimp
 a96:	0501                	add	a0,a0,0 # fffe0000 <_stack_start+0xfffdc000>
 a98:	0006                	c.slli	zero,0x1
 a9a:	0f00                	add	s0,sp,912
 a9c:	0010                	.2byte	0x10
 a9e:	0100                	add	s0,sp,128
 aa0:	0611                	add	a2,a2,4
 aa2:	0000                	unimp
 aa4:	1036                	c.slli	zero,0x2d
 aa6:	0000                	unimp
 aa8:	1d01                	add	s10,s10,-32 # fffdffe0 <_stack_start+0xfffdbfe0>
 aaa:	0006                	c.slli	zero,0x1
 aac:	5d00                	lw	s0,56(a0)
 aae:	0010                	.2byte	0x10
 ab0:	0000                	unimp
 ab2:	8406                	mv	s0,ra
 ab4:	0006                	c.slli	zero,0x1
 ab6:	7200                	flw	fs0,32(a2)
 ab8:	0001                	nop
 aba:	7100                	flw	fs0,32(a0)
 abc:	01000003          	lb	zero,16(zero) # 10 <main-0x90>
 ac0:	0689                	add	a3,a3,2
 ac2:	0000                	unimp
 ac4:	1074                	add	a3,sp,44
 ac6:	0000                	unimp
 ac8:	9501                	sra	a0,a0,0x20
 aca:	0006                	c.slli	zero,0x1
 acc:	8b00                	.2byte	0x8b00
 ace:	0010                	.2byte	0x10
 ad0:	0000                	unimp
 ad2:	0006a20b          	.4byte	0x6a20b
 ad6:	2600                	fld	fs0,8(a2)
 ad8:	0034                	add	a3,sp,8
 ada:	1200                	add	s0,sp,288
 adc:	0000                	unimp
 ade:	8c00                	.2byte	0x8c00
 ae0:	01000003          	lb	zero,16(zero) # 10 <main-0x90>
 ae4:	000006a7          	.4byte	0x6a7
 ae8:	00001097          	auipc	ra,0x1
 aec:	0f00                	add	s0,sp,912
 aee:	06b4                	add	a3,sp,840
 af0:	0000                	unimp
 af2:	344c                	fld	fa1,168(s0)
 af4:	0000                	unimp
 af6:	0118                	add	a4,sp,128
 af8:	0000                	unimp
 afa:	b501                	j	8fa <_ntoa_long+0x13e>
 afc:	0006                	c.slli	zero,0x1
 afe:	a300                	fsd	fs0,0(a4)
 b00:	0010                	.2byte	0x10
 b02:	0100                	add	s0,sp,128
 b04:	06c0                	add	s0,sp,836
 b06:	0000                	unimp
 b08:	000010af          	.4byte	0x10af
 b0c:	cb06                	sw	ra,148(sp)
 b0e:	0006                	c.slli	zero,0x1
 b10:	8500                	.2byte	0x8500
 b12:	0001                	nop
 b14:	f800                	fsw	fs0,48(s0)
 b16:	01000003          	lb	zero,16(zero) # 10 <main-0x90>
 b1a:	06d0                	add	a2,sp,836
 b1c:	0000                	unimp
 b1e:	10c6                	sll	ra,ra,0x31
 b20:	0000                	unimp
 b22:	dc01                	beqz	s0,a3a <_ntoa_long_long+0x136>
 b24:	0006                	c.slli	zero,0x1
 b26:	e100                	fsw	fs0,0(a0)
 b28:	0010                	.2byte	0x10
 b2a:	0100                	add	s0,sp,128
 b2c:	06e8                	add	a0,sp,844
 b2e:	0000                	unimp
 b30:	10fe                	sll	ra,ra,0x3f
 b32:	0000                	unimp
 b34:	f401                	bnez	s0,a3c <_ntoa_long_long+0x138>
 b36:	0006                	c.slli	zero,0x1
 b38:	1500                	add	s0,sp,672
 b3a:	0011                	c.nop	4
 b3c:	0100                	add	s0,sp,128
 b3e:	0700                	add	s0,sp,896
 b40:	0000                	unimp
 b42:	112c                	add	a1,sp,168
 b44:	0000                	unimp
 b46:	0c01                	add	s8,s8,0
 b48:	5e000007          	.4byte	0x5e000007
 b4c:	0011                	c.nop	4
 b4e:	0100                	add	s0,sp,128
 b50:	0718                	add	a4,sp,896
 b52:	0000                	unimp
 b54:	1190                	add	a2,sp,224
 b56:	0000                	unimp
 b58:	0600                	add	s0,sp,768
 b5a:	0725                	add	a4,a4,9
 b5c:	0000                	unimp
 b5e:	01aa                	sll	gp,gp,0xa
 b60:	0000                	unimp
 b62:	044c                	add	a1,sp,516
 b64:	0000                	unimp
 b66:	2a01                	jal	c76 <_ftoa+0x1de>
 b68:	cb000007          	.4byte	0xcb000007
 b6c:	0011                	c.nop	4
 b6e:	0100                	add	s0,sp,128
 b70:	0736                	sll	a4,a4,0xd
 b72:	0000                	unimp
 b74:	000011d7          	.4byte	0x11d7
 b78:	4201                	li	tp,0
 b7a:	f5000007          	.4byte	0xf5000007
 b7e:	0011                	c.nop	4
 b80:	0100                	add	s0,sp,128
 b82:	074e                	sll	a4,a4,0x13
 b84:	0000                	unimp
 b86:	1201                	add	tp,tp,-32 # ffffffe0 <_stack_start+0xffffbfe0>
 b88:	0000                	unimp
 b8a:	5a01                	li	s4,-32
 b8c:	0d000007          	.4byte	0xd000007
 b90:	0012                	c.slli	zero,0x4
 b92:	0100                	add	s0,sp,128
 b94:	0766                	sll	a4,a4,0x19
 b96:	0000                	unimp
 b98:	1219                	add	tp,tp,-26 # ffffffe6 <_stack_start+0xffffbfe6>
 b9a:	0000                	unimp
 b9c:	7201                	lui	tp,0xfffe0
 b9e:	45000007          	.4byte	0x45000007
 ba2:	0012                	c.slli	zero,0x4
 ba4:	1d00                	add	s0,sp,688
 ba6:	077e                	sll	a4,a4,0x1f
 ba8:	0000                	unimp
 baa:	6c01                	.2byte	0x6c01
 bac:	0b00                	add	s0,sp,400
 bae:	0000078b          	.4byte	0x78b
 bb2:	353a                	fld	fa0,424(sp)
 bb4:	0000                	unimp
 bb6:	000e                	c.slli	zero,0x3
 bb8:	0000                	unimp
 bba:	00000467          	jalr	s0,zero # 0 <main-0xa0>
 bbe:	9001                	srl	s0,s0,0x20
 bc0:	51000007          	.4byte	0x51000007
 bc4:	0012                	c.slli	zero,0x4
 bc6:	0000                	unimp
 bc8:	00079d0f          	.4byte	0x79d0f
 bcc:	4800                	lw	s0,16(s0)
 bce:	0035                	c.nop	13
 bd0:	0c00                	add	s0,sp,528
 bd2:	0000                	unimp
 bd4:	0100                	add	s0,sp,128
 bd6:	079e                	sll	a5,a5,0x7
 bd8:	0000                	unimp
 bda:	125d                	add	tp,tp,-9 # fffdfff7 <_stack_start+0xfffdbff7>
 bdc:	0000                	unimp
 bde:	0000                	unimp
 be0:	0000                	unimp
 be2:	de1e                	sw	t2,60(sp)
 be4:	0000                	unimp
 be6:	0100                	add	s0,sp,128
 be8:	ab0103e3          	beq	sp,a6,68e <_ntoa_format+0x1ce>
 bec:	0000                	unimp
 bee:	0300                	add	s0,sp,384
 bf0:	07ad                	add	a5,a5,11
 bf2:	0000                	unimp
 bf4:	6e0c                	flw	fa1,24(a2)
 bf6:	1700                	add	s0,sp,928
 bf8:	000000ab          	.4byte	0xab
 bfc:	640c                	flw	fa1,8(s0)
 bfe:	2200                	fld	fs0,0(a2)
 c00:	000000ab          	.4byte	0xab
 c04:	720c                	flw	fa1,32(a2)
 c06:	0070                	add	a2,sp,12
 c08:	ad2e                	fsd	fa1,152(sp)
 c0a:	03000007          	.4byte	0x3000007
 c0e:	6e6e                	flw	ft8,216(sp)
 c10:	e500                	fsw	fs0,8(a0)
 c12:	01311103          	lh	sp,19(sp)
 c16:	0000                	unimp
 c18:	00646403          	.4byte	0x646403
 c1c:	03e6                	sll	t2,t2,0x19
 c1e:	3111                	jal	822 <_ntoa_long+0x66>
 c20:	0001                	nop
 c22:	0300                	add	s0,sp,384
 c24:	7272                	flw	ft4,60(sp)
 c26:	e700                	fsw	fs0,8(a4)
 c28:	01240b03          	lb	s6,18(s0)
 c2c:	0000                	unimp
 c2e:	00306403          	.4byte	0x306403
 c32:	03e8                	add	a0,sp,460
 c34:	950a                	add	a0,a0,sp
 c36:	0000                	unimp
 c38:	0300                	add	s0,sp,384
 c3a:	3164                	fld	fs1,224(a0)
 c3c:	e800                	fsw	fs0,16(s0)
 c3e:	00950e03          	lb	t3,9(a0)
 c42:	0000                	unimp
 c44:	00306e03          	.4byte	0x306e03
 c48:	03e8                	add	a0,sp,460
 c4a:	9512                	add	a0,a0,tp
 c4c:	0000                	unimp
 c4e:	0300                	add	s0,sp,384
 c50:	316e                	fld	ft2,248(sp)
 c52:	e800                	fsw	fs0,16(s0)
 c54:	00951603          	lh	a2,9(a0)
 c58:	0000                	unimp
 c5a:	00326e03          	.4byte	0x326e03
 c5e:	03e8                	add	a0,sp,460
 c60:	951a                	add	a0,a0,t1
 c62:	0000                	unimp
 c64:	0300                	add	s0,sp,384
 c66:	3071                	jal	4f2 <_ntoa_format+0x32>
 c68:	e900                	fsw	fs0,16(a0)
 c6a:	00950a03          	lb	s4,9(a0)
 c6e:	0000                	unimp
 c70:	00317103          	.4byte	0x317103
 c74:	03e9                	add	t2,t2,26
 c76:	950e                	add	a0,a0,gp
 c78:	0000                	unimp
 c7a:	0300                	add	s0,sp,384
 c7c:	0062                	c.slli	zero,0x18
 c7e:	03ea                	sll	t2,t2,0x1a
 c80:	950a                	add	a0,a0,sp
 c82:	0000                	unimp
 c84:	0300                	add	s0,sp,384
 c86:	6d62                	flw	fs10,24(sp)
 c88:	ea00                	fsw	fs0,16(a2)
 c8a:	00950d03          	lb	s10,9(a0)
 c8e:	0000                	unimp
 c90:	00777703          	.4byte	0x777703
 c94:	311104b3          	.4byte	0x311104b3
 c98:	0001                	nop
 c9a:	0500                	add	s0,sp,640
 c9c:	0558                	add	a4,sp,644
 c9e:	0000                	unimp
 ca0:	d902                	sw	zero,176(sp)
 ca2:	0000                	unimp
 ca4:	1a00                	add	s0,sp,304
 ca6:	0404                	add	s1,sp,512
 ca8:	0095                	add	ra,ra,5 # 1aed <_vsnprintf+0x535>
 caa:	0000                	unimp
 cac:	615f5f03          	lhu	t5,1557(t5)
 cb0:	1a00                	add	s0,sp,304
 cb2:	0404                	add	s1,sp,512
 cb4:	0095                	add	ra,ra,5
 cb6:	0000                	unimp
 cb8:	0500                	add	s0,sp,640
 cba:	05b2                	sll	a1,a1,0xc
 cbc:	0000                	unimp
 cbe:	2f02                	fld	ft10,0(sp)
 cc0:	0000                	unimp
 cc2:	2600                	fld	fs0,8(a2)
 cc4:	0404                	add	s1,sp,512
 cc6:	0095                	add	ra,ra,5
 cc8:	0000                	unimp
 cca:	2a02                	fld	fs4,0(sp)
 ccc:	0000                	unimp
 cce:	2600                	fld	fs0,8(a2)
 cd0:	0404                	add	s1,sp,512
 cd2:	0095                	add	ra,ra,5
 cd4:	0000                	unimp
 cd6:	c502                	sw	zero,136(sp)
 cd8:	0000                	unimp
 cda:	2600                	fld	fs0,8(a2)
 cdc:	0404                	add	s1,sp,512
 cde:	0095                	add	ra,ra,5
 ce0:	0000                	unimp
 ce2:	c002                	sw	zero,0(sp)
 ce4:	0000                	unimp
 ce6:	2600                	fld	fs0,8(a2)
 ce8:	0404                	add	s1,sp,512
 cea:	0095                	add	ra,ra,5
 cec:	0000                	unimp
 cee:	f102                	fsw	ft0,160(sp)
 cf0:	0001                	nop
 cf2:	2600                	fld	fs0,8(a2)
 cf4:	0404                	add	s1,sp,512
 cf6:	0095                	add	ra,ra,5
 cf8:	0000                	unimp
 cfa:	ec02                	fsw	ft0,24(sp)
 cfc:	0001                	nop
 cfe:	2600                	fld	fs0,8(a2)
 d00:	0404                	add	s1,sp,512
 d02:	0095                	add	ra,ra,5
 d04:	0000                	unimp
 d06:	6d5f5f03          	lhu	t5,1749(t5)
 d0a:	2600                	fld	fs0,8(a2)
 d0c:	0404                	add	s1,sp,512
 d0e:	0095                	add	ra,ra,5
 d10:	0000                	unimp
 d12:	0500                	add	s0,sp,640
 d14:	05d0                	add	a2,sp,708
 d16:	0000                	unimp
 d18:	d902                	sw	zero,176(sp)
 d1a:	0000                	unimp
 d1c:	3200                	fld	fs0,32(a2)
 d1e:	0404                	add	s1,sp,512
 d20:	0095                	add	ra,ra,5
 d22:	0000                	unimp
 d24:	615f5f03          	lhu	t5,1557(t5)
 d28:	3200                	fld	fs0,32(a2)
 d2a:	0404                	add	s1,sp,512
 d2c:	0095                	add	ra,ra,5
 d2e:	0000                	unimp
 d30:	0500                	add	s0,sp,640
 d32:	062a                	sll	a2,a2,0xa
 d34:	0000                	unimp
 d36:	2f02                	fld	ft10,0(sp)
 d38:	0000                	unimp
 d3a:	4b00                	lw	s0,16(a4)
 d3c:	0804                	add	s1,sp,16
 d3e:	0095                	add	ra,ra,5
 d40:	0000                	unimp
 d42:	2a02                	fld	fs4,0(sp)
 d44:	0000                	unimp
 d46:	4b00                	lw	s0,16(a4)
 d48:	0804                	add	s1,sp,16
 d4a:	0095                	add	ra,ra,5
 d4c:	0000                	unimp
 d4e:	c502                	sw	zero,136(sp)
 d50:	0000                	unimp
 d52:	4b00                	lw	s0,16(a4)
 d54:	0804                	add	s1,sp,16
 d56:	0095                	add	ra,ra,5
 d58:	0000                	unimp
 d5a:	c002                	sw	zero,0(sp)
 d5c:	0000                	unimp
 d5e:	4b00                	lw	s0,16(a4)
 d60:	0804                	add	s1,sp,16
 d62:	0095                	add	ra,ra,5
 d64:	0000                	unimp
 d66:	f102                	fsw	ft0,160(sp)
 d68:	0001                	nop
 d6a:	4b00                	lw	s0,16(a4)
 d6c:	0804                	add	s1,sp,16
 d6e:	0095                	add	ra,ra,5
 d70:	0000                	unimp
 d72:	ec02                	fsw	ft0,24(sp)
 d74:	0001                	nop
 d76:	4b00                	lw	s0,16(a4)
 d78:	0804                	add	s1,sp,16
 d7a:	0095                	add	ra,ra,5
 d7c:	0000                	unimp
 d7e:	6d5f5f03          	lhu	t5,1749(t5)
 d82:	4b00                	lw	s0,16(a4)
 d84:	0804                	add	s1,sp,16
 d86:	0095                	add	ra,ra,5
 d88:	0000                	unimp
 d8a:	0500                	add	s0,sp,640
 d8c:	0684                	add	s1,sp,832
 d8e:	0000                	unimp
 d90:	2f02                	fld	ft10,0(sp)
 d92:	0000                	unimp
 d94:	5000                	lw	s0,32(s0)
 d96:	0404                	add	s1,sp,512
 d98:	0095                	add	ra,ra,5
 d9a:	0000                	unimp
 d9c:	2a02                	fld	fs4,0(sp)
 d9e:	0000                	unimp
 da0:	5000                	lw	s0,32(s0)
 da2:	0404                	add	s1,sp,512
 da4:	0095                	add	ra,ra,5
 da6:	0000                	unimp
 da8:	c502                	sw	zero,136(sp)
 daa:	0000                	unimp
 dac:	5000                	lw	s0,32(s0)
 dae:	0404                	add	s1,sp,512
 db0:	0095                	add	ra,ra,5
 db2:	0000                	unimp
 db4:	c002                	sw	zero,0(sp)
 db6:	0000                	unimp
 db8:	5000                	lw	s0,32(s0)
 dba:	0404                	add	s1,sp,512
 dbc:	0095                	add	ra,ra,5
 dbe:	0000                	unimp
 dc0:	f102                	fsw	ft0,160(sp)
 dc2:	0001                	nop
 dc4:	5000                	lw	s0,32(s0)
 dc6:	0404                	add	s1,sp,512
 dc8:	0095                	add	ra,ra,5
 dca:	0000                	unimp
 dcc:	ec02                	fsw	ft0,24(sp)
 dce:	0001                	nop
 dd0:	5000                	lw	s0,32(s0)
 dd2:	0404                	add	s1,sp,512
 dd4:	0095                	add	ra,ra,5
 dd6:	0000                	unimp
 dd8:	6d5f5f03          	lhu	t5,1749(t5)
 ddc:	5000                	lw	s0,32(s0)
 dde:	0404                	add	s1,sp,512
 de0:	0095                	add	ra,ra,5
 de2:	0000                	unimp
 de4:	0500                	add	s0,sp,640
 de6:	06a2                	sll	a3,a3,0x8
 de8:	0000                	unimp
 dea:	d902                	sw	zero,176(sp)
 dec:	0000                	unimp
 dee:	7300                	flw	fs0,32(a4)
 df0:	0404                	add	s1,sp,512
 df2:	0095                	add	ra,ra,5
 df4:	0000                	unimp
 df6:	615f5f03          	lhu	t5,1557(t5)
 dfa:	7300                	flw	fs0,32(a4)
 dfc:	0404                	add	s1,sp,512
 dfe:	0095                	add	ra,ra,5
 e00:	0000                	unimp
 e02:	0500                	add	s0,sp,640
 e04:	06b4                	add	a3,sp,840
 e06:	0000                	unimp
 e08:	785f5f03          	lhu	t5,1925(t5)
 e0c:	8100                	.2byte	0x8100
 e0e:	0504                	add	s1,sp,640
 e10:	0095                	add	ra,ra,5
 e12:	0000                	unimp
 e14:	1000                	add	s0,sp,32
 e16:	00316d03          	.4byte	0x316d03
 e1a:	0491                	add	s1,s1,4
 e1c:	0000950f          	.4byte	0x950f
 e20:	0300                	add	s0,sp,384
 e22:	306d                	jal	6cc <_ntoa_format+0x20c>
 e24:	9100                	.2byte	0x9100
 e26:	1304                	add	s1,sp,416
 e28:	0095                	add	ra,ra,5
 e2a:	0000                	unimp
 e2c:	2505                	jal	144c <_etoa+0x3d4>
 e2e:	02000007          	.4byte	0x2000007
 e32:	0000002f          	.4byte	0x2f
 e36:	049c                	add	a5,sp,576
 e38:	9508                	.2byte	0x9508
 e3a:	0000                	unimp
 e3c:	0200                	add	s0,sp,256
 e3e:	002a                	c.slli	zero,0xa
 e40:	0000                	unimp
 e42:	049c                	add	a5,sp,576
 e44:	9508                	.2byte	0x9508
 e46:	0000                	unimp
 e48:	0200                	add	s0,sp,256
 e4a:	00c5                	add	ra,ra,17
 e4c:	0000                	unimp
 e4e:	049c                	add	a5,sp,576
 e50:	9508                	.2byte	0x9508
 e52:	0000                	unimp
 e54:	0200                	add	s0,sp,256
 e56:	00c0                	add	s0,sp,68
 e58:	0000                	unimp
 e5a:	049c                	add	a5,sp,576
 e5c:	9508                	.2byte	0x9508
 e5e:	0000                	unimp
 e60:	0200                	add	s0,sp,256
 e62:	01f1                	add	gp,gp,28
 e64:	0000                	unimp
 e66:	049c                	add	a5,sp,576
 e68:	9508                	.2byte	0x9508
 e6a:	0000                	unimp
 e6c:	0200                	add	s0,sp,256
 e6e:	01ec                	add	a1,sp,204
 e70:	0000                	unimp
 e72:	049c                	add	a5,sp,576
 e74:	9508                	.2byte	0x9508
 e76:	0000                	unimp
 e78:	0300                	add	s0,sp,384
 e7a:	5f5f 006d 049c      	.byte	0x5f, 0x5f, 0x6d, 0x00, 0x9c, 0x04
 e80:	9508                	.2byte	0x9508
 e82:	0000                	unimp
 e84:	0000                	unimp
 e86:	8b05                	and	a4,a4,1
 e88:	02000007          	.4byte	0x2000007
 e8c:	0080                	add	s0,sp,64
 e8e:	0000                	unimp
 e90:	049d                	add	s1,s1,7
 e92:	9508                	.2byte	0x9508
 e94:	0000                	unimp
 e96:	0200                	add	s0,sp,256
 e98:	0085                	add	ra,ra,1
 e9a:	0000                	unimp
 e9c:	049d                	add	s1,s1,7
 e9e:	9508                	.2byte	0x9508
 ea0:	0000                	unimp
 ea2:	0200                	add	s0,sp,256
 ea4:	008a                	sll	ra,ra,0x2
 ea6:	0000                	unimp
 ea8:	049d                	add	s1,s1,7
 eaa:	9508                	.2byte	0x9508
 eac:	0000                	unimp
 eae:	0200                	add	s0,sp,256
 eb0:	0000008f          	.4byte	0x8f
 eb4:	049d                	add	s1,s1,7
 eb6:	9508                	.2byte	0x9508
 eb8:	0000                	unimp
 eba:	0200                	add	s0,sp,256
 ebc:	000001fb          	.4byte	0x1fb
 ec0:	049d                	add	s1,s1,7
 ec2:	9508                	.2byte	0x9508
 ec4:	0000                	unimp
 ec6:	0200                	add	s0,sp,256
 ec8:	0039                	c.nop	14
 eca:	0000                	unimp
 ecc:	049d                	add	s1,s1,7
 ece:	9508                	.2byte	0x9508
 ed0:	0000                	unimp
 ed2:	0200                	add	s0,sp,256
 ed4:	01f6                	sll	gp,gp,0x1d
 ed6:	0000                	unimp
 ed8:	049d                	add	s1,s1,7
 eda:	9508                	.2byte	0x9508
 edc:	0000                	unimp
 ede:	0200                	add	s0,sp,256
 ee0:	0034                	add	a3,sp,8
 ee2:	0000                	unimp
 ee4:	049d                	add	s1,s1,7
 ee6:	9508                	.2byte	0x9508
 ee8:	0000                	unimp
 eea:	0000                	unimp
 eec:	9d05                	.2byte	0x9d05
 eee:	03000007          	.4byte	0x3000007
 ef2:	5f5f 0078 04a2      	.byte	0x5f, 0x5f, 0x78, 0x00, 0xa2, 0x04
 ef8:	9505                	sra	a0,a0,0x21
 efa:	0000                	unimp
 efc:	0000                	unimp
 efe:	0310                	add	a2,sp,384
 f00:	5f5f 0078 04aa      	.byte	0x5f, 0x5f, 0x78, 0x00, 0xaa, 0x04
 f06:	9505                	sra	a0,a0,0x21
 f08:	0000                	unimp
 f0a:	0000                	unimp
 f0c:	0000                	unimp
 f0e:	041f 00ab 0000      	.byte	0x1f, 0x04, 0xab, 0x00, 0x00, 0x00
 f14:	d400                	sw	s0,40(s0)
 f16:	0000                	unimp
 f18:	0500                	add	s0,sp,640
 f1a:	0100                	add	s0,sp,128
 f1c:	5004                	lw	s1,32(s0)
 f1e:	03000003          	lb	zero,48(zero) # 30 <main-0x70>
 f22:	020a                	sll	tp,tp,0x2
 f24:	0000                	unimp
 f26:	951d                	sra	a0,a0,0x27
 f28:	0000                	unimp
 f2a:	0000                	unimp
 f2c:	0000                	unimp
 f2e:	a000                	fsd	fs0,0(s0)
 f30:	000e                	c.slli	zero,0x3
 f32:	0400                	add	s0,sp,512
 f34:	0504                	add	s1,sp,640
 f36:	6e69                	lui	t3,0x1a
 f38:	0074                	add	a3,sp,12
 f3a:	0401                	add	s0,s0,0
 f3c:	00005607          	.4byte	0x5607
 f40:	0100                	add	s0,sp,128
 f42:	0508                	add	a0,sp,640
 f44:	003e                	c.slli	zero,0xf
 f46:	0000                	unimp
 f48:	1001                	c.nop	-32
 f4a:	f304                	fsw	fs1,32(a4)
 f4c:	0000                	unimp
 f4e:	0100                	add	s0,sp,128
 f50:	0601                	add	a2,a2,0
 f52:	0074                	add	a3,sp,12
 f54:	0000                	unimp
 f56:	0101                	add	sp,sp,0
 f58:	7208                	flw	fa0,32(a2)
 f5a:	0000                	unimp
 f5c:	0100                	add	s0,sp,128
 f5e:	0502                	c.slli64	a0
 f60:	0020                	add	s0,sp,8
 f62:	0000                	unimp
 f64:	0201                	add	tp,tp,0 # 0 <main-0xa0>
 f66:	0000a507          	flw	fa0,0(ra)
 f6a:	0100                	add	s0,sp,128
 f6c:	0504                	add	s1,sp,640
 f6e:	00000043          	fmadd.s	ft0,ft0,ft0,ft0,rne
 f72:	0401                	add	s0,s0,0
 f74:	00005107          	.4byte	0x5107
 f78:	0100                	add	s0,sp,128
 f7a:	0708                	add	a0,sp,896
 f7c:	004c                	add	a1,sp,4
 f7e:	0000                	unimp
 f80:	0101                	add	sp,sp,0
 f82:	7b08                	flw	fa0,48(a4)
 f84:	0000                	unimp
 f86:	0500                	add	s0,sp,640
 f88:	0094                	add	a3,sp,64
 f8a:	0000                	unimp
 f8c:	7b01                	lui	s6,0xfffe0
 f8e:	4116                	lw	sp,68(sp)
 f90:	0000                	unimp
 f92:	0200                	add	s0,sp,256
 f94:	0072                	c.slli	zero,0x1c
 f96:	0000                	unimp
 f98:	0401                	add	s0,s0,0
 f9a:	1a04                	add	s1,sp,304
 f9c:	0000                	unimp
 f9e:	0100                	add	s0,sp,128
 fa0:	0308                	add	a0,sp,384
 fa2:	0012                	c.slli	zero,0x4
 fa4:	0000                	unimp
 fa6:	0801                	add	a6,a6,0
 fa8:	f804                	fsw	fs1,48(s0)
 faa:	0000                	unimp
 fac:	0100                	add	s0,sp,128
 fae:	0310                	add	a2,sp,384
 fb0:	00ca                	sll	ra,ra,0x12
 fb2:	0000                	unimp
 fb4:	2001                	jal	fb4 <_ftoa+0x51c>
 fb6:	0000eb03          	.4byte	0xeb03
 fba:	0600                	add	s0,sp,768
 fbc:	007e                	c.slli	zero,0x1f
 fbe:	0000                	unimp
 fc0:	00b6                	sll	ra,ra,0xd
 fc2:	0000                	unimp
 fc4:	00002507          	flw	fa0,0(zero) # 0 <main-0xa0>
 fc8:	ff00                	fsw	fs0,56(a4)
 fca:	0200                	add	s0,sp,256
 fcc:	00a6                	sll	ra,ra,0x9
 fce:	0000                	unimp
 fd0:	6808                	flw	fa0,16(s0)
 fd2:	0000                	unimp
 fd4:	0100                	add	s0,sp,128
 fd6:	0202                	c.slli64	tp
 fd8:	b616                	fsd	ft5,296(sp)
 fda:	0000                	unimp
 fdc:	0900                	add	s0,sp,144
 fde:	000000bb          	.4byte	0xbb
 fe2:	9e02                	jalr	t3
 fe4:	0f02                	c.slli64	t5
 fe6:	0305                	add	t1,t1,1 # 5001 <_stack_start+0x1001>
 fe8:	387c                	fld	fa5,240(s0)
 fea:	0000                	unimp
	...

Disassembly of section .debug_abbrev:

00000000 <.debug_abbrev>:
   0:	3401                	jal	fffffa00 <_stack_start+0xffffba00>
   2:	3100                	fld	fs0,32(a0)
   4:	00170213          	add	tp,a4,1
   8:	0200                	add	s0,sp,256
   a:	0034                	add	a3,sp,8
   c:	213a0e03          	lb	t3,531(s4)
  10:	3b01                	jal	fffffd20 <_stack_start+0xffffbd20>
  12:	3905                	jal	fffffc42 <_stack_start+0xffffbc42>
  14:	0013490b          	.4byte	0x13490b
  18:	0300                	add	s0,sp,384
  1a:	0034                	add	a3,sp,8
  1c:	213a0803          	lb	a6,531(s4)
  20:	3b01                	jal	fffffd30 <_stack_start+0xffffbd30>
  22:	3905                	jal	fffffc52 <_stack_start+0xffffbc52>
  24:	0013490b          	.4byte	0x13490b
  28:	0400                	add	s0,sp,512
  2a:	0024                	add	s1,sp,8
  2c:	0b3e0b0b          	.4byte	0xb3e0b0b
  30:	00000e03          	lb	t3,0(zero) # 0 <main-0xa0>
  34:	0b05                	add	s6,s6,1 # fffe0001 <_stack_start+0xfffdc001>
  36:	0101                	add	sp,sp,0
  38:	06000013          	li	zero,96
  3c:	0016                	c.slli	zero,0x5
  3e:	213a0e03          	lb	t3,531(s4)
  42:	3b02                	fld	fs6,32(sp)
  44:	490b390b          	.4byte	0x490b390b
  48:	07000013          	li	zero,112
  4c:	1331010b          	.4byte	0x1331010b
  50:	1755                	add	a4,a4,-11
  52:	1301                	add	t1,t1,-32
  54:	0000                	unimp
  56:	3408                	fld	fa0,40(s0)
  58:	3100                	fld	fs0,32(a0)
  5a:	09000013          	li	zero,144
  5e:	0026                	c.slli	zero,0x9
  60:	1349                	add	t1,t1,-14
  62:	0000                	unimp
  64:	050a                	sll	a0,a0,0x2
  66:	3100                	fld	fs0,32(a0)
  68:	00170213          	add	tp,a4,1
  6c:	0b00                	add	s0,sp,400
  6e:	0005                	c.nop	1
  70:	213a0803          	lb	a6,531(s4)
  74:	3b01                	jal	fffffd84 <_stack_start+0xffffbd84>
  76:	e321                	bnez	a4,b6 <main+0x16>
  78:	490b3907          	fld	fs2,1168(s6)
  7c:	0c000013          	li	zero,192
  80:	000d                	c.nop	3
  82:	213a0803          	lb	a6,531(s4)
  86:	3b02                	fld	fs6,32(sp)
  88:	3905                	jal	fffffcb8 <_stack_start+0xffffbcb8>
  8a:	0013490b          	.4byte	0x13490b
  8e:	0d00                	add	s0,sp,656
  90:	0005                	c.nop	1
  92:	213a0803          	lb	a6,531(s4)
  96:	3b01                	jal	fffffda6 <_stack_start+0xffffbda6>
  98:	9221                	srl	a2,a2,0x28
  9a:	390a                	fld	fs2,160(sp)
  9c:	0213490b          	.4byte	0x213490b
  a0:	0e000017          	auipc	zero,0xe000
  a4:	1331010b          	.4byte	0x1331010b
  a8:	0111                	add	sp,sp,4
  aa:	0612                	sll	a2,a2,0x4
  ac:	1301                	add	t1,t1,-32
  ae:	0000                	unimp
  b0:	31010b0f          	.4byte	0x31010b0f
  b4:	00175513          	srl	a0,a4,0x1
  b8:	1000                	add	s0,sp,32
  ba:	0000010b          	.4byte	0x10b
  be:	1111                	add	sp,sp,-28
  c0:	2501                	jal	6c0 <_ntoa_format+0x200>
  c2:	130e                	sll	t1,t1,0x23
  c4:	1b1f030b          	.4byte	0x1b1f030b
  c8:	111f 1201 1006      	.byte	0x1f, 0x11, 0x01, 0x12, 0x06, 0x10
  ce:	12000017          	auipc	zero,0x12000
  d2:	0024                	add	s1,sp,8
  d4:	0b3e0b0b          	.4byte	0xb3e0b0b
  d8:	00000803          	lb	a6,0(zero) # 0 <main-0xa0>
  dc:	03011313          	sll	t1,sp,0x30
  e0:	0b0e                	sll	s6,s6,0x3
  e2:	3b0b3a0b          	.4byte	0x3b0b3a0b
  e6:	3905                	jal	fffffd16 <_stack_start+0xffffbd16>
  e8:	0013010b          	.4byte	0x13010b
  ec:	1400                	add	s0,sp,544
  ee:	000d                	c.nop	3
  f0:	0b3a0803          	lb	a6,179(s4)
  f4:	0b39053b          	.4byte	0xb39053b
  f8:	1349                	add	t1,t1,-14
  fa:	0b38                	add	a4,sp,408
  fc:	0000                	unimp
  fe:	0d15                	add	s10,s10,5
 100:	0300                	add	s0,sp,384
 102:	3a0e                	fld	fs4,224(sp)
 104:	39053b0b          	.4byte	0x39053b0b
 108:	3813490b          	.4byte	0x3813490b
 10c:	1600000b          	.4byte	0x1600000b
 110:	0b0b0117          	auipc	sp,0xb0b0
 114:	0b3a                	sll	s6,s6,0xe
 116:	0b39053b          	.4byte	0xb39053b
 11a:	1301                	add	t1,t1,-32
 11c:	0000                	unimp
 11e:	03001617          	auipc	a2,0x3001
 122:	3a0e                	fld	fs4,224(sp)
 124:	39053b0b          	.4byte	0x39053b0b
 128:	0013490b          	.4byte	0x13490b
 12c:	1800                	add	s0,sp,48
 12e:	0101                	add	sp,sp,0 # b0b0110 <_stack_start+0xb0ac110>
 130:	1349                	add	t1,t1,-14
 132:	1301                	add	t1,t1,-32
 134:	0000                	unimp
 136:	2119                	jal	53c <_ntoa_format+0x7c>
 138:	4900                	lw	s0,16(a0)
 13a:	000b2f13          	slti	t5,s6,0
 13e:	1a00                	add	s0,sp,304
 140:	0034                	add	a3,sp,8
 142:	0b3a0e03          	lb	t3,179(s4)
 146:	0b39053b          	.4byte	0xb39053b
 14a:	1349                	add	t1,t1,-14
 14c:	193c193f 2e1b0000 	.8byte	0x2e1b0000193c193f
 154:	3f01                	jal	64 <main-0x3c>
 156:	0319                	add	t1,t1,6
 158:	3a0e                	fld	fs4,224(sp)
 15a:	39053b0b          	.4byte	0x39053b0b
 15e:	4919270b          	.4byte	0x4919270b
 162:	12011113          	.4byte	0x12011113
 166:	4006                	.2byte	0x4006
 168:	7a18                	flw	fa4,48(a2)
 16a:	0119                	add	sp,sp,6
 16c:	1c000013          	li	zero,448
 170:	011d                	add	sp,sp,7
 172:	1331                	add	t1,t1,-20
 174:	0152                	sll	sp,sp,0x14
 176:	1755                	add	a4,a4,-11
 178:	0b58                	add	a4,sp,404
 17a:	0559                	add	a0,a0,22
 17c:	00000b57          	.4byte	0xb57
 180:	0b1d                	add	s6,s6,7
 182:	5501                	li	a0,-32
 184:	1e000017          	auipc	zero,0x1e000
 188:	012e                	sll	sp,sp,0xb
 18a:	0b3a0e03          	lb	t3,179(s4)
 18e:	0b39053b          	.4byte	0xb39053b
 192:	13491927          	.4byte	0x13491927
 196:	0b20                	add	s0,sp,408
 198:	1301                	add	t1,t1,-32
 19a:	0000                	unimp
 19c:	0f1f 0b00 490b      	.byte	0x1f, 0x0f, 0x00, 0x0b, 0x0b, 0x49
 1a2:	00000013          	nop
 1a6:	3401                	jal	fffffba6 <_stack_start+0xffffbba6>
 1a8:	3100                	fld	fs0,32(a0)
 1aa:	00170213          	add	tp,a4,1
 1ae:	0200                	add	s0,sp,256
 1b0:	0034                	add	a3,sp,8
 1b2:	213a0e03          	lb	t3,531(s4)
 1b6:	3b01                	jal	fffffec6 <_stack_start+0xffffbec6>
 1b8:	3905                	jal	fffffde8 <_stack_start+0xffffbde8>
 1ba:	0013490b          	.4byte	0x13490b
 1be:	0300                	add	s0,sp,384
 1c0:	0034                	add	a3,sp,8
 1c2:	213a0803          	lb	a6,531(s4)
 1c6:	3b01                	jal	fffffed6 <_stack_start+0xffffbed6>
 1c8:	3905                	jal	fffffdf8 <_stack_start+0xffffbdf8>
 1ca:	0013490b          	.4byte	0x13490b
 1ce:	0400                	add	s0,sp,512
 1d0:	0024                	add	s1,sp,8
 1d2:	0b3e0b0b          	.4byte	0xb3e0b0b
 1d6:	00000e03          	lb	t3,0(zero) # 0 <main-0xa0>
 1da:	0b05                	add	s6,s6,1
 1dc:	0101                	add	sp,sp,0
 1de:	06000013          	li	zero,96
 1e2:	1331010b          	.4byte	0x1331010b
 1e6:	1755                	add	a4,a4,-11
 1e8:	1301                	add	t1,t1,-32
 1ea:	0000                	unimp
 1ec:	03001607          	.4byte	0x3001607
 1f0:	3a0e                	fld	fs4,224(sp)
 1f2:	0221                	add	tp,tp,8 # 8 <main-0x98>
 1f4:	0b390b3b          	.4byte	0xb390b3b
 1f8:	1349                	add	t1,t1,-14
 1fa:	0000                	unimp
 1fc:	3408                	fld	fa0,40(s0)
 1fe:	3100                	fld	fs0,32(a0)
 200:	09000013          	li	zero,144
 204:	0026                	c.slli	zero,0x9
 206:	1349                	add	t1,t1,-14
 208:	0000                	unimp
 20a:	050a                	sll	a0,a0,0x2
 20c:	3100                	fld	fs0,32(a0)
 20e:	00170213          	add	tp,a4,1
 212:	0b00                	add	s0,sp,400
 214:	1331010b          	.4byte	0x1331010b
 218:	0111                	add	sp,sp,4
 21a:	0612                	sll	a2,a2,0x4
 21c:	1301                	add	t1,t1,-32
 21e:	0000                	unimp
 220:	050c                	add	a1,sp,640
 222:	0300                	add	s0,sp,384
 224:	3a08                	fld	fa0,48(a2)
 226:	0121                	add	sp,sp,8
 228:	07e3213b          	.4byte	0x7e3213b
 22c:	0b39                	add	s6,s6,14
 22e:	1349                	add	t1,t1,-14
 230:	0000                	unimp
 232:	0d0d                	add	s10,s10,3
 234:	0300                	add	s0,sp,384
 236:	3a08                	fld	fa0,48(a2)
 238:	0221                	add	tp,tp,8 # 8 <main-0x98>
 23a:	0b39053b          	.4byte	0xb39053b
 23e:	1349                	add	t1,t1,-14
 240:	0000                	unimp
 242:	050e                	sll	a0,a0,0x3
 244:	0300                	add	s0,sp,384
 246:	3a08                	fld	fa0,48(a2)
 248:	0121                	add	sp,sp,8
 24a:	0a86213b          	.4byte	0xa86213b
 24e:	0b39                	add	s6,s6,14
 250:	1349                	add	t1,t1,-14
 252:	1702                	sll	a4,a4,0x20
 254:	0000                	unimp
 256:	31010b0f          	.4byte	0x31010b0f
 25a:	12011113          	.4byte	0x12011113
 25e:	0006                	c.slli	zero,0x1
 260:	1000                	add	s0,sp,32
 262:	0000010b          	.4byte	0x10b
 266:	1111                	add	sp,sp,-28
 268:	2501                	jal	868 <_ntoa_long+0xac>
 26a:	130e                	sll	t1,t1,0x23
 26c:	1b1f030b          	.4byte	0x1b1f030b
 270:	111f 1201 1006      	.byte	0x1f, 0x11, 0x01, 0x12, 0x06, 0x10
 276:	12000017          	auipc	zero,0x12000
 27a:	0024                	add	s1,sp,8
 27c:	0b3e0b0b          	.4byte	0xb3e0b0b
 280:	00000803          	lb	a6,0(zero) # 0 <main-0xa0>
 284:	03011313          	sll	t1,sp,0x30
 288:	0b0e                	sll	s6,s6,0x3
 28a:	3b0b3a0b          	.4byte	0x3b0b3a0b
 28e:	3905                	jal	fffffebe <_stack_start+0xffffbebe>
 290:	0013010b          	.4byte	0x13010b
 294:	1400                	add	s0,sp,544
 296:	000d                	c.nop	3
 298:	0b3a0803          	lb	a6,179(s4)
 29c:	0b39053b          	.4byte	0xb39053b
 2a0:	1349                	add	t1,t1,-14
 2a2:	0b38                	add	a4,sp,408
 2a4:	0000                	unimp
 2a6:	0d15                	add	s10,s10,5
 2a8:	0300                	add	s0,sp,384
 2aa:	3a0e                	fld	fs4,224(sp)
 2ac:	39053b0b          	.4byte	0x39053b0b
 2b0:	3813490b          	.4byte	0x3813490b
 2b4:	1600000b          	.4byte	0x1600000b
 2b8:	0b0b0117          	auipc	sp,0xb0b0
 2bc:	0b3a                	sll	s6,s6,0xe
 2be:	0b39053b          	.4byte	0xb39053b
 2c2:	1301                	add	t1,t1,-32
 2c4:	0000                	unimp
 2c6:	03001617          	auipc	a2,0x3001
 2ca:	3a0e                	fld	fs4,224(sp)
 2cc:	39053b0b          	.4byte	0x39053b0b
 2d0:	0013490b          	.4byte	0x13490b
 2d4:	1800                	add	s0,sp,48
 2d6:	0101                	add	sp,sp,0 # b0b02b8 <_stack_start+0xb0ac2b8>
 2d8:	1349                	add	t1,t1,-14
 2da:	1301                	add	t1,t1,-32
 2dc:	0000                	unimp
 2de:	2119                	jal	6e4 <_ntoa_format+0x224>
 2e0:	4900                	lw	s0,16(a0)
 2e2:	000b2f13          	slti	t5,s6,0
 2e6:	1a00                	add	s0,sp,304
 2e8:	0034                	add	a3,sp,8
 2ea:	0b3a0e03          	lb	t3,179(s4)
 2ee:	0b39053b          	.4byte	0xb39053b
 2f2:	1349                	add	t1,t1,-14
 2f4:	193c193f 2e1b0000 	.8byte	0x2e1b0000193c193f
 2fc:	3f01                	jal	20c <_out_fct+0x2c>
 2fe:	0319                	add	t1,t1,6
 300:	3a0e                	fld	fs4,224(sp)
 302:	39053b0b          	.4byte	0x39053b0b
 306:	4919270b          	.4byte	0x4919270b
 30a:	12011113          	.4byte	0x12011113
 30e:	4006                	.2byte	0x4006
 310:	7a18                	flw	fa4,48(a2)
 312:	0119                	add	sp,sp,6
 314:	1c000013          	li	zero,448
 318:	011d                	add	sp,sp,7
 31a:	1331                	add	t1,t1,-20
 31c:	0111                	add	sp,sp,4
 31e:	0612                	sll	a2,a2,0x4
 320:	0b58                	add	a4,sp,404
 322:	0559                	add	a0,a0,22
 324:	00000b57          	.4byte	0xb57
 328:	341d                	jal	fffffd4e <_stack_start+0xffffbd4e>
 32a:	3100                	fld	fs0,32(a0)
 32c:	00180213          	add	tp,a6,1
 330:	1e00                	add	s0,sp,816
 332:	012e                	sll	sp,sp,0xb
 334:	0b3a0e03          	lb	t3,179(s4)
 338:	0b39053b          	.4byte	0xb39053b
 33c:	13491927          	.4byte	0x13491927
 340:	0b20                	add	s0,sp,408
 342:	1301                	add	t1,t1,-32
 344:	0000                	unimp
 346:	0f1f 0b00 490b      	.byte	0x1f, 0x0f, 0x00, 0x0b, 0x0b, 0x49
 34c:	00000013          	nop
 350:	2401                	jal	550 <_ntoa_format+0x90>
 352:	0b00                	add	s0,sp,400
 354:	030b3e0b          	.4byte	0x30b3e0b
 358:	000e                	c.slli	zero,0x3
 35a:	0200                	add	s0,sp,256
 35c:	0026                	c.slli	zero,0x9
 35e:	1349                	add	t1,t1,-14
 360:	0000                	unimp
 362:	25011103          	lh	sp,592(sp)
 366:	130e                	sll	t1,t1,0x23
 368:	1b1f030b          	.4byte	0x1b1f030b
 36c:	101f 0017 0400      	.byte	0x1f, 0x10, 0x17, 0x00, 0x00, 0x04
 372:	0024                	add	s1,sp,8
 374:	0b3e0b0b          	.4byte	0xb3e0b0b
 378:	00000803          	lb	a6,0(zero) # 0 <main-0xa0>
 37c:	1605                	add	a2,a2,-31 # 30012a7 <_stack_start+0x2ffd2a7>
 37e:	0300                	add	s0,sp,384
 380:	3a0e                	fld	fs4,224(sp)
 382:	390b3b0b          	.4byte	0x390b3b0b
 386:	0013490b          	.4byte	0x13490b
 38a:	0600                	add	s0,sp,768
 38c:	0101                	add	sp,sp,0
 38e:	1349                	add	t1,t1,-14
 390:	1301                	add	t1,t1,-32
 392:	0000                	unimp
 394:	49002107          	flw	ft2,1168(zero) # 490 <_out_rev+0x110>
 398:	000b2f13          	slti	t5,s6,0
 39c:	0800                	add	s0,sp,16
 39e:	0034                	add	a3,sp,8
 3a0:	0b3a0e03          	lb	t3,179(s4)
 3a4:	0b39053b          	.4byte	0xb39053b
 3a8:	1349                	add	t1,t1,-14
 3aa:	193c193f 34090000 	.8byte	0x34090000193c193f
 3b2:	4700                	lw	s0,8(a4)
 3b4:	3b0b3a13          	sltiu	s4,s6,944
 3b8:	3905                	jal	ffffffe8 <_stack_start+0xffffbfe8>
 3ba:	0018020b          	.4byte	0x18020b
	...

Disassembly of section .debug_loclists:

00000000 <.debug_loclists>:
       0:	0a48                	add	a0,sp,276
       2:	0000                	unimp
       4:	0005                	c.nop	1
       6:	0004                	.2byte	0x4
       8:	0000                	unimp
       a:	0000                	unimp
       c:	002ee807          	.4byte	0x2ee807
      10:	1000                	add	s0,sp,32
      12:	0600002f          	.4byte	0x600002f
      16:	935a                	add	t1,t1,s6
      18:	5b04                	lw	s1,48(a4)
      1a:	10070493          	add	s1,a4,256
      1e:	b000002f          	.4byte	0xb000002f
      22:	0600002f          	.4byte	0x600002f
      26:	0aa503a3          	sb	a0,167(a0)
      2a:	9f26                	add	t5,t5,s1
      2c:	002fb007          	fld	ft0,2(t6)
      30:	b400                	fsd	fs0,40(s0)
      32:	0600002f          	.4byte	0x600002f
      36:	935a                	add	t1,t1,s6
      38:	5b04                	lw	s1,48(a4)
      3a:	b4070493          	add	s1,a4,-1216
      3e:	be00002f          	.4byte	0xbe00002f
      42:	0600002f          	.4byte	0x600002f
      46:	0aa503a3          	sb	a0,167(a0)
      4a:	9f26                	add	t5,t5,s1
      4c:	002fbe07          	fld	ft8,2(t6)
      50:	f000                	fsw	fs0,32(s0)
      52:	0600002f          	.4byte	0x600002f
      56:	935a                	add	t1,t1,s6
      58:	5b04                	lw	s1,48(a4)
      5a:	f0070493          	add	s1,a4,-256
      5e:	6200002f          	.4byte	0x6200002f
      62:	0030                	add	a2,sp,8
      64:	0600                	add	s0,sp,768
      66:	0aa503a3          	sb	a0,167(a0)
      6a:	9f26                	add	t5,t5,s1
      6c:	00306207          	.4byte	0x306207
      70:	7c00                	flw	fs0,56(s0)
      72:	0030                	add	a2,sp,8
      74:	0600                	add	s0,sp,768
      76:	935a                	add	t1,t1,s6
      78:	5b04                	lw	s1,48(a4)
      7a:	7c070493          	add	s1,a4,1984
      7e:	0030                	add	a2,sp,8
      80:	fc00                	fsw	fs0,56(s0)
      82:	0030                	add	a2,sp,8
      84:	0600                	add	s0,sp,768
      86:	0aa503a3          	sb	a0,167(a0)
      8a:	9f26                	add	t5,t5,s1
      8c:	0030fc07          	.4byte	0x30fc07
      90:	3000                	fld	fs0,32(s0)
      92:	0031                	c.nop	12
      94:	0600                	add	s0,sp,768
      96:	935a                	add	t1,t1,s6
      98:	5b04                	lw	s1,48(a4)
      9a:	30070493          	add	s1,a4,768
      9e:	0031                	c.nop	12
      a0:	3e00                	fld	fs0,56(a2)
      a2:	0031                	c.nop	12
      a4:	0600                	add	s0,sp,768
      a6:	0aa503a3          	sb	a0,167(a0)
      aa:	9f26                	add	t5,t5,s1
      ac:	00313e07          	fld	ft8,3(sp)
      b0:	8600                	.2byte	0x8600
      b2:	0031                	c.nop	12
      b4:	0600                	add	s0,sp,768
      b6:	935a                	add	t1,t1,s6
      b8:	5b04                	lw	s1,48(a4)
      ba:	86070493          	add	s1,a4,-1952
      be:	0031                	c.nop	12
      c0:	3c00                	fld	fs0,56(s0)
      c2:	0032                	c.slli	zero,0xc
      c4:	0600                	add	s0,sp,768
      c6:	0aa503a3          	sb	a0,167(a0)
      ca:	9f26                	add	t5,t5,s1
      cc:	00323c07          	fld	fs8,3(tp) # 3 <main-0x9d>
      d0:	4000                	lw	s0,0(s0)
      d2:	0032                	c.slli	zero,0xc
      d4:	0600                	add	s0,sp,768
      d6:	935a                	add	t1,t1,s6
      d8:	5b04                	lw	s1,48(a4)
      da:	40070493          	add	s1,a4,1024
      de:	0032                	c.slli	zero,0xc
      e0:	4200                	lw	s0,0(a2)
      e2:	0032                	c.slli	zero,0xc
      e4:	0600                	add	s0,sp,768
      e6:	0aa503a3          	sb	a0,167(a0)
      ea:	9f26                	add	t5,t5,s1
      ec:	0700                	add	s0,sp,896
      ee:	2ee8                	fld	fa0,216(a3)
      f0:	0000                	unimp
      f2:	2f46                	fld	ft10,80(sp)
      f4:	0000                	unimp
      f6:	5c06                	lw	s8,96(sp)
      f8:	935d0493          	add	s1,s10,-1739
      fc:	0704                	add	s1,sp,896
      fe:	2f46                	fld	ft10,80(sp)
     100:	0000                	unimp
     102:	2fb0                	fld	fa2,88(a5)
     104:	0000                	unimp
     106:	a306                	fsd	ft1,384(sp)
     108:	260ca503          	lw	a0,608(s9)
     10c:	079f 2fb0 0000      	.byte	0x9f, 0x07, 0xb0, 0x2f, 0x00, 0x00
     112:	2ff0                	fld	fa2,216(a5)
     114:	0000                	unimp
     116:	5c06                	lw	s8,96(sp)
     118:	935d0493          	add	s1,s10,-1739
     11c:	0704                	add	s1,sp,896
     11e:	2ff0                	fld	fa2,216(a5)
     120:	0000                	unimp
     122:	3062                	fld	ft0,56(sp)
     124:	0000                	unimp
     126:	a306                	fsd	ft1,384(sp)
     128:	260ca503          	lw	a0,608(s9)
     12c:	079f 3062 0000      	.byte	0x9f, 0x07, 0x62, 0x30, 0x00, 0x00
     132:	3090                	fld	fa2,32(s1)
     134:	0000                	unimp
     136:	5c06                	lw	s8,96(sp)
     138:	935d0493          	add	s1,s10,-1739
     13c:	0704                	add	s1,sp,896
     13e:	3090                	fld	fa2,32(s1)
     140:	0000                	unimp
     142:	30fc                	fld	fa5,224(s1)
     144:	0000                	unimp
     146:	a306                	fsd	ft1,384(sp)
     148:	260ca503          	lw	a0,608(s9)
     14c:	079f 30fc 0000      	.byte	0x9f, 0x07, 0xfc, 0x30, 0x00, 0x00
     152:	317a                	fld	ft2,440(sp)
     154:	0000                	unimp
     156:	5c06                	lw	s8,96(sp)
     158:	935d0493          	add	s1,s10,-1739
     15c:	0704                	add	s1,sp,896
     15e:	317a                	fld	ft2,440(sp)
     160:	0000                	unimp
     162:	323c                	fld	fa5,96(a2)
     164:	0000                	unimp
     166:	a306                	fsd	ft1,384(sp)
     168:	260ca503          	lw	a0,608(s9)
     16c:	079f 323c 0000      	.byte	0x9f, 0x07, 0x3c, 0x32, 0x00, 0x00
     172:	3242                	fld	ft4,48(sp)
     174:	0000                	unimp
     176:	5c06                	lw	s8,96(sp)
     178:	935d0493          	add	s1,s10,-1739
     17c:	0004                	.2byte	0x4
     17e:	002ee807          	.4byte	0x2ee807
     182:	ae00                	fsd	fs0,24(a2)
     184:	0200002f          	.4byte	0x200002f
     188:	9f30                	.2byte	0x9f30
     18a:	002fb007          	fld	ft0,2(t6)
     18e:	4200                	lw	s0,0(a2)
     190:	0032                	c.slli	zero,0xc
     192:	0200                	add	s0,sp,256
     194:	9f30                	.2byte	0x9f30
     196:	0700                	add	s0,sp,896
     198:	2ee8                	fld	fa0,216(a3)
     19a:	0000                	unimp
     19c:	2f02                	fld	ft10,0(sp)
     19e:	0000                	unimp
     1a0:	5c06                	lw	s8,96(sp)
     1a2:	935d0493          	add	s1,s10,-1739
     1a6:	0704                	add	s1,sp,896
     1a8:	2fbe                	fld	ft11,456(sp)
     1aa:	0000                	unimp
     1ac:	2fc0                	fld	fs0,152(a5)
     1ae:	0000                	unimp
     1b0:	5c06                	lw	s8,96(sp)
     1b2:	935d0493          	add	s1,s10,-1739
     1b6:	0704                	add	s1,sp,896
     1b8:	30fc                	fld	fa5,224(s1)
     1ba:	0000                	unimp
     1bc:	3154                	fld	fa3,160(a0)
     1be:	0000                	unimp
     1c0:	5c06                	lw	s8,96(sp)
     1c2:	935d0493          	add	s1,s10,-1739
     1c6:	0704                	add	s1,sp,896
     1c8:	323c                	fld	fa5,96(a2)
     1ca:	0000                	unimp
     1cc:	3242                	fld	ft4,48(sp)
     1ce:	0000                	unimp
     1d0:	5c06                	lw	s8,96(sp)
     1d2:	935d0493          	add	s1,s10,-1739
     1d6:	0004                	.2byte	0x4
     1d8:	002ee807          	.4byte	0x2ee807
     1dc:	f800                	fsw	fs0,48(s0)
     1de:	002e                	c.slli	zero,0xb
     1e0:	0600                	add	s0,sp,768
     1e2:	935a                	add	t1,t1,s6
     1e4:	5b04                	lw	s1,48(a4)
     1e6:	f8070493          	add	s1,a4,-128
     1ea:	002e                	c.slli	zero,0xb
     1ec:	1000                	add	s0,sp,32
     1ee:	0600002f          	.4byte	0x600002f
     1f2:	935a                	add	t1,t1,s6
     1f4:	5604                	lw	s1,40(a2)
     1f6:	10070493          	add	s1,a4,256
     1fa:	3a00002f          	.4byte	0x3a00002f
     1fe:	0600002f          	.4byte	0x600002f
     202:	9360                	.2byte	0x9360
     204:	5604                	lw	s1,40(a2)
     206:	3a070493          	add	s1,a4,928
     20a:	4200002f          	.4byte	0x4200002f
     20e:	0600002f          	.4byte	0x600002f
     212:	9361                	srl	a4,a4,0x38
     214:	5604                	lw	s1,40(a2)
     216:	b0070493          	add	s1,a4,-1280
     21a:	b400002f          	.4byte	0xb400002f
     21e:	0600002f          	.4byte	0x600002f
     222:	935a                	add	t1,t1,s6
     224:	5604                	lw	s1,40(a2)
     226:	b4070493          	add	s1,a4,-1216
     22a:	be00002f          	.4byte	0xbe00002f
     22e:	0600002f          	.4byte	0x600002f
     232:	9360                	.2byte	0x9360
     234:	5604                	lw	s1,40(a2)
     236:	be070493          	add	s1,a4,-1056
     23a:	f000002f          	.4byte	0xf000002f
     23e:	0600002f          	.4byte	0x600002f
     242:	935a                	add	t1,t1,s6
     244:	5604                	lw	s1,40(a2)
     246:	62070493          	add	s1,a4,1568
     24a:	0030                	add	a2,sp,8
     24c:	7c00                	flw	fs0,56(s0)
     24e:	0030                	add	a2,sp,8
     250:	0600                	add	s0,sp,768
     252:	935a                	add	t1,t1,s6
     254:	5604                	lw	s1,40(a2)
     256:	7c070493          	add	s1,a4,1984
     25a:	0030                	add	a2,sp,8
     25c:	8000                	.2byte	0x8000
     25e:	0030                	add	a2,sp,8
     260:	0600                	add	s0,sp,768
     262:	9360                	.2byte	0x9360
     264:	5604                	lw	s1,40(a2)
     266:	fc070493          	add	s1,a4,-64
     26a:	0030                	add	a2,sp,8
     26c:	3000                	fld	fs0,32(s0)
     26e:	0031                	c.nop	12
     270:	0600                	add	s0,sp,768
     272:	935a                	add	t1,t1,s6
     274:	5604                	lw	s1,40(a2)
     276:	30070493          	add	s1,a4,768
     27a:	0031                	c.nop	12
     27c:	3e00                	fld	fs0,56(a2)
     27e:	0031                	c.nop	12
     280:	0600                	add	s0,sp,768
     282:	9360                	.2byte	0x9360
     284:	5604                	lw	s1,40(a2)
     286:	3e070493          	add	s1,a4,992
     28a:	0031                	c.nop	12
     28c:	5e00                	lw	s0,56(a2)
     28e:	0031                	c.nop	12
     290:	0600                	add	s0,sp,768
     292:	935a                	add	t1,t1,s6
     294:	5604                	lw	s1,40(a2)
     296:	3c070493          	add	s1,a4,960
     29a:	0032                	c.slli	zero,0xc
     29c:	4000                	lw	s0,0(s0)
     29e:	0032                	c.slli	zero,0xc
     2a0:	0600                	add	s0,sp,768
     2a2:	935a                	add	t1,t1,s6
     2a4:	5604                	lw	s1,40(a2)
     2a6:	40070493          	add	s1,a4,1024
     2aa:	0032                	c.slli	zero,0xc
     2ac:	4200                	lw	s0,0(a2)
     2ae:	0032                	c.slli	zero,0xc
     2b0:	0600                	add	s0,sp,768
     2b2:	9360                	.2byte	0x9360
     2b4:	5604                	lw	s1,40(a2)
     2b6:	07000493          	li	s1,112
     2ba:	2eee                	fld	ft9,216(sp)
     2bc:	0000                	unimp
     2be:	2f28                	fld	fa0,88(a4)
     2c0:	0000                	unimp
     2c2:	5c01                	li	s8,-32
     2c4:	002f2807          	flw	fa6,2(t5)
     2c8:	3400                	fld	fs0,40(s0)
     2ca:	0900002f          	.4byte	0x900002f
     2ce:	007c                	add	a5,sp,12
     2d0:	ff08007b          	.4byte	0xff08007b
     2d4:	241a                	fld	fs0,384(sp)
     2d6:	079f 2f34 0000      	.byte	0x9f, 0x07, 0x34, 0x2f, 0x00, 0x00
     2dc:	2fac                	fld	fa1,88(a5)
     2de:	0000                	unimp
     2e0:	5e01                	li	t3,-32
     2e2:	002fb007          	fld	ft0,2(t6)
     2e6:	c800                	sw	s0,16(s0)
     2e8:	0100002f          	.4byte	0x100002f
     2ec:	075c                	add	a5,sp,900
     2ee:	2ff0                	fld	fa2,216(a5)
     2f0:	0000                	unimp
     2f2:	3062                	fld	ft0,56(sp)
     2f4:	0000                	unimp
     2f6:	5e01                	li	t3,-32
     2f8:	00306207          	.4byte	0x306207
     2fc:	7000                	flw	fs0,32(s0)
     2fe:	0030                	add	a2,sp,8
     300:	0100                	add	s0,sp,128
     302:	075c                	add	a5,sp,900
     304:	3074                	fld	fa3,224(s0)
     306:	0000                	unimp
     308:	30fc                	fld	fa5,224(s1)
     30a:	0000                	unimp
     30c:	5e01                	li	t3,-32
     30e:	0030fc07          	.4byte	0x30fc07
     312:	f200                	fsw	fs0,32(a2)
     314:	0031                	c.nop	12
     316:	0100                	add	s0,sp,128
     318:	075c                	add	a5,sp,900
     31a:	323c                	fld	fa5,96(a2)
     31c:	0000                	unimp
     31e:	3242                	fld	ft4,48(sp)
     320:	0000                	unimp
     322:	5c01                	li	s8,-32
     324:	0700                	add	s0,sp,896
     326:	2eee                	fld	ft9,216(sp)
     328:	0000                	unimp
     32a:	2f02                	fld	ft10,0(sp)
     32c:	0000                	unimp
     32e:	5d01                	li	s10,-32
     330:	002fbe07          	fld	ft8,2(t6)
     334:	c000                	sw	s0,0(s0)
     336:	0100002f          	.4byte	0x100002f
     33a:	075d                	add	a4,a4,23
     33c:	30fc                	fld	fa5,224(s1)
     33e:	0000                	unimp
     340:	3154                	fld	fa3,160(a0)
     342:	0000                	unimp
     344:	5d01                	li	s10,-32
     346:	00315607          	.4byte	0x315607
     34a:	e200                	fsw	fs0,0(a2)
     34c:	0031                	c.nop	12
     34e:	0100                	add	s0,sp,128
     350:	075d                	add	a4,a4,23
     352:	323c                	fld	fa5,96(a2)
     354:	0000                	unimp
     356:	3242                	fld	ft4,48(sp)
     358:	0000                	unimp
     35a:	5d01                	li	s10,-32
     35c:	0700                	add	s0,sp,896
     35e:	2ef0                	fld	fa2,216(a3)
     360:	0000                	unimp
     362:	2f10                	fld	fa2,24(a4)
     364:	0000                	unimp
     366:	5a01                	li	s4,-32
     368:	002f1007          	.4byte	0x2f1007
     36c:	7e00                	flw	fs0,56(a2)
     36e:	0100002f          	.4byte	0x100002f
     372:	0760                	add	s0,sp,908
     374:	2fb0                	fld	fa2,88(a5)
     376:	0000                	unimp
     378:	2fb4                	fld	fa3,88(a5)
     37a:	0000                	unimp
     37c:	5a01                	li	s4,-32
     37e:	002fb407          	fld	fs0,2(t6)
     382:	be00                	fsd	fs0,56(a2)
     384:	0100002f          	.4byte	0x100002f
     388:	0760                	add	s0,sp,908
     38a:	2fbe                	fld	ft11,456(sp)
     38c:	0000                	unimp
     38e:	2ff0                	fld	fa2,216(a5)
     390:	0000                	unimp
     392:	5a01                	li	s4,-32
     394:	002ff007          	.4byte	0x2ff007
     398:	3200                	fld	fs0,32(a2)
     39a:	0030                	add	a2,sp,8
     39c:	0100                	add	s0,sp,128
     39e:	0760                	add	s0,sp,908
     3a0:	3062                	fld	ft0,56(sp)
     3a2:	0000                	unimp
     3a4:	307c                	fld	fa5,224(s0)
     3a6:	0000                	unimp
     3a8:	5a01                	li	s4,-32
     3aa:	00307c07          	.4byte	0x307c07
     3ae:	fc00                	fsw	fs0,56(s0)
     3b0:	0030                	add	a2,sp,8
     3b2:	0100                	add	s0,sp,128
     3b4:	0760                	add	s0,sp,908
     3b6:	30fc                	fld	fa5,224(s1)
     3b8:	0000                	unimp
     3ba:	3130                	fld	fa2,96(a0)
     3bc:	0000                	unimp
     3be:	5a01                	li	s4,-32
     3c0:	00313007          	fld	ft0,3(sp)
     3c4:	3e00                	fld	fs0,56(a2)
     3c6:	0031                	c.nop	12
     3c8:	0100                	add	s0,sp,128
     3ca:	0760                	add	s0,sp,908
     3cc:	313e                	fld	ft2,488(sp)
     3ce:	0000                	unimp
     3d0:	317a                	fld	ft2,440(sp)
     3d2:	0000                	unimp
     3d4:	5a01                	li	s4,-32
     3d6:	00317a07          	.4byte	0x317a07
     3da:	8600                	.2byte	0x8600
     3dc:	0031                	c.nop	12
     3de:	0600                	add	s0,sp,768
     3e0:	007a                	c.slli	zero,0x1e
     3e2:	9f24007b          	.4byte	0x9f24007b
     3e6:	00318607          	.4byte	0x318607
     3ea:	3000                	fld	fs0,32(s0)
     3ec:	0032                	c.slli	zero,0xc
     3ee:	0600                	add	s0,sp,768
     3f0:	0081                	add	ra,ra,0
     3f2:	9f24007b          	.4byte	0x9f24007b
     3f6:	00323c07          	fld	fs8,3(tp) # 3 <main-0x9d>
     3fa:	4000                	lw	s0,0(s0)
     3fc:	0032                	c.slli	zero,0xc
     3fe:	0100                	add	s0,sp,128
     400:	075a                	sll	a4,a4,0x16
     402:	3240                	fld	fs0,160(a2)
     404:	0000                	unimp
     406:	3242                	fld	ft4,48(sp)
     408:	0000                	unimp
     40a:	6001                	.2byte	0x6001
     40c:	0700                	add	s0,sp,896
     40e:	2ef2                	fld	ft9,280(sp)
     410:	0000                	unimp
     412:	2ef8                	fld	fa4,216(a3)
     414:	0000                	unimp
     416:	5b01                	li	s6,-32
     418:	002ef807          	.4byte	0x2ef807
     41c:	3600                	fld	fs0,40(a2)
     41e:	0100002f          	.4byte	0x100002f
     422:	0756                	sll	a4,a4,0x15
     424:	2f36                	fld	ft10,328(sp)
     426:	0000                	unimp
     428:	2f4c                	fld	fa1,152(a4)
     42a:	0000                	unimp
     42c:	5f01                	li	t5,-32
     42e:	002fb007          	fld	ft0,2(t6)
     432:	ee00                	fsw	fs0,24(a2)
     434:	0100002f          	.4byte	0x100002f
     438:	0756                	sll	a4,a4,0x15
     43a:	2fee                	fld	ft11,216(sp)
     43c:	0000                	unimp
     43e:	3006                	fld	ft0,96(sp)
     440:	0000                	unimp
     442:	5f01                	li	t5,-32
     444:	00306207          	.4byte	0x306207
     448:	8000                	.2byte	0x8000
     44a:	0030                	add	a2,sp,8
     44c:	0100                	add	s0,sp,128
     44e:	0756                	sll	a4,a4,0x15
     450:	3088                	fld	fa0,32(s1)
     452:	0000                	unimp
     454:	30cc                	fld	fa1,160(s1)
     456:	0000                	unimp
     458:	5f01                	li	t5,-32
     45a:	0030fa07          	.4byte	0x30fa07
     45e:	fc00                	fsw	fs0,56(s0)
     460:	0030                	add	a2,sp,8
     462:	0100                	add	s0,sp,128
     464:	075f 30fc 0000      	.byte	0x5f, 0x07, 0xfc, 0x30, 0x00, 0x00
     46a:	315e                	fld	ft2,496(sp)
     46c:	0000                	unimp
     46e:	5601                	li	a2,-32
     470:	00317a07          	.4byte	0x317a07
     474:	b000                	fsd	fs0,32(s0)
     476:	0031                	c.nop	12
     478:	0100                	add	s0,sp,128
     47a:	075f 31ea 0000      	.byte	0x5f, 0x07, 0xea, 0x31, 0x00, 0x00
     480:	3222                	fld	ft4,40(sp)
     482:	0000                	unimp
     484:	5f01                	li	t5,-32
     486:	00323c07          	fld	fs8,3(tp) # 3 <main-0x9d>
     48a:	4200                	lw	s0,0(a2)
     48c:	0032                	c.slli	zero,0xc
     48e:	0100                	add	s0,sp,128
     490:	0056                	c.slli	zero,0x15
     492:	00307807          	.4byte	0x307807
     496:	9a00                	.2byte	0x9a00
     498:	0030                	add	a2,sp,8
     49a:	0100                	add	s0,sp,128
     49c:	075d                	add	a4,a4,23
     49e:	317a                	fld	ft2,440(sp)
     4a0:	0000                	unimp
     4a2:	317e                	fld	ft2,504(sp)
     4a4:	0000                	unimp
     4a6:	5e01                	li	t3,-32
     4a8:	0700                	add	s0,sp,896
     4aa:	2fac                	fld	fa1,88(a5)
     4ac:	0000                	unimp
     4ae:	2fae                	fld	ft11,200(sp)
     4b0:	0000                	unimp
     4b2:	5a01                	li	s4,-32
     4b4:	00306007          	.4byte	0x306007
     4b8:	6200                	flw	fs0,0(a2)
     4ba:	0030                	add	a2,sp,8
     4bc:	0100                	add	s0,sp,128
     4be:	075a                	sll	a4,a4,0x16
     4c0:	31ea                	fld	ft3,184(sp)
     4c2:	0000                	unimp
     4c4:	323c                	fld	fa5,96(a2)
     4c6:	0000                	unimp
     4c8:	5a01                	li	s4,-32
     4ca:	0700                	add	s0,sp,896
     4cc:	2fee                	fld	ft11,216(sp)
     4ce:	0000                	unimp
     4d0:	2ff0                	fld	fa2,216(a5)
     4d2:	0000                	unimp
     4d4:	3102                	fld	ft2,32(sp)
     4d6:	079f 2ff0 0000      	.byte	0x9f, 0x07, 0xf0, 0x2f, 0x00, 0x00
     4dc:	3062                	fld	ft0,56(sp)
     4de:	0000                	unimp
     4e0:	5b01                	li	s6,-32
     4e2:	0030fa07          	.4byte	0x30fa07
     4e6:	fc00                	fsw	fs0,56(s0)
     4e8:	0030                	add	a2,sp,8
     4ea:	0100                	add	s0,sp,128
     4ec:	7007005b          	.4byte	0x7007005b
     4f0:	0030                	add	a2,sp,8
     4f2:	8400                	.2byte	0x8400
     4f4:	0030                	add	a2,sp,8
     4f6:	0100                	add	s0,sp,128
     4f8:	075f 314c 0000      	.byte	0x5f, 0x07, 0x4c, 0x31, 0x00, 0x00
     4fe:	3162                	fld	ft2,56(sp)
     500:	0000                	unimp
     502:	5f01                	li	t5,-32
     504:	0700                	add	s0,sp,896
     506:	2f24                	fld	fs1,88(a4)
     508:	0000                	unimp
     50a:	2f3e                	fld	ft10,456(sp)
     50c:	0000                	unimp
     50e:	5b01                	li	s6,-32
     510:	002fe607          	.4byte	0x2fe607
     514:	f000                	fsw	fs0,32(s0)
     516:	0100002f          	.4byte	0x100002f
     51a:	3070075b          	.4byte	0x3070075b
     51e:	0000                	unimp
     520:	30a2                	fld	ft1,40(sp)
     522:	0000                	unimp
     524:	5b01                	li	s6,-32
     526:	00312a07          	flw	fs4,3(sp)
     52a:	3e00                	fld	fs0,56(a2)
     52c:	0031                	c.nop	12
     52e:	0100                	add	s0,sp,128
     530:	314c075b          	.4byte	0x314c075b
     534:	0000                	unimp
     536:	3234                	fld	fa3,96(a2)
     538:	0000                	unimp
     53a:	5b01                	li	s6,-32
     53c:	0700                	add	s0,sp,896
     53e:	2f00                	fld	fs0,24(a4)
     540:	0000                	unimp
     542:	2f28                	fld	fa0,88(a4)
     544:	0000                	unimp
     546:	5c01                	li	s8,-32
     548:	002f2807          	flw	fa6,2(t5)
     54c:	3400                	fld	fs0,40(s0)
     54e:	0900002f          	.4byte	0x900002f
     552:	007c                	add	a5,sp,12
     554:	ff08007b          	.4byte	0xff08007b
     558:	241a                	fld	fs0,384(sp)
     55a:	079f 2f34 0000      	.byte	0x9f, 0x07, 0x34, 0x2f, 0x00, 0x00
     560:	2fac                	fld	fa1,88(a5)
     562:	0000                	unimp
     564:	5e01                	li	t3,-32
     566:	002fb007          	fld	ft0,2(t6)
     56a:	be00                	fsd	fs0,56(a2)
     56c:	0100002f          	.4byte	0x100002f
     570:	005c                	add	a5,sp,4
     572:	002f1007          	.4byte	0x2f1007
     576:	2000                	fld	fs0,0(s0)
     578:	0100002f          	.4byte	0x100002f
     57c:	005d                	c.nop	23
     57e:	002f3e07          	fld	ft8,2(t5)
     582:	ac00                	fsd	fs0,24(s0)
     584:	0100002f          	.4byte	0x100002f
     588:	4807005b          	.4byte	0x4807005b
     58c:	ac00002f          	.4byte	0xac00002f
     590:	0100002f          	.4byte	0x100002f
     594:	005c                	add	a5,sp,4
     596:	002f4807          	.4byte	0x2f4807
     59a:	6600                	flw	fs0,8(a2)
     59c:	0100002f          	.4byte	0x100002f
     5a0:	0756                	sll	a4,a4,0x15
     5a2:	2f66                	fld	ft10,88(sp)
     5a4:	0000                	unimp
     5a6:	2faa                	fld	ft11,136(sp)
     5a8:	0000                	unimp
     5aa:	5a01                	li	s4,-32
     5ac:	0700                	add	s0,sp,896
     5ae:	2f7c                	fld	fa5,216(a4)
     5b0:	0000                	unimp
     5b2:	2f9c                	fld	fa5,24(a5)
     5b4:	0000                	unimp
     5b6:	6101                	add	sp,sp,0
     5b8:	002f9c07          	.4byte	0x2f9c07
     5bc:	ac00                	fsd	fs0,24(s0)
     5be:	0100002f          	.4byte	0x100002f
     5c2:	005f 4807 002f      	.byte	0x5f, 0x00, 0x07, 0x48, 0x2f, 0x00
     5c8:	4c00                	lw	s0,24(s0)
     5ca:	0600002f          	.4byte	0x600002f
     5ce:	007f 007b 9f1d 4c07 	.byte	0x7f, 0x00, 0x7b, 0x00, 0x1d, 0x9f, 0x07, 0x4c, 0x2f, 0x00
     5d6:	002f 
     5d8:	5a00                	lw	s0,48(a2)
     5da:	0100002f          	.4byte	0x100002f
     5de:	075f 2f5c 0000      	.byte	0x5f, 0x07, 0x5c, 0x2f, 0x00, 0x00
     5e4:	2f62                	fld	ft10,24(sp)
     5e6:	0000                	unimp
     5e8:	5f01                	li	t5,-32
     5ea:	002f6207          	.4byte	0x2f6207
     5ee:	6600                	flw	fs0,8(a2)
     5f0:	0800002f          	.4byte	0x800002f
     5f4:	0080                	add	s0,sp,64
     5f6:	2540                	fld	fs0,136(a0)
     5f8:	007d                	c.nop	31
     5fa:	9f21                	.2byte	0x9f21
     5fc:	002f6607          	.4byte	0x2f6607
     600:	8600                	.2byte	0x8600
     602:	0100002f          	.4byte	0x100002f
     606:	005f 7807 002f      	.byte	0x5f, 0x00, 0x07, 0x78, 0x2f, 0x00
     60c:	8600                	.2byte	0x8600
     60e:	0600002f          	.4byte	0x600002f
     612:	007f 007b 9f1d 8607 	.byte	0x7f, 0x00, 0x7b, 0x00, 0x1d, 0x9f, 0x07, 0x86, 0x2f, 0x00
     61a:	002f 
     61c:	8c00                	.2byte	0x8c00
     61e:	0100002f          	.4byte	0x100002f
     622:	075f 2f90 0000      	.byte	0x5f, 0x07, 0x90, 0x2f, 0x00, 0x00
     628:	2f98                	fld	fa4,24(a5)
     62a:	0000                	unimp
     62c:	6001                	.2byte	0x6001
     62e:	0700                	add	s0,sp,896
     630:	2f52                	fld	ft10,272(sp)
     632:	0000                	unimp
     634:	2f7c                	fld	fa5,216(a4)
     636:	0000                	unimp
     638:	6101                	add	sp,sp,0
     63a:	002f7c07          	.4byte	0x2f7c07
     63e:	8a00                	.2byte	0x8a00
     640:	0600002f          	.4byte	0x600002f
     644:	007c                	add	a5,sp,12
     646:	0076                	c.slli	zero,0x1d
     648:	9f1e                	add	t5,t5,t2
     64a:	002f8a07          	.4byte	0x2f8a07
     64e:	ac00                	fsd	fs0,24(s0)
     650:	0100002f          	.4byte	0x100002f
     654:	005d                	c.nop	23
     656:	00321807          	.4byte	0x321807
     65a:	3a00                	fld	fs0,48(a2)
     65c:	0032                	c.slli	zero,0xc
     65e:	0100                	add	s0,sp,128
     660:	005d                	c.nop	23
     662:	00321807          	.4byte	0x321807
     666:	2600                	fld	fs0,8(a2)
     668:	0032                	c.slli	zero,0xc
     66a:	1000                	add	s0,sp,32
     66c:	0076                	c.slli	zero,0x1d
     66e:	ff0a                	fsw	ft2,188(sp)
     670:	007e1aff 1affff0a 	.byte	0xff, 0x1a, 0x7e, 0x00, 0x0a, 0xff, 0xff, 0x1a, 0x40, 0x24, 0x22, 0x9f
     678:	9f222440 
     67c:	00322607          	flw	fa2,3(tp) # 3 <main-0x9d>
     680:	2c00                	fld	fs0,24(s0)
     682:	0032                	c.slli	zero,0xc
     684:	1500                	add	s0,sp,672
     686:	0076                	c.slli	zero,0x1d
     688:	ff0a                	fsw	ft2,188(sp)
     68a:	00761aff 007c2540 	.byte	0xff, 0x1a, 0x76, 0x00, 0x40, 0x25, 0x7c, 0x00, 0x22, 0x0a, 0xff, 0xff
     692:	ffff0a22 
     696:	401a                	.2byte	0x401a
     698:	2224                	fld	fs1,64(a2)
     69a:	009f 7a07 0031      	.byte	0x9f, 0x00, 0x07, 0x7a, 0x31, 0x00
     6a0:	f600                	fsw	fs0,40(a2)
     6a2:	0031                	c.nop	12
     6a4:	0100                	add	s0,sp,128
     6a6:	0056                	c.slli	zero,0x15
     6a8:	00317a07          	.4byte	0x317a07
     6ac:	ba00                	fsd	fs0,48(a2)
     6ae:	0031                	c.nop	12
     6b0:	0100                	add	s0,sp,128
     6b2:	0760                	add	s0,sp,908
     6b4:	31ba                	fld	ft3,424(sp)
     6b6:	0000                	unimp
     6b8:	31e2                	fld	ft3,56(sp)
     6ba:	0000                	unimp
     6bc:	40007d07          	.4byte	0x40007d07
     6c0:	4024                	lw	s1,64(s0)
     6c2:	9f25                	.2byte	0x9f25
     6c4:	0700                	add	s0,sp,896
     6c6:	317a                	fld	ft2,440(sp)
     6c8:	0000                	unimp
     6ca:	3198                	fld	fa4,32(a1)
     6cc:	0000                	unimp
     6ce:	6d01                	.2byte	0x6d01
     6d0:	00319807          	.4byte	0x319807
     6d4:	da00                	sw	s0,48(a2)
     6d6:	0031                	c.nop	12
     6d8:	0100                	add	s0,sp,128
     6da:	005a                	c.slli	zero,0x16
     6dc:	0031ae07          	flw	ft8,3(gp)
     6e0:	ca00                	sw	s0,16(a2)
     6e2:	0031                	c.nop	12
     6e4:	0100                	add	s0,sp,128
     6e6:	076c                	add	a1,sp,908
     6e8:	31ca                	fld	ft3,176(sp)
     6ea:	0000                	unimp
     6ec:	31e6                	fld	ft3,120(sp)
     6ee:	0000                	unimp
     6f0:	5e01                	li	t3,-32
     6f2:	0700                	add	s0,sp,896
     6f4:	317a                	fld	ft2,440(sp)
     6f6:	0000                	unimp
     6f8:	317e                	fld	ft2,504(sp)
     6fa:	0000                	unimp
     6fc:	7e06                	flw	ft8,96(sp)
     6fe:	7600                	flw	fs0,40(a2)
     700:	1d00                	add	s0,sp,688
     702:	079f 317e 0000      	.byte	0x9f, 0x07, 0x7e, 0x31, 0x00, 0x00
     708:	318a                	fld	ft3,160(sp)
     70a:	0000                	unimp
     70c:	5e01                	li	t3,-32
     70e:	00318c07          	.4byte	0x318c07
     712:	9400                	.2byte	0x9400
     714:	0031                	c.nop	12
     716:	0100                	add	s0,sp,128
     718:	075e                	sll	a4,a4,0x17
     71a:	3198                	fld	fa4,32(a1)
     71c:	0000                	unimp
     71e:	31b6                	fld	ft3,360(sp)
     720:	0000                	unimp
     722:	5e01                	li	t3,-32
     724:	0700                	add	s0,sp,896
     726:	31aa                	fld	ft3,168(sp)
     728:	0000                	unimp
     72a:	31b6                	fld	ft3,360(sp)
     72c:	0000                	unimp
     72e:	7e06                	flw	ft8,96(sp)
     730:	7600                	flw	fs0,40(a2)
     732:	1d00                	add	s0,sp,688
     734:	079f 31b6 0000      	.byte	0x9f, 0x07, 0xb6, 0x31, 0x00, 0x00
     73a:	31bc                	fld	fa5,96(a1)
     73c:	0000                	unimp
     73e:	5e01                	li	t3,-32
     740:	0031be07          	fld	ft8,3(gp)
     744:	c600                	sw	s0,8(a2)
     746:	0031                	c.nop	12
     748:	0100                	add	s0,sp,128
     74a:	075f 31ca 0000      	.byte	0x5f, 0x07, 0xca, 0x31, 0x00, 0x00
     750:	3222                	fld	ft4,40(sp)
     752:	0000                	unimp
     754:	5f01                	li	t5,-32
     756:	0700                	add	s0,sp,896
     758:	3182                	fld	ft3,32(sp)
     75a:	0000                	unimp
     75c:	31ae                	fld	ft3,232(sp)
     75e:	0000                	unimp
     760:	6c01                	.2byte	0x6c01
     762:	0031ae07          	flw	ft8,3(gp)
     766:	ba00                	fsd	fs0,48(a2)
     768:	0031                	c.nop	12
     76a:	0600                	add	s0,sp,768
     76c:	0080                	add	s0,sp,64
     76e:	008d                	add	ra,ra,3
     770:	9f1e                	add	t5,t5,t2
     772:	0031ba07          	fld	fs4,3(gp)
     776:	f000                	fsw	fs0,32(s0)
     778:	0031                	c.nop	12
     77a:	0100                	add	s0,sp,128
     77c:	0060                	add	s0,sp,12
     77e:	0031f607          	.4byte	0x31f607
     782:	2c00                	fld	fs0,24(s0)
     784:	0032                	c.slli	zero,0xc
     786:	0100                	add	s0,sp,128
     788:	0056                	c.slli	zero,0x15
     78a:	0031f607          	.4byte	0x31f607
     78e:	fe00                	fsw	fs0,56(a2)
     790:	0031                	c.nop	12
     792:	0600                	add	s0,sp,768
     794:	007e                	c.slli	zero,0x1f
     796:	007c                	add	a5,sp,12
     798:	9f1e                	add	t5,t5,t2
     79a:	0031fe07          	.4byte	0x31fe07
     79e:	0600                	add	s0,sp,768
     7a0:	0032                	c.slli	zero,0xc
     7a2:	0100                	add	s0,sp,128
     7a4:	075e                	sll	a4,a4,0x17
     7a6:	320c                	fld	fa1,32(a2)
     7a8:	0000                	unimp
     7aa:	3226                	fld	ft4,104(sp)
     7ac:	0000                	unimp
     7ae:	5e01                	li	t3,-32
     7b0:	00322607          	flw	fa2,3(tp) # 3 <main-0x9d>
     7b4:	2c00                	fld	fs0,24(s0)
     7b6:	0032                	c.slli	zero,0xc
     7b8:	0800                	add	s0,sp,16
     7ba:	0076                	c.slli	zero,0x1d
     7bc:	2540                	fld	fs0,136(a0)
     7be:	007c                	add	a5,sp,12
     7c0:	9f22                	add	t5,t5,s0
     7c2:	0700                	add	s0,sp,896
     7c4:	31fa                	fld	ft3,440(sp)
     7c6:	0000                	unimp
     7c8:	3216                	fld	ft4,352(sp)
     7ca:	0000                	unimp
     7cc:	5d01                	li	s10,-32
     7ce:	0700                	add	s0,sp,896
     7d0:	3202                	fld	ft4,32(sp)
     7d2:	0000                	unimp
     7d4:	323c                	fld	fa5,96(a2)
     7d6:	0000                	unimp
     7d8:	6001                	.2byte	0x6001
     7da:	0700                	add	s0,sp,896
     7dc:	31ea                	fld	ft3,184(sp)
     7de:	0000                	unimp
     7e0:	31fe                	fld	ft3,504(sp)
     7e2:	0000                	unimp
     7e4:	5e01                	li	t3,-32
     7e6:	0031fe07          	.4byte	0x31fe07
     7ea:	2400                	fld	fs0,8(s0)
     7ec:	0032                	c.slli	zero,0xc
     7ee:	0600                	add	s0,sp,768
     7f0:	7f8c                	flw	fa1,56(a5)
     7f2:	007a                	c.slli	zero,0x1e
     7f4:	9f1a                	add	t5,t5,t1
     7f6:	00322407          	flw	fs0,3(tp) # 3 <main-0x9d>
     7fa:	3800                	fld	fs0,48(s0)
     7fc:	0032                	c.slli	zero,0xc
     7fe:	0600                	add	s0,sp,768
     800:	007a                	c.slli	zero,0x1e
     802:	007f 9f1a 3807 0032 	.byte	0x7f, 0x00, 0x1a, 0x9f, 0x07, 0x38, 0x32, 0x00, 0x00, 0x3a
     80a:	3a00 
     80c:	0032                	c.slli	zero,0xc
     80e:	0600                	add	s0,sp,768
     810:	7f8c                	flw	fa1,56(a5)
     812:	007a                	c.slli	zero,0x1e
     814:	9f1a                	add	t5,t5,t1
     816:	00323a07          	fld	fs4,3(tp) # 3 <main-0x9d>
     81a:	3c00                	fld	fs0,56(s0)
     81c:	0032                	c.slli	zero,0xc
     81e:	0600                	add	s0,sp,768
     820:	017a                	sll	sp,sp,0x1e
     822:	7f8c                	flw	fa1,56(a5)
     824:	9f1a                	add	t5,t5,t1
     826:	0700                	add	s0,sp,896
     828:	31f0                	fld	fa2,224(a1)
     82a:	0000                	unimp
     82c:	31fa                	fld	ft3,440(sp)
     82e:	0000                	unimp
     830:	5d01                	li	s10,-32
     832:	0700                	add	s0,sp,896
     834:	31f0                	fld	fa2,224(a1)
     836:	0000                	unimp
     838:	3202                	fld	ft4,32(sp)
     83a:	0000                	unimp
     83c:	6001                	.2byte	0x6001
     83e:	00320207          	.4byte	0x320207
     842:	3a00                	fld	fs0,48(a2)
     844:	0032                	c.slli	zero,0xc
     846:	0500                	add	s0,sp,640
     848:	007a                	c.slli	zero,0x1e
     84a:	2540                	fld	fs0,136(a0)
     84c:	079f 323a 0000      	.byte	0x9f, 0x07, 0x3a, 0x32, 0x00, 0x00
     852:	323c                	fld	fa5,96(a2)
     854:	0000                	unimp
     856:	7a05                	lui	s4,0xfffe1
     858:	4001                	c.li	zero,0
     85a:	9f25                	.2byte	0x9f25
     85c:	0700                	add	s0,sp,896
     85e:	31f2                	fld	ft3,312(sp)
     860:	0000                	unimp
     862:	3206                	fld	ft4,96(sp)
     864:	0000                	unimp
     866:	5c01                	li	s8,-32
     868:	0700                	add	s0,sp,896
     86a:	2fc2                	fld	ft11,16(sp)
     86c:	0000                	unimp
     86e:	2fc8                	fld	fa0,152(a5)
     870:	0000                	unimp
     872:	5c01                	li	s8,-32
     874:	00306207          	.4byte	0x306207
     878:	7000                	flw	fs0,32(s0)
     87a:	0030                	add	a2,sp,8
     87c:	0100                	add	s0,sp,128
     87e:	005c                	add	a5,sp,4
     880:	002fd207          	.4byte	0x2fd207
     884:	e200                	fsw	fs0,0(a2)
     886:	0100002f          	.4byte	0x100002f
     88a:	005d                	c.nop	23
     88c:	002ff407          	.4byte	0x2ff407
     890:	6200                	flw	fs0,0(a2)
     892:	0030                	add	a2,sp,8
     894:	0100                	add	s0,sp,128
     896:	0061                	c.nop	24
     898:	002ffe07          	.4byte	0x2ffe07
     89c:	6200                	flw	fs0,0(a2)
     89e:	0030                	add	a2,sp,8
     8a0:	0100                	add	s0,sp,128
     8a2:	005c                	add	a5,sp,4
     8a4:	002ffe07          	.4byte	0x2ffe07
     8a8:	1a00                	add	s0,sp,304
     8aa:	0030                	add	a2,sp,8
     8ac:	0100                	add	s0,sp,128
     8ae:	076c                	add	a1,sp,908
     8b0:	301a                	fld	ft0,416(sp)
     8b2:	0000                	unimp
     8b4:	305e                	fld	ft0,496(sp)
     8b6:	0000                	unimp
     8b8:	5a01                	li	s4,-32
     8ba:	0700                	add	s0,sp,896
     8bc:	3030                	fld	fa2,96(s0)
     8be:	0000                	unimp
     8c0:	3050                	fld	fa2,160(s0)
     8c2:	0000                	unimp
     8c4:	5601                	li	a2,-32
     8c6:	00305007          	.4byte	0x305007
     8ca:	6200                	flw	fs0,0(a2)
     8cc:	0030                	add	a2,sp,8
     8ce:	0100                	add	s0,sp,128
     8d0:	005f fe07 002f      	.byte	0x5f, 0x00, 0x07, 0xfe, 0x2f, 0x00
     8d6:	0600                	add	s0,sp,768
     8d8:	0030                	add	a2,sp,8
     8da:	0600                	add	s0,sp,768
     8dc:	007f 0081 9f1d 0607 	.byte	0x7f, 0x00, 0x81, 0x00, 0x1d, 0x9f, 0x07, 0x06, 0x30, 0x00
     8e4:	0030 
     8e6:	0e00                	add	s0,sp,784
     8e8:	0030                	add	a2,sp,8
     8ea:	0100                	add	s0,sp,128
     8ec:	075f 3010 0000      	.byte	0x5f, 0x07, 0x10, 0x30, 0x00, 0x00
     8f2:	3016                	fld	ft0,352(sp)
     8f4:	0000                	unimp
     8f6:	5f01                	li	t5,-32
     8f8:	00301a07          	.4byte	0x301a07
     8fc:	3a00                	fld	fs0,48(a2)
     8fe:	0030                	add	a2,sp,8
     900:	0100                	add	s0,sp,128
     902:	005f 2c07 0030      	.byte	0x5f, 0x00, 0x07, 0x2c, 0x30, 0x00
     908:	3a00                	fld	fs0,48(a2)
     90a:	0030                	add	a2,sp,8
     90c:	0600                	add	s0,sp,768
     90e:	007f 0081 9f1d 3a07 	.byte	0x7f, 0x00, 0x81, 0x00, 0x1d, 0x9f, 0x07, 0x3a, 0x30, 0x00
     916:	0030 
     918:	4000                	lw	s0,0(s0)
     91a:	0030                	add	a2,sp,8
     91c:	0100                	add	s0,sp,128
     91e:	075f 3044 0000      	.byte	0x5f, 0x07, 0x44, 0x30, 0x00, 0x00
     924:	304c                	fld	fa1,160(s0)
     926:	0000                	unimp
     928:	6001                	.2byte	0x6001
     92a:	0700                	add	s0,sp,896
     92c:	300c                	fld	fa1,32(s0)
     92e:	0000                	unimp
     930:	3030                	fld	fa2,96(s0)
     932:	0000                	unimp
     934:	5601                	li	a2,-32
     936:	00303007          	fld	ft0,3(zero) # 3 <main-0x9d>
     93a:	3e00                	fld	fs0,56(a2)
     93c:	0030                	add	a2,sp,8
     93e:	0600                	add	s0,sp,768
     940:	007c                	add	a5,sp,12
     942:	008c                	add	a1,sp,64
     944:	9f1e                	add	t5,t5,t2
     946:	00303e07          	fld	ft8,3(zero) # 3 <main-0x9d>
     94a:	6200                	flw	fs0,0(a2)
     94c:	0030                	add	a2,sp,8
     94e:	0100                	add	s0,sp,128
     950:	005d                	c.nop	23
     952:	00309607          	.4byte	0x309607
     956:	fc00                	fsw	fs0,56(s0)
     958:	0030                	add	a2,sp,8
     95a:	0100                	add	s0,sp,128
     95c:	005a                	c.slli	zero,0x16
     95e:	00309607          	.4byte	0x309607
     962:	d600                	sw	s0,40(a2)
     964:	0030                	add	a2,sp,8
     966:	0100                	add	s0,sp,128
     968:	075c                	add	a5,sp,900
     96a:	30d6                	fld	ft1,368(sp)
     96c:	0000                	unimp
     96e:	30fc                	fld	fa5,224(s1)
     970:	0000                	unimp
     972:	40007e07          	.4byte	0x40007e07
     976:	4024                	lw	s1,64(s0)
     978:	9f25                	.2byte	0x9f25
     97a:	0700                	add	s0,sp,896
     97c:	3096                	fld	ft1,352(sp)
     97e:	0000                	unimp
     980:	30b4                	fld	fa3,96(s1)
     982:	0000                	unimp
     984:	5601                	li	a2,-32
     986:	0030b407          	fld	fs0,3(ra)
     98a:	f600                	fsw	fs0,40(a2)
     98c:	0030                	add	a2,sp,8
     98e:	0100                	add	s0,sp,128
     990:	ca07005b          	.4byte	0xca07005b
     994:	0030                	add	a2,sp,8
     996:	e600                	fsw	fs0,8(a2)
     998:	0030                	add	a2,sp,8
     99a:	0100                	add	s0,sp,128
     99c:	0761                	add	a4,a4,24
     99e:	30e6                	fld	ft1,120(sp)
     9a0:	0000                	unimp
     9a2:	30fc                	fld	fa5,224(s1)
     9a4:	0000                	unimp
     9a6:	5d01                	li	s10,-32
     9a8:	0700                	add	s0,sp,896
     9aa:	3096                	fld	ft1,352(sp)
     9ac:	0000                	unimp
     9ae:	309a                	fld	ft1,416(sp)
     9b0:	0000                	unimp
     9b2:	7d06                	flw	fs10,96(sp)
     9b4:	7a00                	flw	fs0,48(a2)
     9b6:	1d00                	add	s0,sp,688
     9b8:	079f 309a 0000      	.byte	0x9f, 0x07, 0x9a, 0x30, 0x00, 0x00
     9be:	30a6                	fld	ft1,104(sp)
     9c0:	0000                	unimp
     9c2:	5d01                	li	s10,-32
     9c4:	0030a807          	flw	fa6,3(ra)
     9c8:	b000                	fsd	fs0,32(s0)
     9ca:	0030                	add	a2,sp,8
     9cc:	0100                	add	s0,sp,128
     9ce:	075d                	add	a4,a4,23
     9d0:	30b4                	fld	fa3,96(s1)
     9d2:	0000                	unimp
     9d4:	30d2                	fld	ft1,304(sp)
     9d6:	0000                	unimp
     9d8:	5d01                	li	s10,-32
     9da:	0700                	add	s0,sp,896
     9dc:	30c6                	fld	ft1,112(sp)
     9de:	0000                	unimp
     9e0:	30d2                	fld	ft1,304(sp)
     9e2:	0000                	unimp
     9e4:	7d06                	flw	fs10,96(sp)
     9e6:	7a00                	flw	fs0,48(a2)
     9e8:	1d00                	add	s0,sp,688
     9ea:	079f 30d2 0000      	.byte	0x9f, 0x07, 0xd2, 0x30, 0x00, 0x00
     9f0:	30d8                	fld	fa4,160(s1)
     9f2:	0000                	unimp
     9f4:	5d01                	li	s10,-32
     9f6:	0030da07          	.4byte	0x30da07
     9fa:	e200                	fsw	fs0,0(a2)
     9fc:	0030                	add	a2,sp,8
     9fe:	0100                	add	s0,sp,128
     a00:	075f 30e6 0000      	.byte	0x5f, 0x07, 0xe6, 0x30, 0x00, 0x00
     a06:	30fc                	fld	fa5,224(s1)
     a08:	0000                	unimp
     a0a:	5f01                	li	t5,-32
     a0c:	0700                	add	s0,sp,896
     a0e:	309e                	fld	ft1,480(sp)
     a10:	0000                	unimp
     a12:	30ca                	fld	ft1,176(sp)
     a14:	0000                	unimp
     a16:	6101                	add	sp,sp,0
     a18:	0030ca07          	.4byte	0x30ca07
     a1c:	d600                	sw	s0,40(a2)
     a1e:	0030                	add	a2,sp,8
     a20:	0600                	add	s0,sp,768
     a22:	007c                	add	a5,sp,12
     a24:	0076                	c.slli	zero,0x1d
     a26:	9f1e                	add	t5,t5,t2
     a28:	0030d607          	.4byte	0x30d607
     a2c:	fc00                	fsw	fs0,56(s0)
     a2e:	0030                	add	a2,sp,8
     a30:	0100                	add	s0,sp,128
     a32:	005c                	add	a5,sp,4
     a34:	00310007          	.4byte	0x310007
     a38:	5400                	lw	s0,40(s0)
     a3a:	0031                	c.nop	12
     a3c:	0100                	add	s0,sp,128
     a3e:	005d                	c.nop	23
     a40:	00311007          	.4byte	0x311007
     a44:	2600                	fld	fs0,8(a2)
     a46:	0031                	c.nop	12
     a48:	0100                	add	s0,sp,128
     a4a:	005e                	c.slli	zero,0x17
     a4c:	0819                	add	a6,a6,6
     a4e:	0000                	unimp
     a50:	0005                	c.nop	1
     a52:	0004                	.2byte	0x4
     a54:	0000                	unimp
     a56:	0000                	unimp
     a58:	00324207          	.4byte	0x324207
     a5c:	9c00                	.2byte	0x9c00
     a5e:	0032                	c.slli	zero,0xc
     a60:	0600                	add	s0,sp,768
     a62:	935a                	add	t1,t1,s6
     a64:	5b04                	lw	s1,48(a4)
     a66:	9c070493          	add	s1,a4,-1600
     a6a:	0032                	c.slli	zero,0xc
     a6c:	f000                	fsw	fs0,32(s0)
     a6e:	0032                	c.slli	zero,0xc
     a70:	0600                	add	s0,sp,768
     a72:	0aa503a3          	sb	a0,167(a0)
     a76:	9f26                	add	t5,t5,s1
     a78:	0032f007          	.4byte	0x32f007
     a7c:	2e00                	fld	fs0,24(a2)
     a7e:	06000033          	.4byte	0x6000033
     a82:	935a                	add	t1,t1,s6
     a84:	5b04                	lw	s1,48(a4)
     a86:	2e070493          	add	s1,a4,736
     a8a:	6c000033          	.4byte	0x6c000033
     a8e:	06000033          	.4byte	0x6000033
     a92:	0aa503a3          	sb	a0,167(a0)
     a96:	9f26                	add	t5,t5,s1
     a98:	00336c07          	.4byte	0x336c07
     a9c:	9200                	.2byte	0x9200
     a9e:	06000033          	.4byte	0x6000033
     aa2:	935a                	add	t1,t1,s6
     aa4:	5b04                	lw	s1,48(a4)
     aa6:	92070493          	add	s1,a4,-1760
     aaa:	ec000033          	.4byte	0xec000033
     aae:	06000033          	.4byte	0x6000033
     ab2:	0aa503a3          	sb	a0,167(a0)
     ab6:	9f26                	add	t5,t5,s1
     ab8:	0033ec07          	.4byte	0x33ec07
     abc:	3a00                	fld	fs0,48(a2)
     abe:	0034                	add	a3,sp,8
     ac0:	0600                	add	s0,sp,768
     ac2:	935a                	add	t1,t1,s6
     ac4:	5b04                	lw	s1,48(a4)
     ac6:	3a070493          	add	s1,a4,928
     aca:	0034                	add	a3,sp,8
     acc:	3e00                	fld	fs0,56(a2)
     ace:	0034                	add	a3,sp,8
     ad0:	0600                	add	s0,sp,768
     ad2:	0aa503a3          	sb	a0,167(a0)
     ad6:	9f26                	add	t5,t5,s1
     ad8:	00343e07          	fld	ft8,3(s0)
     adc:	8000                	.2byte	0x8000
     ade:	0034                	add	a3,sp,8
     ae0:	0600                	add	s0,sp,768
     ae2:	935a                	add	t1,t1,s6
     ae4:	5b04                	lw	s1,48(a4)
     ae6:	80070493          	add	s1,a4,-2048
     aea:	0034                	add	a3,sp,8
     aec:	6600                	flw	fs0,8(a2)
     aee:	0035                	c.nop	13
     af0:	0600                	add	s0,sp,768
     af2:	0aa503a3          	sb	a0,167(a0)
     af6:	9f26                	add	t5,t5,s1
     af8:	0700                	add	s0,sp,896
     afa:	3242                	fld	ft4,48(sp)
     afc:	0000                	unimp
     afe:	3294                	fld	fa3,32(a3)
     b00:	0000                	unimp
     b02:	5c06                	lw	s8,96(sp)
     b04:	935d0493          	add	s1,s10,-1739
     b08:	0704                	add	s1,sp,896
     b0a:	3294                	fld	fa3,32(a3)
     b0c:	0000                	unimp
     b0e:	32f0                	fld	fa2,224(a3)
     b10:	0000                	unimp
     b12:	a306                	fsd	ft1,384(sp)
     b14:	260ca503          	lw	a0,608(s9)
     b18:	079f 32f0 0000      	.byte	0x9f, 0x07, 0xf0, 0x32, 0x00, 0x00
     b1e:	332e                	fld	ft6,232(sp)
     b20:	0000                	unimp
     b22:	5c06                	lw	s8,96(sp)
     b24:	935d0493          	add	s1,s10,-1739
     b28:	0704                	add	s1,sp,896
     b2a:	332e                	fld	ft6,232(sp)
     b2c:	0000                	unimp
     b2e:	336c                	fld	fa1,224(a4)
     b30:	0000                	unimp
     b32:	a306                	fsd	ft1,384(sp)
     b34:	260ca503          	lw	a0,608(s9)
     b38:	079f 336c 0000      	.byte	0x9f, 0x07, 0x6c, 0x33, 0x00, 0x00
     b3e:	33ac                	fld	fa1,96(a5)
     b40:	0000                	unimp
     b42:	5c06                	lw	s8,96(sp)
     b44:	935d0493          	add	s1,s10,-1739
     b48:	0704                	add	s1,sp,896
     b4a:	33ac                	fld	fa1,96(a5)
     b4c:	0000                	unimp
     b4e:	33ec                	fld	fa1,224(a5)
     b50:	0000                	unimp
     b52:	a306                	fsd	ft1,384(sp)
     b54:	260ca503          	lw	a0,608(s9)
     b58:	079f 33ec 0000      	.byte	0x9f, 0x07, 0xec, 0x33, 0x00, 0x00
     b5e:	342a                	fld	fs0,168(sp)
     b60:	0000                	unimp
     b62:	5c06                	lw	s8,96(sp)
     b64:	935d0493          	add	s1,s10,-1739
     b68:	0704                	add	s1,sp,896
     b6a:	342a                	fld	fs0,168(sp)
     b6c:	0000                	unimp
     b6e:	343e                	fld	fs0,488(sp)
     b70:	0000                	unimp
     b72:	a306                	fsd	ft1,384(sp)
     b74:	260ca503          	lw	a0,608(s9)
     b78:	079f 343e 0000      	.byte	0x9f, 0x07, 0x3e, 0x34, 0x00, 0x00
     b7e:	347c                	fld	fa5,232(s0)
     b80:	0000                	unimp
     b82:	5c06                	lw	s8,96(sp)
     b84:	935d0493          	add	s1,s10,-1739
     b88:	0704                	add	s1,sp,896
     b8a:	347c                	fld	fa5,232(s0)
     b8c:	0000                	unimp
     b8e:	3566                	fld	fa0,120(sp)
     b90:	0000                	unimp
     b92:	a306                	fsd	ft1,384(sp)
     b94:	260ca503          	lw	a0,608(s9)
     b98:	009f 4207 0032      	.byte	0x9f, 0x00, 0x07, 0x42, 0x32, 0x00
     b9e:	6400                	flw	fs0,8(s0)
     ba0:	0035                	c.nop	13
     ba2:	0600                	add	s0,sp,768
     ba4:	eca0                	fsw	fs0,88(s1)
     ba6:	0008                	.2byte	0x8
     ba8:	0000                	unimp
     baa:	0700                	add	s0,sp,896
     bac:	3242                	fld	ft4,48(sp)
     bae:	0000                	unimp
     bb0:	3258                	fld	fa4,160(a2)
     bb2:	0000                	unimp
     bb4:	5c06                	lw	s8,96(sp)
     bb6:	935d0493          	add	s1,s10,-1739
     bba:	0704                	add	s1,sp,896
     bbc:	32fe                	fld	ft5,504(sp)
     bbe:	0000                	unimp
     bc0:	3300                	fld	fs0,32(a4)
     bc2:	0000                	unimp
     bc4:	5c06                	lw	s8,96(sp)
     bc6:	935d0493          	add	s1,s10,-1739
     bca:	0704                	add	s1,sp,896
     bcc:	33ec                	fld	fa1,224(a5)
     bce:	0000                	unimp
     bd0:	342a                	fld	fs0,168(sp)
     bd2:	0000                	unimp
     bd4:	5c06                	lw	s8,96(sp)
     bd6:	935d0493          	add	s1,s10,-1739
     bda:	0704                	add	s1,sp,896
     bdc:	343e                	fld	fs0,488(sp)
     bde:	0000                	unimp
     be0:	3454                	fld	fa3,168(s0)
     be2:	0000                	unimp
     be4:	5c06                	lw	s8,96(sp)
     be6:	935d0493          	add	s1,s10,-1739
     bea:	0004                	.2byte	0x4
     bec:	00324207          	.4byte	0x324207
     bf0:	9c00                	.2byte	0x9c00
     bf2:	0032                	c.slli	zero,0xc
     bf4:	0600                	add	s0,sp,768
     bf6:	935a                	add	t1,t1,s6
     bf8:	5b04                	lw	s1,48(a4)
     bfa:	f0070493          	add	s1,a4,-256
     bfe:	0032                	c.slli	zero,0xc
     c00:	2e00                	fld	fs0,24(a2)
     c02:	06000033          	.4byte	0x6000033
     c06:	935a                	add	t1,t1,s6
     c08:	5b04                	lw	s1,48(a4)
     c0a:	6c070493          	add	s1,a4,1728
     c0e:	8a000033          	.4byte	0x8a000033
     c12:	06000033          	.4byte	0x6000033
     c16:	935a                	add	t1,t1,s6
     c18:	5b04                	lw	s1,48(a4)
     c1a:	ec070493          	add	s1,a4,-320
     c1e:	3a000033          	.4byte	0x3a000033
     c22:	0034                	add	a3,sp,8
     c24:	0600                	add	s0,sp,768
     c26:	935a                	add	t1,t1,s6
     c28:	5b04                	lw	s1,48(a4)
     c2a:	3e070493          	add	s1,a4,992
     c2e:	0034                	add	a3,sp,8
     c30:	7200                	flw	fs0,32(a2)
     c32:	0034                	add	a3,sp,8
     c34:	0600                	add	s0,sp,768
     c36:	935a                	add	t1,t1,s6
     c38:	5b04                	lw	s1,48(a4)
     c3a:	07000493          	li	s1,112
     c3e:	3244                	fld	fs1,160(a2)
     c40:	0000                	unimp
     c42:	328a                	fld	ft5,160(sp)
     c44:	0000                	unimp
     c46:	5c01                	li	s8,-32
     c48:	00328a07          	.4byte	0x328a07
     c4c:	f000                	fsw	fs0,32(s0)
     c4e:	0032                	c.slli	zero,0xc
     c50:	0100                	add	s0,sp,128
     c52:	0760                	add	s0,sp,908
     c54:	32f0                	fld	fa2,224(a3)
     c56:	0000                	unimp
     c58:	3308                	fld	fa0,32(a4)
     c5a:	0000                	unimp
     c5c:	5c01                	li	s8,-32
     c5e:	00332e07          	flw	ft8,3(t1)
     c62:	6c00                	flw	fs0,24(s0)
     c64:	01000033          	add	zero,zero,a6
     c68:	0760                	add	s0,sp,908
     c6a:	336c                	fld	fa1,224(a4)
     c6c:	0000                	unimp
     c6e:	337a                	fld	ft6,440(sp)
     c70:	0000                	unimp
     c72:	5c01                	li	s8,-32
     c74:	00337e07          	.4byte	0x337e07
     c78:	ec00                	fsw	fs0,24(s0)
     c7a:	01000033          	add	zero,zero,a6
     c7e:	0760                	add	s0,sp,908
     c80:	33ec                	fld	fa1,224(a5)
     c82:	0000                	unimp
     c84:	342a                	fld	fs0,168(sp)
     c86:	0000                	unimp
     c88:	5c01                	li	s8,-32
     c8a:	00343e07          	fld	ft8,3(s0)
     c8e:	3e00                	fld	fs0,56(a2)
     c90:	0035                	c.nop	13
     c92:	0100                	add	s0,sp,128
     c94:	005c                	add	a5,sp,4
     c96:	00324407          	.4byte	0x324407
     c9a:	5800                	lw	s0,48(s0)
     c9c:	0032                	c.slli	zero,0xc
     c9e:	0100                	add	s0,sp,128
     ca0:	075d                	add	a4,a4,23
     ca2:	32fe                	fld	ft5,504(sp)
     ca4:	0000                	unimp
     ca6:	3300                	fld	fs0,32(a4)
     ca8:	0000                	unimp
     caa:	5d01                	li	s10,-32
     cac:	0033ec07          	.4byte	0x33ec07
     cb0:	2e00                	fld	fs0,24(a2)
     cb2:	0034                	add	a3,sp,8
     cb4:	0100                	add	s0,sp,128
     cb6:	075d                	add	a4,a4,23
     cb8:	343e                	fld	fs0,488(sp)
     cba:	0000                	unimp
     cbc:	3454                	fld	fa3,168(s0)
     cbe:	0000                	unimp
     cc0:	5d01                	li	s10,-32
     cc2:	00345607          	.4byte	0x345607
     cc6:	4400                	lw	s0,8(s0)
     cc8:	0035                	c.nop	13
     cca:	0100                	add	s0,sp,128
     ccc:	005d                	c.nop	23
     cce:	00324607          	.4byte	0x324607
     cd2:	9000                	.2byte	0x9000
     cd4:	0032                	c.slli	zero,0xc
     cd6:	0100                	add	s0,sp,128
     cd8:	075a                	sll	a4,a4,0x16
     cda:	3290                	fld	fa2,32(a3)
     cdc:	0000                	unimp
     cde:	32ce                	fld	ft5,240(sp)
     ce0:	0000                	unimp
     ce2:	5f01                	li	t5,-32
     ce4:	0032e807          	.4byte	0x32e807
     ce8:	f000                	fsw	fs0,32(s0)
     cea:	0032                	c.slli	zero,0xc
     cec:	0100                	add	s0,sp,128
     cee:	075f 32f0 0000      	.byte	0x5f, 0x07, 0xf0, 0x32, 0x00, 0x00
     cf4:	332e                	fld	ft6,232(sp)
     cf6:	0000                	unimp
     cf8:	5a01                	li	s4,-32
     cfa:	00336c07          	.4byte	0x336c07
     cfe:	9200                	.2byte	0x9200
     d00:	01000033          	add	zero,zero,a6
     d04:	075a                	sll	a4,a4,0x16
     d06:	33ec                	fld	fa1,224(a5)
     d08:	0000                	unimp
     d0a:	3438                	fld	fa4,104(s0)
     d0c:	0000                	unimp
     d0e:	5a01                	li	s4,-32
     d10:	00343e07          	fld	ft8,3(s0)
     d14:	5000                	lw	s0,32(s0)
     d16:	0035                	c.nop	13
     d18:	0100                	add	s0,sp,128
     d1a:	075a                	sll	a4,a4,0x16
     d1c:	3554                	fld	fa3,168(a0)
     d1e:	0000                	unimp
     d20:	355c                	fld	fa5,168(a0)
     d22:	0000                	unimp
     d24:	5e01                	li	t3,-32
     d26:	0700                	add	s0,sp,896
     d28:	3248                	fld	fa0,160(a2)
     d2a:	0000                	unimp
     d2c:	328c                	fld	fa1,32(a3)
     d2e:	0000                	unimp
     d30:	5b01                	li	s6,-32
     d32:	00328c07          	.4byte	0x328c07
     d36:	a200                	fsd	fs0,0(a2)
     d38:	0032                	c.slli	zero,0xc
     d3a:	0100                	add	s0,sp,128
     d3c:	075e                	sll	a4,a4,0x17
     d3e:	32f0                	fld	fa2,224(a3)
     d40:	0000                	unimp
     d42:	332e                	fld	ft6,232(sp)
     d44:	0000                	unimp
     d46:	5b01                	li	s6,-32
     d48:	00332e07          	flw	ft8,3(t1)
     d4c:	4400                	lw	s0,8(s0)
     d4e:	01000033          	add	zero,zero,a6
     d52:	075e                	sll	a4,a4,0x17
     d54:	336c                	fld	fa1,224(a4)
     d56:	0000                	unimp
     d58:	338a                	fld	ft7,160(sp)
     d5a:	0000                	unimp
     d5c:	5b01                	li	s6,-32
     d5e:	00339407          	.4byte	0x339407
     d62:	ca00                	sw	s0,16(a2)
     d64:	01000033          	add	zero,zero,a6
     d68:	075e                	sll	a4,a4,0x17
     d6a:	33ea                	fld	ft7,184(sp)
     d6c:	0000                	unimp
     d6e:	33ec                	fld	fa1,224(a5)
     d70:	0000                	unimp
     d72:	5e01                	li	t3,-32
     d74:	0033ec07          	.4byte	0x33ec07
     d78:	3800                	fld	fs0,48(s0)
     d7a:	0034                	add	a3,sp,8
     d7c:	0100                	add	s0,sp,128
     d7e:	3438075b          	.4byte	0x3438075b
     d82:	0000                	unimp
     d84:	343e                	fld	fs0,488(sp)
     d86:	0000                	unimp
     d88:	5e01                	li	t3,-32
     d8a:	00343e07          	fld	ft8,3(s0)
     d8e:	7200                	flw	fs0,32(a2)
     d90:	0034                	add	a3,sp,8
     d92:	0100                	add	s0,sp,128
     d94:	347c075b          	.4byte	0x347c075b
     d98:	0000                	unimp
     d9a:	34b0                	fld	fa2,104(s1)
     d9c:	0000                	unimp
     d9e:	5b01                	li	s6,-32
     da0:	0034e607          	.4byte	0x34e607
     da4:	5200                	lw	s0,32(a2)
     da6:	0035                	c.nop	13
     da8:	0100                	add	s0,sp,128
     daa:	3554075b          	.4byte	0x3554075b
     dae:	0000                	unimp
     db0:	3564                	fld	fs1,232(a0)
     db2:	0000                	unimp
     db4:	5b01                	li	s6,-32
     db6:	0700                	add	s0,sp,896
     db8:	3382                	fld	ft7,32(sp)
     dba:	0000                	unimp
     dbc:	33a4                	fld	fs1,96(a5)
     dbe:	0000                	unimp
     dc0:	5d01                	li	s10,-32
     dc2:	00347c07          	.4byte	0x347c07
     dc6:	8400                	.2byte	0x8400
     dc8:	0034                	add	a3,sp,8
     dca:	0100                	add	s0,sp,128
     dcc:	005e                	c.slli	zero,0x17
     dce:	00342607          	flw	fa2,3(s0)
     dd2:	3800                	fld	fs0,48(s0)
     dd4:	0034                	add	a3,sp,8
     dd6:	0200                	add	s0,sp,256
     dd8:	9f31                	.2byte	0x9f31
     dda:	0700                	add	s0,sp,896
     ddc:	3438                	fld	fa4,104(s0)
     dde:	0000                	unimp
     de0:	343e                	fld	fs0,488(sp)
     de2:	0000                	unimp
     de4:	3002                	fld	ft0,32(sp)
     de6:	079f 3548 0000      	.byte	0x9f, 0x07, 0x48, 0x35, 0x00, 0x00
     dec:	3564                	fld	fs1,232(a0)
     dee:	0000                	unimp
     df0:	3002                	fld	ft0,32(sp)
     df2:	009f 7a07 0033      	.byte	0x9f, 0x00, 0x07, 0x7a, 0x33, 0x00
     df8:	8e00                	.2byte	0x8e00
     dfa:	01000033          	add	zero,zero,a6
     dfe:	075e                	sll	a4,a4,0x17
     e00:	344c                	fld	fa1,168(s0)
     e02:	0000                	unimp
     e04:	3558                	fld	fa4,168(a0)
     e06:	0000                	unimp
     e08:	6101                	add	sp,sp,0
     e0a:	0700                	add	s0,sp,896
     e0c:	327a                	fld	ft4,440(sp)
     e0e:	0000                	unimp
     e10:	32f0                	fld	fa2,224(a3)
     e12:	0000                	unimp
     e14:	6101                	add	sp,sp,0
     e16:	00332607          	flw	fa2,3(t1)
     e1a:	6c00                	flw	fs0,24(s0)
     e1c:	01000033          	add	zero,zero,a6
     e20:	0761                	add	a4,a4,24
     e22:	337a                	fld	ft6,440(sp)
     e24:	0000                	unimp
     e26:	33ec                	fld	fa1,224(a5)
     e28:	0000                	unimp
     e2a:	6101                	add	sp,sp,0
     e2c:	00341a07          	.4byte	0x341a07
     e30:	3e00                	fld	fs0,56(a2)
     e32:	0034                	add	a3,sp,8
     e34:	0100                	add	s0,sp,128
     e36:	0760                	add	s0,sp,908
     e38:	344c                	fld	fa1,168(s0)
     e3a:	0000                	unimp
     e3c:	3564                	fld	fs1,232(a0)
     e3e:	0000                	unimp
     e40:	6001                	.2byte	0x6001
     e42:	0700                	add	s0,sp,896
     e44:	3256                	fld	ft4,368(sp)
     e46:	0000                	unimp
     e48:	3294                	fld	fa3,32(a3)
     e4a:	0000                	unimp
     e4c:	5c01                	li	s8,-32
     e4e:	0032f007          	.4byte	0x32f007
     e52:	fe00                	fsw	fs0,56(a2)
     e54:	0032                	c.slli	zero,0xc
     e56:	0100                	add	s0,sp,128
     e58:	005c                	add	a5,sp,4
     e5a:	00326607          	.4byte	0x326607
     e5e:	7600                	flw	fs0,40(a2)
     e60:	0032                	c.slli	zero,0xc
     e62:	0100                	add	s0,sp,128
     e64:	005d                	c.nop	23
     e66:	00329407          	.4byte	0x329407
     e6a:	ce00                	sw	s0,24(a2)
     e6c:	0032                	c.slli	zero,0xc
     e6e:	0100                	add	s0,sp,128
     e70:	005c                	add	a5,sp,4
     e72:	00329e07          	.4byte	0x329e07
     e76:	ce00                	sw	s0,24(a2)
     e78:	0032                	c.slli	zero,0xc
     e7a:	0100                	add	s0,sp,128
     e7c:	005a                	c.slli	zero,0x16
     e7e:	00329e07          	.4byte	0x329e07
     e82:	a200                	fsd	fs0,0(a2)
     e84:	0032                	c.slli	zero,0xc
     e86:	0c00                	add	s0,sp,528
     e88:	007e                	c.slli	zero,0x1f
     e8a:	2da8                	fld	fa0,88(a1)
     e8c:	007c                	add	a5,sp,12
     e8e:	2da8                	fld	fa0,88(a1)
     e90:	9f00a81b          	.4byte	0x9f00a81b
     e94:	0700                	add	s0,sp,896
     e96:	32c2                	fld	ft5,48(sp)
     e98:	0000                	unimp
     e9a:	32c6                	fld	ft5,112(sp)
     e9c:	0000                	unimp
     e9e:	7e0c                	flw	fa1,56(a2)
     ea0:	a800                	fsd	fs0,16(s0)
     ea2:	7c2d                	lui	s8,0xfffeb
     ea4:	a800                	fsd	fs0,16(s0)
     ea6:	1b2d                	add	s6,s6,-21
     ea8:	00a8                	add	a0,sp,72
     eaa:	079f 32c6 0000      	.byte	0x9f, 0x07, 0xc6, 0x32, 0x00, 0x00
     eb0:	32ce                	fld	ft5,240(sp)
     eb2:	0000                	unimp
     eb4:	5d01                	li	s10,-32
     eb6:	0700                	add	s0,sp,896
     eb8:	329e                	fld	ft5,480(sp)
     eba:	0000                	unimp
     ebc:	32a2                	fld	ft5,40(sp)
     ebe:	0000                	unimp
     ec0:	7e06                	flw	ft8,96(sp)
     ec2:	7c00                	flw	fs0,56(s0)
     ec4:	1d00                	add	s0,sp,688
     ec6:	079f 32b0 0000      	.byte	0x9f, 0x07, 0xb0, 0x32, 0x00, 0x00
     ecc:	32ca                	fld	ft5,176(sp)
     ece:	0000                	unimp
     ed0:	5e01                	li	t3,-32
     ed2:	0700                	add	s0,sp,896
     ed4:	32c2                	fld	ft5,48(sp)
     ed6:	0000                	unimp
     ed8:	32ca                	fld	ft5,176(sp)
     eda:	0000                	unimp
     edc:	7e06                	flw	ft8,96(sp)
     ede:	7c00                	flw	fs0,56(s0)
     ee0:	1d00                	add	s0,sp,688
     ee2:	079f 32ca 0000      	.byte	0x9f, 0x07, 0xca, 0x32, 0x00, 0x00
     ee8:	32ce                	fld	ft5,240(sp)
     eea:	0000                	unimp
     eec:	5e01                	li	t3,-32
     eee:	0700                	add	s0,sp,896
     ef0:	32a6                	fld	ft5,104(sp)
     ef2:	0000                	unimp
     ef4:	32c6                	fld	ft5,112(sp)
     ef6:	0000                	unimp
     ef8:	5d01                	li	s10,-32
     efa:	0700                	add	s0,sp,896
     efc:	3332                	fld	ft6,296(sp)
     efe:	0000                	unimp
     f00:	336c                	fld	fa1,224(a4)
     f02:	0000                	unimp
     f04:	5b01                	li	s6,-32
     f06:	0700                	add	s0,sp,896
     f08:	333c                	fld	fa5,96(a4)
     f0a:	0000                	unimp
     f0c:	336c                	fld	fa1,224(a4)
     f0e:	0000                	unimp
     f10:	5a01                	li	s4,-32
     f12:	0700                	add	s0,sp,896
     f14:	333c                	fld	fa5,96(a4)
     f16:	0000                	unimp
     f18:	3348                	fld	fa0,160(a4)
     f1a:	0000                	unimp
     f1c:	5c01                	li	s8,-32
     f1e:	0700                	add	s0,sp,896
     f20:	335e                	fld	ft6,496(sp)
     f22:	0000                	unimp
     f24:	3362                	fld	ft6,56(sp)
     f26:	0000                	unimp
     f28:	7e0c                	flw	fa1,56(a2)
     f2a:	a800                	fsd	fs0,16(s0)
     f2c:	7b2d                	lui	s6,0xfffeb
     f2e:	a800                	fsd	fs0,16(s0)
     f30:	1b2d                	add	s6,s6,-21 # fffeafeb <_stack_start+0xfffe6feb>
     f32:	00a8                	add	a0,sp,72
     f34:	079f 3362 0000      	.byte	0x9f, 0x07, 0x62, 0x33, 0x00, 0x00
     f3a:	336a                	fld	ft6,184(sp)
     f3c:	0000                	unimp
     f3e:	5d01                	li	s10,-32
     f40:	0700                	add	s0,sp,896
     f42:	333c                	fld	fa5,96(a4)
     f44:	0000                	unimp
     f46:	3344                	fld	fs1,160(a4)
     f48:	0000                	unimp
     f4a:	7e06                	flw	ft8,96(sp)
     f4c:	7b00                	flw	fs0,48(a4)
     f4e:	1d00                	add	s0,sp,688
     f50:	079f 3344 0000      	.byte	0x9f, 0x07, 0x44, 0x33, 0x00, 0x00
     f56:	334a                	fld	ft6,176(sp)
     f58:	0000                	unimp
     f5a:	5e01                	li	t3,-32
     f5c:	00334c07          	.4byte	0x334c07
     f60:	6600                	flw	fs0,8(a2)
     f62:	01000033          	add	zero,zero,a6
     f66:	005e                	c.slli	zero,0x17
     f68:	0032d607          	.4byte	0x32d607
     f6c:	f000                	fsw	fs0,32(s0)
     f6e:	0032                	c.slli	zero,0xc
     f70:	0100                	add	s0,sp,128
     f72:	075f 335e 0000      	.byte	0x5f, 0x07, 0x5e, 0x33, 0x00, 0x00
     f78:	3366                	fld	ft6,120(sp)
     f7a:	0000                	unimp
     f7c:	7e06                	flw	ft8,96(sp)
     f7e:	7b00                	flw	fs0,48(a4)
     f80:	1d00                	add	s0,sp,688
     f82:	079f 3366 0000      	.byte	0x9f, 0x07, 0x66, 0x33, 0x00, 0x00
     f88:	336c                	fld	fa1,224(a4)
     f8a:	0000                	unimp
     f8c:	5e01                	li	t3,-32
     f8e:	0700                	add	s0,sp,896
     f90:	3348                	fld	fa0,160(a4)
     f92:	0000                	unimp
     f94:	336a                	fld	ft6,184(sp)
     f96:	0000                	unimp
     f98:	5c01                	li	s8,-32
     f9a:	00336a07          	.4byte	0x336a07
     f9e:	6c00                	flw	fs0,24(s0)
     fa0:	01000033          	add	zero,zero,a6
     fa4:	005d                	c.nop	23
     fa6:	00330207          	.4byte	0x330207
     faa:	0800                	add	s0,sp,16
     fac:	01000033          	add	zero,zero,a6
     fb0:	075c                	add	a5,sp,900
     fb2:	336c                	fld	fa1,224(a4)
     fb4:	0000                	unimp
     fb6:	337a                	fld	ft6,440(sp)
     fb8:	0000                	unimp
     fba:	5c01                	li	s8,-32
     fbc:	0700                	add	s0,sp,896
     fbe:	3312                	fld	ft6,288(sp)
     fc0:	0000                	unimp
     fc2:	3322                	fld	ft6,40(sp)
     fc4:	0000                	unimp
     fc6:	5d01                	li	s10,-32
     fc8:	0700                	add	s0,sp,896
     fca:	3394                	fld	fa3,32(a5)
     fcc:	0000                	unimp
     fce:	33ec                	fld	fa1,224(a5)
     fd0:	0000                	unimp
     fd2:	5a01                	li	s4,-32
     fd4:	0700                	add	s0,sp,896
     fd6:	33a0                	fld	fs0,96(a5)
     fd8:	0000                	unimp
     fda:	33ec                	fld	fa1,224(a5)
     fdc:	0000                	unimp
     fde:	5601                	li	a2,-32
     fe0:	0700                	add	s0,sp,896
     fe2:	33a0                	fld	fs0,96(a5)
     fe4:	0000                	unimp
     fe6:	33a8                	fld	fa0,96(a5)
     fe8:	0000                	unimp
     fea:	5b01                	li	s6,-32
     fec:	0700                	add	s0,sp,896
     fee:	33c4                	fld	fs1,160(a5)
     ff0:	0000                	unimp
     ff2:	33c8                	fld	fa0,160(a5)
     ff4:	0000                	unimp
     ff6:	7d0c                	flw	fa1,56(a0)
     ff8:	a800                	fsd	fs0,16(s0)
     ffa:	7a2d                	lui	s4,0xfffeb
     ffc:	a800                	fsd	fs0,16(s0)
     ffe:	1b2d                	add	s6,s6,-21
    1000:	00a8                	add	a0,sp,72
    1002:	079f 33c8 0000      	.byte	0x9f, 0x07, 0xc8, 0x33, 0x00, 0x00
    1008:	33d4                	fld	fa3,160(a5)
    100a:	0000                	unimp
    100c:	5c01                	li	s8,-32
    100e:	0700                	add	s0,sp,896
    1010:	33a0                	fld	fs0,96(a5)
    1012:	0000                	unimp
    1014:	33a4                	fld	fs1,96(a5)
    1016:	0000                	unimp
    1018:	7d06                	flw	fs10,96(sp)
    101a:	7a00                	flw	fs0,48(a2)
    101c:	1d00                	add	s0,sp,688
    101e:	079f 33a4 0000      	.byte	0x9f, 0x07, 0xa4, 0x33, 0x00, 0x00
    1024:	33b0                	fld	fa2,96(a5)
    1026:	0000                	unimp
    1028:	5d01                	li	s10,-32
    102a:	0033b207          	fld	ft4,3(t2)
    102e:	d000                	sw	s0,32(s0)
    1030:	01000033          	add	zero,zero,a6
    1034:	005d                	c.nop	23
    1036:	0033c407          	.4byte	0x33c407
    103a:	d000                	sw	s0,32(s0)
    103c:	06000033          	.4byte	0x6000033
    1040:	007d                	c.nop	31
    1042:	007a                	c.slli	zero,0x1e
    1044:	9f1d                	.2byte	0x9f1d
    1046:	0033d007          	.4byte	0x33d007
    104a:	d600                	sw	s0,40(a2)
    104c:	01000033          	add	zero,zero,a6
    1050:	075d                	add	a4,a4,23
    1052:	33d8                	fld	fa4,160(a5)
    1054:	0000                	unimp
    1056:	33ec                	fld	fa1,224(a5)
    1058:	0000                	unimp
    105a:	5e01                	li	t3,-32
    105c:	0700                	add	s0,sp,896
    105e:	33a8                	fld	fa0,96(a5)
    1060:	0000                	unimp
    1062:	33d4                	fld	fa3,160(a5)
    1064:	0000                	unimp
    1066:	5b01                	li	s6,-32
    1068:	0033d407          	.4byte	0x33d407
    106c:	ec00                	fsw	fs0,24(s0)
    106e:	01000033          	add	zero,zero,a6
    1072:	005c                	add	a5,sp,4
    1074:	0033f007          	.4byte	0x33f007
    1078:	2e00                	fld	fs0,24(a2)
    107a:	0034                	add	a3,sp,8
    107c:	0100                	add	s0,sp,128
    107e:	075d                	add	a4,a4,23
    1080:	343e                	fld	fs0,488(sp)
    1082:	0000                	unimp
    1084:	3454                	fld	fa3,168(s0)
    1086:	0000                	unimp
    1088:	5d01                	li	s10,-32
    108a:	0700                	add	s0,sp,896
    108c:	3400                	fld	fs0,40(s0)
    108e:	0000                	unimp
    1090:	341a                	fld	fs0,416(sp)
    1092:	0000                	unimp
    1094:	6001                	.2byte	0x6001
    1096:	0700                	add	s0,sp,896
    1098:	3434                	fld	fa3,104(s0)
    109a:	0000                	unimp
    109c:	3438                	fld	fa4,104(s0)
    109e:	0000                	unimp
    10a0:	5c01                	li	s8,-32
    10a2:	0700                	add	s0,sp,896
    10a4:	351e                	fld	fa0,480(sp)
    10a6:	0000                	unimp
    10a8:	3564                	fld	fs1,232(a0)
    10aa:	0000                	unimp
    10ac:	5f01                	li	t5,-32
    10ae:	0700                	add	s0,sp,896
    10b0:	352e                	fld	fa0,232(sp)
    10b2:	0000                	unimp
    10b4:	3546                	fld	fa0,112(sp)
    10b6:	0000                	unimp
    10b8:	5e01                	li	t3,-32
    10ba:	00354807          	.4byte	0x354807
    10be:	4c00                	lw	s0,24(s0)
    10c0:	0035                	c.nop	13
    10c2:	0100                	add	s0,sp,128
    10c4:	005e                	c.slli	zero,0x17
    10c6:	00348007          	.4byte	0x348007
    10ca:	b800                	fsd	fs0,48(s0)
    10cc:	0034                	add	a3,sp,8
    10ce:	0100                	add	s0,sp,128
    10d0:	076c                	add	a1,sp,908
    10d2:	34b8                	fld	fa4,104(s1)
    10d4:	0000                	unimp
    10d6:	3544                	fld	fs1,168(a0)
    10d8:	0000                	unimp
    10da:	7d05                	lui	s10,0xfffe1
    10dc:	4000                	lw	s0,0(s0)
    10de:	9f25                	.2byte	0x9f25
    10e0:	0700                	add	s0,sp,896
    10e2:	3480                	fld	fs0,40(s1)
    10e4:	0000                	unimp
    10e6:	34bc                	fld	fa5,104(s1)
    10e8:	0000                	unimp
    10ea:	5601                	li	a2,-32
    10ec:	0034bc07          	fld	fs8,3(s1)
    10f0:	4400                	lw	s0,8(s0)
    10f2:	0035                	c.nop	13
    10f4:	0700                	add	s0,sp,896
    10f6:	007d                	c.nop	31
    10f8:	2440                	fld	fs0,136(s0)
    10fa:	2540                	fld	fs0,136(a0)
    10fc:	009f 8007 0034      	.byte	0x9f, 0x00, 0x07, 0x80, 0x34, 0x00
    1102:	9800                	.2byte	0x9800
    1104:	0034                	add	a3,sp,8
    1106:	0100                	add	s0,sp,128
    1108:	076e                	sll	a4,a4,0x1b
    110a:	3498                	fld	fa4,40(s1)
    110c:	0000                	unimp
    110e:	34ee                	fld	fs1,248(sp)
    1110:	0000                	unimp
    1112:	5e01                	li	t3,-32
    1114:	0700                	add	s0,sp,896
    1116:	34ae                	fld	fs1,232(sp)
    1118:	0000                	unimp
    111a:	34ca                	fld	fs1,176(sp)
    111c:	0000                	unimp
    111e:	6d01                	.2byte	0x6d01
    1120:	0034ca07          	.4byte	0x34ca07
    1124:	f200                	fsw	fs0,32(a2)
    1126:	0034                	add	a3,sp,8
    1128:	0100                	add	s0,sp,128
    112a:	006c                	add	a1,sp,12
    112c:	00348007          	.4byte	0x348007
    1130:	8400                	.2byte	0x8400
    1132:	0034                	add	a3,sp,8
    1134:	0600                	add	s0,sp,768
    1136:	007e                	c.slli	zero,0x1f
    1138:	008c                	add	a1,sp,64
    113a:	9f1d                	.2byte	0x9f1d
    113c:	00348407          	.4byte	0x348407
    1140:	8a00                	.2byte	0x8a00
    1142:	0034                	add	a3,sp,8
    1144:	0100                	add	s0,sp,128
    1146:	075e                	sll	a4,a4,0x17
    1148:	348c                	fld	fa1,40(s1)
    114a:	0000                	unimp
    114c:	3494                	fld	fa3,40(s1)
    114e:	0000                	unimp
    1150:	5f01                	li	t5,-32
    1152:	00349807          	.4byte	0x349807
    1156:	b600                	fsd	fs0,40(a2)
    1158:	0034                	add	a3,sp,8
    115a:	0100                	add	s0,sp,128
    115c:	005f aa07 0034      	.byte	0x5f, 0x00, 0x07, 0xaa, 0x34, 0x00
    1162:	b600                	fsd	fs0,40(a2)
    1164:	0034                	add	a3,sp,8
    1166:	0600                	add	s0,sp,768
    1168:	007f 008c 9f1d b607 	.byte	0x7f, 0x00, 0x8c, 0x00, 0x1d, 0x9f, 0x07, 0xb6, 0x34, 0x00
    1170:	0034 
    1172:	be00                	fsd	fs0,56(a2)
    1174:	0034                	add	a3,sp,8
    1176:	0100                	add	s0,sp,128
    1178:	075f 34c0 0000      	.byte	0x5f, 0x07, 0xc0, 0x34, 0x00, 0x00
    117e:	34c6                	fld	fs1,112(sp)
    1180:	0000                	unimp
    1182:	5b01                	li	s6,-32
    1184:	0034ca07          	.4byte	0x34ca07
    1188:	5200                	lw	s0,32(a2)
    118a:	0035                	c.nop	13
    118c:	0100                	add	s0,sp,128
    118e:	8807005b          	.4byte	0x8807005b
    1192:	0034                	add	a3,sp,8
    1194:	ae00                	fsd	fs0,24(a2)
    1196:	0034                	add	a3,sp,8
    1198:	0100                	add	s0,sp,128
    119a:	076d                	add	a4,a4,27
    119c:	34ae                	fld	fs1,232(sp)
    119e:	0000                	unimp
    11a0:	34bc                	fld	fa5,104(s1)
    11a2:	0000                	unimp
    11a4:	7606                	flw	fa2,96(sp)
    11a6:	8e00                	.2byte	0x8e00
    11a8:	1e00                	add	s0,sp,816
    11aa:	079f 34bc 0000      	.byte	0x9f, 0x07, 0xbc, 0x34, 0x00, 0x00
    11b0:	34ea                	fld	fs1,184(sp)
    11b2:	0000                	unimp
    11b4:	5601                	li	a2,-32
    11b6:	0034ea07          	.4byte	0x34ea07
    11ba:	fc00                	fsw	fs0,56(s0)
    11bc:	0034                	add	a3,sp,8
    11be:	0a00                	add	s0,sp,272
    11c0:	007d                	c.nop	31
    11c2:	2440                	fld	fs0,136(s0)
    11c4:	2540                	fld	fs0,136(a0)
    11c6:	008d                	add	ra,ra,3
    11c8:	9f1e                	add	t5,t5,t2
    11ca:	0700                	add	s0,sp,896
    11cc:	34fc                	fld	fa5,232(s1)
    11ce:	0000                	unimp
    11d0:	352c                	fld	fa1,104(a0)
    11d2:	0000                	unimp
    11d4:	6d01                	.2byte	0x6d01
    11d6:	0700                	add	s0,sp,896
    11d8:	3512                	fld	fa0,288(sp)
    11da:	0000                	unimp
    11dc:	3526                	fld	fa0,104(sp)
    11de:	0000                	unimp
    11e0:	5e01                	li	t3,-32
    11e2:	00352607          	flw	fa2,3(a0)
    11e6:	2c00                	fld	fs0,24(s0)
    11e8:	0035                	c.nop	13
    11ea:	0800                	add	s0,sp,16
    11ec:	008d                	add	ra,ra,3
    11ee:	2540                	fld	fs0,136(a0)
    11f0:	008c                	add	a1,sp,64
    11f2:	9f22                	add	t5,t5,s0
    11f4:	0700                	add	s0,sp,896
    11f6:	3500                	fld	fs0,40(a0)
    11f8:	0000                	unimp
    11fa:	351c                	fld	fa5,40(a0)
    11fc:	0000                	unimp
    11fe:	5601                	li	a2,-32
    1200:	0700                	add	s0,sp,896
    1202:	3508                	fld	fa0,40(a0)
    1204:	0000                	unimp
    1206:	351e                	fld	fa0,480(sp)
    1208:	0000                	unimp
    120a:	5f01                	li	t5,-32
    120c:	0700                	add	s0,sp,896
    120e:	34ee                	fld	fs1,248(sp)
    1210:	0000                	unimp
    1212:	3504                	fld	fs1,40(a0)
    1214:	0000                	unimp
    1216:	5e01                	li	t3,-32
    1218:	0700                	add	s0,sp,896
    121a:	34f8                	fld	fa4,232(s1)
    121c:	0000                	unimp
    121e:	3500                	fld	fs0,40(a0)
    1220:	0000                	unimp
    1222:	5601                	li	a2,-32
    1224:	00350007          	.4byte	0x350007
    1228:	2200                	fld	fs0,0(a2)
    122a:	0035                	c.nop	13
    122c:	0600                	add	s0,sp,768
    122e:	7f8e                	flw	ft11,224(sp)
    1230:	007c                	add	a5,sp,12
    1232:	9f1a                	add	t5,t5,t1
    1234:	00352207          	flw	ft4,3(a0)
    1238:	3e00                	fld	fs0,56(a2)
    123a:	0035                	c.nop	13
    123c:	0600                	add	s0,sp,768
    123e:	007c                	add	a5,sp,12
    1240:	0076                	c.slli	zero,0x1d
    1242:	9f1a                	add	t5,t5,t1
    1244:	0700                	add	s0,sp,896
    1246:	34f4                	fld	fa3,232(s1)
    1248:	0000                	unimp
    124a:	3508                	fld	fa0,40(a0)
    124c:	0000                	unimp
    124e:	5f01                	li	t5,-32
    1250:	0700                	add	s0,sp,896
    1252:	3546                	fld	fa0,112(sp)
    1254:	0000                	unimp
    1256:	3548                	fld	fa0,168(a0)
    1258:	0000                	unimp
    125a:	5c01                	li	s8,-32
    125c:	0700                	add	s0,sp,896
    125e:	354c                	fld	fa1,168(a0)
    1260:	0000                	unimp
    1262:	355c                	fld	fa5,168(a0)
    1264:	0000                	unimp
    1266:	5e01                	li	t3,-32
	...

Disassembly of section .debug_aranges:

00000000 <.debug_aranges>:
   0:	001c                	.2byte	0x1c
   2:	0000                	unimp
   4:	0002                	c.slli64	zero
   6:	0000                	unimp
   8:	0000                	unimp
   a:	0004                	.2byte	0x4
   c:	0000                	unimp
   e:	0000                	unimp
  10:	2ee8                	fld	fa0,216(a3)
  12:	0000                	unimp
  14:	035a                	sll	t1,t1,0x16
	...
  1e:	0000                	unimp
  20:	001c                	.2byte	0x1c
  22:	0000                	unimp
  24:	0002                	c.slli64	zero
  26:	0761                	add	a4,a4,24
  28:	0000                	unimp
  2a:	0004                	.2byte	0x4
  2c:	0000                	unimp
  2e:	0000                	unimp
  30:	3242                	fld	ft4,48(sp)
  32:	0000                	unimp
  34:	0324                	add	s1,sp,392
	...
  3e:	0000                	unimp
  40:	0014                	.2byte	0x14
  42:	0000                	unimp
  44:	0002                	c.slli64	zero
  46:	0f15                	add	t5,t5,5
  48:	0000                	unimp
  4a:	0004                	.2byte	0x4
	...

Disassembly of section .debug_rnglists:

00000000 <.debug_rnglists>:
   0:	010d                	add	sp,sp,3
   2:	0000                	unimp
   4:	0005                	c.nop	1
   6:	0004                	.2byte	0x4
   8:	0000                	unimp
   a:	0000                	unimp
   c:	e806                	fsw	ft1,16(sp)
   e:	002e                	c.slli	zero,0xb
  10:	e800                	fsw	fs0,16(s0)
  12:	002e                	c.slli	zero,0xb
  14:	0600                	add	s0,sp,768
  16:	2eec                	fld	fa1,216(a3)
  18:	0000                	unimp
  1a:	2fae                	fld	ft11,200(sp)
  1c:	0000                	unimp
  1e:	b006                	fsd	ft1,32(sp)
  20:	4200002f          	.4byte	0x4200002f
  24:	0032                	c.slli	zero,0xc
  26:	0000                	unimp
  28:	e806                	fsw	ft1,16(sp)
  2a:	002e                	c.slli	zero,0xb
  2c:	e800                	fsw	fs0,16(s0)
  2e:	002e                	c.slli	zero,0xb
  30:	0600                	add	s0,sp,768
  32:	2eec                	fld	fa1,216(a3)
  34:	0000                	unimp
  36:	2fae                	fld	ft11,200(sp)
  38:	0000                	unimp
  3a:	b006                	fsd	ft1,32(sp)
  3c:	3a00002f          	.4byte	0x3a00002f
  40:	0032                	c.slli	zero,0xc
  42:	0600                	add	s0,sp,768
  44:	323c                	fld	fa5,96(a2)
  46:	0000                	unimp
  48:	3242                	fld	ft4,48(sp)
  4a:	0000                	unimp
  4c:	0600                	add	s0,sp,768
  4e:	2f00                	fld	fs0,24(a4)
  50:	0000                	unimp
  52:	2f24                	fld	fs1,88(a4)
  54:	0000                	unimp
  56:	b006                	fsd	ft1,32(sp)
  58:	be00002f          	.4byte	0xbe00002f
  5c:	0000002f          	.4byte	0x2f
  60:	ac06                	fsd	ft1,24(sp)
  62:	ae00002f          	.4byte	0xae00002f
  66:	0600002f          	.4byte	0x600002f
  6a:	314c                	fld	fa1,160(a0)
  6c:	0000                	unimp
  6e:	323a                	fld	ft4,424(sp)
  70:	0000                	unimp
  72:	0600                	add	s0,sp,768
  74:	3166                	fld	ft2,120(sp)
  76:	0000                	unimp
  78:	3176                	fld	ft2,376(sp)
  7a:	0000                	unimp
  7c:	7a06                	flw	fs4,96(sp)
  7e:	0031                	c.nop	12
  80:	da00                	sw	s0,48(a2)
  82:	0031                	c.nop	12
  84:	0600                	add	s0,sp,768
  86:	31dc                	fld	fa5,160(a1)
  88:	0000                	unimp
  8a:	31de                	fld	ft3,496(sp)
  8c:	0000                	unimp
  8e:	e606                	fsw	ft1,12(sp)
  90:	0031                	c.nop	12
  92:	ea00                	fsw	fs0,16(a2)
  94:	0031                	c.nop	12
  96:	0000                	unimp
  98:	da06                	sw	ra,52(sp)
  9a:	0031                	c.nop	12
  9c:	dc00                	sw	s0,56(s0)
  9e:	0031                	c.nop	12
  a0:	0600                	add	s0,sp,768
  a2:	31de                	fld	ft3,496(sp)
  a4:	0000                	unimp
  a6:	31e6                	fld	ft3,120(sp)
  a8:	0000                	unimp
  aa:	ea06                	fsw	ft1,20(sp)
  ac:	0031                	c.nop	12
  ae:	1800                	add	s0,sp,48
  b0:	0032                	c.slli	zero,0xc
  b2:	0600                	add	s0,sp,768
  b4:	3220                	fld	fs0,96(a2)
  b6:	0000                	unimp
  b8:	322c                	fld	fa1,96(a2)
  ba:	0000                	unimp
  bc:	3006                	fld	ft0,96(sp)
  be:	0032                	c.slli	zero,0xc
  c0:	3200                	fld	fs0,32(a2)
  c2:	0032                	c.slli	zero,0xc
  c4:	0000                	unimp
  c6:	be06                	fsd	ft1,312(sp)
  c8:	c000002f          	.4byte	0xc000002f
  cc:	0600002f          	.4byte	0x600002f
  d0:	2fc2                	fld	ft11,16(sp)
  d2:	0000                	unimp
  d4:	2fe6                	fld	ft11,88(sp)
  d6:	0000                	unimp
  d8:	6206                	flw	ft4,64(sp)
  da:	0030                	add	a2,sp,8
  dc:	7000                	flw	fs0,32(s0)
  de:	0030                	add	a2,sp,8
  e0:	0000                	unimp
  e2:	7806                	flw	fa6,96(sp)
  e4:	0030                	add	a2,sp,8
  e6:	7c00                	flw	fs0,56(s0)
  e8:	0030                	add	a2,sp,8
  ea:	0600                	add	s0,sp,768
  ec:	3088                	fld	fa0,32(s1)
  ee:	0000                	unimp
  f0:	3092                	fld	ft1,288(sp)
  f2:	0000                	unimp
  f4:	9606                	add	a2,a2,ra
  f6:	0030                	add	a2,sp,8
  f8:	fc00                	fsw	fs0,56(s0)
  fa:	0030                	add	a2,sp,8
  fc:	0000                	unimp
  fe:	0006                	c.slli	zero,0x1
 100:	0031                	c.nop	12
 102:	2a00                	fld	fs0,16(a2)
 104:	0031                	c.nop	12
 106:	0600                	add	s0,sp,768
 108:	313e                	fld	ft2,488(sp)
 10a:	0000                	unimp
 10c:	314c                	fld	fa1,160(a0)
 10e:	0000                	unimp
 110:	a800                	fsd	fs0,16(s0)
 112:	0000                	unimp
 114:	0500                	add	s0,sp,640
 116:	0400                	add	s0,sp,512
 118:	0000                	unimp
 11a:	0000                	unimp
 11c:	0600                	add	s0,sp,768
 11e:	3256                	fld	ft4,368(sp)
 120:	0000                	unimp
 122:	327a                	fld	ft4,440(sp)
 124:	0000                	unimp
 126:	f006                	fsw	ft1,32(sp)
 128:	0032                	c.slli	zero,0xc
 12a:	fe00                	fsw	fs0,56(a2)
 12c:	0032                	c.slli	zero,0xc
 12e:	0000                	unimp
 130:	ce06                	sw	ra,28(sp)
 132:	0032                	c.slli	zero,0xc
 134:	e800                	fsw	fs0,16(s0)
 136:	0032                	c.slli	zero,0xc
 138:	0600                	add	s0,sp,768
 13a:	332e                	fld	ft6,232(sp)
 13c:	0000                	unimp
 13e:	336c                	fld	fa1,224(a4)
 140:	0000                	unimp
 142:	0600                	add	s0,sp,768
 144:	32fe                	fld	ft5,504(sp)
 146:	0000                	unimp
 148:	3300                	fld	fs0,32(a4)
 14a:	0000                	unimp
 14c:	0206                	sll	tp,tp,0x1
 14e:	26000033          	.4byte	0x26000033
 152:	06000033          	.4byte	0x6000033
 156:	336c                	fld	fa1,224(a4)
 158:	0000                	unimp
 15a:	337a                	fld	ft6,440(sp)
 15c:	0000                	unimp
 15e:	0600                	add	s0,sp,768
 160:	338e                	fld	ft7,224(sp)
 162:	0000                	unimp
 164:	3392                	fld	ft7,288(sp)
 166:	0000                	unimp
 168:	9406                	add	s0,s0,ra
 16a:	ec000033          	.4byte	0xec000033
 16e:	00000033          	add	zero,zero,zero
 172:	f006                	fsw	ft1,32(sp)
 174:	1a000033          	.4byte	0x1a000033
 178:	0034                	add	a3,sp,8
 17a:	0600                	add	s0,sp,768
 17c:	343e                	fld	fs0,488(sp)
 17e:	0000                	unimp
 180:	344c                	fld	fa1,168(s0)
 182:	0000                	unimp
 184:	0600                	add	s0,sp,768
 186:	345a                	fld	fs0,432(sp)
 188:	0000                	unimp
 18a:	346a                	fld	fs0,184(sp)
 18c:	0000                	unimp
 18e:	7406                	flw	fs0,96(sp)
 190:	0034                	add	a3,sp,8
 192:	7800                	flw	fs0,48(s0)
 194:	0034                	add	a3,sp,8
 196:	0600                	add	s0,sp,768
 198:	3480                	fld	fs0,40(s1)
 19a:	0000                	unimp
 19c:	34dc                	fld	fa5,168(s1)
 19e:	0000                	unimp
 1a0:	de06                	sw	ra,60(sp)
 1a2:	0034                	add	a3,sp,8
 1a4:	e600                	fsw	fs0,8(a2)
 1a6:	0034                	add	a3,sp,8
 1a8:	0000                	unimp
 1aa:	dc06                	sw	ra,56(sp)
 1ac:	0034                	add	a3,sp,8
 1ae:	de00                	sw	s0,56(a2)
 1b0:	0034                	add	a3,sp,8
 1b2:	0600                	add	s0,sp,768
 1b4:	34e6                	fld	fs1,120(sp)
 1b6:	0000                	unimp
 1b8:	352e                	fld	fa0,232(sp)
 1ba:	0000                	unimp
	...

Disassembly of section .debug_line:

00000000 <.debug_line>:
   0:	0000070f          	.4byte	0x70f
   4:	0005                	c.nop	1
   6:	0004                	.2byte	0x4
   8:	00000033          	add	zero,zero,zero
   c:	0101                	add	sp,sp,0
   e:	fb01                	bnez	a4,ffffff1e <_stack_start+0xffffbf1e>
  10:	0d0e                	sll	s10,s10,0x3
  12:	0100                	add	s0,sp,128
  14:	0101                	add	sp,sp,0
  16:	0001                	nop
  18:	0000                	unimp
  1a:	0001                	nop
  1c:	0100                	add	s0,sp,128
  1e:	0101                	add	sp,sp,0
  20:	021f 0000 0000      	.byte	0x1f, 0x02, 0x00, 0x00, 0x00, 0x00
  26:	00b5                	add	ra,ra,13
  28:	0000                	unimp
  2a:	0102                	c.slli64	sp
  2c:	021f 030f 00ab      	.byte	0x1f, 0x02, 0x0f, 0x03, 0xab, 0x00
  32:	0000                	unimp
  34:	ab01                	j	544 <_ntoa_format+0x84>
  36:	0000                	unimp
  38:	0100                	add	s0,sp,128
  3a:	000000cb          	fnmsub.s	ft1,ft0,ft0,ft0,rne
  3e:	0501                	add	a0,a0,0
  40:	0001                	nop
  42:	0205                	add	tp,tp,1 # 1 <main-0x9f>
  44:	2ee8                	fld	fa0,216(a3)
  46:	0000                	unimp
  48:	010a9203          	lh	tp,16(s5)
  4c:	0305                	add	t1,t1,1
  4e:	00090103          	lb	sp,0(s2)
  52:	0100                	add	s0,sp,128
  54:	097dd103          	lhu	sp,151(s11) # 97 <main-0x9>
  58:	0000                	unimp
  5a:	0301                	add	t1,t1,0
  5c:	0901                	add	s2,s2,0
  5e:	0000                	unimp
  60:	0301                	add	t1,t1,0
  62:	0901                	add	s2,s2,0
  64:	0000                	unimp
  66:	0301                	add	t1,t1,0
  68:	0901                	add	s2,s2,0
  6a:	0000                	unimp
  6c:	0301                	add	t1,t1,0
  6e:	0901                	add	s2,s2,0
  70:	0000                	unimp
  72:	0301                	add	t1,t1,0
  74:	0901                	add	s2,s2,0
  76:	0000                	unimp
  78:	0301                	add	t1,t1,0
  7a:	0902                	c.slli64	s2
  7c:	0000                	unimp
  7e:	0501                	add	a0,a0,0
  80:	0601                	add	a2,a2,0
  82:	0902a703          	lw	a4,144(t0) # a44 <_ntoa_long_long+0x140>
  86:	0000                	unimp
  88:	0501                	add	a0,a0,0
  8a:	0306                	sll	t1,t1,0x1
  8c:	7dd9                	lui	s11,0xffff6
  8e:	0409                	add	s0,s0,2
  90:	0100                	add	s0,sp,128
  92:	0305                	add	t1,t1,1
  94:	0306                	sll	t1,t1,0x1
  96:	0901                	add	s2,s2,0
  98:	0002                	c.slli64	zero
  9a:	0301                	add	t1,t1,0
  9c:	0901                	add	s2,s2,0
  9e:	0000                	unimp
  a0:	0501                	add	a0,a0,0
  a2:	0606                	sll	a2,a2,0x1
  a4:	00090003          	lb	zero,0(s2)
  a8:	0100                	add	s0,sp,128
  aa:	0305                	add	t1,t1,1
  ac:	0306                	sll	t1,t1,0x1
  ae:	0901                	add	s2,s2,0
  b0:	0002                	c.slli64	zero
  b2:	0501                	add	a0,a0,0
  b4:	0606                	sll	a2,a2,0x1
  b6:	00090003          	lb	zero,0(s2)
  ba:	0100                	add	s0,sp,128
  bc:	0305                	add	t1,t1,1
  be:	0306                	sll	t1,t1,0x1
  c0:	0925                	add	s2,s2,9
  c2:	0002                	c.slli64	zero
  c4:	0501                	add	a0,a0,0
  c6:	0606                	sll	a2,a2,0x1
  c8:	00090003          	lb	zero,0(s2)
  cc:	0100                	add	s0,sp,128
  ce:	0705                	add	a4,a4,1
  d0:	0306                	sll	t1,t1,0x1
  d2:	0902                	c.slli64	s2
  d4:	0004                	.2byte	0x4
  d6:	0501                	add	a0,a0,0
  d8:	060a                	sll	a2,a2,0x2
  da:	06090003          	lb	zero,96(s2)
  de:	0100                	add	s0,sp,128
  e0:	0405                	add	s0,s0,1
  e2:	0306                	sll	t1,t1,0x1
  e4:	0904                	add	s1,sp,144
  e6:	0004                	.2byte	0x4
  e8:	0301                	add	t1,t1,0
  ea:	0900                	add	s0,sp,144
  ec:	0000                	unimp
  ee:	0301                	add	t1,t1,0
  f0:	0900                	add	s0,sp,144
  f2:	0000                	unimp
  f4:	0301                	add	t1,t1,0
  f6:	0900                	add	s0,sp,144
  f8:	0000                	unimp
  fa:	0301                	add	t1,t1,0
  fc:	0900                	add	s0,sp,144
  fe:	0000                	unimp
 100:	0301                	add	t1,t1,0
 102:	0900                	add	s0,sp,144
 104:	0010                	.2byte	0x10
 106:	0301                	add	t1,t1,0
 108:	0900                	add	s0,sp,144
 10a:	0014                	.2byte	0x14
 10c:	0301                	add	t1,t1,0
 10e:	0902                	c.slli64	s2
 110:	0000                	unimp
 112:	0501                	add	a0,a0,0
 114:	00030607          	.4byte	0x30607
 118:	0009                	c.nop	2
 11a:	0100                	add	s0,sp,128
 11c:	0805                	add	a6,a6,1
 11e:	0306                	sll	t1,t1,0x1
 120:	0905                	add	s2,s2,1
 122:	0004                	.2byte	0x4
 124:	0501                	add	a0,a0,0
 126:	0611                	add	a2,a2,4
 128:	00090103          	lb	sp,0(s2)
 12c:	0100                	add	s0,sp,128
 12e:	1e05                	add	t3,t3,-31 # 19fe1 <_stack_start+0x15fe1>
 130:	04090003          	lb	zero,64(s2)
 134:	0100                	add	s0,sp,128
 136:	0b05                	add	s6,s6,1
 138:	04097f03          	.4byte	0x4097f03
 13c:	0100                	add	s0,sp,128
 13e:	0805                	add	a6,a6,1
 140:	0306                	sll	t1,t1,0x1
 142:	0901                	add	s2,s2,0
 144:	0004                	.2byte	0x4
 146:	0501                	add	a0,a0,0
 148:	0003060b          	.4byte	0x3060b
 14c:	0009                	c.nop	2
 14e:	0100                	add	s0,sp,128
 150:	0805                	add	a6,a6,1
 152:	0306                	sll	t1,t1,0x1
 154:	0901                	add	s2,s2,0
 156:	0002                	c.slli64	zero
 158:	0501                	add	a0,a0,0
 15a:	0003060b          	.4byte	0x3060b
 15e:	0009                	c.nop	2
 160:	0100                	add	s0,sp,128
 162:	0405                	add	s0,s0,1
 164:	0306                	sll	t1,t1,0x1
 166:	00040903          	lb	s2,0(s0)
 16a:	0301                	add	t1,t1,0
 16c:	0900                	add	s0,sp,144
 16e:	0000                	unimp
 170:	0301                	add	t1,t1,0
 172:	0900                	add	s0,sp,144
 174:	0000                	unimp
 176:	0301                	add	t1,t1,0
 178:	0900                	add	s0,sp,144
 17a:	0000                	unimp
 17c:	0301                	add	t1,t1,0
 17e:	0900                	add	s0,sp,144
 180:	0004                	.2byte	0x4
 182:	0301                	add	t1,t1,0
 184:	0900                	add	s0,sp,144
 186:	000a                	c.slli	zero,0x2
 188:	0301                	add	t1,t1,0
 18a:	0900                	add	s0,sp,144
 18c:	0000                	unimp
 18e:	0301                	add	t1,t1,0
 190:	0900                	add	s0,sp,144
 192:	0000                	unimp
 194:	0301                	add	t1,t1,0
 196:	0900                	add	s0,sp,144
 198:	000a                	c.slli	zero,0x2
 19a:	0301                	add	t1,t1,0
 19c:	0900                	add	s0,sp,144
 19e:	000a                	c.slli	zero,0x2
 1a0:	0301                	add	t1,t1,0
 1a2:	0900                	add	s0,sp,144
 1a4:	0004                	.2byte	0x4
 1a6:	0301                	add	t1,t1,0
 1a8:	0900                	add	s0,sp,144
 1aa:	0006                	c.slli	zero,0x1
 1ac:	0301                	add	t1,t1,0
 1ae:	0900                	add	s0,sp,144
 1b0:	0004                	.2byte	0x4
 1b2:	0301                	add	t1,t1,0
 1b4:	0900                	add	s0,sp,144
 1b6:	0004                	.2byte	0x4
 1b8:	0301                	add	t1,t1,0
 1ba:	0900                	add	s0,sp,144
 1bc:	0006                	c.slli	zero,0x1
 1be:	0301                	add	t1,t1,0
 1c0:	0900                	add	s0,sp,144
 1c2:	0004                	.2byte	0x4
 1c4:	0301                	add	t1,t1,0
 1c6:	0900                	add	s0,sp,144
 1c8:	0000                	unimp
 1ca:	0301                	add	t1,t1,0
 1cc:	0900                	add	s0,sp,144
 1ce:	0004                	.2byte	0x4
 1d0:	0301                	add	t1,t1,0
 1d2:	0900                	add	s0,sp,144
 1d4:	000e                	c.slli	zero,0x3
 1d6:	0301                	add	t1,t1,0
 1d8:	0900                	add	s0,sp,144
 1da:	0006                	c.slli	zero,0x1
 1dc:	0301                	add	t1,t1,0
 1de:	0900                	add	s0,sp,144
 1e0:	0006                	c.slli	zero,0x1
 1e2:	0301                	add	t1,t1,0
 1e4:	0900                	add	s0,sp,144
 1e6:	000a                	c.slli	zero,0x2
 1e8:	0301                	add	t1,t1,0
 1ea:	0900                	add	s0,sp,144
 1ec:	0004                	.2byte	0x4
 1ee:	0301                	add	t1,t1,0
 1f0:	0900                	add	s0,sp,144
 1f2:	0004                	.2byte	0x4
 1f4:	0301                	add	t1,t1,0
 1f6:	0900                	add	s0,sp,144
 1f8:	0000                	unimp
 1fa:	0301                	add	t1,t1,0
 1fc:	0900                	add	s0,sp,144
 1fe:	0004                	.2byte	0x4
 200:	0301                	add	t1,t1,0
 202:	0900                	add	s0,sp,144
 204:	0000                	unimp
 206:	0301                	add	t1,t1,0
 208:	0901                	add	s2,s2,0
 20a:	0000                	unimp
 20c:	0501                	add	a0,a0,0
 20e:	fe03060b          	.4byte	0xfe03060b
 212:	0900                	add	s0,sp,144
 214:	0000                	unimp
 216:	0501                	add	a0,a0,0
 218:	0e030603          	lb	a2,224(t1)
 21c:	0209                	add	tp,tp,2 # 2 <main-0x9e>
 21e:	0100                	add	s0,sp,128
 220:	00090103          	lb	sp,0(s2)
 224:	0100                	add	s0,sp,128
 226:	0105                	add	sp,sp,1
 228:	0306                	sll	t1,t1,0x1
 22a:	00e1                	add	ra,ra,24
 22c:	0009                	c.nop	2
 22e:	0100                	add	s0,sp,128
 230:	0405                	add	s0,s0,1
 232:	097e8503          	lb	a0,151(t4)
 236:	0002                	c.slli64	zero
 238:	0601                	add	a2,a2,0
 23a:	0e091503          	lh	a0,224(s2)
 23e:	0100                	add	s0,sp,128
 240:	0306                	sll	t1,t1,0x1
 242:	00000903          	lb	s2,0(zero) # 0 <main-0xa0>
 246:	0501                	add	a0,a0,0
 248:	097d0307          	.4byte	0x97d0307
 24c:	0002                	c.slli64	zero
 24e:	0501                	add	a0,a0,0
 250:	0604                	add	s1,sp,768
 252:	02090303          	lb	t1,32(s2)
 256:	0100                	add	s0,sp,128
 258:	00090003          	lb	zero,0(s2)
 25c:	0100                	add	s0,sp,128
 25e:	00090003          	lb	zero,0(s2)
 262:	0100                	add	s0,sp,128
 264:	00090003          	lb	zero,0(s2)
 268:	0100                	add	s0,sp,128
 26a:	00090003          	lb	zero,0(s2)
 26e:	0100                	add	s0,sp,128
 270:	10090003          	lb	zero,256(s2)
 274:	0100                	add	s0,sp,128
 276:	14090003          	lb	zero,320(s2)
 27a:	0100                	add	s0,sp,128
 27c:	00090203          	lb	tp,0(s2)
 280:	0100                	add	s0,sp,128
 282:	0705                	add	a4,a4,1
 284:	0306                	sll	t1,t1,0x1
 286:	0900                	add	s0,sp,144
 288:	0000                	unimp
 28a:	0501                	add	a0,a0,0
 28c:	0608                	add	a0,sp,768
 28e:	04090903          	lb	s2,64(s2)
 292:	0100                	add	s0,sp,128
 294:	0b05                	add	s6,s6,1
 296:	0306                	sll	t1,t1,0x1
 298:	0900                	add	s0,sp,144
 29a:	0000                	unimp
 29c:	0501                	add	a0,a0,0
 29e:	0608                	add	a0,sp,768
 2a0:	04090103          	lb	sp,64(s2)
 2a4:	0100                	add	s0,sp,128
 2a6:	0b05                	add	s6,s6,1
 2a8:	0306                	sll	t1,t1,0x1
 2aa:	0900                	add	s0,sp,144
 2ac:	0000                	unimp
 2ae:	0501                	add	a0,a0,0
 2b0:	0608                	add	a0,sp,768
 2b2:	02090d03          	lb	s10,32(s2)
 2b6:	0100                	add	s0,sp,128
 2b8:	0405                	add	s0,s0,1
 2ba:	00090503          	lb	a0,0(s2)
 2be:	0100                	add	s0,sp,128
 2c0:	00090003          	lb	zero,0(s2)
 2c4:	0100                	add	s0,sp,128
 2c6:	00090003          	lb	zero,0(s2)
 2ca:	0100                	add	s0,sp,128
 2cc:	00090003          	lb	zero,0(s2)
 2d0:	0100                	add	s0,sp,128
 2d2:	04090003          	lb	zero,64(s2)
 2d6:	0100                	add	s0,sp,128
 2d8:	0a090003          	lb	zero,160(s2)
 2dc:	0100                	add	s0,sp,128
 2de:	00090003          	lb	zero,0(s2)
 2e2:	0100                	add	s0,sp,128
 2e4:	00090003          	lb	zero,0(s2)
 2e8:	0100                	add	s0,sp,128
 2ea:	0e090003          	lb	zero,224(s2)
 2ee:	0100                	add	s0,sp,128
 2f0:	04090003          	lb	zero,64(s2)
 2f4:	0100                	add	s0,sp,128
 2f6:	04090003          	lb	zero,64(s2)
 2fa:	0100                	add	s0,sp,128
 2fc:	06090003          	lb	zero,96(s2)
 300:	0100                	add	s0,sp,128
 302:	04090003          	lb	zero,64(s2)
 306:	0100                	add	s0,sp,128
 308:	04090003          	lb	zero,64(s2)
 30c:	0100                	add	s0,sp,128
 30e:	06090003          	lb	zero,96(s2)
 312:	0100                	add	s0,sp,128
 314:	04090003          	lb	zero,64(s2)
 318:	0100                	add	s0,sp,128
 31a:	00090003          	lb	zero,0(s2)
 31e:	0100                	add	s0,sp,128
 320:	04090003          	lb	zero,64(s2)
 324:	0100                	add	s0,sp,128
 326:	0e090003          	lb	zero,224(s2)
 32a:	0100                	add	s0,sp,128
 32c:	06090003          	lb	zero,96(s2)
 330:	0100                	add	s0,sp,128
 332:	06090003          	lb	zero,96(s2)
 336:	0100                	add	s0,sp,128
 338:	0a090003          	lb	zero,160(s2)
 33c:	0100                	add	s0,sp,128
 33e:	04090003          	lb	zero,64(s2)
 342:	0100                	add	s0,sp,128
 344:	04090003          	lb	zero,64(s2)
 348:	0100                	add	s0,sp,128
 34a:	00090003          	lb	zero,0(s2)
 34e:	0100                	add	s0,sp,128
 350:	04090003          	lb	zero,64(s2)
 354:	0100                	add	s0,sp,128
 356:	0306                	sll	t1,t1,0x1
 358:	0962                	sll	s2,s2,0x18
 35a:	0002                	c.slli64	zero
 35c:	0501                	add	a0,a0,0
 35e:	0608                	add	a0,sp,768
 360:	0e091203          	lh	tp,224(s2)
 364:	0100                	add	s0,sp,128
 366:	00090203          	lb	tp,0(s2)
 36a:	0100                	add	s0,sp,128
 36c:	0b05                	add	s6,s6,1
 36e:	0306                	sll	t1,t1,0x1
 370:	0900                	add	s0,sp,144
 372:	0000                	unimp
 374:	0501                	add	a0,a0,0
 376:	0608                	add	a0,sp,768
 378:	04090103          	lb	sp,64(s2)
 37c:	0100                	add	s0,sp,128
 37e:	0b05                	add	s6,s6,1
 380:	0306                	sll	t1,t1,0x1
 382:	0900                	add	s0,sp,144
 384:	0000                	unimp
 386:	0501                	add	a0,a0,0
 388:	0608                	add	a0,sp,768
 38a:	04090103          	lb	sp,64(s2)
 38e:	0100                	add	s0,sp,128
 390:	0306                	sll	t1,t1,0x1
 392:	00000903          	lb	s2,0(zero) # 0 <main-0xa0>
 396:	0501                	add	a0,a0,0
 398:	0311                	add	t1,t1,4
 39a:	097d                	add	s2,s2,31
 39c:	0004                	.2byte	0x4
 39e:	0501                	add	a0,a0,0
 3a0:	031e                	sll	t1,t1,0x7
 3a2:	0900                	add	s0,sp,144
 3a4:	0004                	.2byte	0x4
 3a6:	0501                	add	a0,a0,0
 3a8:	0900030b          	.4byte	0x900030b
 3ac:	0004                	.2byte	0x4
 3ae:	0501                	add	a0,a0,0
 3b0:	0608                	add	a0,sp,768
 3b2:	04090103          	lb	sp,64(s2)
 3b6:	0100                	add	s0,sp,128
 3b8:	0306                	sll	t1,t1,0x1
 3ba:	0902                	c.slli64	s2
 3bc:	0000                	unimp
 3be:	0501                	add	a0,a0,0
 3c0:	097e030b          	.4byte	0x97e030b
 3c4:	000a                	c.slli	zero,0x2
 3c6:	0501                	add	a0,a0,0
 3c8:	0608                	add	a0,sp,768
 3ca:	04090203          	lb	tp,64(s2)
 3ce:	0100                	add	s0,sp,128
 3d0:	00090003          	lb	zero,0(s2)
 3d4:	0100                	add	s0,sp,128
 3d6:	00090003          	lb	zero,0(s2)
 3da:	0100                	add	s0,sp,128
 3dc:	00090003          	lb	zero,0(s2)
 3e0:	0100                	add	s0,sp,128
 3e2:	00090003          	lb	zero,0(s2)
 3e6:	0100                	add	s0,sp,128
 3e8:	00090003          	lb	zero,0(s2)
 3ec:	0100                	add	s0,sp,128
 3ee:	00090003          	lb	zero,0(s2)
 3f2:	0100                	add	s0,sp,128
 3f4:	00090003          	lb	zero,0(s2)
 3f8:	0100                	add	s0,sp,128
 3fa:	08090003          	lb	zero,128(s2)
 3fe:	0100                	add	s0,sp,128
 400:	0a090003          	lb	zero,160(s2)
 404:	0100                	add	s0,sp,128
 406:	06090003          	lb	zero,96(s2)
 40a:	0100                	add	s0,sp,128
 40c:	06090003          	lb	zero,96(s2)
 410:	0100                	add	s0,sp,128
 412:	04090003          	lb	zero,64(s2)
 416:	0100                	add	s0,sp,128
 418:	04090003          	lb	zero,64(s2)
 41c:	0100                	add	s0,sp,128
 41e:	06090003          	lb	zero,96(s2)
 422:	0100                	add	s0,sp,128
 424:	04090003          	lb	zero,64(s2)
 428:	0100                	add	s0,sp,128
 42a:	00090003          	lb	zero,0(s2)
 42e:	0100                	add	s0,sp,128
 430:	04090003          	lb	zero,64(s2)
 434:	0100                	add	s0,sp,128
 436:	0c090003          	lb	zero,192(s2)
 43a:	0100                	add	s0,sp,128
 43c:	04090003          	lb	zero,64(s2)
 440:	0100                	add	s0,sp,128
 442:	06090003          	lb	zero,96(s2)
 446:	0100                	add	s0,sp,128
 448:	06090003          	lb	zero,96(s2)
 44c:	0100                	add	s0,sp,128
 44e:	04090003          	lb	zero,64(s2)
 452:	0100                	add	s0,sp,128
 454:	04090003          	lb	zero,64(s2)
 458:	0100                	add	s0,sp,128
 45a:	06090003          	lb	zero,96(s2)
 45e:	0100                	add	s0,sp,128
 460:	04090003          	lb	zero,64(s2)
 464:	0100                	add	s0,sp,128
 466:	02090003          	lb	zero,32(s2)
 46a:	0100                	add	s0,sp,128
 46c:	0705                	add	a4,a4,1
 46e:	02091503          	lh	a0,32(s2)
 472:	0100                	add	s0,sp,128
 474:	0a05                	add	s4,s4,1 # fffeb001 <_stack_start+0xfffe7001>
 476:	0306                	sll	t1,t1,0x1
 478:	0900                	add	s0,sp,144
 47a:	0000                	unimp
 47c:	0501                	add	a0,a0,0
 47e:	0604                	add	s1,sp,768
 480:	04091303          	lh	t1,64(s2)
 484:	0100                	add	s0,sp,128
 486:	00090003          	lb	zero,0(s2)
 48a:	0100                	add	s0,sp,128
 48c:	00090003          	lb	zero,0(s2)
 490:	0100                	add	s0,sp,128
 492:	00090003          	lb	zero,0(s2)
 496:	0100                	add	s0,sp,128
 498:	00090003          	lb	zero,0(s2)
 49c:	0100                	add	s0,sp,128
 49e:	10090003          	lb	zero,256(s2)
 4a2:	0100                	add	s0,sp,128
 4a4:	1a090003          	lb	zero,416(s2)
 4a8:	0100                	add	s0,sp,128
 4aa:	00090103          	lb	sp,0(s2)
 4ae:	0100                	add	s0,sp,128
 4b0:	0705                	add	a4,a4,1
 4b2:	0306                	sll	t1,t1,0x1
 4b4:	0900                	add	s0,sp,144
 4b6:	0000                	unimp
 4b8:	0501                	add	a0,a0,0
 4ba:	0608                	add	a0,sp,768
 4bc:	04090a03          	lb	s4,64(s2)
 4c0:	0100                	add	s0,sp,128
 4c2:	0306                	sll	t1,t1,0x1
 4c4:	0902                	c.slli64	s2
 4c6:	0000                	unimp
 4c8:	0501                	add	a0,a0,0
 4ca:	097e030b          	.4byte	0x97e030b
 4ce:	0002                	c.slli64	zero
 4d0:	0501                	add	a0,a0,0
 4d2:	0314                	add	a3,sp,384
 4d4:	0900                	add	s0,sp,144
 4d6:	0004                	.2byte	0x4
 4d8:	0501                	add	a0,a0,0
 4da:	0304                	add	s1,sp,384
 4dc:	0975                	add	s2,s2,29
 4de:	000a                	c.slli	zero,0x2
 4e0:	0501                	add	a0,a0,0
 4e2:	0608                	add	a0,sp,768
 4e4:	0e091e03          	lh	t3,224(s2)
 4e8:	0100                	add	s0,sp,128
 4ea:	00090303          	lb	t1,0(s2)
 4ee:	0100                	add	s0,sp,128
 4f0:	00090203          	lb	tp,0(s2)
 4f4:	0100                	add	s0,sp,128
 4f6:	1e05                	add	t3,t3,-31
 4f8:	0306                	sll	t1,t1,0x1
 4fa:	0900                	add	s0,sp,144
 4fc:	0000                	unimp
 4fe:	0501                	add	a0,a0,0
 500:	0311                	add	t1,t1,4
 502:	0900                	add	s0,sp,144
 504:	0004                	.2byte	0x4
 506:	0501                	add	a0,a0,0
 508:	0900030b          	.4byte	0x900030b
 50c:	0004                	.2byte	0x4
 50e:	0501                	add	a0,a0,0
 510:	0608                	add	a0,sp,768
 512:	02090103          	lb	sp,32(s2)
 516:	0100                	add	s0,sp,128
 518:	0b05                	add	s6,s6,1
 51a:	0306                	sll	t1,t1,0x1
 51c:	0901                	add	s2,s2,0
 51e:	0000                	unimp
 520:	0501                	add	a0,a0,0
 522:	0311                	add	t1,t1,4
 524:	0901                	add	s2,s2,0
 526:	0004                	.2byte	0x4
 528:	0501                	add	a0,a0,0
 52a:	031e                	sll	t1,t1,0x7
 52c:	0900                	add	s0,sp,144
 52e:	0004                	.2byte	0x4
 530:	0501                	add	a0,a0,0
 532:	0900030b          	.4byte	0x900030b
 536:	0004                	.2byte	0x4
 538:	0501                	add	a0,a0,0
 53a:	0308                	add	a0,sp,384
 53c:	00040903          	lb	s2,0(s0)
 540:	0501                	add	a0,a0,0
 542:	097b030b          	.4byte	0x97b030b
 546:	0010                	.2byte	0x10
 548:	0501                	add	a0,a0,0
 54a:	0608                	add	a0,sp,768
 54c:	04090103          	lb	sp,64(s2)
 550:	0100                	add	s0,sp,128
 552:	00090103          	lb	sp,0(s2)
 556:	0100                	add	s0,sp,128
 558:	00090103          	lb	sp,0(s2)
 55c:	0100                	add	s0,sp,128
 55e:	00090203          	lb	tp,0(s2)
 562:	0100                	add	s0,sp,128
 564:	00090003          	lb	zero,0(s2)
 568:	0100                	add	s0,sp,128
 56a:	00090003          	lb	zero,0(s2)
 56e:	0100                	add	s0,sp,128
 570:	00090003          	lb	zero,0(s2)
 574:	0100                	add	s0,sp,128
 576:	00090003          	lb	zero,0(s2)
 57a:	0100                	add	s0,sp,128
 57c:	00090003          	lb	zero,0(s2)
 580:	0100                	add	s0,sp,128
 582:	00090003          	lb	zero,0(s2)
 586:	0100                	add	s0,sp,128
 588:	00090003          	lb	zero,0(s2)
 58c:	0100                	add	s0,sp,128
 58e:	08090003          	lb	zero,128(s2)
 592:	0100                	add	s0,sp,128
 594:	0a090003          	lb	zero,160(s2)
 598:	0100                	add	s0,sp,128
 59a:	06090003          	lb	zero,96(s2)
 59e:	0100                	add	s0,sp,128
 5a0:	06090003          	lb	zero,96(s2)
 5a4:	0100                	add	s0,sp,128
 5a6:	04090003          	lb	zero,64(s2)
 5aa:	0100                	add	s0,sp,128
 5ac:	04090003          	lb	zero,64(s2)
 5b0:	0100                	add	s0,sp,128
 5b2:	06090003          	lb	zero,96(s2)
 5b6:	0100                	add	s0,sp,128
 5b8:	04090003          	lb	zero,64(s2)
 5bc:	0100                	add	s0,sp,128
 5be:	00090003          	lb	zero,0(s2)
 5c2:	0100                	add	s0,sp,128
 5c4:	04090003          	lb	zero,64(s2)
 5c8:	0100                	add	s0,sp,128
 5ca:	0c090003          	lb	zero,192(s2)
 5ce:	0100                	add	s0,sp,128
 5d0:	04090003          	lb	zero,64(s2)
 5d4:	0100                	add	s0,sp,128
 5d6:	06090003          	lb	zero,96(s2)
 5da:	0100                	add	s0,sp,128
 5dc:	06090003          	lb	zero,96(s2)
 5e0:	0100                	add	s0,sp,128
 5e2:	04090003          	lb	zero,64(s2)
 5e6:	0100                	add	s0,sp,128
 5e8:	04090003          	lb	zero,64(s2)
 5ec:	0100                	add	s0,sp,128
 5ee:	06090003          	lb	zero,96(s2)
 5f2:	0100                	add	s0,sp,128
 5f4:	0306                	sll	t1,t1,0x1
 5f6:	0901                	add	s2,s2,0
 5f8:	0002                	c.slli64	zero
 5fa:	0301                	add	t1,t1,0
 5fc:	097f 0002 0301 0901 	.byte	0x7f, 0x09, 0x02, 0x00, 0x01, 0x03, 0x01, 0x09, 0x02, 0x00
 604:	0002 
 606:	0301                	add	t1,t1,0
 608:	097f 0008 0601 0003 	.byte	0x7f, 0x09, 0x08, 0x00, 0x01, 0x06, 0x03, 0x00, 0x09, 0x04
 610:	0409 
 612:	0100                	add	s0,sp,128
 614:	00090003          	lb	zero,0(s2)
 618:	0100                	add	s0,sp,128
 61a:	00090003          	lb	zero,0(s2)
 61e:	0100                	add	s0,sp,128
 620:	00090103          	lb	sp,0(s2)
 624:	0100                	add	s0,sp,128
 626:	00090003          	lb	zero,0(s2)
 62a:	0100                	add	s0,sp,128
 62c:	00090003          	lb	zero,0(s2)
 630:	0100                	add	s0,sp,128
 632:	00090003          	lb	zero,0(s2)
 636:	0100                	add	s0,sp,128
 638:	00090003          	lb	zero,0(s2)
 63c:	0100                	add	s0,sp,128
 63e:	06090003          	lb	zero,96(s2)
 642:	0100                	add	s0,sp,128
 644:	00090003          	lb	zero,0(s2)
 648:	0100                	add	s0,sp,128
 64a:	02090003          	lb	zero,32(s2)
 64e:	0100                	add	s0,sp,128
 650:	04090003          	lb	zero,64(s2)
 654:	0100                	add	s0,sp,128
 656:	00090003          	lb	zero,0(s2)
 65a:	0100                	add	s0,sp,128
 65c:	04090003          	lb	zero,64(s2)
 660:	0100                	add	s0,sp,128
 662:	08090003          	lb	zero,128(s2)
 666:	0100                	add	s0,sp,128
 668:	04090003          	lb	zero,64(s2)
 66c:	0100                	add	s0,sp,128
 66e:	06090003          	lb	zero,96(s2)
 672:	0100                	add	s0,sp,128
 674:	04090003          	lb	zero,64(s2)
 678:	0100                	add	s0,sp,128
 67a:	02090003          	lb	zero,32(s2)
 67e:	0100                	add	s0,sp,128
 680:	06090003          	lb	zero,96(s2)
 684:	0100                	add	s0,sp,128
 686:	00090003          	lb	zero,0(s2)
 68a:	0100                	add	s0,sp,128
 68c:	00090203          	lb	tp,0(s2)
 690:	0100                	add	s0,sp,128
 692:	0b05                	add	s6,s6,1
 694:	0306                	sll	t1,t1,0x1
 696:	0900                	add	s0,sp,144
 698:	0000                	unimp
 69a:	0501                	add	a0,a0,0
 69c:	0314                	add	a3,sp,384
 69e:	0900                	add	s0,sp,144
 6a0:	0004                	.2byte	0x4
 6a2:	0501                	add	a0,a0,0
 6a4:	0308                	add	a0,sp,384
 6a6:	097e                	sll	s2,s2,0x1f
 6a8:	0004                	.2byte	0x4
 6aa:	0501                	add	a0,a0,0
 6ac:	097d030b          	.4byte	0x97d030b
 6b0:	000c                	.2byte	0xc
 6b2:	0501                	add	a0,a0,0
 6b4:	0308                	add	a0,sp,384
 6b6:	00040903          	lb	s2,0(s0)
 6ba:	0501                	add	a0,a0,0
 6bc:	0908030b          	.4byte	0x908030b
 6c0:	0002                	c.slli64	zero
 6c2:	0501                	add	a0,a0,0
 6c4:	0321                	add	t1,t1,8
 6c6:	097a                	sll	s2,s2,0x1e
 6c8:	0002                	c.slli64	zero
 6ca:	0501                	add	a0,a0,0
 6cc:	0605                	add	a2,a2,1
 6ce:	04090203          	lb	tp,64(s2)
 6d2:	0100                	add	s0,sp,128
 6d4:	0705                	add	a4,a4,1
 6d6:	0306                	sll	t1,t1,0x1
 6d8:	0900                	add	s0,sp,144
 6da:	0000                	unimp
 6dc:	0501                	add	a0,a0,0
 6de:	0605                	add	a2,a2,1
 6e0:	02090103          	lb	sp,32(s2)
 6e4:	0100                	add	s0,sp,128
 6e6:	00090003          	lb	zero,0(s2)
 6ea:	0100                	add	s0,sp,128
 6ec:	00090003          	lb	zero,0(s2)
 6f0:	0100                	add	s0,sp,128
 6f2:	00090003          	lb	zero,0(s2)
 6f6:	0100                	add	s0,sp,128
 6f8:	00090003          	lb	zero,0(s2)
 6fc:	0100                	add	s0,sp,128
 6fe:	0705                	add	a4,a4,1
 700:	0306                	sll	t1,t1,0x1
 702:	00020943          	fmadd.s	fs2,ft4,ft0,ft0,rne
 706:	0301                	add	t1,t1,0
 708:	097f 0002 0901 0004 	.byte	0x7f, 0x09, 0x02, 0x00, 0x01, 0x09, 0x04, 0x00, 0x00, 0x01
 710:	0100 
 712:	8901                	and	a0,a0,0
 714:	05000007          	.4byte	0x5000007
 718:	0400                	add	s0,sp,512
 71a:	3300                	fld	fs0,32(a4)
 71c:	0000                	unimp
 71e:	0100                	add	s0,sp,128
 720:	0101                	add	sp,sp,0
 722:	000d0efb          	.4byte	0xd0efb
 726:	0101                	add	sp,sp,0
 728:	0101                	add	sp,sp,0
 72a:	0000                	unimp
 72c:	0100                	add	s0,sp,128
 72e:	0000                	unimp
 730:	0101                	add	sp,sp,0
 732:	1f01                	add	t5,t5,-32
 734:	0002                	c.slli64	zero
 736:	0000                	unimp
 738:	b500                	fsd	fs0,40(a0)
 73a:	0000                	unimp
 73c:	0200                	add	s0,sp,256
 73e:	1f01                	add	t5,t5,-32
 740:	0f02                	c.slli64	t5
 742:	0000ab03          	lw	s6,0(ra)
 746:	0100                	add	s0,sp,128
 748:	000000ab          	.4byte	0xab
 74c:	cb01                	beqz	a4,75c <_ntoa_format+0x29c>
 74e:	0000                	unimp
 750:	0100                	add	s0,sp,128
 752:	0105                	add	sp,sp,1
 754:	0500                	add	s0,sp,640
 756:	4202                	lw	tp,0(sp)
 758:	0032                	c.slli	zero,0xc
 75a:	0300                	add	s0,sp,384
 75c:	0a86                	sll	s5,s5,0x1
 75e:	0501                	add	a0,a0,0
 760:	09010303          	lb	t1,144(sp)
 764:	0000                	unimp
 766:	0301                	add	t1,t1,0
 768:	0902                	c.slli64	s2
 76a:	0000                	unimp
 76c:	0301                	add	t1,t1,0
 76e:	00097ddb          	.4byte	0x97ddb
 772:	0100                	add	s0,sp,128
 774:	00090103          	lb	sp,0(s2)
 778:	0100                	add	s0,sp,128
 77a:	00090103          	lb	sp,0(s2)
 77e:	0100                	add	s0,sp,128
 780:	00090103          	lb	sp,0(s2)
 784:	0100                	add	s0,sp,128
 786:	00090103          	lb	sp,0(s2)
 78a:	0100                	add	s0,sp,128
 78c:	00090103          	lb	sp,0(s2)
 790:	0100                	add	s0,sp,128
 792:	00090203          	lb	tp,0(s2)
 796:	0100                	add	s0,sp,128
 798:	0605                	add	a2,a2,1
 79a:	0306                	sll	t1,t1,0x1
 79c:	0900                	add	s0,sp,144
 79e:	0000                	unimp
 7a0:	0501                	add	a0,a0,0
 7a2:	01030603          	lb	a2,16(t1)
 7a6:	0209                	add	tp,tp,2 # 2 <main-0x9e>
 7a8:	0100                	add	s0,sp,128
 7aa:	00090103          	lb	sp,0(s2)
 7ae:	0100                	add	s0,sp,128
 7b0:	0605                	add	a2,a2,1
 7b2:	0306                	sll	t1,t1,0x1
 7b4:	0900                	add	s0,sp,144
 7b6:	0000                	unimp
 7b8:	0501                	add	a0,a0,0
 7ba:	01030603          	lb	a2,16(t1)
 7be:	0209                	add	tp,tp,2 # 2 <main-0x9e>
 7c0:	0100                	add	s0,sp,128
 7c2:	0605                	add	a2,a2,1
 7c4:	0306                	sll	t1,t1,0x1
 7c6:	0900                	add	s0,sp,144
 7c8:	0000                	unimp
 7ca:	0501                	add	a0,a0,0
 7cc:	25030603          	lb	a2,592(t1)
 7d0:	0209                	add	tp,tp,2 # 2 <main-0x9e>
 7d2:	0100                	add	s0,sp,128
 7d4:	0605                	add	a2,a2,1
 7d6:	0306                	sll	t1,t1,0x1
 7d8:	0900                	add	s0,sp,144
 7da:	0000                	unimp
 7dc:	0501                	add	a0,a0,0
 7de:	02030607          	.4byte	0x2030607
 7e2:	0409                	add	s0,s0,2
 7e4:	0100                	add	s0,sp,128
 7e6:	0a05                	add	s4,s4,1
 7e8:	0306                	sll	t1,t1,0x1
 7ea:	0900                	add	s0,sp,144
 7ec:	0006                	c.slli	zero,0x1
 7ee:	0501                	add	a0,a0,0
 7f0:	0604                	add	s1,sp,768
 7f2:	04090403          	lb	s0,64(s2)
 7f6:	0100                	add	s0,sp,128
 7f8:	00090003          	lb	zero,0(s2)
 7fc:	0100                	add	s0,sp,128
 7fe:	00090003          	lb	zero,0(s2)
 802:	0100                	add	s0,sp,128
 804:	00090003          	lb	zero,0(s2)
 808:	0100                	add	s0,sp,128
 80a:	00090003          	lb	zero,0(s2)
 80e:	0100                	add	s0,sp,128
 810:	10090003          	lb	zero,256(s2)
 814:	0100                	add	s0,sp,128
 816:	14090003          	lb	zero,320(s2)
 81a:	0100                	add	s0,sp,128
 81c:	00090203          	lb	tp,0(s2)
 820:	0100                	add	s0,sp,128
 822:	0705                	add	a4,a4,1
 824:	0306                	sll	t1,t1,0x1
 826:	0900                	add	s0,sp,144
 828:	0000                	unimp
 82a:	0501                	add	a0,a0,0
 82c:	0608                	add	a0,sp,768
 82e:	04090503          	lb	a0,64(s2)
 832:	0100                	add	s0,sp,128
 834:	1105                	add	sp,sp,-31
 836:	0306                	sll	t1,t1,0x1
 838:	0901                	add	s2,s2,0
 83a:	0000                	unimp
 83c:	0501                	add	a0,a0,0
 83e:	031e                	sll	t1,t1,0x7
 840:	0900                	add	s0,sp,144
 842:	0004                	.2byte	0x4
 844:	0501                	add	a0,a0,0
 846:	097f030b          	.4byte	0x97f030b
 84a:	0004                	.2byte	0x4
 84c:	0501                	add	a0,a0,0
 84e:	0608                	add	a0,sp,768
 850:	04090103          	lb	sp,64(s2)
 854:	0100                	add	s0,sp,128
 856:	0b05                	add	s6,s6,1
 858:	0306                	sll	t1,t1,0x1
 85a:	0900                	add	s0,sp,144
 85c:	0000                	unimp
 85e:	0501                	add	a0,a0,0
 860:	0608                	add	a0,sp,768
 862:	02090103          	lb	sp,32(s2)
 866:	0100                	add	s0,sp,128
 868:	0b05                	add	s6,s6,1
 86a:	0306                	sll	t1,t1,0x1
 86c:	0900                	add	s0,sp,144
 86e:	0000                	unimp
 870:	0501                	add	a0,a0,0
 872:	0604                	add	s1,sp,768
 874:	04090303          	lb	t1,64(s2)
 878:	0100                	add	s0,sp,128
 87a:	00090003          	lb	zero,0(s2)
 87e:	0100                	add	s0,sp,128
 880:	00090003          	lb	zero,0(s2)
 884:	0100                	add	s0,sp,128
 886:	00090003          	lb	zero,0(s2)
 88a:	0100                	add	s0,sp,128
 88c:	04090003          	lb	zero,64(s2)
 890:	0100                	add	s0,sp,128
 892:	0a090003          	lb	zero,160(s2)
 896:	0100                	add	s0,sp,128
 898:	00090003          	lb	zero,0(s2)
 89c:	0100                	add	s0,sp,128
 89e:	00090003          	lb	zero,0(s2)
 8a2:	0100                	add	s0,sp,128
 8a4:	08090003          	lb	zero,128(s2)
 8a8:	0100                	add	s0,sp,128
 8aa:	0a090003          	lb	zero,160(s2)
 8ae:	0100                	add	s0,sp,128
 8b0:	04090003          	lb	zero,64(s2)
 8b4:	0100                	add	s0,sp,128
 8b6:	02090003          	lb	zero,32(s2)
 8ba:	0100                	add	s0,sp,128
 8bc:	04090003          	lb	zero,64(s2)
 8c0:	0100                	add	s0,sp,128
 8c2:	04090003          	lb	zero,64(s2)
 8c6:	0100                	add	s0,sp,128
 8c8:	02090003          	lb	zero,32(s2)
 8cc:	0100                	add	s0,sp,128
 8ce:	02090003          	lb	zero,32(s2)
 8d2:	0100                	add	s0,sp,128
 8d4:	00090003          	lb	zero,0(s2)
 8d8:	0100                	add	s0,sp,128
 8da:	00090003          	lb	zero,0(s2)
 8de:	0100                	add	s0,sp,128
 8e0:	0c090003          	lb	zero,192(s2)
 8e4:	0100                	add	s0,sp,128
 8e6:	0306                	sll	t1,t1,0x1
 8e8:	092a                	sll	s2,s2,0xa
 8ea:	0000                	unimp
 8ec:	0601                	add	a2,a2,0
 8ee:	08090003          	lb	zero,128(s2)
 8f2:	0100                	add	s0,sp,128
 8f4:	04090003          	lb	zero,64(s2)
 8f8:	0100                	add	s0,sp,128
 8fa:	02090003          	lb	zero,32(s2)
 8fe:	0100                	add	s0,sp,128
 900:	04090003          	lb	zero,64(s2)
 904:	0100                	add	s0,sp,128
 906:	04090003          	lb	zero,64(s2)
 90a:	0100                	add	s0,sp,128
 90c:	02090003          	lb	zero,32(s2)
 910:	0100                	add	s0,sp,128
 912:	02090003          	lb	zero,32(s2)
 916:	0100                	add	s0,sp,128
 918:	00090003          	lb	zero,0(s2)
 91c:	0100                	add	s0,sp,128
 91e:	00090003          	lb	zero,0(s2)
 922:	0100                	add	s0,sp,128
 924:	0705                	add	a4,a4,1
 926:	00090503          	lb	a0,0(s2)
 92a:	0100                	add	s0,sp,128
 92c:	0405                	add	s0,s0,1
 92e:	00090203          	lb	tp,0(s2)
 932:	0100                	add	s0,sp,128
 934:	1205                	add	tp,tp,-31 # ffffffe1 <_stack_start+0xffffbfe1>
 936:	0306                	sll	t1,t1,0x1
 938:	0900                	add	s0,sp,144
 93a:	0000                	unimp
 93c:	0501                	add	a0,a0,0
 93e:	0604                	add	s1,sp,768
 940:	04090103          	lb	sp,64(s2)
 944:	0100                	add	s0,sp,128
 946:	00090103          	lb	sp,0(s2)
 94a:	0100                	add	s0,sp,128
 94c:	0c05                	add	s8,s8,1 # fffeb001 <_stack_start+0xfffe7001>
 94e:	0306                	sll	t1,t1,0x1
 950:	0900                	add	s0,sp,144
 952:	0000                	unimp
 954:	0501                	add	a0,a0,0
 956:	0304                	add	s1,sp,384
 958:	0941                	add	s2,s2,16
 95a:	0004                	.2byte	0x4
 95c:	0601                	add	a2,a2,0
 95e:	0e091503          	lh	a0,224(s2)
 962:	0100                	add	s0,sp,128
 964:	0306                	sll	t1,t1,0x1
 966:	00000903          	lb	s2,0(zero) # 0 <main-0xa0>
 96a:	0501                	add	a0,a0,0
 96c:	097d0307          	.4byte	0x97d0307
 970:	0002                	c.slli64	zero
 972:	0501                	add	a0,a0,0
 974:	0604                	add	s1,sp,768
 976:	02090303          	lb	t1,32(s2)
 97a:	0100                	add	s0,sp,128
 97c:	00090003          	lb	zero,0(s2)
 980:	0100                	add	s0,sp,128
 982:	00090003          	lb	zero,0(s2)
 986:	0100                	add	s0,sp,128
 988:	00090003          	lb	zero,0(s2)
 98c:	0100                	add	s0,sp,128
 98e:	00090003          	lb	zero,0(s2)
 992:	0100                	add	s0,sp,128
 994:	10090003          	lb	zero,256(s2)
 998:	0100                	add	s0,sp,128
 99a:	14090003          	lb	zero,320(s2)
 99e:	0100                	add	s0,sp,128
 9a0:	00090203          	lb	tp,0(s2)
 9a4:	0100                	add	s0,sp,128
 9a6:	0705                	add	a4,a4,1
 9a8:	0306                	sll	t1,t1,0x1
 9aa:	0900                	add	s0,sp,144
 9ac:	0000                	unimp
 9ae:	0501                	add	a0,a0,0
 9b0:	0608                	add	a0,sp,768
 9b2:	04090903          	lb	s2,64(s2)
 9b6:	0100                	add	s0,sp,128
 9b8:	0b05                	add	s6,s6,1
 9ba:	0306                	sll	t1,t1,0x1
 9bc:	0900                	add	s0,sp,144
 9be:	0000                	unimp
 9c0:	0501                	add	a0,a0,0
 9c2:	0608                	add	a0,sp,768
 9c4:	04090103          	lb	sp,64(s2)
 9c8:	0100                	add	s0,sp,128
 9ca:	00090d03          	lb	s10,0(s2)
 9ce:	0100                	add	s0,sp,128
 9d0:	0405                	add	s0,s0,1
 9d2:	00090503          	lb	a0,0(s2)
 9d6:	0100                	add	s0,sp,128
 9d8:	00090003          	lb	zero,0(s2)
 9dc:	0100                	add	s0,sp,128
 9de:	00090003          	lb	zero,0(s2)
 9e2:	0100                	add	s0,sp,128
 9e4:	00090003          	lb	zero,0(s2)
 9e8:	0100                	add	s0,sp,128
 9ea:	04090003          	lb	zero,64(s2)
 9ee:	0100                	add	s0,sp,128
 9f0:	0a090003          	lb	zero,160(s2)
 9f4:	0100                	add	s0,sp,128
 9f6:	00090003          	lb	zero,0(s2)
 9fa:	0100                	add	s0,sp,128
 9fc:	00090003          	lb	zero,0(s2)
 a00:	0100                	add	s0,sp,128
 a02:	0c090003          	lb	zero,192(s2)
 a06:	0100                	add	s0,sp,128
 a08:	04090003          	lb	zero,64(s2)
 a0c:	0100                	add	s0,sp,128
 a0e:	04090003          	lb	zero,64(s2)
 a12:	0100                	add	s0,sp,128
 a14:	02090003          	lb	zero,32(s2)
 a18:	0100                	add	s0,sp,128
 a1a:	04090003          	lb	zero,64(s2)
 a1e:	0100                	add	s0,sp,128
 a20:	04090003          	lb	zero,64(s2)
 a24:	0100                	add	s0,sp,128
 a26:	02090003          	lb	zero,32(s2)
 a2a:	0100                	add	s0,sp,128
 a2c:	02090003          	lb	zero,32(s2)
 a30:	0100                	add	s0,sp,128
 a32:	00090003          	lb	zero,0(s2)
 a36:	0100                	add	s0,sp,128
 a38:	00090003          	lb	zero,0(s2)
 a3c:	0100                	add	s0,sp,128
 a3e:	0c090003          	lb	zero,192(s2)
 a42:	0100                	add	s0,sp,128
 a44:	0306                	sll	t1,t1,0x1
 a46:	0962                	sll	s2,s2,0x18
 a48:	0002                	c.slli64	zero
 a4a:	0501                	add	a0,a0,0
 a4c:	0608                	add	a0,sp,768
 a4e:	0e091203          	lh	tp,224(s2)
 a52:	0100                	add	s0,sp,128
 a54:	00090203          	lb	tp,0(s2)
 a58:	0100                	add	s0,sp,128
 a5a:	0b05                	add	s6,s6,1
 a5c:	0306                	sll	t1,t1,0x1
 a5e:	0900                	add	s0,sp,144
 a60:	0000                	unimp
 a62:	0501                	add	a0,a0,0
 a64:	0608                	add	a0,sp,768
 a66:	04090103          	lb	sp,64(s2)
 a6a:	0100                	add	s0,sp,128
 a6c:	0b05                	add	s6,s6,1
 a6e:	0306                	sll	t1,t1,0x1
 a70:	0900                	add	s0,sp,144
 a72:	0000                	unimp
 a74:	0501                	add	a0,a0,0
 a76:	0608                	add	a0,sp,768
 a78:	04090103          	lb	sp,64(s2)
 a7c:	0100                	add	s0,sp,128
 a7e:	0b05                	add	s6,s6,1
 a80:	0306                	sll	t1,t1,0x1
 a82:	0901                	add	s2,s2,0
 a84:	0000                	unimp
 a86:	0501                	add	a0,a0,0
 a88:	0311                	add	t1,t1,4
 a8a:	097f 0004 0501 031e 	.byte	0x7f, 0x09, 0x04, 0x00, 0x01, 0x05, 0x1e, 0x03, 0x00, 0x09
 a92:	0900 
 a94:	0004                	.2byte	0x4
 a96:	0501                	add	a0,a0,0
 a98:	0308                	add	a0,sp,384
 a9a:	00040903          	lb	s2,0(s0)
 a9e:	0501                	add	a0,a0,0
 aa0:	097d030b          	.4byte	0x97d030b
 aa4:	0004                	.2byte	0x4
 aa6:	0501                	add	a0,a0,0
 aa8:	0608                	add	a0,sp,768
 aaa:	02090103          	lb	sp,32(s2)
 aae:	0100                	add	s0,sp,128
 ab0:	00090203          	lb	tp,0(s2)
 ab4:	0100                	add	s0,sp,128
 ab6:	00090003          	lb	zero,0(s2)
 aba:	0100                	add	s0,sp,128
 abc:	00090003          	lb	zero,0(s2)
 ac0:	0100                	add	s0,sp,128
 ac2:	00090003          	lb	zero,0(s2)
 ac6:	0100                	add	s0,sp,128
 ac8:	00090003          	lb	zero,0(s2)
 acc:	0100                	add	s0,sp,128
 ace:	0c090003          	lb	zero,192(s2)
 ad2:	0100                	add	s0,sp,128
 ad4:	00090003          	lb	zero,0(s2)
 ad8:	0100                	add	s0,sp,128
 ada:	00090003          	lb	zero,0(s2)
 ade:	0100                	add	s0,sp,128
 ae0:	08090003          	lb	zero,128(s2)
 ae4:	0100                	add	s0,sp,128
 ae6:	0a090003          	lb	zero,160(s2)
 aea:	0100                	add	s0,sp,128
 aec:	04090003          	lb	zero,64(s2)
 af0:	0100                	add	s0,sp,128
 af2:	02090003          	lb	zero,32(s2)
 af6:	0100                	add	s0,sp,128
 af8:	04090003          	lb	zero,64(s2)
 afc:	0100                	add	s0,sp,128
 afe:	04090003          	lb	zero,64(s2)
 b02:	0100                	add	s0,sp,128
 b04:	02090003          	lb	zero,32(s2)
 b08:	0100                	add	s0,sp,128
 b0a:	02090003          	lb	zero,32(s2)
 b0e:	0100                	add	s0,sp,128
 b10:	00090003          	lb	zero,0(s2)
 b14:	0100                	add	s0,sp,128
 b16:	00090003          	lb	zero,0(s2)
 b1a:	0100                	add	s0,sp,128
 b1c:	10090003          	lb	zero,256(s2)
 b20:	0100                	add	s0,sp,128
 b22:	04090003          	lb	zero,64(s2)
 b26:	0100                	add	s0,sp,128
 b28:	04090003          	lb	zero,64(s2)
 b2c:	0100                	add	s0,sp,128
 b2e:	02090003          	lb	zero,32(s2)
 b32:	0100                	add	s0,sp,128
 b34:	04090003          	lb	zero,64(s2)
 b38:	0100                	add	s0,sp,128
 b3a:	04090003          	lb	zero,64(s2)
 b3e:	0100                	add	s0,sp,128
 b40:	02090003          	lb	zero,32(s2)
 b44:	0100                	add	s0,sp,128
 b46:	02090003          	lb	zero,32(s2)
 b4a:	0100                	add	s0,sp,128
 b4c:	00090003          	lb	zero,0(s2)
 b50:	0100                	add	s0,sp,128
 b52:	0705                	add	a4,a4,1
 b54:	02091503          	lh	a0,32(s2)
 b58:	0100                	add	s0,sp,128
 b5a:	0a05                	add	s4,s4,1
 b5c:	0306                	sll	t1,t1,0x1
 b5e:	0900                	add	s0,sp,144
 b60:	0000                	unimp
 b62:	0501                	add	a0,a0,0
 b64:	0604                	add	s1,sp,768
 b66:	04091303          	lh	t1,64(s2)
 b6a:	0100                	add	s0,sp,128
 b6c:	00090003          	lb	zero,0(s2)
 b70:	0100                	add	s0,sp,128
 b72:	00090003          	lb	zero,0(s2)
 b76:	0100                	add	s0,sp,128
 b78:	00090003          	lb	zero,0(s2)
 b7c:	0100                	add	s0,sp,128
 b7e:	00090003          	lb	zero,0(s2)
 b82:	0100                	add	s0,sp,128
 b84:	10090003          	lb	zero,256(s2)
 b88:	0100                	add	s0,sp,128
 b8a:	1a090003          	lb	zero,416(s2)
 b8e:	0100                	add	s0,sp,128
 b90:	00090103          	lb	sp,0(s2)
 b94:	0100                	add	s0,sp,128
 b96:	0705                	add	a4,a4,1
 b98:	0306                	sll	t1,t1,0x1
 b9a:	0900                	add	s0,sp,144
 b9c:	0000                	unimp
 b9e:	0501                	add	a0,a0,0
 ba0:	0608                	add	a0,sp,768
 ba2:	04090a03          	lb	s4,64(s2)
 ba6:	0100                	add	s0,sp,128
 ba8:	0b05                	add	s6,s6,1
 baa:	0306                	sll	t1,t1,0x1
 bac:	0900                	add	s0,sp,144
 bae:	0000                	unimp
 bb0:	0501                	add	a0,a0,0
 bb2:	0314                	add	a3,sp,384
 bb4:	0900                	add	s0,sp,144
 bb6:	0004                	.2byte	0x4
 bb8:	0501                	add	a0,a0,0
 bba:	0605                	add	a2,a2,1
 bbc:	04090203          	lb	tp,64(s2)
 bc0:	0100                	add	s0,sp,128
 bc2:	00090103          	lb	sp,0(s2)
 bc6:	0100                	add	s0,sp,128
 bc8:	00090003          	lb	zero,0(s2)
 bcc:	0100                	add	s0,sp,128
 bce:	00090003          	lb	zero,0(s2)
 bd2:	0100                	add	s0,sp,128
 bd4:	0e090003          	lb	zero,224(s2)
 bd8:	0100                	add	s0,sp,128
 bda:	04090003          	lb	zero,64(s2)
 bde:	0100                	add	s0,sp,128
 be0:	00090003          	lb	zero,0(s2)
 be4:	0100                	add	s0,sp,128
 be6:	0805                	add	a6,a6,1
 be8:	00090503          	lb	a0,0(s2)
 bec:	0100                	add	s0,sp,128
 bee:	00090203          	lb	tp,0(s2)
 bf2:	0100                	add	s0,sp,128
 bf4:	0505                	add	a0,a0,1
 bf6:	00090203          	lb	tp,0(s2)
 bfa:	0100                	add	s0,sp,128
 bfc:	00090103          	lb	sp,0(s2)
 c00:	0100                	add	s0,sp,128
 c02:	00090103          	lb	sp,0(s2)
 c06:	0100                	add	s0,sp,128
 c08:	0d05                	add	s10,s10,1 # fffe1001 <_stack_start+0xfffdd001>
 c0a:	0306                	sll	t1,t1,0x1
 c0c:	0900                	add	s0,sp,144
 c0e:	0000                	unimp
 c10:	0501                	add	a0,a0,0
 c12:	0304                	add	s1,sp,384
 c14:	00060967          	jalr	s2,a2
 c18:	0501                	add	a0,a0,0
 c1a:	0608                	add	a0,sp,768
 c1c:	0e091e03          	lh	t3,224(s2)
 c20:	0100                	add	s0,sp,128
 c22:	00090303          	lb	t1,0(s2)
 c26:	0100                	add	s0,sp,128
 c28:	00090203          	lb	tp,0(s2)
 c2c:	0100                	add	s0,sp,128
 c2e:	1e05                	add	t3,t3,-31
 c30:	0306                	sll	t1,t1,0x1
 c32:	0900                	add	s0,sp,144
 c34:	0000                	unimp
 c36:	0501                	add	a0,a0,0
 c38:	0311                	add	t1,t1,4
 c3a:	0900                	add	s0,sp,144
 c3c:	0004                	.2byte	0x4
 c3e:	0501                	add	a0,a0,0
 c40:	0900030b          	.4byte	0x900030b
 c44:	0004                	.2byte	0x4
 c46:	0501                	add	a0,a0,0
 c48:	0608                	add	a0,sp,768
 c4a:	02090103          	lb	sp,32(s2)
 c4e:	0100                	add	s0,sp,128
 c50:	0b05                	add	s6,s6,1
 c52:	0306                	sll	t1,t1,0x1
 c54:	0901                	add	s2,s2,0
 c56:	0000                	unimp
 c58:	0501                	add	a0,a0,0
 c5a:	0308                	add	a0,sp,384
 c5c:	0904                	add	s1,sp,144
 c5e:	0004                	.2byte	0x4
 c60:	0501                	add	a0,a0,0
 c62:	0311                	add	t1,t1,4
 c64:	097d                	add	s2,s2,31
 c66:	0010                	.2byte	0x10
 c68:	0501                	add	a0,a0,0
 c6a:	031e                	sll	t1,t1,0x7
 c6c:	0900                	add	s0,sp,144
 c6e:	0004                	.2byte	0x4
 c70:	0501                	add	a0,a0,0
 c72:	0900030b          	.4byte	0x900030b
 c76:	0004                	.2byte	0x4
 c78:	0501                	add	a0,a0,0
 c7a:	0308                	add	a0,sp,384
 c7c:	00020903          	lb	s2,0(tp) # 0 <main-0xa0>
 c80:	0501                	add	a0,a0,0
 c82:	097b030b          	.4byte	0x97b030b
 c86:	0004                	.2byte	0x4
 c88:	0501                	add	a0,a0,0
 c8a:	0608                	add	a0,sp,768
 c8c:	04090103          	lb	sp,64(s2)
 c90:	0100                	add	s0,sp,128
 c92:	00090103          	lb	sp,0(s2)
 c96:	0100                	add	s0,sp,128
 c98:	00090103          	lb	sp,0(s2)
 c9c:	0100                	add	s0,sp,128
 c9e:	0b05                	add	s6,s6,1
 ca0:	0306                	sll	t1,t1,0x1
 ca2:	0900                	add	s0,sp,144
 ca4:	0000                	unimp
 ca6:	0501                	add	a0,a0,0
 ca8:	0608                	add	a0,sp,768
 caa:	04090203          	lb	tp,64(s2)
 cae:	0100                	add	s0,sp,128
 cb0:	00090003          	lb	zero,0(s2)
 cb4:	0100                	add	s0,sp,128
 cb6:	00090003          	lb	zero,0(s2)
 cba:	0100                	add	s0,sp,128
 cbc:	00090003          	lb	zero,0(s2)
 cc0:	0100                	add	s0,sp,128
 cc2:	00090003          	lb	zero,0(s2)
 cc6:	0100                	add	s0,sp,128
 cc8:	00090003          	lb	zero,0(s2)
 ccc:	0100                	add	s0,sp,128
 cce:	00090003          	lb	zero,0(s2)
 cd2:	0100                	add	s0,sp,128
 cd4:	00090003          	lb	zero,0(s2)
 cd8:	0100                	add	s0,sp,128
 cda:	08090003          	lb	zero,128(s2)
 cde:	0100                	add	s0,sp,128
 ce0:	04090003          	lb	zero,64(s2)
 ce4:	0100                	add	s0,sp,128
 ce6:	06090003          	lb	zero,96(s2)
 cea:	0100                	add	s0,sp,128
 cec:	06090003          	lb	zero,96(s2)
 cf0:	0100                	add	s0,sp,128
 cf2:	04090003          	lb	zero,64(s2)
 cf6:	0100                	add	s0,sp,128
 cf8:	04090003          	lb	zero,64(s2)
 cfc:	0100                	add	s0,sp,128
 cfe:	06090003          	lb	zero,96(s2)
 d02:	0100                	add	s0,sp,128
 d04:	04090003          	lb	zero,64(s2)
 d08:	0100                	add	s0,sp,128
 d0a:	00090003          	lb	zero,0(s2)
 d0e:	0100                	add	s0,sp,128
 d10:	04090003          	lb	zero,64(s2)
 d14:	0100                	add	s0,sp,128
 d16:	0e090003          	lb	zero,224(s2)
 d1a:	0100                	add	s0,sp,128
 d1c:	04090003          	lb	zero,64(s2)
 d20:	0100                	add	s0,sp,128
 d22:	04090003          	lb	zero,64(s2)
 d26:	0100                	add	s0,sp,128
 d28:	06090003          	lb	zero,96(s2)
 d2c:	0100                	add	s0,sp,128
 d2e:	04090003          	lb	zero,64(s2)
 d32:	0100                	add	s0,sp,128
 d34:	04090003          	lb	zero,64(s2)
 d38:	0100                	add	s0,sp,128
 d3a:	06090003          	lb	zero,96(s2)
 d3e:	0100                	add	s0,sp,128
 d40:	0306                	sll	t1,t1,0x1
 d42:	0901                	add	s2,s2,0
 d44:	0004                	.2byte	0x4
 d46:	0301                	add	t1,t1,0
 d48:	097f 0002 0601 0003 	.byte	0x7f, 0x09, 0x02, 0x00, 0x01, 0x06, 0x03, 0x00, 0x09, 0x08
 d50:	0809 
 d52:	0100                	add	s0,sp,128
 d54:	00090003          	lb	zero,0(s2)
 d58:	0100                	add	s0,sp,128
 d5a:	00090003          	lb	zero,0(s2)
 d5e:	0100                	add	s0,sp,128
 d60:	00090103          	lb	sp,0(s2)
 d64:	0100                	add	s0,sp,128
 d66:	00090003          	lb	zero,0(s2)
 d6a:	0100                	add	s0,sp,128
 d6c:	00090003          	lb	zero,0(s2)
 d70:	0100                	add	s0,sp,128
 d72:	00090003          	lb	zero,0(s2)
 d76:	0100                	add	s0,sp,128
 d78:	08090003          	lb	zero,128(s2)
 d7c:	0100                	add	s0,sp,128
 d7e:	06090003          	lb	zero,96(s2)
 d82:	0100                	add	s0,sp,128
 d84:	04090003          	lb	zero,64(s2)
 d88:	0100                	add	s0,sp,128
 d8a:	00090003          	lb	zero,0(s2)
 d8e:	0100                	add	s0,sp,128
 d90:	04090003          	lb	zero,64(s2)
 d94:	0100                	add	s0,sp,128
 d96:	00090003          	lb	zero,0(s2)
 d9a:	0100                	add	s0,sp,128
 d9c:	04090003          	lb	zero,64(s2)
 da0:	0100                	add	s0,sp,128
 da2:	08090003          	lb	zero,128(s2)
 da6:	0100                	add	s0,sp,128
 da8:	04090003          	lb	zero,64(s2)
 dac:	0100                	add	s0,sp,128
 dae:	06090003          	lb	zero,96(s2)
 db2:	0100                	add	s0,sp,128
 db4:	04090003          	lb	zero,64(s2)
 db8:	0100                	add	s0,sp,128
 dba:	02090003          	lb	zero,32(s2)
 dbe:	0100                	add	s0,sp,128
 dc0:	06090003          	lb	zero,96(s2)
 dc4:	0100                	add	s0,sp,128
 dc6:	10090003          	lb	zero,256(s2)
 dca:	0100                	add	s0,sp,128
 dcc:	00090203          	lb	tp,0(s2)
 dd0:	0100                	add	s0,sp,128
 dd2:	0b05                	add	s6,s6,1
 dd4:	0306                	sll	t1,t1,0x1
 dd6:	0900                	add	s0,sp,144
 dd8:	0000                	unimp
 dda:	0501                	add	a0,a0,0
 ddc:	0314                	add	a3,sp,384
 dde:	0900                	add	s0,sp,144
 de0:	0004                	.2byte	0x4
 de2:	0501                	add	a0,a0,0
 de4:	0321                	add	t1,t1,8
 de6:	0900                	add	s0,sp,144
 de8:	0004                	.2byte	0x4
 dea:	0501                	add	a0,a0,0
 dec:	0605                	add	a2,a2,1
 dee:	04090203          	lb	tp,64(s2)
 df2:	0100                	add	s0,sp,128
 df4:	00090103          	lb	sp,0(s2)
 df8:	0100                	add	s0,sp,128
 dfa:	00090003          	lb	zero,0(s2)
 dfe:	0100                	add	s0,sp,128
 e00:	00090003          	lb	zero,0(s2)
 e04:	0100                	add	s0,sp,128
 e06:	0c090003          	lb	zero,192(s2)
 e0a:	0100                	add	s0,sp,128
 e0c:	02090003          	lb	zero,32(s2)
 e10:	0100                	add	s0,sp,128
 e12:	00090003          	lb	zero,0(s2)
 e16:	0100                	add	s0,sp,128
 e18:	0805                	add	a6,a6,1
 e1a:	00090303          	lb	t1,0(s2)
 e1e:	0100                	add	s0,sp,128
 e20:	00090303          	lb	t1,0(s2)
 e24:	0100                	add	s0,sp,128
 e26:	0505                	add	a0,a0,1
 e28:	00090203          	lb	tp,0(s2)
 e2c:	0100                	add	s0,sp,128
 e2e:	00090003          	lb	zero,0(s2)
 e32:	0100                	add	s0,sp,128
 e34:	00090003          	lb	zero,0(s2)
 e38:	0100                	add	s0,sp,128
 e3a:	04090003          	lb	zero,64(s2)
 e3e:	0100                	add	s0,sp,128
 e40:	08090003          	lb	zero,128(s2)
 e44:	0100                	add	s0,sp,128
 e46:	00090003          	lb	zero,0(s2)
 e4a:	0100                	add	s0,sp,128
 e4c:	00090103          	lb	sp,0(s2)
 e50:	0100                	add	s0,sp,128
 e52:	1405                	add	s0,s0,-31
 e54:	0306                	sll	t1,t1,0x1
 e56:	0900                	add	s0,sp,144
 e58:	0000                	unimp
 e5a:	0501                	add	a0,a0,0
 e5c:	0320                	add	s0,sp,392
 e5e:	0900                	add	s0,sp,144
 e60:	0004                	.2byte	0x4
 e62:	0501                	add	a0,a0,0
 e64:	0605                	add	a2,a2,1
 e66:	04090103          	lb	sp,64(s2)
 e6a:	0100                	add	s0,sp,128
 e6c:	00090103          	lb	sp,0(s2)
 e70:	0100                	add	s0,sp,128
 e72:	0d05                	add	s10,s10,1
 e74:	0306                	sll	t1,t1,0x1
 e76:	0900                	add	s0,sp,144
 e78:	0000                	unimp
 e7a:	0501                	add	a0,a0,0
 e7c:	06030603          	lb	a2,96(t1)
 e80:	0809                	add	a6,a6,2
 e82:	0100                	add	s0,sp,128
 e84:	00090103          	lb	sp,0(s2)
 e88:	0100                	add	s0,sp,128
 e8a:	0900d803          	lhu	a6,144(ra)
 e8e:	0000                	unimp
 e90:	0501                	add	a0,a0,0
 e92:	0601                	add	a2,a2,0
 e94:	00090103          	lb	sp,0(s2)
 e98:	0100                	add	s0,sp,128
 e9a:	0209                	add	tp,tp,2 # 2 <main-0x9e>
 e9c:	0000                	unimp
 e9e:	0101                	add	sp,sp,0
 ea0:	0000003b          	.4byte	0x3b
 ea4:	0005                	c.nop	1
 ea6:	0004                	.2byte	0x4
 ea8:	00000033          	add	zero,zero,zero
 eac:	0101                	add	sp,sp,0
 eae:	fb01                	bnez	a4,dbe <_ftoa+0x326>
 eb0:	0d0e                	sll	s10,s10,0x3
 eb2:	0100                	add	s0,sp,128
 eb4:	0101                	add	sp,sp,0
 eb6:	0001                	nop
 eb8:	0000                	unimp
 eba:	0001                	nop
 ebc:	0100                	add	s0,sp,128
 ebe:	0101                	add	sp,sp,0
 ec0:	021f 0000 0000      	.byte	0x1f, 0x02, 0x00, 0x00, 0x00, 0x00
 ec6:	00b5                	add	ra,ra,13
 ec8:	0000                	unimp
 eca:	0102                	c.slli64	sp
 ecc:	021f 030f 00ab      	.byte	0x1f, 0x02, 0x0f, 0x03, 0xab, 0x00
 ed2:	0000                	unimp
 ed4:	cb01                	beqz	a4,ee4 <_ftoa+0x44c>
 ed6:	0000                	unimp
 ed8:	0100                	add	s0,sp,128
 eda:	000000ab          	.4byte	0xab
 ede:	01              	Address 0xede is out of bounds.


Disassembly of section .debug_str:

00000000 <.debug_str>:
   0:	5355                	li	t1,-11
   2:	7449                	lui	s0,0xffff2
   4:	7079                	c.lui	zero,0xffffe
   6:	0065                	c.nop	25
   8:	5f5f 6475 7669      	.byte	0x5f, 0x5f, 0x75, 0x64, 0x69, 0x76
   e:	6964                	flw	fs1,84(a0)
  10:	6f630033          	.4byte	0x6f630033
  14:	706d                	c.lui	zero,0xffffb
  16:	656c                	flw	fa1,76(a0)
  18:	2078                	fld	fa4,192(s0)
  1a:	6c66                	flw	fs8,88(sp)
  1c:	0074616f          	jal	sp,46822 <_stack_start+0x42822>
  20:	726f6873          	csrrs	a6,mhpmevent6h,30
  24:	2074                	fld	fa3,192(s0)
  26:	6e69                	lui	t3,0x1a
  28:	0074                	add	a3,sp,12
  2a:	5f5f 3064 5f00      	.byte	0x5f, 0x5f, 0x64, 0x30, 0x00, 0x5f
  30:	645f 0031 5f5f      	.byte	0x5f, 0x64, 0x31, 0x00, 0x5f, 0x5f
  36:	6876                	flw	fa6,92(sp)
  38:	5f00                	lw	s0,56(a4)
  3a:	765f 006c 6f6c      	.byte	0x5f, 0x76, 0x6c, 0x00, 0x6c, 0x6f
  40:	676e                	flw	fa4,216(sp)
  42:	6c20                	flw	fs0,88(s0)
  44:	20676e6f          	jal	t3,7624a <_stack_start+0x7224a>
  48:	6e69                	lui	t3,0x1a
  4a:	0074                	add	a3,sp,12
  4c:	6f6c                	flw	fa1,92(a4)
  4e:	676e                	flw	fa4,216(sp)
  50:	6c20                	flw	fs0,88(s0)
  52:	20676e6f          	jal	t3,76258 <_stack_start+0x72258>
  56:	6e75                	lui	t3,0x1d
  58:	6e676973          	csrrs	s2,0x6e6,14
  5c:	6465                	lui	s0,0x19
  5e:	6920                	flw	fs0,80(a0)
  60:	746e                	flw	fs0,248(sp)
  62:	6800                	flw	fs0,16(s0)
  64:	6769                	lui	a4,0x1a
  66:	0068                	add	a0,sp,12
  68:	5f5f 6c63 5f7a      	.byte	0x5f, 0x5f, 0x63, 0x6c, 0x7a, 0x5f
  6e:	6174                	flw	fa3,68(a0)
  70:	0062                	c.slli	zero,0x18
  72:	6e75                	lui	t3,0x1d
  74:	6e676973          	csrrs	s2,0x6e6,14
  78:	6465                	lui	s0,0x19
  7a:	6320                	flw	fs0,64(a4)
  7c:	6168                	flw	fa0,68(a0)
  7e:	0072                	c.slli	zero,0x1c
  80:	5f5f 3078 5f00      	.byte	0x5f, 0x5f, 0x78, 0x30, 0x00, 0x5f
  86:	785f 0031 5f5f      	.byte	0x5f, 0x78, 0x31, 0x00, 0x5f, 0x5f
  8c:	3278                	fld	fa4,224(a2)
  8e:	5f00                	lw	s0,56(a4)
  90:	785f 0033 5155      	.byte	0x5f, 0x78, 0x33, 0x00, 0x55, 0x51
  96:	7449                	lui	s0,0xffff2
  98:	7079                	c.lui	zero,0xffffe
  9a:	0065                	c.nop	25
  9c:	5744                	lw	s1,44(a4)
  9e:	75727473          	csrrc	s0,mseccfgh,4
  a2:	73007463          	bgeu	zero,a6,7ca <_ntoa_long+0xe>
  a6:	6f68                	flw	fa0,92(a4)
  a8:	7472                	flw	fs0,60(sp)
  aa:	7520                	flw	fs0,104(a0)
  ac:	736e                	flw	ft6,248(sp)
  ae:	6769                	lui	a4,0x1a
  b0:	656e                	flw	fa0,216(sp)
  b2:	2064                	fld	fs1,192(s0)
  b4:	6e69                	lui	t3,0x1a
  b6:	0074                	add	a3,sp,12
  b8:	4455                	li	s0,21
  ba:	7449                	lui	s0,0xffff2
  bc:	7079                	c.lui	zero,0xffffe
  be:	0065                	c.nop	25
  c0:	5f5f 3071 5f00      	.byte	0x5f, 0x5f, 0x71, 0x30, 0x00, 0x5f
  c6:	715f 0031 6f63      	.byte	0x5f, 0x71, 0x31, 0x00, 0x63, 0x6f
  cc:	706d                	c.lui	zero,0xffffb
  ce:	656c                	flw	fa1,76(a0)
  d0:	2078                	fld	fa4,192(s0)
  d2:	6f64                	flw	fs1,92(a4)
  d4:	6275                	lui	tp,0x1d
  d6:	656c                	flw	fa1,76(a0)
  d8:	5f00                	lw	s0,56(a4)
  da:	785f 0072 5f5f      	.byte	0x5f, 0x78, 0x72, 0x00, 0x5f, 0x5f
  e0:	6475                	lui	s0,0x1d
  e2:	7669                	lui	a2,0xffffa
  e4:	6f6d                	lui	t5,0x1b
  e6:	6464                	flw	fs1,76(s0)
  e8:	3469                	jal	fffffb72 <_stack_start+0xffffbb72>
  ea:	6300                	flw	fs0,0(a4)
  ec:	6c706d6f          	jal	s10,6fb2 <_stack_start+0x2fb2>
  f0:	7865                	lui	a6,0xffff9
  f2:	6c20                	flw	fs0,88(s0)
  f4:	20676e6f          	jal	t3,762fa <_stack_start+0x722fa>
  f8:	6f64                	flw	fs1,92(a4)
  fa:	6275                	lui	tp,0x1d
  fc:	656c                	flw	fa1,76(a0)
  fe:	4400                	lw	s0,8(s0)
 100:	696e7557          	.4byte	0x696e7557
 104:	47006e6f          	jal	t3,6574 <_stack_start+0x2574>
 108:	554e                	lw	a0,240(sp)
 10a:	4320                	lw	s0,64(a4)
 10c:	3731                	jal	18 <main-0x88>
 10e:	3120                	fld	fs0,96(a0)
 110:	2e32                	fld	ft8,264(sp)
 112:	2e32                	fld	ft8,264(sp)
 114:	2030                	fld	fa2,64(s0)
 116:	6d2d                	lui	s10,0xb
 118:	646f6d63          	bltu	t5,t1,772 <_ntoa_format+0x2b2>
 11c:	6c65                	lui	s8,0x19
 11e:	6d3d                	lui	s10,0xf
 120:	6465                	lui	s0,0x19
 122:	6f6c                	flw	fa1,92(a4)
 124:	6d2d2077          	.4byte	0x6d2d2077
 128:	646f6d63          	bltu	t5,t1,782 <_ntoa_format+0x2c2>
 12c:	6c65                	lui	s8,0x19
 12e:	6d3d                	lui	s10,0xf
 130:	6465                	lui	s0,0x19
 132:	6f6c                	flw	fa1,92(a4)
 134:	6d2d2077          	.4byte	0x6d2d2077
 138:	7574                	flw	fa3,108(a0)
 13a:	656e                	flw	fa0,216(sp)
 13c:	723d                	lui	tp,0xfffef
 13e:	656b636f          	jal	t1,b6794 <_stack_start+0xb2794>
 142:	2074                	fld	fa3,192(s0)
 144:	6d2d                	lui	s10,0xb
 146:	6261                	lui	tp,0x18
 148:	3d69                	jal	ffffffe2 <_stack_start+0xffffbfe2>
 14a:	6c69                	lui	s8,0x1a
 14c:	3370                	fld	fa2,224(a4)
 14e:	2032                	fld	ft0,264(sp)
 150:	6d2d                	lui	s10,0xb
 152:	7369                	lui	t1,0xffffa
 154:	2d61                	jal	7ec <_ntoa_long+0x30>
 156:	63657073          	csrc	0x636,10
 15a:	323d                	jal	fffffa88 <_stack_start+0xffffba88>
 15c:	3130                	fld	fa2,96(a0)
 15e:	3139                	jal	fffffd6c <_stack_start+0xffffbd6c>
 160:	3132                	fld	ft2,296(sp)
 162:	6d2d2033          	.4byte	0x6d2d2033
 166:	7261                	lui	tp,0xffff8
 168:	723d6863          	bltu	s10,gp,898 <_ntoa_long+0xdc>
 16c:	3376                	fld	ft6,376(sp)
 16e:	6932                	flw	fs2,12(sp)
 170:	616d                	add	sp,sp,240
 172:	6466                	flw	fs0,88(sp)
 174:	697a5f63          	bge	s4,s7,812 <_ntoa_long+0x56>
 178:	5f727363          	bgeu	tp,s7,75e <_ntoa_format+0x29e>
 17c:	697a                	flw	fs2,156(sp)
 17e:	6566                	flw	fa0,88(sp)
 180:	636e                	flw	ft6,216(sp)
 182:	6965                	lui	s2,0x19
 184:	2d20                	fld	fs0,88(a0)
 186:	4f2d2067          	.4byte	0x4f2d2067
 18a:	4f2d2073          	csrs	0x4f2,s10
 18e:	2032                	fld	ft0,264(sp)
 190:	4f2d                	li	t5,11
 192:	662d2073          	csrs	0x662,s10
 196:	7562                	flw	fa0,56(sp)
 198:	6c69                	lui	s8,0x1a
 19a:	6964                	flw	fs1,84(a0)
 19c:	676e                	flw	fa4,216(sp)
 19e:	6c2d                	lui	s8,0xb
 1a0:	6269                	lui	tp,0x1a
 1a2:	20636367          	.4byte	0x20636367
 1a6:	662d                	lui	a2,0xb
 1a8:	6f6e                	flw	ft10,216(sp)
 1aa:	732d                	lui	t1,0xfffeb
 1ac:	6174                	flw	fa3,68(a0)
 1ae:	702d6b63          	bltu	s10,sp,8c4 <_ntoa_long+0x108>
 1b2:	6f72                	flw	ft10,28(sp)
 1b4:	6574                	flw	fa3,76(a0)
 1b6:	726f7463          	bgeu	t5,t1,8de <_ntoa_long+0x122>
 1ba:	2d20                	fld	fs0,88(a0)
 1bc:	6166                	flw	ft2,88(sp)
 1be:	636e7973          	csrrc	s2,0x636,28
 1c2:	7268                	flw	fa0,100(a2)
 1c4:	756f6e6f          	jal	t3,f691a <_stack_start+0xf291a>
 1c8:	6e752d73          	csrrs	s10,0x6e7,a0
 1cc:	646e6977          	.4byte	0x646e6977
 1d0:	742d                	lui	s0,0xfffeb
 1d2:	6261                	lui	tp,0x18
 1d4:	656c                	flw	fa1,76(a0)
 1d6:	662d2073          	csrs	0x662,s10
 1da:	6976                	flw	fs2,92(sp)
 1dc:	69626973          	csrrs	s2,0x696,4
 1e0:	696c                	flw	fa1,84(a0)
 1e2:	7974                	flw	fa3,116(a0)
 1e4:	683d                	lui	a6,0xf
 1e6:	6469                	lui	s0,0x1a
 1e8:	6564                	flw	fs1,76(a0)
 1ea:	006e                	c.slli	zero,0x1b
 1ec:	5f5f 3072 5f00      	.byte	0x5f, 0x5f, 0x72, 0x30, 0x00, 0x5f
 1f2:	725f 0031 5f5f      	.byte	0x5f, 0x72, 0x31, 0x00, 0x5f, 0x5f
 1f8:	6875                	lui	a6,0x1d
 1fa:	5f00                	lw	s0,56(a4)
 1fc:	755f 006c 5f5f      	.byte	0x5f, 0x75, 0x6c, 0x00, 0x5f, 0x5f
 202:	6d75                	lui	s10,0x1d
 204:	6964646f          	jal	s0,4689a <_stack_start+0x4289a>
 208:	4e470033          	.4byte	0x4e470033
 20c:	2055                	jal	2b0 <_is_digit+0xc>
 20e:	20373143          	fmadd.s	ft2,fa4,ft3,ft4,rup
 212:	3231                	jal	fffffb1e <_stack_start+0xffffbb1e>
 214:	322e                	fld	ft4,232(sp)
 216:	302e                	fld	ft0,232(sp)
 218:	2d20                	fld	fs0,88(a0)
 21a:	636d                	lui	t1,0x1b
 21c:	6f6d                	lui	t5,0x1b
 21e:	6564                	flw	fs1,76(a0)
 220:	3d6c                	fld	fa1,248(a0)
 222:	656d                	lui	a0,0x1b
 224:	6c64                	flw	fs1,92(s0)
 226:	2d20776f          	jal	a4,74f8 <_stack_start+0x34f8>
 22a:	636d                	lui	t1,0x1b
 22c:	6f6d                	lui	t5,0x1b
 22e:	6564                	flw	fs1,76(a0)
 230:	3d6c                	fld	fa1,248(a0)
 232:	656d                	lui	a0,0x1b
 234:	6c64                	flw	fs1,92(s0)
 236:	2d20776f          	jal	a4,7508 <_stack_start+0x3508>
 23a:	746d                	lui	s0,0xffffb
 23c:	6e75                	lui	t3,0x1d
 23e:	3d65                	jal	f6 <_out_buffer+0x36>
 240:	6f72                	flw	ft10,28(sp)
 242:	74656b63          	bltu	a0,t1,998 <_ntoa_long_long+0x94>
 246:	2d20                	fld	fs0,88(a0)
 248:	616d                	add	sp,sp,240
 24a:	6962                	flw	fs2,24(sp)
 24c:	693d                	lui	s2,0xf
 24e:	706c                	flw	fa1,100(s0)
 250:	2d203233          	.4byte	0x2d203233
 254:	696d                	lui	s2,0x1b
 256:	732d6173          	csrrs	sp,mhpmevent18h,26
 25a:	6570                	flw	fa2,76(a0)
 25c:	30323d63          	.4byte	0x30323d63
 260:	3931                	jal	fffffe7c <_stack_start+0xffffbe7c>
 262:	3231                	jal	fffffb6e <_stack_start+0xffffbb6e>
 264:	3331                	jal	ffffff70 <_stack_start+0xffffbf70>
 266:	2d20                	fld	fs0,88(a0)
 268:	616d                	add	sp,sp,240
 26a:	6372                	flw	ft6,28(sp)
 26c:	3d68                	fld	fa0,248(a0)
 26e:	7672                	flw	fa2,60(sp)
 270:	6d693233          	.4byte	0x6d693233
 274:	6661                	lui	a2,0x18
 276:	6364                	flw	fs1,68(a4)
 278:	7a5f 6369 7273      	.byte	0x5f, 0x7a, 0x69, 0x63, 0x73, 0x72
 27e:	7a5f 6669 6e65      	.byte	0x5f, 0x7a, 0x69, 0x66, 0x65, 0x6e
 284:	20696563          	bltu	s2,t1,48e <_out_rev+0x10e>
 288:	672d                	lui	a4,0xb
 28a:	2d20                	fld	fs0,88(a0)
 28c:	2d20734f          	.4byte	0x2d20734f
 290:	2d20324f          	.4byte	0x2d20324f
 294:	2d20734f          	.4byte	0x2d20734f
 298:	6266                	flw	ft4,88(sp)
 29a:	6975                	lui	s2,0x1d
 29c:	646c                	flw	fa1,76(s0)
 29e:	6e69                	lui	t3,0x1a
 2a0:	696c2d67          	.4byte	0x696c2d67
 2a4:	6762                	flw	fa4,24(sp)
 2a6:	2d206363          	bltu	zero,s2,56c <_ntoa_format+0xac>
 2aa:	6e66                	flw	ft8,88(sp)
 2ac:	74732d6f          	jal	s10,331f2 <_stack_start+0x2f1f2>
 2b0:	6361                	lui	t1,0x18
 2b2:	72702d6b          	.4byte	0x72702d6b
 2b6:	6365746f          	jal	s0,578ec <_stack_start+0x538ec>
 2ba:	6f74                	flw	fa3,92(a4)
 2bc:	2072                	fld	ft0,280(sp)
 2be:	662d                	lui	a2,0xb
 2c0:	6976                	flw	fs2,92(sp)
 2c2:	69626973          	csrrs	s2,0x696,4
 2c6:	696c                	flw	fa1,84(a0)
 2c8:	7974                	flw	fa3,116(a0)
 2ca:	683d                	lui	a6,0xf
 2cc:	6469                	lui	s0,0x1a
 2ce:	6564                	flw	fs1,76(a0)
 2d0:	006e                	c.slli	zero,0x1b

Disassembly of section .debug_line_str:

00000000 <.debug_line_str>:
   0:	6d6f682f          	.4byte	0x6d6f682f
   4:	2f65                	jal	7bc <_ntoa_long>
   6:	66657473          	csrrc	s0,0x666,10
   a:	6e61                	lui	t3,0x18
   c:	65442f6f          	jal	t5,42660 <_stack_start+0x3e660>
  10:	6f746b73          	csrrs	s6,0x6f7,8
  14:	2f70                	fld	fa2,216(a4)
  16:	6850                	flw	fa2,20(s0)
  18:	2f44                	fld	fs1,152(a4)
  1a:	614c                	flw	fa1,4(a0)
  1c:	6f76                	flw	ft10,92(sp)
  1e:	6972                	flw	fs2,28(sp)
  20:	506e492f          	.4byte	0x506e492f
  24:	6f72                	flw	ft10,28(sp)
  26:	73657267          	.4byte	0x73657267
  2a:	56752f73          	csrrs	t5,0x567,a0
  2e:	7854                	flw	fa3,52(s0)
  30:	706d692f          	.4byte	0x706d692f
  34:	656c                	flw	fa1,76(a0)
  36:	656d                	lui	a0,0x1b
  38:	746e                	flw	fs0,248(sp)
  3a:	7461                	lui	s0,0xffff8
  3c:	6f69                	lui	t5,0x1a
  3e:	2f6e                	fld	ft10,216(sp)
  40:	6c70                	flw	fa2,92(s0)
  42:	7461                	lui	s0,0xffff8
  44:	6f66                	flw	ft10,88(sp)
  46:	6d72                	flw	fs10,28(sp)
  48:	646f632f          	.4byte	0x646f632f
  4c:	2f65                	jal	804 <_ntoa_long+0x48>
  4e:	6972                	flw	fs2,28(sp)
  50:	2d766373          	csrrs	t1,0x2d7,12
  54:	2d756e67          	.4byte	0x2d756e67
  58:	6f74                	flw	fa3,92(a4)
  5a:	68636c6f          	jal	s8,366e0 <_stack_start+0x326e0>
  5e:	6961                	lui	s2,0x18
  60:	2f6e                	fld	ft10,216(sp)
  62:	7562                	flw	fa0,56(sp)
  64:	6c69                	lui	s8,0x1a
  66:	2d64                	fld	fs1,216(a0)
  68:	2d636367          	.4byte	0x2d636367
  6c:	656e                	flw	fa0,216(sp)
  6e:	62696c77          	.4byte	0x62696c77
  72:	732d                	lui	t1,0xfffeb
  74:	6174                	flw	fa3,68(a0)
  76:	2f326567          	.4byte	0x2f326567
  7a:	6972                	flw	fs2,28(sp)
  7c:	33766373          	csrrs	t1,mhpmevent23,12
  80:	2d32                	fld	fs10,264(sp)
  82:	6e75                	lui	t3,0x1d
  84:	776f6e6b          	.4byte	0x776f6e6b
  88:	2d6e                	fld	fs10,216(sp)
  8a:	6c65                	lui	s8,0x19
  8c:	2f66                	fld	ft10,88(sp)
  8e:	696c                	flw	fa1,84(a0)
  90:	6762                	flw	fa4,24(sp)
  92:	2e006363          	bltu	zero,zero,378 <_atoi+0x84>
  96:	2f2e                	fld	ft10,200(sp)
  98:	2e2e                	fld	ft8,200(sp)
  9a:	2f2e2e2f          	.4byte	0x2f2e2e2f
  9e:	2f2e                	fld	ft10,200(sp)
  a0:	2f636367          	.4byte	0x2f636367
  a4:	696c                	flw	fa1,84(a0)
  a6:	6762                	flw	fa4,24(sp)
  a8:	6c2f6363          	bltu	t5,sp,76e <_ntoa_format+0x2ae>
  ac:	6269                	lui	tp,0x1a
  ae:	32636367          	.4byte	0x32636367
  b2:	632e                	flw	ft6,200(sp)
  b4:	2e00                	fld	fs0,24(a2)
  b6:	2f2e                	fld	ft10,200(sp)
  b8:	2e2e                	fld	ft8,200(sp)
  ba:	2f2e2e2f          	.4byte	0x2f2e2e2f
  be:	2f2e                	fld	ft10,200(sp)
  c0:	2f636367          	.4byte	0x2f636367
  c4:	696c                	flw	fa1,84(a0)
  c6:	6762                	flw	fa4,24(sp)
  c8:	6c006363          	bltu	zero,zero,78e <_ntoa_format+0x2ce>
  cc:	6269                	lui	tp,0x1a
  ce:	32636367          	.4byte	0x32636367
  d2:	682e                	flw	fa6,200(sp)
	...
